 PhysX3CommonCHECKED_x64

 Timestamp is 5917815b (Sat May 13 23:57:47 2017)

 Preferred load address is 0000000180000000

 Start         Length     Name                   Class
 0001:00000000 0000f9c0H .text$di                CODE
 0001:0000f9c0 00200ef0H .text$mn                CODE
 0001:002108b0 00001020H .text$mn$00             CODE
 0001:002118d0 000017ceH .text$x                 CODE
 0002:00000000 00000110H .CRT$XCA                DATA
 0002:00000110 00001cc8H .CRT$XCU                DATA
 0002:00001dd8 00000110H .CRT$XCZ                DATA
 0002:00001ee8 00000110H .CRT$XIA                DATA
 0002:00001ff8 00000130H .CRT$XIC                DATA
 0002:00002128 00000110H .CRT$XIZ                DATA
 0002:00002238 00000110H .CRT$XPA                DATA
 0002:00002348 00000120H .CRT$XPX                DATA
 0002:00002468 00000110H .CRT$XPXA               DATA
 0002:00002578 00000110H .CRT$XPZ                DATA
 0002:00002688 00000110H .CRT$XTA                DATA
 0002:00002798 00000118H .CRT$XTZ                DATA
 0002:000028b0 000122b8H .rdata                  DATA
 0002:00014b68 000004ecH .rdata$r                DATA
 0002:00015054 0000018cH .rdata$zzzdbg           DATA
 0002:000151e0 00000110H .rtc$IAA                DATA
 0002:000152f0 00000110H .rtc$IZZ                DATA
 0002:00015400 00000110H .rtc$TAA                DATA
 0002:00015510 00000110H .rtc$TZZ                DATA
 0002:00015620 000162b0H .xdata                  DATA
 0002:0002b8d0 0000c6efH .edata                  DATA
 0003:00000000 00001918H .data                   DATA
 0003:00001918 00000618H .data$r                 DATA
 0003:00001f30 000056e1H .bss                    DATA
 0004:00000000 0000bc88H .pdata                  DATA
 0005:00000000 000003b8H .idata$5                DATA
 0005:000003b8 00000014H .idata$2                DATA
 0005:000003cc 00000014H .idata$3                DATA
 0005:000003e0 000003b8H .idata$4                DATA
 0005:00000798 00000871H .idata$6                DATA
 0006:00000000 00000020H .didat$2                DATA
 0006:00000020 00000020H .didat$3                DATA
 0006:00000040 00000128H .didat$4                DATA
 0006:00000168 00000128H .didat$5                DATA
 0006:00000290 00000590H .didat$6                DATA
 0006:00000820 000001caH .didat$7                DATA
 0007:00000000 00000220H .gfids$x                DATA
 0007:00000220 000001a5H .gfids$y                DATA
 0008:00000000 0000011bH .00cfg                  DATA
 0009:00000000 000001c0H .rsrc$01                DATA
 0009:000001c0 000006a9H .rsrc$02                DATA

  Address         Publics by Value              Rva+Base               Lib:Object

 0000:00000000       __dynamic_value_reloc_table 0000000000000000     <absolute>
 0000:00000000       ___safe_se_handler_count   0000000000000000     <absolute>
 0000:00000000       __guard_fids_table         0000000000000000     <absolute>
 0000:00000000       __guard_iat_count          0000000000000000     <absolute>
 0000:00000000       __guard_iat_table          0000000000000000     <absolute>
 0000:00000000       __guard_longjmp_count      0000000000000000     <absolute>
 0000:00000000       __guard_fids_count         0000000000000000     <absolute>
 0000:00000000       __guard_longjmp_table      0000000000000000     <absolute>
 0000:00000000       ___safe_se_handler_table   0000000000000000     <absolute>
 0000:00000100       __guard_flags              0000000000000100     <absolute>
 0000:00000000       __ImageBase                0000000180000000     <linker-defined>
 0001:0000f9c0       PxSetPhysXCommonDelayLoadHook 00000001800109c0 f   CmWindowsDelayLoadHook.obj
 0001:0000f9d0       ?delayHook@@YAP6A_JXZIPEAUDelayLoadInfo@@@Z 00000001800109d0 f   CmWindowsDelayLoadHook.obj
 0001:0000fa30       ?foundationDliNotePreLoadLibrary@shdfnd@physx@@YAP6A_JXZPEBDPEBVPxFoundationDelayLoadHook@2@@Z 0000000180010a30 f i CmWindowsDelayLoadHook.obj
 0001:0000fb50       ?physXCommonDliNotePreLoadLibrary@Cm@physx@@YAP6A_JXZPEBDPEBVPxDelayLoadHook@2@@Z 0000000180010b50 f i CmWindowsDelayLoadHook.obj
 0001:0000fd90       ??0CmModuleUpdateLoader@Cm@physx@@QEAA@PEBD@Z 0000000180010d90 f   CmWindowsModuleUpdateLoader.obj
 0001:0000fde0       ??1CmModuleUpdateLoader@Cm@physx@@QEAA@XZ 0000000180010de0 f   CmWindowsModuleUpdateLoader.obj
 0001:0000fe10       ?LoadModule@CmModuleUpdateLoader@Cm@physx@@QEAAPEAUHINSTANCE__@@PEBD0@Z 0000000180010e10 f   CmWindowsModuleUpdateLoader.obj
 0001:0000fe60       ??0Allocator@shdfnd@physx@@QEAA@PEBD@Z 0000000180010e60 f i CmWindowsModuleUpdateLoader.obj
 0001:0000fe70       ??0PxFoundation@physx@@QEAA@AEBV01@@Z 0000000180010e70 f i CmWindowsModuleUpdateLoader.obj
 0001:0000fe90       ??0PxFoundation@physx@@QEAA@XZ 0000000180010e90 f i CmWindowsModuleUpdateLoader.obj
 0001:0000feb0       ??1PxFoundation@physx@@MEAA@XZ 0000000180010eb0 f i CmWindowsModuleUpdateLoader.obj
 0001:0000fec0       ??4Allocator@shdfnd@physx@@QEAAAEAV012@$$QEAV012@@Z 0000000180010ec0 f i CmWindowsModuleUpdateLoader.obj
 0001:0000fed0       ??4Allocator@shdfnd@physx@@QEAAAEAV012@AEBV012@@Z 0000000180010ed0 f i CmWindowsModuleUpdateLoader.obj
 0001:0000fee0       ??4CmModuleUpdateLoader@Cm@physx@@QEAAAEAV012@AEBV012@@Z 0000000180010ee0 f i CmWindowsModuleUpdateLoader.obj
 0001:0000fef0       ??4MutexImpl@shdfnd@physx@@QEAAAEAV012@AEBV012@@Z 0000000180010ef0 f i CmWindowsModuleUpdateLoader.obj
 0001:0000ff00       ??4PxFoundation@physx@@QEAAAEAV01@AEBV01@@Z 0000000180010f00 f i CmWindowsModuleUpdateLoader.obj
 0001:0000ff10       ??_EPxFoundation@physx@@MEAAPEAXI@Z 0000000180010f10 f i CmWindowsModuleUpdateLoader.obj
 0001:0000ffc0       ??_FAllocator@shdfnd@physx@@QEAAXXZ 0000000180010fc0 f i CmWindowsModuleUpdateLoader.obj
 0001:0000ffd0       ??_FNamedAllocator@shdfnd@physx@@QEAAXXZ 0000000180010fd0 f i CmWindowsModuleUpdateLoader.obj
 0001:0000ffe0       ??_GPxFoundation@physx@@MEAAPEAXI@Z 0000000180010fe0 f i CmWindowsModuleUpdateLoader.obj
 0001:00010020       ??_I@YAXPEAX_K1P6AX0@Z@Z   0000000180011020 f i CmWindowsModuleUpdateLoader.obj
 0001:00010090       ?__empty_global_delete@@YAXPEAX@Z 0000000180011090 f i CmWindowsModuleUpdateLoader.obj
 0001:000100a0       ?__empty_global_delete@@YAXPEAX_K@Z 00000001800110a0 f i CmWindowsModuleUpdateLoader.obj
 0001:000100b0       ?getAllocator@Foundation@shdfnd@physx@@QEAAAEAVPxAllocatorCallback@3@XZ 00000001800110b0 f i CmWindowsModuleUpdateLoader.obj
 0001:000100c0       ?getAllocatorCallback@Foundation@shdfnd@physx@@UEAAAEAVPxAllocatorCallback@3@XZ 00000001800110c0 f i CmWindowsModuleUpdateLoader.obj
 0001:000100d0       ?getErrorCallback@Foundation@shdfnd@physx@@UEAAAEAVPxErrorCallback@3@XZ 00000001800110d0 f i CmWindowsModuleUpdateLoader.obj
 0001:000100e0       ?getErrorLevel@Foundation@shdfnd@physx@@UEBA?AW4Enum@PxErrorCode@3@XZ 00000001800110e0 f i CmWindowsModuleUpdateLoader.obj
 0001:000100f0       ?getInternalErrorCallback@Foundation@shdfnd@physx@@QEAAAEAVPxErrorCallback@3@XZ 00000001800110f0 f i CmWindowsModuleUpdateLoader.obj
 0001:00010100       ?getNamedAllocMap@Foundation@shdfnd@physx@@QEAAAEAV?$HashMap@PEBVNamedAllocator@shdfnd@physx@@PEBDU?$Hash@PEBVNamedAllocator@shdfnd@physx@@@23@VNonTrackingAllocator@23@@23@XZ 0000000180011100 f i CmWindowsModuleUpdateLoader.obj
 0001:00010110       ?getNamedAllocMutex@Foundation@shdfnd@physx@@QEAAAEAV?$MutexT@VAllocator@shdfnd@physx@@@23@XZ 0000000180011110 f i CmWindowsModuleUpdateLoader.obj
 0001:00010120       ?getReportAllocationNames@Foundation@shdfnd@physx@@UEBA_NXZ 0000000180011120 f i CmWindowsModuleUpdateLoader.obj
 0001:00010130       ?getTempAllocFreeTable@Foundation@shdfnd@physx@@QEAAAEAV?$Array@PEATTempAllocatorChunk@shdfnd@physx@@VAllocator@23@@23@XZ 0000000180011130 f i CmWindowsModuleUpdateLoader.obj
 0001:00010140       ?getTempAllocMutex@Foundation@shdfnd@physx@@QEAAAEAV?$MutexT@VAllocator@shdfnd@physx@@@23@XZ 0000000180011140 f i CmWindowsModuleUpdateLoader.obj
 0001:00010150       ?setErrorLevel@Foundation@shdfnd@physx@@UEAAXW4Enum@PxErrorCode@3@@Z 0000000180011150 f i CmWindowsModuleUpdateLoader.obj
 0001:00010160       ?setReportAllocationNames@Foundation@shdfnd@physx@@UEAAX_N@Z 0000000180011160 f i CmWindowsModuleUpdateLoader.obj
 0001:00010170       ?CompleteBoxPruning@Cm@physx@@YA_NPEBVPxBounds3@2@IAEAV?$Array@IVNamedAllocator@shdfnd@physx@@@shdfnd@2@AEBVAxes@Gu@2@@Z 0000000180011170 f   CmBoxPruning.obj
 0001:00010480       ?BipartiteBoxPruning@Cm@physx@@YA_NPEBVPxBounds3@2@I0IAEAV?$Array@IVNamedAllocator@shdfnd@physx@@@shdfnd@2@AEBVAxes@Gu@2@@Z 0000000180011480 f   CmBoxPruning.obj
 0001:00010ce0       ?GetNbHits@RadixSort@Cm@physx@@QEBAIXZ 0000000180011ce0 f i CmBoxPruning.obj
 0001:00010cf0       ?GetNbTotalCalls@RadixSort@Cm@physx@@QEBAIXZ 0000000180011cf0 f i CmBoxPruning.obj
 0001:00010d00       ?GetRanks@RadixSort@Cm@physx@@QEBAPEBIXZ 0000000180011d00 f i CmBoxPruning.obj
 0001:00010d10       ?GetRecyclable@RadixSort@Cm@physx@@QEBAPEAIXZ 0000000180011d10 f i CmBoxPruning.obj
 0001:00010d20       ?growAndPushBack@?$Array@IVNamedAllocator@shdfnd@physx@@@shdfnd@physx@@IEAAAEAIAEBI@Z 0000000180011d20 f i CmBoxPruning.obj
 0001:00010e30       ?PxCreateCollection@@YAPEAVPxCollection@physx@@XZ 0000000180011e30 f   CmCollection.obj
 0001:00010eb0       ?add@Collection@Cm@physx@@UEAAXAEAVPxBase@3@_K@Z 0000000180011eb0 f   CmCollection.obj
 0001:00010fb0       ?remove@Collection@Cm@physx@@UEAAXAEAVPxBase@3@@Z 0000000180011fb0 f   CmCollection.obj
 0001:00011100       ?contains@Collection@Cm@physx@@UEBA_NAEAVPxBase@3@@Z 0000000180012100 f   CmCollection.obj
 0001:000111c0       ?addId@Collection@Cm@physx@@UEAAXAEAVPxBase@3@_K@Z 00000001800121c0 f   CmCollection.obj
 0001:000113b0       ?removeId@Collection@Cm@physx@@UEAAX_K@Z 00000001800123b0 f   CmCollection.obj
 0001:000114a0       ?find@Collection@Cm@physx@@UEBAPEAVPxBase@3@_K@Z 00000001800124a0 f   CmCollection.obj
 0001:00011510       ?add@Collection@Cm@physx@@UEAAXAEAVPxCollection@3@@Z 0000000180012510 f   CmCollection.obj
 0001:00011750       ?remove@Collection@Cm@physx@@UEAAXAEAVPxCollection@3@@Z 0000000180012750 f   CmCollection.obj
 0001:00011820       ?getNbObjects@Collection@Cm@physx@@UEBAIXZ 0000000180012820 f   CmCollection.obj
 0001:00011830       ?getObject@Collection@Cm@physx@@UEBAAEAVPxBase@3@I@Z 0000000180012830 f   CmCollection.obj
 0001:00011850       ?getObjects@Collection@Cm@physx@@UEBAIPEAPEAVPxBase@3@II@Z 0000000180012850 f   CmCollection.obj
 0001:000118f0       ?getNbIds@Collection@Cm@physx@@UEBAIXZ 00000001800128f0 f   CmCollection.obj
 0001:00011900       ?getId@Collection@Cm@physx@@UEBA_KAEBVPxBase@3@@Z 0000000180012900 f   CmCollection.obj
 0001:000119c0       ?getIds@Collection@Cm@physx@@UEBAIPEA_KII@Z 00000001800129c0 f   CmCollection.obj
 0001:00011e00       ??0Collection@Cm@physx@@QEAA@XZ 0000000180012e00 f i CmCollection.obj
 0001:00011eb0       ??1PxCollection@physx@@MEAA@XZ 0000000180012eb0 f i CmCollection.obj
 0001:00011ec0       ??_ECollection@Cm@physx@@UEAAPEAXI@Z 0000000180012ec0 f i CmCollection.obj
 0001:00011ec0       ??_GCollection@Cm@physx@@UEAAPEAXI@Z 0000000180012ec0 f i CmCollection.obj
 0001:00011f90       ??_EPxCollection@physx@@MEAAPEAXI@Z 0000000180012f90 f i CmCollection.obj
 0001:00011f90       ??_GPxCollection@physx@@MEAAPEAXI@Z 0000000180012f90 f i CmCollection.obj
 0001:00011fd0       ?create@?$HashBase@V?$Pair@$$CB_KPEAVPxBase@physx@@@shdfnd@physx@@_KU?$Hash@_K@23@UGetKey@?$HashMapBase@_KPEAVPxBase@physx@@U?$Hash@_K@shdfnd@2@VNonTrackingAllocator@42@@internal@23@VNonTrackingAllocator@23@$00@internal@shdfnd@physx@@QEAAPEAV?$Pair@$$CB_KPEAVPxBase@physx@@@34@AEB_KAEA_N@Z 0000000180012fd0 f i CmCollection.obj
 0001:000121d0       ?create@?$HashBase@V?$Pair@QEAVPxBase@physx@@_K@shdfnd@physx@@PEAVPxBase@3@U?$Hash@PEAVPxBase@physx@@@23@UGetKey@?$HashMapBase@PEAVPxBase@physx@@_KU?$Hash@PEAVPxBase@physx@@@shdfnd@2@VNonTrackingAllocator@42@@internal@23@VNonTrackingAllocator@23@$00@internal@shdfnd@physx@@QEAAPEAV?$Pair@QEAVPxBase@physx@@_K@34@AEBQEAVPxBase@4@AEA_N@Z 00000001800131d0 f i CmCollection.obj
 0001:000123d0       ?erase@?$HashBase@V?$Pair@$$CB_KPEAVPxBase@physx@@@shdfnd@physx@@_KU?$Hash@_K@23@UGetKey@?$HashMapBase@_KPEAVPxBase@physx@@U?$Hash@_K@shdfnd@2@VNonTrackingAllocator@42@@internal@23@VNonTrackingAllocator@23@$00@internal@shdfnd@physx@@QEAA_NAEB_K@Z 00000001800133d0 f i CmCollection.obj
 0001:000124f0       ?erase@?$HashBase@V?$Pair@QEAVPxBase@physx@@_K@shdfnd@physx@@PEAVPxBase@3@U?$Hash@PEAVPxBase@physx@@@23@UGetKey@?$HashMapBase@PEAVPxBase@physx@@_KU?$Hash@PEAVPxBase@physx@@@shdfnd@2@VNonTrackingAllocator@42@@internal@23@VNonTrackingAllocator@23@$00@internal@shdfnd@physx@@QEAA_NAEBQEAVPxBase@4@@Z 00000001800134f0 f i CmCollection.obj
 0001:00012610       ?find@?$HashBase@V?$Pair@$$CB_KPEAVPxBase@physx@@@shdfnd@physx@@_KU?$Hash@_K@23@UGetKey@?$HashMapBase@_KPEAVPxBase@physx@@U?$Hash@_K@shdfnd@2@VNonTrackingAllocator@42@@internal@23@VNonTrackingAllocator@23@$00@internal@shdfnd@physx@@QEBAPEBV?$Pair@$$CB_KPEAVPxBase@physx@@@34@AEB_K@Z 0000000180013610 f i CmCollection.obj
 0001:000126f0       ?find@?$HashBase@V?$Pair@QEAVPxBase@physx@@_K@shdfnd@physx@@PEAVPxBase@3@U?$Hash@PEAVPxBase@physx@@@23@UGetKey@?$HashMapBase@PEAVPxBase@physx@@_KU?$Hash@PEAVPxBase@physx@@@shdfnd@2@VNonTrackingAllocator@42@@internal@23@VNonTrackingAllocator@23@$00@internal@shdfnd@physx@@QEBAPEBV?$Pair@QEAVPxBase@physx@@_K@34@AEBQEAVPxBase@4@@Z 00000001800136f0 f i CmCollection.obj
 0001:000127d0       ?insert@?$HashMapBase@_KPEAVPxBase@physx@@U?$Hash@_K@shdfnd@2@VNonTrackingAllocator@42@@internal@shdfnd@physx@@QEAA_N_KQEAVPxBase@4@@Z 00000001800137d0 f i CmCollection.obj
 0001:00012830       ?release@Collection@Cm@physx@@UEAAXXZ 0000000180013830 f i CmCollection.obj
 0001:00012850       ?replaceWithLast@?$HashBase@V?$Pair@$$CB_KPEAVPxBase@physx@@@shdfnd@physx@@_KU?$Hash@_K@23@UGetKey@?$HashMapBase@_KPEAVPxBase@physx@@U?$Hash@_K@shdfnd@2@VNonTrackingAllocator@42@@internal@23@VNonTrackingAllocator@23@$00@internal@shdfnd@physx@@AEAAXI@Z 0000000180013850 f i CmCollection.obj
 0001:00012980       ?replaceWithLast@?$HashBase@V?$Pair@QEAVPxBase@physx@@_K@shdfnd@physx@@PEAVPxBase@3@U?$Hash@PEAVPxBase@physx@@@23@UGetKey@?$HashMapBase@PEAVPxBase@physx@@_KU?$Hash@PEAVPxBase@physx@@@shdfnd@2@VNonTrackingAllocator@42@@internal@23@VNonTrackingAllocator@23@$00@internal@shdfnd@physx@@AEAAXI@Z 0000000180013980 f i CmCollection.obj
 0001:00012ab0       ?reserveInternal@?$HashBase@V?$Pair@$$CB_KPEAVPxBase@physx@@@shdfnd@physx@@_KU?$Hash@_K@23@UGetKey@?$HashMapBase@_KPEAVPxBase@physx@@U?$Hash@_K@shdfnd@2@VNonTrackingAllocator@42@@internal@23@VNonTrackingAllocator@23@$00@internal@shdfnd@physx@@AEAAXI@Z 0000000180013ab0 f i CmCollection.obj
 0001:00012d20       ?reserveInternal@?$HashBase@V?$Pair@QEAVPxBase@physx@@_K@shdfnd@physx@@PEAVPxBase@3@U?$Hash@PEAVPxBase@physx@@@23@UGetKey@?$HashMapBase@PEAVPxBase@physx@@_KU?$Hash@PEAVPxBase@physx@@@shdfnd@2@VNonTrackingAllocator@42@@internal@23@VNonTrackingAllocator@23@$00@internal@shdfnd@physx@@AEAAXI@Z 0000000180013d20 f i CmCollection.obj
 0001:00012f90       ?PxTransformFromPlaneEquation@physx@@YA?AVPxTransform@1@AEBVPxPlane@1@@Z 0000000180013f90 f   CmMathUtils.obj
 0001:00013150       ?PxTransformFromSegment@physx@@YA?AVPxTransform@1@AEBVPxVec3@1@0PEAM@Z 0000000180014150 f   CmMathUtils.obj
 0001:00013380       ??0PtrTable@Cm@physx@@QEAA@XZ 0000000180014380 f   CmPtrTable.obj
 0001:000133a0       ??1PtrTable@Cm@physx@@QEAA@XZ 00000001800143a0 f   CmPtrTable.obj
 0001:000133b0       ?add@PtrTable@Cm@physx@@QEAAXPEAXAEAVPtrTableStorageManager@23@@Z 00000001800143b0 f   CmPtrTable.obj
 0001:00013490       ?replaceWithLast@PtrTable@Cm@physx@@QEAAXIAEAVPtrTableStorageManager@23@@Z 0000000180014490 f   CmPtrTable.obj
 0001:00013590       ?clear@PtrTable@Cm@physx@@QEAAXAEAVPtrTableStorageManager@23@@Z 0000000180014590 f   CmPtrTable.obj
 0001:00013610       ?find@PtrTable@Cm@physx@@QEBAIPEBX@Z 0000000180014610 f   CmPtrTable.obj
 0001:00013640       ?exportExtraData@PtrTable@Cm@physx@@QEAAXAEAVPxSerializationContext@3@@Z 0000000180014640 f   CmPtrTable.obj
 0001:00013690       ?importExtraData@PtrTable@Cm@physx@@QEAAXAEAVPxDeserializationContext@3@@Z 0000000180014690 f   CmPtrTable.obj
 0001:000136c0       ?getBinaryMetaData@PtrTable@Cm@physx@@SAXAEAVPxOutputStream@3@@Z 00000001800146c0 f   CmPtrTable.obj
 0001:00013880       ?realloc@PtrTable@Cm@physx@@AEAAXIIAEAVPtrTableStorageManager@23@@Z 0000000180014880 f   CmPtrTable.obj
 0001:00013a80       ??0PtrTable@Cm@physx@@QEAA@W4PxEMPTY@2@@Z 0000000180014a80 f i CmPtrTable.obj
 0001:00013ab0       ??4PtrTable@Cm@physx@@QEAAAEAU012@AEBU012@@Z 0000000180014ab0 f i CmPtrTable.obj
 0001:00013ac0       ?getCount@PtrTable@Cm@physx@@QEBAIXZ 0000000180014ac0 f i CmPtrTable.obj
 0001:00013ad0       ?getPtrs@PtrTable@Cm@physx@@QEAAPEAPEAXXZ 0000000180014ad0 f i CmPtrTable.obj
 0001:00013af0       ?getPtrs@PtrTable@Cm@physx@@QEBAPEBQEAXXZ 0000000180014af0 f i CmPtrTable.obj
 0001:00013b10       ??0RadixSort@Cm@physx@@QEAA@XZ 0000000180014b10 f   CmRadixSort.obj
 0001:00013b50       ??1RadixSort@Cm@physx@@UEAA@XZ 0000000180014b50 f   CmRadixSort.obj
 0001:00013b70       ?Sort@RadixSort@Cm@physx@@QEAAAEAV123@PEBIIW4RadixHint@23@@Z 0000000180014b70 f   CmRadixSort.obj
 0001:00014190       ?Sort@RadixSort@Cm@physx@@QEAAAEAV123@PEBMI@Z 0000000180015190 f   CmRadixSort.obj
 0001:00014850       ?SetBuffers@RadixSort@Cm@physx@@QEAA_NPEAI00PEAPEAI@Z 0000000180015850 f   CmRadixSort.obj
 0001:00014bf0       ??_ERadixSort@Cm@physx@@UEAAPEAXI@Z 0000000180015bf0 f i CmRadixSort.obj
 0001:00014ca0       ??_GRadixSort@Cm@physx@@UEAAPEAXI@Z 0000000180015ca0 f i CmRadixSort.obj
 0001:00014ce0       ??0RadixSortBuffered@Cm@physx@@QEAA@XZ 0000000180015ce0 f   CmRadixSortBuffered.obj
 0001:00014d10       ??1RadixSortBuffered@Cm@physx@@UEAA@XZ 0000000180015d10 f   CmRadixSortBuffered.obj
 0001:00014d90       ?Sort@RadixSortBuffered@Cm@physx@@QEAAAEAV123@PEBIIW4RadixHint@23@@Z 0000000180015d90 f   CmRadixSortBuffered.obj
 0001:00014e30       ?Sort@RadixSortBuffered@Cm@physx@@QEAAAEAV123@PEBMI@Z 0000000180015e30 f   CmRadixSortBuffered.obj
 0001:00014ec0       ?Resize@RadixSortBuffered@Cm@physx@@AEAA_NI@Z 0000000180015ec0 f   CmRadixSortBuffered.obj
 0001:00015060       ??_ERadixSortBuffered@Cm@physx@@UEAAPEAXI@Z 0000000180016060 f i CmRadixSortBuffered.obj
 0001:000151b0       ??_GRadixSortBuffered@Cm@physx@@UEAAPEAXI@Z 00000001800161b0 f i CmRadixSortBuffered.obj
 0001:00015200       ?CheckResize@RadixSortBuffered@Cm@physx@@AEAAXI@Z 0000000180016200 f i CmRadixSortBuffered.obj
 0001:00015250       ??6RenderOutput@Cm@physx@@QEAAAEAV012@W4Primitive@012@@Z 0000000180016250 f   CmRenderOutput.obj
 0001:00015270       ??6RenderOutput@Cm@physx@@QEAAAEAV012@I@Z 0000000180016270 f   CmRenderOutput.obj
 0001:00015280       ??6RenderOutput@Cm@physx@@QEAAAEAV012@AEBVPxMat44@2@@Z 0000000180016280 f   CmRenderOutput.obj
 0001:000152f0       ??6RenderOutput@Cm@physx@@QEAAAEAV012@AEBVPxTransform@2@@Z 00000001800162f0 f   CmRenderOutput.obj
 0001:00015380       ??6RenderOutput@Cm@physx@@QEAAAEAV012@VPxVec3@2@@Z 0000000180016380 f   CmRenderOutput.obj
 0001:00015850       ??6RenderOutput@Cm@physx@@QEAAAEAV012@AEBUDebugText@12@@Z 0000000180016850 f   CmRenderOutput.obj
 0001:00015a20       ?outputCapsule@RenderOutput@Cm@physx@@QEAAAEAV123@MMAEBVPxMat44@3@@Z 0000000180016a20 f   CmRenderOutput.obj
 0001:000165b0       ??0DebugText@Cm@physx@@QEAA@AEBVPxVec3@2@MPEBDZZ 00000001800175b0 f   CmRenderOutput.obj
 0001:00016610       ??6Cm@physx@@YAAEAVRenderOutput@01@AEAV201@AEBUDebugBox@01@@Z 0000000180017610 f   CmRenderOutput.obj
 0001:00016b10       ??6Cm@physx@@YAAEAVRenderOutput@01@AEAV201@AEBUDebugArrow@01@@Z 0000000180017b10 f   CmRenderOutput.obj
 0001:00016f00       ??6Cm@physx@@YAAEAVRenderOutput@01@AEAV201@AEBUDebugBasis@01@@Z 0000000180017f00 f   CmRenderOutput.obj
 0001:00017000       ??6Cm@physx@@YAAEAVRenderOutput@01@AEAV201@AEBUDebugCircle@01@@Z 0000000180018000 f   CmRenderOutput.obj
 0001:000170f0       ??6Cm@physx@@YAAEAVRenderOutput@01@AEAV201@AEBUDebugArc@01@@Z 00000001800180f0 f   CmRenderOutput.obj
 0001:000179e0       ??$__vcrt_va_start_verify_argument_type@PEBD@@YAXXZ 00000001800189e0 f i CmRenderOutput.obj
 0001:000179f0       ??0DebugText@Cm@physx@@QEAA@$$QEAU012@@Z 00000001800189f0 f i CmRenderOutput.obj
 0001:00017b10       ??0DebugText@Cm@physx@@QEAA@AEBU012@@Z 0000000180018b10 f i CmRenderOutput.obj
 0001:00017c30       ??0PxMat44@physx@@QEAA@AEBVPxTransform@1@@Z 0000000180018c30 f i CmRenderOutput.obj
 0001:00017e40       ??0RenderOutput@Cm@physx@@QEAA@AEAVRenderBuffer@12@@Z 0000000180018e40 f i CmRenderOutput.obj
 0001:00017eb0       ??0RenderOutput@Cm@physx@@QEAA@AEBV012@@Z 0000000180018eb0 f i CmRenderOutput.obj
 0001:00017f80       ??4DebugText@Cm@physx@@QEAAAEAU012@$$QEAU012@@Z 0000000180018f80 f i CmRenderOutput.obj
 0001:00018010       ??4DebugText@Cm@physx@@QEAAAEAU012@AEBU012@@Z 0000000180019010 f i CmRenderOutput.obj
 0001:000180a0       ?copy@?$Array@UPxDebugLine@physx@@VNamedAllocator@shdfnd@2@@shdfnd@physx@@KAXPEAUPxDebugLine@3@0PEBU43@@Z 00000001800190a0 f i CmRenderOutput.obj
 0001:000182b0       ?copy@?$Array@UPxDebugPoint@physx@@VNamedAllocator@shdfnd@2@@shdfnd@physx@@KAXPEAUPxDebugPoint@3@0PEBU43@@Z 00000001800192b0 f i CmRenderOutput.obj
 0001:00018420       ?copy@?$Array@UPxDebugText@physx@@VNamedAllocator@shdfnd@2@@shdfnd@physx@@KAXPEAUPxDebugText@3@0PEBU43@@Z 0000000180019420 f i CmRenderOutput.obj
 0001:000185f0       ?copy@?$Array@UPxDebugTriangle@physx@@VNamedAllocator@shdfnd@2@@shdfnd@physx@@KAXPEAUPxDebugTriangle@3@0PEBU43@@Z 00000001800195f0 f i CmRenderOutput.obj
 0001:000188c0       ?growAndPushBack@?$Array@DVNamedAllocator@shdfnd@physx@@@shdfnd@physx@@IEAAAEADAEBD@Z 00000001800198c0 f i CmRenderOutput.obj
 0001:000189d0       ?growAndPushBack@?$Array@UPxDebugLine@physx@@VNamedAllocator@shdfnd@2@@shdfnd@physx@@IEAAAEAUPxDebugLine@3@AEBU43@@Z 00000001800199d0 f i CmRenderOutput.obj
 0001:00018b10       ?growAndPushBack@?$Array@UPxDebugPoint@physx@@VNamedAllocator@shdfnd@2@@shdfnd@physx@@IEAAAEAUPxDebugPoint@3@AEBU43@@Z 0000000180019b10 f i CmRenderOutput.obj
 0001:00018c30       ?growAndPushBack@?$Array@UPxDebugText@physx@@VNamedAllocator@shdfnd@2@@shdfnd@physx@@IEAAAEAUPxDebugText@3@AEBU43@@Z 0000000180019c30 f i CmRenderOutput.obj
 0001:00018d60       ?growAndPushBack@?$Array@UPxDebugTriangle@physx@@VNamedAllocator@shdfnd@2@@shdfnd@physx@@IEAAAEAUPxDebugTriangle@3@AEBU43@@Z 0000000180019d60 f i CmRenderOutput.obj
 0001:00018ed0       ?outputSegment@RenderOutput@Cm@physx@@QEAAXAEBVPxVec3@3@0@Z 0000000180019ed0 f i CmRenderOutput.obj
 0001:00018fc0       ?recreate@?$Array@DVNamedAllocator@shdfnd@physx@@@shdfnd@physx@@IEAAXI@Z 0000000180019fc0 f i CmRenderOutput.obj
 0001:00019090       ?recreate@?$Array@UPxDebugLine@physx@@VNamedAllocator@shdfnd@2@@shdfnd@physx@@IEAAXI@Z 000000018001a090 f i CmRenderOutput.obj
 0001:00019150       ?reserveSegments@RenderOutput@Cm@physx@@QEAAPEAUPxDebugLine@3@I@Z 000000018001a150 f i CmRenderOutput.obj
 0001:000191c0       ?transform@PxMat44@physx@@QEBA?BVPxVec4@2@AEBV32@@Z 000000018001a1c0 f i CmRenderOutput.obj
 0001:00019380       ?visualizeJointFrames@Cm@physx@@YAXAEAVRenderOutput@12@MAEBVPxTransform@2@1@Z 000000018001a380 f   CmVisualization.obj
 0001:00019450       ?visualizeLinearLimit@Cm@physx@@YAXAEAVRenderOutput@12@MAEBVPxTransform@2@1M_N@Z 000000018001a450 f   CmVisualization.obj
 0001:000196a0       ?visualizeAngularLimit@Cm@physx@@YAXAEAVRenderOutput@12@MAEBVPxTransform@2@MM_N@Z 000000018001a6a0 f   CmVisualization.obj
 0001:00019890       ?visualizeLimitCone@Cm@physx@@YAXAEAVRenderOutput@12@MAEBVPxTransform@2@MM_N@Z 000000018001a890 f   CmVisualization.obj
 0001:00019bb0       ?visualizeDoubleCone@Cm@physx@@YAXAEAVRenderOutput@12@MAEBVPxTransform@2@M_N@Z 000000018001abb0 f   CmVisualization.obj
 0001:0001a0c0       ??DPxQuat@physx@@QEBA?AV01@AEBV01@@Z 000000018001b0c0 f i CmVisualization.obj
 0001:0001a240       ?contactBoxBox@Gu@physx@@YA_NAEBVGeometryUnion@12@0AEBVPxTransform@2@1AEBUNarrowPhaseParams@12@AEAUCache@12@AEAVContactBuffer@12@PEAVRenderOutput@Cm@2@@Z 000000018001b240 f   GuContactBoxBox.obj
 0001:0001a5f0       ??0Box@Gu@physx@@QEAA@AEBV012@@Z 000000018001b5f0 f i GuContactBoxBox.obj
 0001:0001a670       ??0Box@Gu@physx@@QEAA@AEBVPxVec3@2@0AEBVPxMat33@2@@Z 000000018001b670 f i GuContactBoxBox.obj
 0001:0001a6f0       ??0Box@Gu@physx@@QEAA@XZ   000000018001b6f0 f i GuContactBoxBox.obj
 0001:0001a700       ??0GeometryUnion@Gu@physx@@QEAA@AEBVPxGeometry@2@@Z 000000018001b700 f i GuContactBoxBox.obj
 0001:0001a720       ??0GeometryUnion@Gu@physx@@QEAA@W4PxEMPTY@2@@Z 000000018001b720 f i GuContactBoxBox.obj
 0001:0001a730       ??0GeometryUnion@Gu@physx@@QEAA@XZ 000000018001b730 f i GuContactBoxBox.obj
 0001:0001a740       ??0MaterialIndicesStruct@physx@@QEAA@W4PxEMPTY@1@@Z 000000018001b740 f i GuContactBoxBox.obj
 0001:0001a750       ??0MaterialIndicesStruct@physx@@QEAA@XZ 000000018001b750 f i GuContactBoxBox.obj
 0001:0001a760       ??0PxQuat@physx@@QEAA@AEBVPxMat33@1@@Z 000000018001b760 f i GuContactBoxBox.obj
 0001:0001a9e0       ??0PxVec3@physx@@QEAA@XZ   000000018001b9e0 f i GuContactBoxBox.obj
 0001:0001a9f0       ??0VertexInfo@@QEAA@XZ     000000018001b9f0 f i GuContactBoxBox.obj
 0001:0001aa00       ??1Box@Gu@physx@@QEAA@XZ   000000018001ba00 f i GuContactBoxBox.obj
 0001:0001aa10       ??1MaterialIndicesStruct@physx@@QEAA@XZ 000000018001ba10 f i GuContactBoxBox.obj
 0001:0001aa20       ??1PxBase@physx@@MEAA@XZ   000000018001ba20 f i GuContactBoxBox.obj
 0001:0001aa30       ??1PxConvexMesh@physx@@MEAA@XZ 000000018001ba30 f i GuContactBoxBox.obj
 0001:0001aa40       ??4Box@Gu@physx@@QEAAAEBV012@AEBV012@@Z 000000018001ba40 f i GuContactBoxBox.obj
 0001:0001aac0       ??4GeometryUnion@Gu@physx@@QEAAAEAV012@$$QEAV012@@Z 000000018001bac0 f i GuContactBoxBox.obj
 0001:0001ab00       ??4GeometryUnion@Gu@physx@@QEAAAEAV012@AEBV012@@Z 000000018001bb00 f i GuContactBoxBox.obj
 0001:0001ab40       ??4MaterialIndicesStruct@physx@@QEAAAEAU01@AEBU01@@Z 000000018001bb40 f i GuContactBoxBox.obj
 0001:0001ab50       ??_GPxBase@physx@@MEAAPEAXI@Z 000000018001bb50 f i GuContactBoxBox.obj
 0001:0001ab50       ??_EPxBase@physx@@MEAAPEAXI@Z 000000018001bb50 f i GuContactBoxBox.obj
 0001:0001ab90       ??_H@YAXPEAX_K1P6APEAX0@Z@Z 000000018001bb90 f i GuContactBoxBox.obj
 0001:0001abf0       ?allocate@MaterialIndicesStruct@physx@@QEAAXG@Z 000000018001bbf0 f i GuContactBoxBox.obj
 0001:0001ac70       ?computeAABBExtent@Box@Gu@physx@@QEBA?AVPxVec3@3@XZ 000000018001bc70 f i GuContactBoxBox.obj
 0001:0001ad60       ?computeBoxPoints@Box@Gu@physx@@QEBAXPEIAVPxVec3@3@@Z 000000018001bd60 f i GuContactBoxBox.obj
 0001:0001ada0       ?deallocate@MaterialIndicesStruct@physx@@QEAAXXZ 000000018001bda0 f i GuContactBoxBox.obj
 0001:0001e310       ?getConcreteTypeName@PxConvexMesh@physx@@UEBAPEBDXZ 000000018001f310 f i GuContactBoxBox.obj
 0001:0001e320       ?getGeometry@GeometryUnion@Gu@physx@@QEBAAEBVPxGeometry@3@XZ 000000018001f320 f i GuContactBoxBox.obj
 0001:0001e330       ?getTransform@Box@Gu@physx@@QEBA?AVPxTransform@3@XZ 000000018001f330 f i GuContactBoxBox.obj
 0001:0001e3a0       ?getType@GeometryUnion@Gu@physx@@QEBA?AW4Enum@PxGeometryType@3@XZ 000000018001f3a0 f i GuContactBoxBox.obj
 0001:0001e3b0       ?isKindOf@PxBase@physx@@MEBA_NPEBD@Z 000000018001f3b0 f i GuContactBoxBox.obj
 0001:0001e3f0       ?isKindOf@PxConvexMesh@physx@@MEBA_NPEBD@Z 000000018001f3f0 f i GuContactBoxBox.obj
 0001:0001e450       ?isReleasable@PxBase@physx@@UEBA_NXZ 000000018001f450 f i GuContactBoxBox.obj
 0001:0001e460       ?isValid@Box@Gu@physx@@QEBA_NXZ 000000018001f460 f i GuContactBoxBox.obj
 0001:0001e480       ?rotate@Box@Gu@physx@@QEBA?AVPxVec3@3@AEBV43@@Z 000000018001f480 f i GuContactBoxBox.obj
 0001:0001e550       ?rotateInv@Box@Gu@physx@@QEBA?AVPxVec3@3@AEBV43@@Z 000000018001f550 f i GuContactBoxBox.obj
 0001:0001e600       ?setAxes@Box@Gu@physx@@QEAAXAEBVPxVec3@3@00@Z 000000018001f600 f i GuContactBoxBox.obj
 0001:0001e650       ?setEmpty@Box@Gu@physx@@QEAAXXZ 000000018001f650 f i GuContactBoxBox.obj
 0001:0001e6a0       ?transform@Box@Gu@physx@@QEBA?AVPxVec3@3@AEBV43@@Z 000000018001f6a0 f i GuContactBoxBox.obj
 0001:0001e780       ?contactCapsuleBox@Gu@physx@@YA_NAEBVGeometryUnion@12@0AEBVPxTransform@2@1AEBUNarrowPhaseParams@12@AEAUCache@12@AEAVContactBuffer@12@PEAVRenderOutput@Cm@2@@Z 000000018001f780 f   GuContactCapsuleBox.obj
 0001:000208c0       ?contactCapsuleCapsule@Gu@physx@@YA_NAEBVGeometryUnion@12@0AEBVPxTransform@2@1AEBUNarrowPhaseParams@12@AEAUCache@12@AEAVContactBuffer@12@PEAVRenderOutput@Cm@2@@Z 00000001800218c0 f   GuContactCapsuleCapsule.obj
 0001:000214a0       ??0Segment@Gu@physx@@QEAA@XZ 00000001800224a0 f i GuContactCapsuleCapsule.obj
 0001:000214b0       ??1Segment@Gu@physx@@QEAA@XZ 00000001800224b0 f i GuContactCapsuleCapsule.obj
 0001:000214c0       ?contactCapsuleConvex@Gu@physx@@YA_NAEBVGeometryUnion@12@0AEBVPxTransform@2@1AEBUNarrowPhaseParams@12@AEAUCache@12@AEAVContactBuffer@12@PEAVRenderOutput@Cm@2@@Z 00000001800224c0 f   GuContactCapsuleConvex.obj
 0001:00022800       ??$gjk@U?$LocalConvex@VCapsuleV@Gu@physx@@@Gu@physx@@U?$LocalConvex@VConvexHullV@Gu@physx@@@23@@Gu@physx@@YA?AW4GjkStatus@01@AEBU?$LocalConvex@VCapsuleV@Gu@physx@@@01@AEBU?$LocalConvex@VConvexHullV@Gu@physx@@@01@AEBT__m128@@2AEAT5@333@Z 0000000180023800 f i GuContactCapsuleConvex.obj
 0001:000239a0       ??0ConvexEdge@Gu@physx@@QEAA@XZ 00000001800249a0 f i GuContactCapsuleConvex.obj
 0001:000239b0       ??0ConvexMesh@Gu@physx@@QEAA@V?$PxFlags@W4Enum@PxBaseFlag@physx@@G@2@@Z 00000001800249b0 f i GuContactCapsuleConvex.obj
 0001:00023a10       ??0HullPolygonData@Gu@physx@@QEAA@AEBU012@@Z 0000000180024a10 f i GuContactCapsuleConvex.obj
 0001:00023a50       ??0PolygonalBox@Gu@physx@@QEAA@AEBV012@@Z 0000000180024a50 f i GuContactCapsuleConvex.obj
 0001:00023b60       ??0PxVec3@physx@@QEAA@AEBV01@@Z 0000000180024b60 f i GuContactCapsuleConvex.obj
 0001:00023b80       ??1GjkConvexBase@Gu@physx@@UEAA@XZ 0000000180024b80 f i GuContactCapsuleConvex.obj
 0001:00023b90       ??1RefCountable@Cm@physx@@UEAA@XZ 0000000180024b90 f i GuContactCapsuleConvex.obj
 0001:00023ba0       ??4FPUGuard@shdfnd@physx@@QEAAAEAV012@AEBV012@@Z 0000000180024ba0 f i GuContactCapsuleConvex.obj
 0001:00023bc0       ??Dphysx@@YA?AVMatrix34@Cm@0@AEBVPxMeshScale@0@AEBVPxTransform@0@@Z 0000000180024bc0 f i GuContactCapsuleConvex.obj
 0001:000243a0       ??_EConvexMesh@Gu@physx@@UEAAPEAXI@Z 00000001800253a0 f i GuContactCapsuleConvex.obj
 0001:000244f0       ??_EConvexMesh@Gu@physx@@WBA@EAAPEAXI@Z 00000001800254f0 f i GuContactCapsuleConvex.obj
 0001:00024500       ??_EPxConvexMesh@physx@@MEAAPEAXI@Z 0000000180025500 f i GuContactCapsuleConvex.obj
 0001:000245b0       ??_E?$LocalConvex@VCapsuleV@Gu@physx@@@Gu@physx@@UEAAPEAXI@Z 00000001800255b0 f i GuContactCapsuleConvex.obj
 0001:000245b0       ??_G?$LocalConvex@VCapsuleV@Gu@physx@@@Gu@physx@@UEAAPEAXI@Z 00000001800255b0 f i GuContactCapsuleConvex.obj
 0001:000245f0       ??_E?$LocalConvex@VConvexHullV@Gu@physx@@@Gu@physx@@UEAAPEAXI@Z 00000001800255f0 f i GuContactCapsuleConvex.obj
 0001:000245f0       ??_G?$LocalConvex@VConvexHullV@Gu@physx@@@Gu@physx@@UEAAPEAXI@Z 00000001800255f0 f i GuContactCapsuleConvex.obj
 0001:00024630       ??_EGjkConvex@Gu@physx@@UEAAPEAXI@Z 0000000180025630 f i GuContactCapsuleConvex.obj
 0001:00024630       ??_GGjkConvex@Gu@physx@@UEAAPEAXI@Z 0000000180025630 f i GuContactCapsuleConvex.obj
 0001:00024670       ??_GGjkConvexBase@Gu@physx@@UEAAPEAXI@Z 0000000180025670 f i GuContactCapsuleConvex.obj
 0001:00024670       ??_EGjkConvexBase@Gu@physx@@UEAAPEAXI@Z 0000000180025670 f i GuContactCapsuleConvex.obj
 0001:000246b0       ??_ERefCountable@Cm@physx@@UEAAPEAXI@Z 00000001800256b0 f i GuContactCapsuleConvex.obj
 0001:000246b0       ??_GRefCountable@Cm@physx@@UEAAPEAXI@Z 00000001800256b0 f i GuContactCapsuleConvex.obj
 0001:000246f0       ??__G@YAXPEAX0_K1P6APEAX00@Z@Z 00000001800256f0 f i GuContactCapsuleConvex.obj
 0001:00024770       ?ComputeCubemapNearestOffset@physx@@YAIAEBVPxVec3@1@I@Z 0000000180025770 f i GuContactCapsuleConvex.obj
 0001:00026ed0       ?getIndexBuffer@ConvexMesh@Gu@physx@@UEBAPEBEXZ 0000000180027ed0 f i GuContactCapsuleConvex.obj
 0001:00026f20       ?getInverse@PxMat33@physx@@QEBA?BV12@XZ 0000000180027f20 f i GuContactCapsuleConvex.obj
 0001:00027250       ?getNbPolygons@ConvexMesh@Gu@physx@@UEBAIXZ 0000000180028250 f i GuContactCapsuleConvex.obj
 0001:00027260       ?getNbVertices@ConvexMesh@Gu@physx@@UEBAIXZ 0000000180028260 f i GuContactCapsuleConvex.obj
 0001:00027270       ?getSweepMargin@?$LocalConvex@VCapsuleV@Gu@physx@@@Gu@physx@@UEBA?AT__m128@@XZ 0000000180028270 f i GuContactCapsuleConvex.obj
 0001:00027280       ?getSweepMargin@?$LocalConvex@VConvexHullV@Gu@physx@@@Gu@physx@@UEBA?AT__m128@@XZ 0000000180028280 f i GuContactCapsuleConvex.obj
 0001:000272b0       ?getSweepMargin@GjkConvex@Gu@physx@@UEBA?AT__m128@@XZ 00000001800282b0 f i GuContactCapsuleConvex.obj
 0001:000272d0       ?getVertices@ConvexMesh@Gu@physx@@UEBAPEBVPxVec3@3@XZ 00000001800282d0 f i GuContactCapsuleConvex.obj
 0001:000272f0       ?hillClimbing@ConvexHullV@Gu@physx@@QEBAIAEBT__m128@@@Z 00000001800282f0 f i GuContactCapsuleConvex.obj
 0001:000274b0       ?init@FastVertex2ShapeScaling@Cm@physx@@QEAAXAEBVPxVec3@3@AEBVPxQuat@3@@Z 00000001800284b0 f i GuContactCapsuleConvex.obj
 0001:00027ba0       ?onRefCountZero@RefCountable@Cm@physx@@UEAAXXZ 0000000180028ba0 f i GuContactCapsuleConvex.obj
 0001:00027da0       ?requires@ConvexMesh@Gu@physx@@UEAAXAEAVPxProcessPxBaseCallback@3@@Z 0000000180028da0 f i GuContactCapsuleConvex.obj
 0001:00027db0       ?support@?$LocalConvex@VCapsuleV@Gu@physx@@@Gu@physx@@UEBA?AT__m128@@AEBT4@@Z 0000000180028db0 f i GuContactCapsuleConvex.obj
 0001:00027e20       ?support@?$LocalConvex@VCapsuleV@Gu@physx@@@Gu@physx@@UEBA?AT__m128@@AEBT4@AEAHPEAT4@@Z 0000000180028e20 f i GuContactCapsuleConvex.obj
 0001:00027eb0       ?support@?$LocalConvex@VConvexHullV@Gu@physx@@@Gu@physx@@UEBA?AT__m128@@AEBT4@@Z 0000000180028eb0 f i GuContactCapsuleConvex.obj
 0001:00027fa0       ?support@?$LocalConvex@VConvexHullV@Gu@physx@@@Gu@physx@@UEBA?AT__m128@@AEBT4@AEAHPEAT4@@Z 0000000180028fa0 f i GuContactCapsuleConvex.obj
 0001:000280a0       ?support@GjkConvex@Gu@physx@@UEBA?AT__m128@@AEBT4@@Z 00000001800290a0 f i GuContactCapsuleConvex.obj
 0001:000280c0       ?support@GjkConvex@Gu@physx@@UEBA?AT__m128@@AEBT4@AEAHPEAT4@@Z 00000001800290c0 f i GuContactCapsuleConvex.obj
 0001:000280f0       ?supportPoint@?$LocalConvex@VCapsuleV@Gu@physx@@@Gu@physx@@UEBA?AT__m128@@HPEAT4@@Z 00000001800290f0 f i GuContactCapsuleConvex.obj
 0001:00028120       ?supportPoint@?$LocalConvex@VConvexHullV@Gu@physx@@@Gu@physx@@UEBA?AT__m128@@HPEAT4@@Z 0000000180029120 f i GuContactCapsuleConvex.obj
 0001:00028180       ?supportPoint@GjkConvex@Gu@physx@@UEBA?AT__m128@@HPEAT4@@Z 0000000180029180 f i GuContactCapsuleConvex.obj
 0001:000281a0       ?supportVertexIndex@ConvexHullV@Gu@physx@@QEBAIAEBT__m128@@@Z 00000001800291a0 f i GuContactCapsuleConvex.obj
 0001:00028260       ?contactCapsuleMesh@Gu@physx@@YA_NAEBVGeometryUnion@12@0AEBVPxTransform@2@1AEBUNarrowPhaseParams@12@AEAUCache@12@AEAVContactBuffer@12@PEAVRenderOutput@Cm@2@@Z 0000000180029260 f   GuContactCapsuleMesh.obj
 0001:00028790       ?contactCapsuleHeightfield@Gu@physx@@YA_NAEBVGeometryUnion@12@0AEBVPxTransform@2@1AEBUNarrowPhaseParams@12@AEAUCache@12@AEAVContactBuffer@12@PEAVRenderOutput@Cm@2@@Z 0000000180029790 f   GuContactCapsuleMesh.obj
 0001:00029380       ??0HeightFieldData@Gu@physx@@QEAA@$$QEAU012@@Z 000000018002a380 f i GuContactCapsuleMesh.obj
 0001:00029400       ??0HeightFieldData@Gu@physx@@QEAA@AEBU012@@Z 000000018002a400 f i GuContactCapsuleMesh.obj
 0001:00029480       ??0HeightFieldData@Gu@physx@@QEAA@W4PxEMPTY@2@@Z 000000018002a480 f i GuContactCapsuleMesh.obj
 0001:00029490       ??0HeightFieldData@Gu@physx@@QEAA@XZ 000000018002a490 f i GuContactCapsuleMesh.obj
 0001:000294a0       ??0HeightFieldUtil@Gu@physx@@QEAA@AEBVPxHeightFieldGeometry@2@@Z 000000018002a4a0 f i GuContactCapsuleMesh.obj
 0001:000294f0       ??0HeightFieldUtil@Gu@physx@@QEAA@AEBVPxHeightFieldGeometry@2@AEBVHeightField@12@@Z 000000018002a4f0 f i GuContactCapsuleMesh.obj
 0001:00029540       ??0HeightFieldUtil@Gu@physx@@QEAA@XZ 000000018002a540 f i GuContactCapsuleMesh.obj
 0001:00029550       ??1?$EntityReport@I@Gu@physx@@UEAA@XZ 000000018002a550 f i GuContactCapsuleMesh.obj
 0001:00029560       ??1?$MeshHitCallback@UPxRaycastHit@physx@@@Gu@physx@@UEAA@XZ 000000018002a560 f i GuContactCapsuleMesh.obj
 0001:00029570       ??1HeightFieldData@Gu@physx@@QEAA@XZ 000000018002a570 f i GuContactCapsuleMesh.obj
 0001:00029580       ??1PxHeightField@physx@@MEAA@XZ 000000018002a580 f i GuContactCapsuleMesh.obj
 0001:00029590       ??4HeightFieldData@Gu@physx@@QEAAAEAU012@$$QEAU012@@Z 000000018002a590 f i GuContactCapsuleMesh.obj
 0001:00029610       ??4HeightFieldData@Gu@physx@@QEAAAEAU012@AEBU012@@Z 000000018002a610 f i GuContactCapsuleMesh.obj
 0001:00029690       ??4HeightFieldUtil@Gu@physx@@QEAAAEAV012@$$QEAV012@@Z 000000018002a690 f i GuContactCapsuleMesh.obj
 0001:000296c0       ??4HeightFieldUtil@Gu@physx@@QEAAAEAV012@AEBV012@@Z 000000018002a6c0 f i GuContactCapsuleMesh.obj
 0001:000296e0       ??_G?$EntityReport@I@Gu@physx@@UEAAPEAXI@Z 000000018002a6e0 f i GuContactCapsuleMesh.obj
 0001:000296e0       ??_E?$EntityReport@I@Gu@physx@@UEAAPEAXI@Z 000000018002a6e0 f i GuContactCapsuleMesh.obj
 0001:00029720       ??_G?$MeshHitCallback@UPxRaycastHit@physx@@@Gu@physx@@UEAAPEAXI@Z 000000018002a720 f i GuContactCapsuleMesh.obj
 0001:00029720       ??_E?$MeshHitCallback@UPxRaycastHit@physx@@@Gu@physx@@UEAAPEAXI@Z 000000018002a720 f i GuContactCapsuleMesh.obj
 0001:00029760       ??_GCapsuleHeightfieldContactGenerationCallback@?A0x29ffeee2@@UEAAPEAXI@Z 000000018002a760 f i GuContactCapsuleMesh.obj
 0001:00029760       ??_ECapsuleHeightfieldContactGenerationCallback@?A0x29ffeee2@@UEAAPEAXI@Z 000000018002a760 f i GuContactCapsuleMesh.obj
 0001:000297a0       ??_GCapsuleMeshContactGenerationCallback_NoScale@?A0x29ffeee2@@UEAAPEAXI@Z 000000018002a7a0 f i GuContactCapsuleMesh.obj
 0001:000297a0       ??_ECapsuleMeshContactGenerationCallback_NoScale@?A0x29ffeee2@@UEAAPEAXI@Z 000000018002a7a0 f i GuContactCapsuleMesh.obj
 0001:000297e0       ??_ECapsuleMeshContactGenerationCallback_Scale@?A0x29ffeee2@@UEAAPEAXI@Z 000000018002a7e0 f i GuContactCapsuleMesh.obj
 0001:000297e0       ??_GCapsuleMeshContactGenerationCallback_Scale@?A0x29ffeee2@@UEAAPEAXI@Z 000000018002a7e0 f i GuContactCapsuleMesh.obj
 0001:0002b010       ?ceilUp@HeightFieldUtil@Gu@physx@@SAMM@Z 000000018002c010 f i GuContactCapsuleMesh.obj
 0001:0002b060       ?clipShapeNormalToVertexVoronoi@HeightFieldUtil@Gu@physx@@QEBA_NAEAVPxVec3@3@III@Z 000000018002c060 f i GuContactCapsuleMesh.obj
 0001:0002b4f0       ?computePointNormal@HeightFieldUtil@Gu@physx@@QEBA?AVPxVec3@3@IAEBV43@AEBVPxTransform@3@MMMMAEAM@Z 000000018002c4f0 f i GuContactCapsuleMesh.obj
 0001:0002ba60       ?floorDown@HeightFieldUtil@Gu@physx@@SAMM@Z 000000018002ca60 f i GuContactCapsuleMesh.obj
 0001:0002bab0       ?getConcreteTypeName@PxHeightField@physx@@UEBAPEBDXZ 000000018002cab0 f i GuContactCapsuleMesh.obj
 0001:0002bac0       ?getConvexEdgeThreshold@HeightField@Gu@physx@@UEBAMXZ 000000018002cac0 f i GuContactCapsuleMesh.obj
 0001:0002bad0       ?getEdgeDirection@HeightFieldUtil@Gu@physx@@QEBA?AVPxVec3@3@II@Z 000000018002cad0 f i GuContactCapsuleMesh.obj
 0001:0002bc90       ?getFeatureIndex@HeightFieldUtil@Gu@physx@@SAII@Z 000000018002cc90 f i GuContactCapsuleMesh.obj
 0001:0002bca0       ?getFeatureType@HeightFieldUtil@Gu@physx@@SA?AW4Feature@123@I@Z 000000018002cca0 f i GuContactCapsuleMesh.obj
 0001:0002bcb0       ?getFlags@HeightField@Gu@physx@@UEBA?AV?$PxFlags@W4Enum@PxHeightFieldFlag@physx@@G@3@XZ 000000018002ccb0 f i GuContactCapsuleMesh.obj
 0001:0002bcc0       ?getFormat@HeightField@Gu@physx@@UEBA?AW4Enum@PxHeightFieldFormat@3@XZ 000000018002ccc0 f i GuContactCapsuleMesh.obj
 0001:0002bcd0       ?getHeight@HeightField@Gu@physx@@UEBAMMM@Z 000000018002ccd0 f i GuContactCapsuleMesh.obj
 0001:0002bd20       ?getHeightAtShapePoint2@HeightFieldUtil@Gu@physx@@QEBAMIMM@Z 000000018002cd20 f i GuContactCapsuleMesh.obj
 0001:0002bd50       ?getHeightAtShapePoint@HeightFieldUtil@Gu@physx@@QEBAMMM@Z 000000018002cd50 f i GuContactCapsuleMesh.obj
 0001:0002bdd0       ?getHeightField@HeightFieldUtil@Gu@physx@@QEBAAEBVHeightField@23@XZ 000000018002cdd0 f i GuContactCapsuleMesh.obj
 0001:0002bde0       ?getHeightFieldGeometry@HeightFieldUtil@Gu@physx@@QEBAAEBVPxHeightFieldGeometry@3@XZ 000000018002cde0 f i GuContactCapsuleMesh.obj
 0001:0002bdf0       ?getHeightInternal2@HeightField@Gu@physx@@QEBAMIMM@Z 000000018002cdf0 f i GuContactCapsuleMesh.obj
 0001:0002bfb0       ?getNbColumns@HeightField@Gu@physx@@UEBAIXZ 000000018002cfb0 f i GuContactCapsuleMesh.obj
 0001:0002bfc0       ?getNbRows@HeightField@Gu@physx@@UEBAIXZ 000000018002cfc0 f i GuContactCapsuleMesh.obj
 0001:0002bfd0       ?getNormalAtShapePoint2@HeightFieldUtil@Gu@physx@@QEBA?AVPxVec3@3@IMM@Z 000000018002cfd0 f i GuContactCapsuleMesh.obj
 0001:0002c030       ?getNormalAtShapePoint@HeightFieldUtil@Gu@physx@@QEBA?AVPxVec3@3@MM@Z 000000018002d030 f i GuContactCapsuleMesh.obj
 0001:0002c110       ?getNormal_2@HeightField@Gu@physx@@QEBA?AVPxVec3@3@IMMMMM@Z 000000018002d110 f i GuContactCapsuleMesh.obj
 0001:0002c280       ?getOneOverColumnScale@HeightFieldUtil@Gu@physx@@QEBAMXZ 000000018002d280 f i GuContactCapsuleMesh.obj
 0001:0002c290       ?getOneOverHeightScale@HeightFieldUtil@Gu@physx@@QEBAMXZ 000000018002d290 f i GuContactCapsuleMesh.obj
 0001:0002c2a0       ?getOneOverRowScale@HeightFieldUtil@Gu@physx@@QEBAMXZ 000000018002d2a0 f i GuContactCapsuleMesh.obj
 0001:0002c2b0       ?getPaddedBounds@HeightFieldData@Gu@physx@@QEBAAEBVCenterExtentsPadded@23@XZ 000000018002d2b0 f i GuContactCapsuleMesh.obj
 0001:0002c2c0       ?getSampleStride@HeightField@Gu@physx@@UEBAIXZ 000000018002d2c0 f i GuContactCapsuleMesh.obj
 0001:0002c2d0       ?getThickness@HeightField@Gu@physx@@UEBAMXZ 000000018002d2d0 f i GuContactCapsuleMesh.obj
 0001:0002c2e0       ?getTimestamp@HeightField@Gu@physx@@UEBAIXZ 000000018002d2e0 f i GuContactCapsuleMesh.obj
 0001:0002c2f0       ?getTriangleMaterialIndex@HeightField@Gu@physx@@UEBAGI@Z 000000018002d2f0 f i GuContactCapsuleMesh.obj
 0001:0002c340       ?getTriangleNormal@HeightField@Gu@physx@@UEBA?AVPxVec3@3@I@Z 000000018002d340 f i GuContactCapsuleMesh.obj
 0001:0002c360       ?getTriangleNormalInternal@HeightField@Gu@physx@@QEBA?AVPxVec3@3@I@Z 000000018002d360 f i GuContactCapsuleMesh.obj
 0001:0002c520       ?getVertexNormal@HeightFieldUtil@Gu@physx@@QEBA?AVPxVec3@3@I@Z 000000018002d520 f i GuContactCapsuleMesh.obj
 0001:0002c560       ?hf2shapen@HeightFieldUtil@Gu@physx@@QEBA?AVPxVec3@3@AEBV43@@Z 000000018002d560 f i GuContactCapsuleMesh.obj
 0001:0002c5a0       ?hf2shapep@HeightFieldUtil@Gu@physx@@QEBA?AVPxVec3@3@AEBV43@@Z 000000018002d5a0 f i GuContactCapsuleMesh.obj
 0001:0002c5f0       ?hf2worldn@HeightFieldUtil@Gu@physx@@QEBA?AVPxVec3@3@AEBVPxTransform@3@AEBV43@@Z 000000018002d5f0 f i GuContactCapsuleMesh.obj
 0001:0002c7c0       ?hf2worldp@HeightFieldUtil@Gu@physx@@QEBA?AVPxVec3@3@AEBVPxTransform@3@AEBV43@@Z 000000018002d7c0 f i GuContactCapsuleMesh.obj
 0001:0002c9b0       ?initialize@HeightFieldUtil@Gu@physx@@AEAAXXZ 000000018002d9b0 f i GuContactCapsuleMesh.obj
 0001:0002c9f0       ?initialize@HeightFieldUtil@Gu@physx@@QEAAXAEBVPxHeightFieldGeometry@3@AEBVHeightField@23@@Z 000000018002d9f0 f i GuContactCapsuleMesh.obj
 0001:0002ca40       ?isCollisionVertex@HeightFieldUtil@Gu@physx@@QEBA_NIII@Z 000000018002da40 f i GuContactCapsuleMesh.obj
 0001:0002ca60       ?isKindOf@PxHeightField@physx@@MEBA_NPEBD@Z 000000018002da60 f i GuContactCapsuleMesh.obj
 0001:0002cac0       ?isQueryVertex@HeightFieldUtil@Gu@physx@@QEBA_NIII@Z 000000018002dac0 f i GuContactCapsuleMesh.obj
 0001:0002cbb0       ?isShapePointOnHeightField@HeightFieldUtil@Gu@physx@@QEBA_NMM@Z 000000018002dbb0 f i GuContactCapsuleMesh.obj
 0001:0002cc10       ?makeFeatureCode@HeightFieldUtil@Gu@physx@@SAIIW4Feature@123@@Z 000000018002dc10 f i GuContactCapsuleMesh.obj
 0001:0002dad0       ?shape2hfp@HeightFieldUtil@Gu@physx@@QEBA?AVPxVec3@3@AEBV43@@Z 000000018002ead0 f i GuContactCapsuleMesh.obj
 0001:0002db10       ?transformFast@PxBounds3@physx@@SA?AV12@AEBVPxTransform@2@AEBV12@@Z 000000018002eb10 f i GuContactCapsuleMesh.obj
 0001:0002e040       ?transformQueryBounds@FastVertex2ShapeScaling@Cm@physx@@QEBAXAEAVPxVec3@3@0AEAVPxMat33@3@@Z 000000018002f040 f i GuContactCapsuleMesh.obj
 0001:0002e350       ?contactBoxConvex@Gu@physx@@YA_NAEBVGeometryUnion@12@0AEBVPxTransform@2@1AEBUNarrowPhaseParams@12@AEAUCache@12@AEAVContactBuffer@12@PEAVRenderOutput@Cm@2@@Z 000000018002f350 f   GuContactConvexConvex.obj
 0001:0002e4f0       ?contactConvexConvex@Gu@physx@@YA_NAEBVGeometryUnion@12@0AEBVPxTransform@2@1AEBUNarrowPhaseParams@12@AEAUCache@12@AEAVContactBuffer@12@PEAVRenderOutput@Cm@2@@Z 000000018002f4f0 f   GuContactConvexConvex.obj
 0001:0002e6f0       ??0SeparatingAxes@Gu@physx@@QEAA@$$QEAV012@@Z 000000018002f6f0 f i GuContactConvexConvex.obj
 0001:0002e750       ??0SeparatingAxes@Gu@physx@@QEAA@AEBV012@@Z 000000018002f750 f i GuContactConvexConvex.obj
 0001:0002e7b0       ??0SeparatingAxes@Gu@physx@@QEAA@XZ 000000018002f7b0 f i GuContactConvexConvex.obj
 0001:0002e7c0       ??4SeparatingAxes@Gu@physx@@QEAAAEAV012@$$QEAV012@@Z 000000018002f7c0 f i GuContactConvexConvex.obj
 0001:0002e910       ??4SeparatingAxes@Gu@physx@@QEAAAEAV012@AEBV012@@Z 000000018002f910 f i GuContactConvexConvex.obj
 0001:00033d90       ?getAxes@SeparatingAxes@Gu@physx@@QEBAPEBVPxVec3@3@XZ 0000000180034d90 f i GuContactConvexConvex.obj
 0001:00033da0       ?getNumAxes@SeparatingAxes@Gu@physx@@QEBAIXZ 0000000180034da0 f i GuContactConvexConvex.obj
 0001:00034190       ?reset@SeparatingAxes@Gu@physx@@QEAAXXZ 0000000180035190 f i GuContactConvexConvex.obj
 0001:000341a0       ?transformPlaneToShapeSpace@FastVertex2ShapeScaling@Cm@physx@@QEBAXAEBVPxVec3@3@MAEAV43@AEAM@Z 00000001800351a0 f i GuContactConvexConvex.obj
 0001:000342d0       ?contactBoxMesh@Gu@physx@@YA_NAEBVGeometryUnion@12@0AEBVPxTransform@2@1AEBUNarrowPhaseParams@12@AEAUCache@12@AEAVContactBuffer@12@PEAVRenderOutput@Cm@2@@Z 00000001800352d0 f   GuContactConvexMesh.obj
 0001:00034490       ?contactConvexMesh@Gu@physx@@YA_NAEBVGeometryUnion@12@0AEBVPxTransform@2@1AEBUNarrowPhaseParams@12@AEAUCache@12@AEAVContactBuffer@12@PEAVRenderOutput@Cm@2@@Z 0000000180035490 f   GuContactConvexMesh.obj
 0001:00034640       ?contactBoxHeightfield@Gu@physx@@YA_NAEBVGeometryUnion@12@0AEBVPxTransform@2@1AEBUNarrowPhaseParams@12@AEAUCache@12@AEAVContactBuffer@12@PEAVRenderOutput@Cm@2@@Z 0000000180035640 f   GuContactConvexMesh.obj
 0001:000347b0       ?contactConvexHeightfield@Gu@physx@@YA_NAEBVGeometryUnion@12@0AEBVPxTransform@2@1AEBUNarrowPhaseParams@12@AEAUCache@12@AEAVContactBuffer@12@PEAVRenderOutput@Cm@2@@Z 00000001800357b0 f   GuContactConvexMesh.obj
 0001:00034a70       ??0?$InlineArray@I$0EEA@VNamedAllocator@shdfnd@physx@@@shdfnd@physx@@QEAA@AEBVNamedAllocator@12@@Z 0000000180035a70 f i GuContactConvexMesh.obj
 0001:00034b90       ??0CachedEdge@Gu@physx@@QEAA@XZ 0000000180035b90 f i GuContactConvexMesh.obj
 0001:00034ba0       ??0CachedVertex@Gu@physx@@QEAA@XZ 0000000180035ba0 f i GuContactConvexMesh.obj
 0001:00035210       ??_EConvexMeshContactGenerationCallback@@UEAAPEAXI@Z 0000000180036210 f i GuContactConvexMesh.obj
 0001:00035210       ??_GConvexMeshContactGenerationCallback@@UEAAPEAXI@Z 0000000180036210 f i GuContactConvexMesh.obj
 0001:00035250       ??_GConvexVsHeightfieldContactGenerationCallback@?A0x4ec7b4c7@@UEAAPEAXI@Z 0000000180036250 f i GuContactConvexMesh.obj
 0001:00035250       ??_EConvexVsHeightfieldContactGenerationCallback@?A0x4ec7b4c7@@UEAAPEAXI@Z 0000000180036250 f i GuContactConvexMesh.obj
 0001:00035290       ?addData@?$CacheMap@UCachedEdge@Gu@physx@@$0IA@@Gu@physx@@QEAA_NAEBUCachedEdge@23@@Z 0000000180036290 f i GuContactConvexMesh.obj
 0001:000353c0       ?addData@?$CacheMap@UCachedVertex@Gu@physx@@$0IA@@Gu@physx@@QEAA_NAEBUCachedVertex@23@@Z 00000001800363c0 f i GuContactConvexMesh.obj
 0001:00035480       ?allocate@?$Array@IV?$InlineAllocator@$0BBAA@VNamedAllocator@shdfnd@physx@@@shdfnd@physx@@@shdfnd@physx@@IEAAPEAII@Z 0000000180036480 f i GuContactConvexMesh.obj
 0001:00039a40       ?processHit@ConvexMeshContactGenerationCallback@@UEAA_NAEBUPxRaycastHit@physx@@AEBVPxVec3@3@11AEAMPEBI@Z 000000018003aa40 f i GuContactConvexMesh.obj
 0001:0003a4d0       ?recreate@?$Array@IV?$InlineAllocator@$0BBAA@VNamedAllocator@shdfnd@physx@@@shdfnd@physx@@@shdfnd@physx@@IEAAXI@Z 000000018003b4d0 f i GuContactConvexMesh.obj
 0001:0003b950       ?contactPlaneBox@Gu@physx@@YA_NAEBVGeometryUnion@12@0AEBVPxTransform@2@1AEBUNarrowPhaseParams@12@AEAUCache@12@AEAVContactBuffer@12@PEAVRenderOutput@Cm@2@@Z 000000018003c950 f   GuContactPlaneBox.obj
 0001:0003c9c0       ?contactPlaneCapsule@Gu@physx@@YA_NAEBVGeometryUnion@12@0AEBVPxTransform@2@1AEBUNarrowPhaseParams@12@AEAUCache@12@AEAVContactBuffer@12@PEAVRenderOutput@Cm@2@@Z 000000018003d9c0 f   GuContactPlaneCapsule.obj
 0001:0003d170       ?contactPlaneConvex@Gu@physx@@YA_NAEBVGeometryUnion@12@0AEBVPxTransform@2@1AEBUNarrowPhaseParams@12@AEAUCache@12@AEAVContactBuffer@12@PEAVRenderOutput@Cm@2@@Z 000000018003e170 f   GuContactPlaneConvex.obj
 0001:0003dc40       ?findRotationMatrixFromZ@Gu@physx@@YA?AVPxMat33@2@AEBVPxVec3@2@@Z 000000018003ec40 f   GuContactPolygonPolygon.obj
 0001:0003df20       ?contactPolygonPolygonExt@Gu@physx@@YA_NIPEBVPxVec3@2@PEBEAEBVMatrix34@Cm@2@AEBVPxPlane@2@AEBVPxMat33@2@I01234AEBV32@22IIAEAVContactBuffer@12@_N5M@Z 000000018003ef20 f   GuContactPolygonPolygon.obj
 0001:00041d70       ?contactSphereBox@Gu@physx@@YA_NAEBVGeometryUnion@12@0AEBVPxTransform@2@1AEBUNarrowPhaseParams@12@AEAUCache@12@AEAVContactBuffer@12@PEAVRenderOutput@Cm@2@@Z 0000000180042d70 f   GuContactSphereBox.obj
 0001:00042480       ?contactSphereCapsule@Gu@physx@@YA_NAEBVGeometryUnion@12@0AEBVPxTransform@2@1AEBUNarrowPhaseParams@12@AEAUCache@12@AEAVContactBuffer@12@PEAVRenderOutput@Cm@2@@Z 0000000180043480 f   GuContactSphereCapsule.obj
 0001:00042820       ?distancePointSegmentSquared@Gu@physx@@YAMAEBVSegment@12@AEBVPxVec3@2@PEAM@Z 0000000180043820 f i GuContactSphereCapsule.obj
 0001:000429a0       ?contactSphereMesh@Gu@physx@@YA_NAEBVGeometryUnion@12@0AEBVPxTransform@2@1AEBUNarrowPhaseParams@12@AEAUCache@12@AEAVContactBuffer@12@PEAVRenderOutput@Cm@2@@Z 00000001800439a0 f   GuContactSphereMesh.obj
 0001:00042de0       ?contactSphereHeightfield@Gu@physx@@YA_NAEBVGeometryUnion@12@0AEBVPxTransform@2@1AEBUNarrowPhaseParams@12@AEAUCache@12@AEAVContactBuffer@12@PEAVRenderOutput@Cm@2@@Z 0000000180043de0 f   GuContactSphereMesh.obj
 0001:00043250       ??$smallSort@USortKey@@$$CBU?$Less@USortKey@@@shdfnd@physx@@@internal@shdfnd@physx@@YAXPEAUSortKey@@HHAEBU?$Less@USortKey@@@12@@Z 0000000180044250 f i GuContactSphereMesh.obj
 0001:000434a0       ??$sort@USortKey@@U?$Less@USortKey@@@shdfnd@physx@@VNullAllocator@?A0xb47d98d3@@@shdfnd@physx@@YAXPEAUSortKey@@IAEBU?$Less@USortKey@@@01@AEBVNullAllocator@?A0xb47d98d3@@I@Z 00000001800444a0 f i GuContactSphereMesh.obj
 0001:000437f0       ??0TriangleData@@QEAA@XZ   00000001800447f0 f i GuContactSphereMesh.obj
 0001:00043880       ??_ESphereHeightfieldContactGenerationCallback@?A0xb47d98d3@@UEAAPEAXI@Z 0000000180044880 f i GuContactSphereMesh.obj
 0001:00043880       ??_GSphereHeightfieldContactGenerationCallback@?A0xb47d98d3@@UEAAPEAXI@Z 0000000180044880 f i GuContactSphereMesh.obj
 0001:000438c0       ??_GSphereMeshContactGenerationCallback_NoScale@?A0xb47d98d3@@UEAAPEAXI@Z 00000001800448c0 f i GuContactSphereMesh.obj
 0001:000438c0       ??_ESphereMeshContactGenerationCallback_NoScale@?A0xb47d98d3@@UEAAPEAXI@Z 00000001800448c0 f i GuContactSphereMesh.obj
 0001:00043920       ??_ESphereMeshContactGenerationCallback_Scale@?A0xb47d98d3@@UEAAPEAXI@Z 0000000180044920 f i GuContactSphereMesh.obj
 0001:00043920       ??_GSphereMeshContactGenerationCallback_Scale@?A0xb47d98d3@@UEAAPEAXI@Z 0000000180044920 f i GuContactSphereMesh.obj
 0001:000456a0       ?contactSpherePlane@Gu@physx@@YA_NAEBVGeometryUnion@12@0AEBVPxTransform@2@1AEBUNarrowPhaseParams@12@AEAUCache@12@AEAVContactBuffer@12@PEAVRenderOutput@Cm@2@@Z 00000001800466a0 f   GuContactSpherePlane.obj
 0001:00045900       ?contactSphereSphere@Gu@physx@@YA_NAEBVGeometryUnion@12@0AEBVPxTransform@2@1AEBUNarrowPhaseParams@12@AEAUCache@12@AEAVContactBuffer@12@PEAVRenderOutput@Cm@2@@Z 0000000180046900 f   GuContactSphereSphere.obj
 0001:00045ac0       ?selectNormal@Gu@physx@@YA_NEMM@Z 0000000180046ac0 f   GuFeatureCode.obj
 0001:00045c00       ?legacyContactBoxHeightfield@Gu@physx@@YA_NAEBVGeometryUnion@12@0AEBVPxTransform@2@1AEBUNarrowPhaseParams@12@AEAUCache@12@AEAVContactBuffer@12@PEAVRenderOutput@Cm@2@@Z 0000000180046c00 f   GuLegacyContactBoxHeightField.obj
 0001:00047dd0       ??$traceSegment@UGuContactTraceSegmentCallback@Gu@physx@@$00$0A@@HeightFieldUtil@Gu@physx@@QEBAXAEBVPxVec3@2@0MPEAUGuContactTraceSegmentCallback@12@AEBVPxBounds3@2@_NPEBV32@@Z 0000000180048dd0 f i GuLegacyContactBoxHeightField.obj
 0001:00048e10       ?underFaceHit@GuContactTraceSegmentCallback@Gu@physx@@QEAA_NAEBVHeightFieldUtil@23@AEBVPxVec3@3@1MMMI@Z 0000000180049e10 f i GuLegacyContactBoxHeightField.obj
 0001:00049280       ?legacyContactCapsuleHeightfield@Gu@physx@@YA_NAEBVGeometryUnion@12@0AEBVPxTransform@2@1AEBUNarrowPhaseParams@12@AEAUCache@12@AEAVContactBuffer@12@PEAVRenderOutput@Cm@2@@Z 000000018004a280 f   GuLegacyContactCapsuleHeightField.obj
 0001:0004b940       ?getEdgeTriangleIndices@HeightField@Gu@physx@@QEBAIIQEAI@Z 000000018004c940 f i GuLegacyContactCapsuleHeightField.obj
 0001:0004bab0       ?legacyContactConvexHeightfield@Gu@physx@@YA_NAEBVGeometryUnion@12@0AEBVPxTransform@2@1AEBUNarrowPhaseParams@12@AEAUCache@12@AEAVContactBuffer@12@PEAVRenderOutput@Cm@2@@Z 000000018004cab0 f   GuLegacyContactConvexHeightField.obj
 0001:0004e550       ?legacyContactSphereHeightfield@Gu@physx@@YA_NAEBVGeometryUnion@12@0AEBVPxTransform@2@1AEBUNarrowPhaseParams@12@AEAUCache@12@AEAVContactBuffer@12@PEAVRenderOutput@Cm@2@@Z 000000018004f550 f   GuLegacyContactSphereHeightField.obj
 0001:0004e5a0       ?GuContactSphereHeightFieldShared@@YA_NAEBVGeometryUnion@Gu@physx@@0AEBVPxTransform@3@1AEBUNarrowPhaseParams@23@AEAUCache@23@AEAVContactBuffer@23@PEAVRenderOutput@Cm@3@_N@Z 000000018004f5a0 f   GuLegacyContactSphereHeightField.obj
 0001:000503b0       ?barycentricCoordinates@Gu@physx@@YAXAEBT__m128@@00AEAT3@@Z 00000001800513b0 f   GuBarycentricCoordinates.obj
 0001:00050410       ?barycentricCoordinates@Gu@physx@@YAXAEBT__m128@@000AEAT3@1@Z 0000000180051410 f   GuBarycentricCoordinates.obj
 0001:000505a0       ?barycentricCoordinates@Gu@physx@@YAXAEBT__m128@@00AEAT3@1@Z 00000001800515a0 f   GuBarycentricCoordinates.obj
 0001:00050760       ?addAxis@SeparatingAxes@Gu@physx@@QEAA_NAEBVPxVec3@3@@Z 0000000180051760 f   GuSeparatingAxes.obj
 0001:00050850       ??0BigConvexData@physx@@QEAA@XZ 0000000180051850 f   GuBigConvexData.obj
 0001:00050880       ??1BigConvexData@physx@@QEAA@XZ 0000000180051880 f   GuBigConvexData.obj
 0001:00050910       ?Load@BigConvexData@physx@@QEAA_NAEAVPxInputStream@2@@Z 0000000180051910 f   GuBigConvexData.obj
 0001:00050a20       ?ComputeOffset@BigConvexData@physx@@QEBAIAEBVPxVec3@2@@Z 0000000180051a20 f   GuBigConvexData.obj
 0001:00050a40       ?ComputeNearestOffset@BigConvexData@physx@@QEBAIAEBVPxVec3@2@@Z 0000000180051a40 f   GuBigConvexData.obj
 0001:00050a60       ?exportExtraData@BigConvexData@physx@@QEAAXAEAVPxSerializationContext@2@@Z 0000000180051a60 f   GuBigConvexData.obj
 0001:00050ae0       ?importExtraData@BigConvexData@physx@@QEAAXAEAVPxDeserializationContext@2@@Z 0000000180051ae0 f   GuBigConvexData.obj
 0001:00050b60       ?CreateOffsets@BigConvexData@physx@@IEAAXXZ 0000000180051b60 f   GuBigConvexData.obj
 0001:00050bb0       ?VLoad@BigConvexData@physx@@IEAA_NAEAVPxInputStream@2@@Z 0000000180051bb0 f   GuBigConvexData.obj
 0001:00050e90       ??0BigConvexData@physx@@QEAA@W4PxEMPTY@1@@Z 0000000180051e90 f i GuBigConvexData.obj
 0001:00050ea0       ??4BigConvexData@physx@@QEAAAEAV01@AEBV01@@Z 0000000180051ea0 f i GuBigConvexData.obj
 0001:00050ec0       ?ComputeCubemapOffset@physx@@YAIAEBVPxVec3@1@I@Z 0000000180051ec0 f i GuBigConvexData.obj
 0001:00050ff0       ?GetAdjacentVerts@BigConvexData@physx@@QEBAPEBEXZ 0000000180051ff0 f i GuBigConvexData.obj
 0001:00051000       ?GetNbNeighbors@BigConvexData@physx@@QEBAGI@Z 0000000180052000 f i GuBigConvexData.obj
 0001:00051010       ?GetNbSamples@BigConvexData@physx@@QEBAIXZ 0000000180052010 f i GuBigConvexData.obj
 0001:00051020       ?GetNbVerts@BigConvexData@physx@@QEBAIXZ 0000000180052020 f i GuBigConvexData.obj
 0001:00051030       ?GetNeighbors@BigConvexData@physx@@QEBAPEBEI@Z 0000000180052030 f i GuBigConvexData.obj
 0001:00051050       ?GetOffset@BigConvexData@physx@@QEBAGI@Z 0000000180052050 f i GuBigConvexData.obj
 0001:00051060       ?GetSubdiv@BigConvexData@physx@@QEBAIXZ 0000000180052060 f i GuBigConvexData.obj
 0001:00051070       ?GetValencies@BigConvexData@physx@@QEBAPEBUValency@Gu@2@XZ 0000000180052070 f i GuBigConvexData.obj
 0001:00051080       ?GetValency@BigConvexData@physx@@QEBAGI@Z 0000000180052080 f i GuBigConvexData.obj
 0001:00051090       ?__global_array_delete@@YAXPEAX@Z 0000000180052090 f i GuBigConvexData.obj
 0001:000510a0       ?__global_array_delete@@YAXPEAX_K@Z 00000001800520a0 f i GuBigConvexData.obj
 0001:000510b0       ?__global_delete@@YAXPEAX@Z 00000001800520b0 f i GuBigConvexData.obj
 0001:000510c0       ?__global_delete@@YAXPEAX_K@Z 00000001800520c0 f i GuBigConvexData.obj
 0001:000510d0       ?getScaledConvex@Gu@physx@@YAXAEAPEAVPxVec3@2@AEAPEAEPEAV32@PEAE_NPEBV32@PEBEIAEBVFastVertex2ShapeScaling@Cm@2@@Z 00000001800520d0 f   GuConvexHelper.obj
 0001:00051230       ?getConvexData@Gu@physx@@YA_NAEBVGeometryUnion@12@AEAVFastVertex2ShapeScaling@Cm@2@AEAVPxBounds3@2@AEAUPolygonalData@12@@Z 0000000180052230 f   GuConvexHelper.obj
 0001:00051470       ?findUniqueConvexEdges@Gu@physx@@YAIIPEIAUConvexEdge@12@IPEIBUHullPolygonData@12@PEIBE@Z 0000000180052470 f   GuConvexHelper.obj
 0001:000516e0       ?exportExtraData@ConvexMesh@Gu@physx@@UEAAXAEAVPxSerializationContext@3@@Z 00000001800526e0 f   GuConvexMesh.obj
 0001:000517b0       ?importExtraData@ConvexMesh@Gu@physx@@QEAAXAEAVPxDeserializationContext@3@@Z 00000001800527b0 f   GuConvexMesh.obj
 0001:00051870       ?onRefCountZero@ConvexMesh@Gu@physx@@UEAAXXZ 0000000180052870 f   GuConvexMesh.obj
 0001:00051970       ?createObject@ConvexMesh@Gu@physx@@SAPEAV123@AEAPEAEAEAVPxDeserializationContext@3@@Z 0000000180052970 f   GuConvexMesh.obj
 0001:000519f0       ??0ConvexMesh@Gu@physx@@QEAA@XZ 00000001800529f0 f   GuConvexMesh.obj
 0001:00051ab0       ??0ConvexMesh@Gu@physx@@QEAA@AEAVGuMeshFactory@2@AEAUConvexHullData@12@@Z 0000000180052ab0 f   GuConvexMesh.obj
 0001:00051bc0       ?load@ConvexMesh@Gu@physx@@QEAA_NAEAVPxInputStream@3@@Z 0000000180052bc0 f   GuConvexMesh.obj
 0001:00051f10       ?release@ConvexMesh@Gu@physx@@UEAAXXZ 0000000180052f10 f   GuConvexMesh.obj
 0001:00051f50       ?getPolygonData@ConvexMesh@Gu@physx@@UEBA_NIAEAUPxHullPolygon@3@@Z 0000000180052f50 f   GuConvexMesh.obj
 0001:00051fa0       ?isGpuCompatible@ConvexMesh@Gu@physx@@UEBA_NXZ 0000000180052fa0 f   GuConvexMesh.obj
 0001:00051fd0       ?getReferenceCount@ConvexMesh@Gu@physx@@UEBAIXZ 0000000180052fd0 f   GuConvexMesh.obj
 0001:00051fe0       ?acquireReference@ConvexMesh@Gu@physx@@UEAAXXZ 0000000180052fe0 f   GuConvexMesh.obj
 0001:00051ff0       ?getMassInformation@ConvexMesh@Gu@physx@@UEBAXAEAMAEAVPxMat33@3@AEAVPxVec3@3@@Z 0000000180052ff0 f   GuConvexMesh.obj
 0001:00052070       ?getLocalBounds@ConvexMesh@Gu@physx@@UEBA?AVPxBounds3@3@XZ 0000000180053070 f   GuConvexMesh.obj
 0001:00052100       ??1ConvexMesh@Gu@physx@@UEAA@XZ 0000000180053100 f   GuConvexMesh.obj
 0001:00052a20       ?notifyReleaseConvexMesh@GuMeshFactory@physx@@MEAAXAEBVPxConvexMesh@2@@Z 0000000180053a20 f i GuConvexMesh.obj
 0001:00052a30       ?notifyReleaseHeightField@GuMeshFactory@physx@@MEAAXAEBVPxHeightField@2@@Z 0000000180053a30 f i GuConvexMesh.obj
 0001:00052a40       ?notifyReleaseTriangleMesh@GuMeshFactory@physx@@MEAAXAEBVPxTriangleMesh@2@@Z 0000000180053a40 f i GuConvexMesh.obj
 0001:00052a50       ?computeHullOBB@Gu@physx@@YAXAEAVBox@12@AEBVPxBounds3@2@MAEBVMatrix34@Cm@2@2AEBVFastVertex2ShapeScaling@62@_N@Z 0000000180053a50 f   GuConvexUtilsInternal.obj
 0001:00052e80       ?computeVertexSpaceOBB@Gu@physx@@YAXAEAVBox@12@AEBV312@AEBVPxTransform@2@AEBVPxMeshScale@2@@Z 0000000180053e80 f   GuConvexUtilsInternal.obj
 0001:00053210       ?computeOBBAroundConvex@Gu@physx@@YAXAEAVBox@12@AEBVPxConvexMeshGeometry@2@PEBVPxConvexMesh@2@AEBVPxTransform@2@@Z 0000000180054210 f   GuConvexUtilsInternal.obj
 0001:00053f90       ??Dphysx@@YA?AVMatrix34@Cm@0@AEBVPxMeshScale@0@AEBV120@@Z 0000000180054f90 f i GuConvexUtilsInternal.obj
 0001:00054780       ?transform@physx@@YA?AVBox@Gu@1@AEBVMatrix34@Cm@1@AEBV231@@Z 0000000180055780 f i GuConvexUtilsInternal.obj
 0001:00054aa0       ?localSearch@physx@@YAXAEAIAEBVPxVec3@1@PEBV21@PEBUBigConvexRawData@Gu@1@@Z 0000000180055aa0 f   GuHillClimbing.obj
 0001:00054c20       ??0PolygonalBox@Gu@physx@@QEAA@AEBVPxVec3@2@@Z 0000000180055c20 f   GuShapeConvex.obj
 0001:00054e20       ?getPolygonalData@PolygonalBox@Gu@physx@@QEBAXPEIAUPolygonalData@23@@Z 0000000180055e20 f   GuShapeConvex.obj
 0001:00054e90       ?getPolygonalData_Convex@Gu@physx@@YAXPEIAUPolygonalData@12@PEIBUConvexHullData@12@AEBVFastVertex2ShapeScaling@Cm@2@@Z 0000000180055e90 f   GuShapeConvex.obj
 0001:00056380       ??0HullPolygonData@Gu@physx@@QEAA@XZ 0000000180057380 f i GuShapeConvex.obj
 0001:000564f0       ?distancePointBoxSquared@Gu@physx@@YAMAEBVPxVec3@2@00AEBVPxMat33@2@PEAV32@@Z 00000001800574f0 f   GuDistancePointBox.obj
 0001:00056690       ?closestPtPointTriangle@Gu@physx@@YA?AVPxVec3@2@AEBV32@000AEAM1@Z 0000000180057690 f   GuDistancePointTriangle.obj
 0001:00056ba0       ?distancePointTriangleSquared@Gu@physx@@YA?AT__m128@@AEBT3@000AEAT3@11@Z 0000000180057ba0 f   GuDistancePointTriangle.obj
 0001:00057210       ?distanceSegmentBoxSquared@Gu@physx@@YAMAEBVPxVec3@2@000AEBVPxMat33@2@PEAMPEAV32@@Z 0000000180058210 f   GuDistanceSegmentBox.obj
 0001:00058980       ?distanceSegmentSegmentSquared@Gu@physx@@YAMAEBVPxVec3@2@0M00MPEAM1@Z 0000000180059980 f   GuDistanceSegmentSegment.obj
 0001:00059180       ?distanceSegmentSegmentSquared@Gu@physx@@YAMAEBVPxVec3@2@000PEAM1@Z 000000018005a180 f   GuDistanceSegmentSegment.obj
 0001:00059420       ?distanceSegmentSegmentSquared@Gu@physx@@YA?AT__m128@@AEBT3@000AEAT3@1@Z 000000018005a420 f   GuDistanceSegmentSegment.obj
 0001:00059630       ?distanceSegmentSegmentSquared4@Gu@physx@@YA?AT__m128@@AEBT3@000000000AEAT3@1@Z 000000018005a630 f   GuDistanceSegmentSegment.obj
 0001:00059db0       ?distanceSegmentTriangleSquared@Gu@physx@@YAMAEBVPxVec3@2@0000PEAM11@Z 000000018005adb0 f   GuDistanceSegmentTriangle.obj
 0001:0005b420       ?distanceSegmentTriangleSquared@Gu@physx@@YA?AT__m128@@AEBT3@0000AEAT3@1@Z 000000018005c420 f   GuDistanceSegmentTriangle.obj
 0001:0005c380       ?sweepBoxBox@Gu@physx@@YA_NAEBVBox@12@0AEBVPxVec3@2@MV?$PxFlags@W4Enum@PxHitFlag@physx@@G@2@AEAUPxSweepHit@2@@Z 000000018005d380 f   GuSweepBoxBox.obj
 0001:0005dfd0       ?sweepBoxSphere@Gu@physx@@YA_NAEBVBox@12@MAEBVPxVec3@2@1MAEAMAEAV42@V?$PxFlags@W4Enum@PxHitFlag@physx@@G@2@@Z 000000018005efd0 f   GuSweepBoxSphere.obj
 0001:0005ec60       ?sweepBoxTriangle@Gu@physx@@YA_NAEBVPxTriangle@2@AEBVPxBounds3@2@AEBVPxVec3@2@2AEAV52@3AEAM_N@Z 000000018005fc60 f   GuSweepBoxTriangle_FeatureBased.obj
 0001:000608c0       ?triBoxSweepTestBoxSpace@Gu@physx@@YAHAEBVPxTriangle@2@AEBVPxVec3@2@11MAEAM_N@Z 00000001800618c0 f   GuSweepBoxTriangle_SAT.obj
 0001:00061580       ?sweepCapsuleBox@Gu@physx@@YA_NAEBVCapsule@12@AEBVPxTransform@2@AEBVPxVec3@2@2MAEAV52@AEAM3V?$PxFlags@W4Enum@PxHitFlag@physx@@G@2@@Z 0000000180062580 f   GuSweepCapsuleBox.obj
 0001:000619f0       ??0PxTriangle@physx@@QEAA@XZ 00000001800629f0 f i GuSweepCapsuleBox.obj
 0001:00061a00       ??1PxTriangle@physx@@QEAA@XZ 0000000180062a00 f i GuSweepCapsuleBox.obj
 0001:00062e30       ?sweepCapsuleCapsule@Gu@physx@@YA_NAEBVCapsule@12@0AEBVPxVec3@2@MAEAMAEAV42@3IAEAG@Z 0000000180063e30 f   GuSweepCapsuleCapsule.obj
 0001:00063fa0       ??0Capsule@Gu@physx@@QEAA@XZ 0000000180064fa0 f i GuSweepCapsuleCapsule.obj
 0001:00063fb0       ??1Capsule@Gu@physx@@QEAA@XZ 0000000180064fb0 f i GuSweepCapsuleCapsule.obj
 0001:00064310       ?sweepCapsuleTriangles_Precise@Gu@physx@@YA_NIPEIBVPxTriangle@2@AEBVCapsule@12@AEBVPxVec3@2@MPEIBIAEAUPxSweepHit@2@AEAV52@V?$PxFlags@W4Enum@PxHitFlag@physx@@G@2@_NPEBVBoxPadded@12@@Z 0000000180065310 f   GuSweepCapsuleTriangle.obj
 0001:00066ae0       ?sweepSphereCapsule@Gu@physx@@YA_NAEBVSphere@12@AEBVCapsule@12@AEBVPxVec3@2@MAEAMAEAV52@4V?$PxFlags@W4Enum@PxHitFlag@physx@@G@2@@Z 0000000180067ae0 f   GuSweepSphereCapsule.obj
 0001:00067300       ?sweepSphereSphere@Gu@physx@@YA_NAEBVPxVec3@2@M0M0AEAMAEAV32@@Z 0000000180068300 f   GuSweepSphereSphere.obj
 0001:000677a0       ?sweepSphereVSTri@Gu@physx@@YA_NPEIBVPxVec3@2@AEBV32@1M1AEAMAEA_N_N@Z 00000001800687a0 f   GuSweepSphereTriangle.obj
 0001:00068610       ?sweepSphereVSQuad@Gu@physx@@YA_NPEIBVPxVec3@2@AEBV32@1M1AEAM@Z 0000000180069610 f   GuSweepSphereTriangle.obj
 0001:00069a20       ?sweepSphereTriangles@Gu@physx@@YA_NIPEIBVPxTriangle@2@AEBVPxVec3@2@M1MPEIBIAEAUPxSweepHit@2@AEAV42@_N555@Z 000000018006aa20 f   GuSweepSphereTriangle.obj
 0001:0006ad10       ?computeSphereTriImpactData@Gu@physx@@YAXAEAVPxVec3@2@0AEBV32@1MAEBVPxTriangle@2@@Z 000000018006bd10 f   GuSweepTriangleUtils.obj
 0001:0006afa0       ?computeBoxTriImpactData@Gu@physx@@YAXAEAVPxVec3@2@0AEBV32@1AEBVPxTriangle@2@M@Z 000000018006bfa0 f   GuSweepTriangleUtils.obj
 0001:0006b2c0       ?computeEdgeEdgeNormal@Gu@physx@@YAXAEAVPxVec3@2@AEBV32@1111M@Z 000000018006c2c0 f   GuSweepTriangleUtils.obj
 0001:0006b7b0       ??$gjk@U?$LocalConvex@VTriangleV@Gu@physx@@@Gu@physx@@U?$LocalConvex@VBoxV@Gu@physx@@@23@@Gu@physx@@YA?AW4GjkStatus@01@AEBU?$LocalConvex@VTriangleV@Gu@physx@@@01@AEBU?$LocalConvex@VBoxV@Gu@physx@@@01@AEBT__m128@@2AEAT5@333@Z 000000018006c7b0 f i GuSweepTriangleUtils.obj
 0001:0006c930       ??_E?$LocalConvex@VBoxV@Gu@physx@@@Gu@physx@@UEAAPEAXI@Z 000000018006d930 f i GuSweepTriangleUtils.obj
 0001:0006c930       ??_G?$LocalConvex@VBoxV@Gu@physx@@@Gu@physx@@UEAAPEAXI@Z 000000018006d930 f i GuSweepTriangleUtils.obj
 0001:0006c970       ??_E?$LocalConvex@VTriangleV@Gu@physx@@@Gu@physx@@UEAAPEAXI@Z 000000018006d970 f i GuSweepTriangleUtils.obj
 0001:0006c970       ??_G?$LocalConvex@VTriangleV@Gu@physx@@@Gu@physx@@UEAAPEAXI@Z 000000018006d970 f i GuSweepTriangleUtils.obj
 0001:0006c9b0       ?getSweepMargin@?$LocalConvex@VBoxV@Gu@physx@@@Gu@physx@@UEBA?AT__m128@@XZ 000000018006d9b0 f i GuSweepTriangleUtils.obj
 0001:0006c9e0       ?getSweepMargin@?$LocalConvex@VTriangleV@Gu@physx@@@Gu@physx@@UEBA?AT__m128@@XZ 000000018006d9e0 f i GuSweepTriangleUtils.obj
 0001:0006cd90       ?support@?$LocalConvex@VBoxV@Gu@physx@@@Gu@physx@@UEBA?AT__m128@@AEBT4@@Z 000000018006dd90 f i GuSweepTriangleUtils.obj
 0001:0006cdd0       ?support@?$LocalConvex@VBoxV@Gu@physx@@@Gu@physx@@UEBA?AT__m128@@AEBT4@AEAHPEAT4@@Z 000000018006ddd0 f i GuSweepTriangleUtils.obj
 0001:0006ce10       ?support@?$LocalConvex@VTriangleV@Gu@physx@@@Gu@physx@@UEBA?AT__m128@@AEBT4@@Z 000000018006de10 f i GuSweepTriangleUtils.obj
 0001:0006cec0       ?support@?$LocalConvex@VTriangleV@Gu@physx@@@Gu@physx@@UEBA?AT__m128@@AEBT4@AEAHPEAT4@@Z 000000018006dec0 f i GuSweepTriangleUtils.obj
 0001:0006d010       ?supportPoint@?$LocalConvex@VBoxV@Gu@physx@@@Gu@physx@@UEBA?AT__m128@@HPEAT4@@Z 000000018006e010 f i GuSweepTriangleUtils.obj
 0001:0006d050       ?supportPoint@?$LocalConvex@VTriangleV@Gu@physx@@@Gu@physx@@UEBA?AT__m128@@HPEAT4@@Z 000000018006e050 f i GuSweepTriangleUtils.obj
 0001:0006d070       ?epaPenetration@Gu@physx@@YA?AW4GjkStatus@12@AEBUGjkConvex@12@0PEIAE1EAEAT__m128@@222_N@Z 000000018006e070 f   GuEPA.obj
 0001:0006e0e0       ?silhouette@Facet@Gu@physx@@QEAAXAEBT__m128@@PEIBT4@1AEAVEdgeBuffer@23@AEAV?$InlineDeferredIDPool@$0EA@@Cm@3@@Z 000000018006f0e0 f   GuEPA.obj
 0001:0006e2b0       ?PenetrationDepth@EPA@Gu@physx@@QEAA?AW4GjkStatus@23@AEBUGjkConvex@23@0PEIBT__m128@@11HAEAT6@222_N@Z 000000018006f2b0 f   GuEPA.obj
 0001:0006ee70       ?expandPoint@EPA@Gu@physx@@QEAA_NAEBUGjkConvex@23@0AEAHAEBT__m128@@2@Z 000000018006fe70 f   GuEPA.obj
 0001:0006ef70       ?expandSegment@EPA@Gu@physx@@QEAA_NAEBUGjkConvex@23@0AEAHAEBT__m128@@2@Z 000000018006ff70 f   GuEPA.obj
 0001:0006f0d0       ?expandTriangle@EPA@Gu@physx@@QEAA_NAEAHAEBT__m128@@1@Z 00000001800700d0 f   GuEPA.obj
 0001:0006f190       ?addFacet@EPA@Gu@physx@@QEAAPEAVFacet@23@IIIAEBT__m128@@0@Z 0000000180070190 f   GuEPA.obj
 0001:0006fcf0       ??0Edge@Gu@physx@@QEAA@XZ  0000000180070cf0 f i GuEPA.obj
 0001:0006fd00       ??0Facet@Gu@physx@@QEAA@XZ 0000000180070d00 f i GuEPA.obj
 0001:00070210       ?closestPtPointTetrahedron@Gu@physx@@YA?AT__m128@@PEIAT3@00AEAI@Z 0000000180071210 f   GuGJKSimplex.obj
 0001:00070ad0       ?closestPtPointTetrahedron@Gu@physx@@YA?AT__m128@@PEIAT3@00PEIAH1AEAI@Z 0000000180071ad0 f   GuGJKSimplex.obj
 0001:00073030       ?testGjk@Gu@physx@@YA?AW4GjkStatus@12@AEAUGjkConvex@12@0AEBT__m128@@1AEAT5@222@Z 0000000180074030 f   GuGJKTest.obj
 0001:00073040       ?testGjkPenetration@Gu@physx@@YA?AW4GjkStatus@12@AEAUGjkConvex@12@0AEBT__m128@@1AEAT5@222@Z 0000000180074040 f   GuGJKTest.obj
 0001:000730d0       ?testGjkPenetration@Gu@physx@@YA?AW4GjkStatus@12@AEAUGjkConvex@12@0AEBT__m128@@1AEAT5@222PEAE3E@Z 00000001800740d0 f   GuGJKTest.obj
 0001:00073160       ?testEpaPenetration@Gu@physx@@YA?AW4GjkStatus@12@AEAUGjkConvex@12@0AEAT__m128@@111@Z 0000000180074160 f   GuGJKTest.obj
 0001:000731d0       ?testEpaPenetration@Gu@physx@@YA?AW4GjkStatus@12@AEAUGjkConvex@12@0AEAT__m128@@111PEAE2E@Z 00000001800741d0 f   GuGJKTest.obj
 0001:00073250       ?testGjkRaycast@Gu@physx@@YA_NAEAUGjkConvex@12@0AEBT__m128@@111AEAT4@22M@Z 0000000180074250 f   GuGJKTest.obj
 0001:000732e0       ??$gjk@UGjkConvex@Gu@physx@@U123@@Gu@physx@@YA?AW4GjkStatus@01@AEBUGjkConvex@01@0AEBT__m128@@1AEAT4@222@Z 00000001800742e0 f i GuGJKTest.obj
 0001:000743a0       ??$gjkPenetration@UGjkConvex@Gu@physx@@U123@@Gu@physx@@YA?AW4GjkStatus@01@AEBUGjkConvex@01@0AEBT__m128@@1AEAT4@222PEIAE3AEAE_N@Z 00000001800753a0 f i GuGJKTest.obj
 0001:00076230       ??$gjkRaycast@UGjkConvex@Gu@physx@@U123@@Gu@physx@@YA_NAEBUGjkConvex@01@0AEBT__m128@@111AEAT3@22M@Z 0000000180077230 f i GuGJKTest.obj
 0001:00077270       ?intersectOBBOBB@Gu@physx@@YA_NAEBVPxVec3@2@0AEBVPxMat33@2@001_N@Z 0000000180078270 f   GuIntersectionBoxBox.obj
 0001:00077ab0       ?intersectCapsuleTriangle@Gu@physx@@YA_NAEBVPxVec3@2@000AEBVCapsule@12@AEBUCapsuleTriangleOverlapData@12@@Z 0000000180078ab0 f   GuIntersectionCapsuleTriangle.obj
 0001:00078950       ?intersectEdgeEdge@Gu@physx@@YA_NAEBVPxVec3@2@0000AEAMAEAV32@@Z 0000000180079950 f   GuIntersectionEdgeEdge.obj
 0001:00078d50       ?rayAABBIntersect@Gu@physx@@YA_NAEBVPxVec3@2@000AEAV32@@Z 0000000180079d50 f   GuIntersectionRayBox.obj
 0001:00078f50       ?rayAABBIntersect2@Gu@physx@@YAIAEBVPxVec3@2@000AEAV32@AEAM@Z 0000000180079f50 f   GuIntersectionRayBox.obj
 0001:00079160       ?intersectRayAABB@Gu@physx@@YAHAEBVPxVec3@2@000AEAM1@Z 000000018007a160 f   GuIntersectionRayBox.obj
 0001:00079280       ?intersectRayAABB@Gu@physx@@YAHAEBVPxVec3@2@0000AEAM1@Z 000000018007a280 f   GuIntersectionRayBox.obj
 0001:00079440       ?intersectRayAABB2@Gu@physx@@YA_NAEBVPxVec3@2@000MAEAM1@Z 000000018007a440 f   GuIntersectionRayBox.obj
 0001:00079600       ?intersectRayAABB2@Gu@physx@@YA_NAEBT__m128@@0000AEAT3@1@Z 000000018007a600 f   GuIntersectionRayBox.obj
 0001:00079930       ?intersectRayCapsuleInternal@Gu@physx@@YAIAEBVPxVec3@2@000MQEAM@Z 000000018007a930 f   GuIntersectionRayCapsule.obj
 0001:0007a3d0       ?intersectRaySphereBasic@Gu@physx@@YA_NAEBVPxVec3@2@0M0MAEAMPEAV32@@Z 000000018007b3d0 f   GuIntersectionRaySphere.obj
 0001:0007a530       ?intersectRaySphere@Gu@physx@@YA_NAEBVPxVec3@2@0M0MAEAMPEAV32@@Z 000000018007b530 f   GuIntersectionRaySphere.obj
 0001:0007a6e0       ?intersectSphereBox@Gu@physx@@YA_NAEBVSphere@12@AEBVBox@12@@Z 000000018007b6e0 f   GuIntersectionSphereBox.obj
 0001:0007a950       ?intersectTriangleBox_ReferenceCode@Gu@physx@@YAHAEBVPxVec3@2@0000@Z 000000018007b950 f   GuIntersectionTriangleBox.obj
 0001:0007b170       ?intersectTriangleBox_Unsafe@Gu@physx@@YAHAEBVPxVec3@2@0000@Z 000000018007c170 f   GuIntersectionTriangleBox.obj
 0001:0007b530       ?intersectTriangleBox@Gu@physx@@YAHAEBVBoxPadded@12@AEBVPxVec3@2@11@Z 000000018007c530 f   GuIntersectionTriangleBox.obj
 0001:0007ba80       ?intersectTriangleBoxBV4@@YAHAEBVPxVec3@physx@@00AEBVPxMat33@2@00@Z 000000018007ca80 f   GuIntersectionTriangleBox.obj
 0001:0007c420       ??0BV32Tree@Gu@physx@@QEAA@W4PxEMPTY@2@@Z 000000018007d420 f   GuBV32.obj
 0001:0007c440       ?exportExtraData@BV32Tree@Gu@physx@@QEAAXAEAVPxSerializationContext@3@@Z 000000018007d440 f   GuBV32.obj
 0001:0007c490       ?importExtraData@BV32Tree@Gu@physx@@QEAAXAEAVPxDeserializationContext@3@@Z 000000018007d490 f   GuBV32.obj
 0001:0007c4c0       ??0BV32Tree@Gu@physx@@QEAA@XZ 000000018007d4c0 f   GuBV32.obj
 0001:0007c4f0       ??0BV32Tree@Gu@physx@@QEAA@PEAVSourceMesh@12@AEBVPxBounds3@2@@Z 000000018007d4f0 f   GuBV32.obj
 0001:0007c5b0       ??1BV32Tree@Gu@physx@@QEAA@XZ 000000018007d5b0 f   GuBV32.obj
 0001:0007c5c0       ?load@BV32Tree@Gu@physx@@QEAA_NAEAVPxInputStream@3@I@Z 000000018007d5c0 f   GuBV32.obj
 0001:0007c7a0       ?calculateLeafNode@BV32Tree@Gu@physx@@QEAAXAEAUBV32Data@23@@Z 000000018007d7a0 f   GuBV32.obj
 0001:0007c9d0       ?createSOAformatNode@BV32Tree@Gu@physx@@QEAAXAEAUBV32DataPacked@23@AEBUBV32Data@23@IAEAI2@Z 000000018007d9d0 f   GuBV32.obj
 0001:0007ce40       ?reset@BV32Tree@Gu@physx@@QEAAXXZ 000000018007de40 f   GuBV32.obj
 0001:0007ce60       ??4BV32Tree@Gu@physx@@QEAAXAEAV012@@Z 000000018007de60 f   GuBV32.obj
 0001:0007cec0       ?init@BV32Tree@Gu@physx@@QEAA_NPEAVSourceMesh@23@AEBVPxBounds3@3@@Z 000000018007dec0 f   GuBV32.obj
 0001:0007cf70       ?release@BV32Tree@Gu@physx@@QEAAXXZ 000000018007df70 f   GuBV32.obj
 0001:0007d2f0       ?BuildBV32Ex@Gu@physx@@YA_NAEAVBV32Tree@12@AEAVSourceMesh@12@MI@Z 000000018007e2f0 f   GuBV32Build.obj
 0001:0007d4f0       ??0BV32Data@Gu@physx@@QEAA@XZ 000000018007e4f0 f i GuBV32Build.obj
 0001:0007d530       ??0BV32Node@@QEAA@XZ       000000018007e530 f i GuBV32Build.obj
 0001:0007e6a0       ??0SourceMesh@Gu@physx@@QEAA@XZ 000000018007f6a0 f   GuBV4.obj
 0001:0007e6d0       ??1SourceMesh@Gu@physx@@QEAA@XZ 000000018007f6d0 f   GuBV4.obj
 0001:0007e730       ?reset@SourceMesh@Gu@physx@@QEAAXXZ 000000018007f730 f   GuBV4.obj
 0001:0007e750       ??4SourceMesh@Gu@physx@@QEAAXAEAV012@@Z 000000018007f750 f   GuBV4.obj
 0001:0007e7a0       ?remapTopology@SourceMesh@Gu@physx@@QEAAXPEBI@Z 000000018007f7a0 f   GuBV4.obj
 0001:0007eaa0       ?isValid@SourceMesh@Gu@physx@@QEBA_NXZ 000000018007faa0 f   GuBV4.obj
 0001:0007ead0       ??0BV4Tree@Gu@physx@@QEAA@W4PxEMPTY@2@@Z 000000018007fad0 f   GuBV4.obj
 0001:0007eaf0       ?exportExtraData@BV4Tree@Gu@physx@@QEAAXAEAVPxSerializationContext@3@@Z 000000018007faf0 f   GuBV4.obj
 0001:0007eb40       ?importExtraData@BV4Tree@Gu@physx@@QEAAXAEAVPxDeserializationContext@3@@Z 000000018007fb40 f   GuBV4.obj
 0001:0007eb70       ??0BV4Tree@Gu@physx@@QEAA@XZ 000000018007fb70 f   GuBV4.obj
 0001:0007eba0       ??0BV4Tree@Gu@physx@@QEAA@PEAVSourceMesh@12@AEBVPxBounds3@2@@Z 000000018007fba0 f   GuBV4.obj
 0001:0007ec70       ??1BV4Tree@Gu@physx@@QEAA@XZ 000000018007fc70 f   GuBV4.obj
 0001:0007ecd0       ?load@BV4Tree@Gu@physx@@QEAA_NAEAVPxInputStream@3@I@Z 000000018007fcd0 f   GuBV4.obj
 0001:0007ef10       ?reset@BV4Tree@Gu@physx@@QEAAXXZ 000000018007ff10 f   GuBV4.obj
 0001:0007ef40       ??4BV4Tree@Gu@physx@@QEAAXAEAV012@@Z 000000018007ff40 f   GuBV4.obj
 0001:0007efd0       ?init@BV4Tree@Gu@physx@@QEAA_NPEAVSourceMesh@23@AEBVPxBounds3@3@@Z 000000018007ffd0 f   GuBV4.obj
 0001:0007f080       ?release@BV4Tree@Gu@physx@@QEAAXXZ 0000000180080080 f   GuBV4.obj
 0001:0007f360       ??0IndTri16@Gu@physx@@QEAA@XZ 0000000180080360 f i GuBV4.obj
 0001:0007f370       ??0IndTri32@Gu@physx@@QEAA@XZ 0000000180080370 f i GuBV4.obj
 0001:0007f380       ??1IndTri16@Gu@physx@@QEAA@XZ 0000000180080380 f i GuBV4.obj
 0001:0007f390       ??1IndTri32@Gu@physx@@QEAA@XZ 0000000180080390 f i GuBV4.obj
 0001:0007f3a0       ??_EIndTri16@Gu@physx@@QEAAPEAXI@Z 00000001800803a0 f i GuBV4.obj
 0001:0007f440       ??_EIndTri32@Gu@physx@@QEAAPEAXI@Z 0000000180080440 f i GuBV4.obj
 0001:0007f4e0       ??0AABBTree@Gu@physx@@QEAA@XZ 00000001800804e0 f   GuBV4Build.obj
 0001:0007f500       ??1AABBTree@Gu@physx@@QEAA@XZ 0000000180080500 f   GuBV4Build.obj
 0001:0007f510       ?buildFromMesh@AABBTree@Gu@physx@@QEAA_NAEAVSourceMesh@23@I@Z 0000000180080510 f   GuBV4Build.obj
 0001:0007f910       ?release@AABBTree@Gu@physx@@QEAAXXZ 0000000180080910 f   GuBV4Build.obj
 0001:0007f9c0       ?walk@AABBTree@Gu@physx@@QEBAIP6A_NPEBVAABBTreeNode@23@IPEAX@Z1@Z 00000001800809c0 f   GuBV4Build.obj
 0001:0007fa90       ?BuildBV4Ex@Gu@physx@@YA_NAEAVBV4Tree@12@AEAVSourceMesh@12@MI@Z 0000000180080a90 f   GuBV4Build.obj
 0001:0007fd40       ??0BVData@@QEAA@XZ         0000000180080d40 f   GuBV4Build.obj
 0001:0007fd80       ??1BV4BuildParams@@QEAA@XZ 0000000180080d80 f   GuBV4Build.obj
 0001:0007fd90       ?allocateNode@BV4BuildParams@@QEAAPEAUBV4Node@@XZ 0000000180080d90 f   GuBV4Build.obj
 0001:0007fe70       ?releaseNodes@BV4BuildParams@@QEAAXXZ 0000000180080e70 f   GuBV4Build.obj
 0001:00080220       ??0AABBTreeNode@Gu@physx@@QEAA@XZ 0000000180081220 f i GuBV4Build.obj
 0001:00080240       ??0BV4Node@@QEAA@XZ        0000000180081240 f i GuBV4Build.obj
 0001:000802a0       ??0Slab@BV4BuildParams@@QEAA@XZ 00000001800812a0 f i GuBV4Build.obj
 0001:00080310       ??1AABBTreeNode@Gu@physx@@QEAA@XZ 0000000180081310 f i GuBV4Build.obj
 0001:00080330       ??1BV4Node@@QEAA@XZ        0000000180081330 f i GuBV4Build.obj
 0001:00080340       ??1BVData@@QEAA@XZ         0000000180081340 f i GuBV4Build.obj
 0001:00080350       ??_EAABBTreeNode@Gu@physx@@QEAAPEAXI@Z 0000000180081350 f i GuBV4Build.obj
 0001:000827a0       ?Sweep_AABB_BV4@@YAHAEBVBox@Gu@physx@@AEBVPxVec3@3@MAEBVBV4Tree@23@PEIAVSweepHit@23@I@Z 00000001800837a0 f   GuBV4_AABBSweep.obj
 0001:00082cd0       ?Sweep_AABB_BV4_CB@@YAXAEBVBox@Gu@physx@@AEBVPxVec3@3@MAEBVBV4Tree@23@PEIBVPxMat44@3@P6A_NPEAXAEBVSweepHit@23@@Z4I_N@Z 0000000180083cd0 f   GuBV4_AABBSweep.obj
 0001:00082e80       ?GenericSweep_AABB_CB@@YAXAEBVBox@Gu@physx@@AEBVPxVec3@3@MAEBVBV4Tree@23@P6A_NPEAX111IAEAM@Z3I@Z 0000000180083e80 f   GuBV4_AABBSweep.obj
 0001:0008aad0       ??DPxMat33@physx@@QEBA?BVPxVec3@1@AEBV21@@Z 000000018008bad0 f i GuBV4_AABBSweep.obj
 0001:0008b4b0       ?rotate@PxMat44@physx@@QEBA?BVPxVec3@2@AEBV32@@Z 000000018008c4b0 f i GuBV4_AABBSweep.obj
 0001:0008b580       ?rotate@PxMat44@physx@@QEBA?BVPxVec4@2@AEBV32@@Z 000000018008c580 f i GuBV4_AABBSweep.obj
 0001:0008c790       ?BV4_OverlapBoxAny@@YAHAEBVBox@Gu@physx@@AEBVBV4Tree@23@PEIBVPxMat44@3@@Z 000000018008d790 f   GuBV4_BoxOverlap.obj
 0001:0008cf80       ?BV4_OverlapBoxAll@@YAIAEBVBox@Gu@physx@@AEBVBV4Tree@23@PEIBVPxMat44@3@PEAIIAEA_N@Z 000000018008df80 f   GuBV4_BoxOverlap.obj
 0001:0008d7c0       ?BV4_OverlapBoxCB@@YAXAEBVBox@Gu@physx@@AEBVBV4Tree@23@P6A_NPEAXAEBVPxVec3@3@33IPEBI@Z2@Z 000000018008e7c0 f   GuBV4_BoxOverlap.obj
 0001:0008dc70       ?BV4_OverlapCapsuleAny@@YAHAEBVCapsule@Gu@physx@@AEBVBV4Tree@23@PEIBVPxMat44@3@@Z 000000018008ec70 f   GuBV4_BoxOverlap.obj
 0001:0008e390       ?BV4_OverlapCapsuleAll@@YAIAEBVCapsule@Gu@physx@@AEBVBV4Tree@23@PEIBVPxMat44@3@PEAIIAEA_N@Z 000000018008f390 f   GuBV4_BoxOverlap.obj
 0001:0008eb10       ?BV4_OverlapCapsuleCB@@YAXAEBVCapsule@Gu@physx@@AEBVBV4Tree@23@PEIBVPxMat44@3@P6A_NPEAXAEBVPxVec3@3@44IPEBI@Z3@Z 000000018008fb10 f   GuBV4_BoxOverlap.obj
 0001:00095200       ?BV4_CapsuleSweepSingle@@YAHAEBVCapsule@Gu@physx@@AEBVPxVec3@3@MAEBVBV4Tree@23@PEIAVSweepHit@23@I@Z 0000000180096200 f   GuBV4_CapsuleSweep.obj
 0001:000957b0       ?BV4_CapsuleSweepCB@@YAXAEBVCapsule@Gu@physx@@AEBVPxVec3@3@MAEBVBV4Tree@23@PEIBVPxMat44@3@P6A_NPEAXAEBVSweepHit@23@@Z4I_N@Z 00000001800967b0 f   GuBV4_CapsuleSweep.obj
 0001:0009c9b0       ?computeBasis@shdfnd@physx@@YAXAEBVPxVec3@2@AEAV32@1@Z 000000018009d9b0 f i GuBV4_CapsuleSweep.obj
 0001:0009e6d0       ?transform@PxMat44@physx@@QEBA?BVPxVec3@2@AEBV32@@Z 000000018009f6d0 f i GuBV4_CapsuleSweep.obj
 0001:0009f7b0       ?BV4_CapsuleSweepSingleAA@@YAHAEBVCapsule@Gu@physx@@AEBVPxVec3@3@MAEBVBV4Tree@23@PEIAVSweepHit@23@I@Z 00000001800a07b0 f   GuBV4_CapsuleSweepAA.obj
 0001:000a34f0       ?Sweep_OBB_BV4@@YAHAEBVBox@Gu@physx@@AEBVPxVec3@3@MAEBVBV4Tree@23@PEIAVSweepHit@23@I@Z 00000001800a44f0 f   GuBV4_OBBSweep.obj
 0001:000a3a20       ?Sweep_OBB_BV4_CB@@YAXAEBVBox@Gu@physx@@AEBVPxVec3@3@MAEBVBV4Tree@23@PEIBVPxMat44@3@P6A_NPEAXAEBVSweepHit@23@@Z4I_N@Z 00000001800a4a20 f   GuBV4_OBBSweep.obj
 0001:000a3bb0       ?GenericSweep_OBB_CB@@YAXAEBVBox@Gu@physx@@AEBVPxVec3@3@MAEBVBV4Tree@23@P6A_NPEAX111IAEAM@Z3I@Z 00000001800a4bb0 f   GuBV4_OBBSweep.obj
 0001:000a3cc0       ?BV4_BoxSweepSingle@@YAHAEBVBox@Gu@physx@@AEBVPxVec3@3@MAEBVBV4Tree@23@PEIBVPxMat44@3@PEIAVSweepHit@23@I@Z 00000001800a4cc0 f   GuBV4_OBBSweep.obj
 0001:000a43f0       ?BV4_BoxSweepCB@@YAXAEBVBox@Gu@physx@@AEBVPxVec3@3@MAEBVBV4Tree@23@PEIBVPxMat44@3@P6A_NPEAXAEBVSweepHit@23@@Z4I_N@Z 00000001800a53f0 f   GuBV4_OBBSweep.obj
 0001:000a4a50       ?BV4_GenericSweepCB@@YAXAEBVBox@Gu@physx@@AEBVPxVec3@3@MAEBVBV4Tree@23@P6A_NPEAX111IAEAM@Z3_N@Z 00000001800a5a50 f   GuBV4_OBBSweep.obj
 0001:000afe60       ?BV4_RaycastSingle@@YAHAEBVPxVec3@physx@@0AEBVBV4Tree@Gu@2@PEIBVPxMat44@2@PEIAUPxRaycastHit@2@MMIV?$PxFlags@W4Enum@PxHitFlag@physx@@G@2@@Z 00000001800b0e60 f   GuBV4_Raycast.obj
 0001:000b0400       ?BV4_RaycastCB@@YAXAEBVPxVec3@physx@@0AEBVBV4Tree@Gu@2@PEIBVPxMat44@2@MMIP6A?AW4HitCode@42@PEAX000IMMM@Z3@Z 00000001800b1400 f   GuBV4_Raycast.obj
 0001:000b0840       ?BV4_RaycastAll@@YAIAEBVPxVec3@physx@@0AEBVBV4Tree@Gu@2@PEIBVPxMat44@2@PEIAUPxRaycastHit@2@IMMIV?$PxFlags@W4Enum@PxHitFlag@physx@@G@2@@Z 00000001800b1840 f   GuBV4_Raycast.obj
 0001:000b3f30       ?BV4_OverlapSphereAny@@YAHAEBVSphere@Gu@physx@@AEBVBV4Tree@23@PEIBVPxMat44@3@@Z 00000001800b4f30 f   GuBV4_SphereOverlap.obj
 0001:000b41e0       ?BV4_OverlapSphereAll@@YAIAEBVSphere@Gu@physx@@AEBVBV4Tree@23@PEIBVPxMat44@3@PEAIIAEA_N@Z 00000001800b51e0 f   GuBV4_SphereOverlap.obj
 0001:000b44f0       ?BV4_OverlapSphereCB@@YAXAEBVSphere@Gu@physx@@AEBVBV4Tree@23@PEIBVPxMat44@3@P6A_NPEAXAEBVPxVec3@3@44IPEBI@Z3@Z 00000001800b54f0 f   GuBV4_SphereOverlap.obj
 0001:000b8290       ?BV4_SphereSweepSingle@@YAHAEBVSphere@Gu@physx@@AEBVPxVec3@3@MAEBVBV4Tree@23@PEIBVPxMat44@3@PEIAVSweepHit@23@I@Z 00000001800b9290 f   GuBV4_SphereSweep.obj
 0001:000b88a0       ?BV4_SphereSweepCB@@YAXAEBVSphere@Gu@physx@@AEBVPxVec3@3@MAEBVBV4Tree@23@PEIBVPxMat44@3@P6A_NPEAXAEBVSweepHit@23@@Z4I_N@Z 00000001800b98a0 f   GuBV4_SphereSweep.obj
 0001:000b8c90       ?BV4_GenericSweepCB_Old@@YAXAEBVPxVec3@physx@@00MAEBVBV4Tree@Gu@2@PEIBVPxMat44@2@P6A_NPEAX000IAEAM@Z3@Z 00000001800b9c90 f   GuBV4_SphereSweep.obj
 0001:000bebc0       ?getTriangle@PxMeshQuery@physx@@SAXAEBVPxTriangleMeshGeometry@2@AEBVPxTransform@2@IAEAVPxTriangle@2@PEAI3@Z 00000001800bfbc0 f   GuMeshQuery.obj
 0001:000bf060       ?getTriangle@PxMeshQuery@physx@@SAXAEBVPxHeightFieldGeometry@2@AEBVPxTransform@2@IAEAVPxTriangle@2@PEAI3@Z 00000001800c0060 f   GuMeshQuery.obj
 0001:000bf0e0       ?findOverlapTriangleMesh@PxMeshQuery@physx@@SAIAEBVPxGeometry@2@AEBVPxTransform@2@AEBVPxTriangleMeshGeometry@2@1PEAIIIAEA_N@Z 00000001800c00e0 f   GuMeshQuery.obj
 0001:000bf440       ?findOverlapHeightField@PxMeshQuery@physx@@SAIAEBVPxGeometry@2@AEBVPxTransform@2@AEBVPxHeightFieldGeometry@2@1PEAIIIAEA_N@Z 00000001800c0440 f   GuMeshQuery.obj
 0001:000bf9c0       ?sweep@PxMeshQuery@physx@@SA_NAEBVPxVec3@2@MAEBVPxGeometry@2@AEBVPxTransform@2@IPEBVPxTriangle@2@AEAUPxSweepHit@2@V?$PxFlags@W4Enum@PxHitFlag@physx@@G@2@PEBIM_N@Z 00000001800c09c0 f   GuMeshQuery.obj
 0001:000bfd90       ?intersectOBB_Particles@Gu@physx@@YAXPEBVTriangleMesh@12@AEBVBox@12@AEAU?$MeshHitCallback@UPxRaycastHit@physx@@@12@_N3@Z 00000001800c0d90 f   GuMeshQuery.obj
 0001:000c0230       ??Dphysx@@YA?AVMatrix34@Cm@0@AEBVPxTransform@0@AEBVPxMeshScale@0@@Z 00000001800c1230 f i GuMeshQuery.obj
 0001:000c0a40       ??_EHfTrianglesEntityReport2@?A0x1b4ba57a@@UEAAPEAXI@Z 00000001800c1a40 f i GuMeshQuery.obj
 0001:000c0a40       ??_GHfTrianglesEntityReport2@?A0x1b4ba57a@@UEAAPEAXI@Z 00000001800c1a40 f i GuMeshQuery.obj
 0001:000c0a80       ?basisExtent@PxBounds3@physx@@SA?AV12@AEBVPxVec3@2@AEBVPxMat33@2@0@Z 00000001800c1a80 f i GuMeshQuery.obj
 0001:000c0bf0       ?isFinite@PxQuat@physx@@QEBA_NXZ 00000001800c1bf0 f i GuMeshQuery.obj
 0001:000c0c80       ?isFinite@PxVec3@physx@@QEBA_NXZ 00000001800c1c80 f i GuMeshQuery.obj
 0001:000c0cf0       ?isUnit@PxQuat@physx@@QEBA_NXZ 00000001800c1cf0 f i GuMeshQuery.obj
 0001:000c0d80       ?isValid@PxTransform@physx@@QEBA_NXZ 00000001800c1d80 f i GuMeshQuery.obj
 0001:000c0fb0       ?poseExtent@PxBounds3@physx@@SA?AV12@AEBVPxTransform@2@AEBVPxVec3@2@@Z 00000001800c1fb0 f i GuMeshQuery.obj
 0001:000c1180       ?raycast_triangleMesh_BV4@Gu@physx@@YAIPEBVTriangleMesh@12@AEBVPxTriangleMeshGeometry@2@AEBVPxTransform@2@AEBVPxVec3@2@3MV?$PxFlags@W4Enum@PxHitFlag@physx@@G@2@IPEIAUPxRaycastHit@2@@Z 00000001800c2180 f   GuMidphaseBV4.obj
 0001:000c2050       ?intersectSphereVsMesh_BV4@Gu@physx@@YA_NAEBVSphere@12@AEBVTriangleMesh@12@AEBVPxTransform@2@AEBVPxMeshScale@2@PEAULimitedResults@12@@Z 00000001800c3050 f   GuMidphaseBV4.obj
 0001:000c2810       ?intersectBoxVsMesh_BV4@Gu@physx@@YA_NAEBVBox@12@AEBVTriangleMesh@12@AEBVPxTransform@2@AEBVPxMeshScale@2@PEAULimitedResults@12@@Z 00000001800c3810 f   GuMidphaseBV4.obj
 0001:000c3400       ?intersectCapsuleVsMesh_BV4@Gu@physx@@YA_NAEBVCapsule@12@AEBVTriangleMesh@12@AEBVPxTransform@2@AEBVPxMeshScale@2@PEAULimitedResults@12@@Z 00000001800c4400 f   GuMidphaseBV4.obj
 0001:000c3cd0       ?intersectOBB_BV4@Gu@physx@@YAXPEBVTriangleMesh@12@AEBVBox@12@AEAU?$MeshHitCallback@UPxRaycastHit@physx@@@12@_N3@Z 00000001800c4cd0 f   GuMidphaseBV4.obj
 0001:000c3d00       ?sweepCapsule_MeshGeom_BV4@Gu@physx@@YA_NPEBVTriangleMesh@12@AEBVPxTriangleMeshGeometry@2@AEBVPxTransform@2@AEBVCapsule@12@AEBVPxVec3@2@MAEAUPxSweepHit@2@V?$PxFlags@W4Enum@PxHitFlag@physx@@G@2@M@Z 00000001800c4d00 f   GuMidphaseBV4.obj
 0001:000c48b0       ?sweepBox_MeshGeom_BV4@Gu@physx@@YA_NPEBVTriangleMesh@12@AEBVPxTriangleMeshGeometry@2@AEBVPxTransform@2@AEBVBox@12@AEBVPxVec3@2@MAEAUPxSweepHit@2@V?$PxFlags@W4Enum@PxHitFlag@physx@@G@2@M@Z 00000001800c58b0 f   GuMidphaseBV4.obj
 0001:000c60d0       ?sweepConvex_MeshGeom_BV4@Gu@physx@@YAXPEBVTriangleMesh@12@AEBVBox@12@AEBVPxVec3@2@MAEAUSweepConvexMeshHitCallback@12@_N@Z 00000001800c70d0 f   GuMidphaseBV4.obj
 0001:000c8970       ??0PxVec4@physx@@QEAA@XZ   00000001800c9970 f i GuMidphaseBV4.obj
 0001:000c8980       ??1SweepBoxMeshHitCallback@Gu@physx@@UEAA@XZ 00000001800c9980 f i GuMidphaseBV4.obj
 0001:000c93e0       ?computeSweepData@physx@@YAMAEBVPxTriangleMeshGeometry@1@AEAVPxVec3@1@11M@Z 00000001800ca3e0 f i GuMidphaseBV4.obj
 0001:000c9860       ?transform@PxMeshScale@physx@@QEBA?AVPxVec3@2@AEBV32@@Z 00000001800ca860 f i GuMidphaseBV4.obj
 0001:000c9b40       ?raycast_triangleMesh_RTREE@Gu@physx@@YAIPEBVTriangleMesh@12@AEBVPxTriangleMeshGeometry@2@AEBVPxTransform@2@AEBVPxVec3@2@3MV?$PxFlags@W4Enum@PxHitFlag@physx@@G@2@IPEIAUPxRaycastHit@2@@Z 00000001800cab40 f   GuMidphaseRTree.obj
 0001:000ca300       ?intersectSphereVsMesh_RTREE@Gu@physx@@YA_NAEBVSphere@12@AEBVTriangleMesh@12@AEBVPxTransform@2@AEBVPxMeshScale@2@PEAULimitedResults@12@@Z 00000001800cb300 f   GuMidphaseRTree.obj
 0001:000ca380       ?intersectBoxVsMesh_RTREE@Gu@physx@@YA_NAEBVBox@12@AEBVTriangleMesh@12@AEBVPxTransform@2@AEBVPxMeshScale@2@PEAULimitedResults@12@@Z 00000001800cb380 f   GuMidphaseRTree.obj
 0001:000ca400       ?intersectCapsuleVsMesh_RTREE@Gu@physx@@YA_NAEBVCapsule@12@AEBVTriangleMesh@12@AEBVPxTransform@2@AEBVPxMeshScale@2@PEAULimitedResults@12@@Z 00000001800cb400 f   GuMidphaseRTree.obj
 0001:000ca480       ?intersectOBB_RTREE@Gu@physx@@YAXPEBVTriangleMesh@12@AEBVBox@12@AEAU?$MeshHitCallback@UPxRaycastHit@physx@@@12@_N3@Z 00000001800cb480 f   GuMidphaseRTree.obj
 0001:000ca4b0       ?sweepCapsule_MeshGeom_RTREE@Gu@physx@@YA_NPEBVTriangleMesh@12@AEBVPxTriangleMeshGeometry@2@AEBVPxTransform@2@AEBVCapsule@12@AEBVPxVec3@2@MAEAUPxSweepHit@2@V?$PxFlags@W4Enum@PxHitFlag@physx@@G@2@M@Z 00000001800cb4b0 f   GuMidphaseRTree.obj
 0001:000cac80       ?sweepBox_MeshGeom_RTREE@Gu@physx@@YA_NPEBVTriangleMesh@12@AEBVPxTriangleMeshGeometry@2@AEBVPxTransform@2@AEBVBox@12@AEBVPxVec3@2@MAEAUPxSweepHit@2@V?$PxFlags@W4Enum@PxHitFlag@physx@@G@2@M@Z 00000001800cbc80 f   GuMidphaseRTree.obj
 0001:000cc210       ?sweepConvex_MeshGeom_RTREE@Gu@physx@@YAXPEBVTriangleMesh@12@AEBVBox@12@AEBVPxVec3@2@MAEAUSweepConvexMeshHitCallback@12@_N@Z 00000001800cd210 f   GuMidphaseRTree.obj
 0001:000cc270       ?collideOBB@MeshRayCollider@@SAXAEBVBox@Gu@physx@@_NPEBVRTreeTriangleMesh@34@AEAU?$MeshHitCallback@UPxRaycastHit@physx@@@34@1@Z 00000001800cd270 f   GuMidphaseRTree.obj
 0001:000ccfd0       ??$collide@$00$00@MeshRayCollider@@SAXAEBVPxVec3@physx@@0M_NPEBVRTreeTriangleMesh@Gu@2@AEAU?$MeshHitCallback@UPxRaycastHit@physx@@@42@PEBV12@@Z 00000001800cdfd0 f i GuMidphaseRTree.obj
 0001:000cd2a0       ??$collide@$00$0A@@MeshRayCollider@@SAXAEBVPxVec3@physx@@0M_NPEBVRTreeTriangleMesh@Gu@2@AEAU?$MeshHitCallback@UPxRaycastHit@physx@@@42@PEBV12@@Z 00000001800ce2a0 f i GuMidphaseRTree.obj
 0001:000cd570       ??$collide@$0A@$00@MeshRayCollider@@SAXAEBVPxVec3@physx@@0M_NPEBVRTreeTriangleMesh@Gu@2@AEAU?$MeshHitCallback@UPxRaycastHit@physx@@@42@PEBV12@@Z 00000001800ce570 f i GuMidphaseRTree.obj
 0001:000cda90       ??$collide@$0A@$0A@@MeshRayCollider@@SAXAEBVPxVec3@physx@@0M_NPEBVRTreeTriangleMesh@Gu@2@AEAU?$MeshHitCallback@UPxRaycastHit@physx@@@42@PEBV12@@Z 00000001800cea90 f i GuMidphaseRTree.obj
 0001:000d0ac0       ??0?$RayRTreeCallback@$00$00@@QEAA@MAEAU?$MeshHitCallback@UPxRaycastHit@physx@@@Gu@physx@@HPEBXPEBVPxVec3@3@AEBV43@3M_N2@Z 00000001800d1ac0 f i GuMidphaseRTree.obj
 0001:000d0c40       ??0?$RayRTreeCallback@$00$0A@@@QEAA@MAEAU?$MeshHitCallback@UPxRaycastHit@physx@@@Gu@physx@@HPEBXPEBVPxVec3@3@AEBV43@3M_N2@Z 00000001800d1c40 f i GuMidphaseRTree.obj
 0001:000d0e20       ??1?$RayRTreeCallback@$00$00@@UEAA@XZ 00000001800d1e20 f i GuMidphaseRTree.obj
 0001:000d0ed0       ??1?$RayRTreeCallback@$00$0A@@@UEAA@XZ 00000001800d1ed0 f i GuMidphaseRTree.obj
 0001:000d0f80       ??1?$RayRTreeCallback@$0A@$00@@UEAA@XZ 00000001800d1f80 f i GuMidphaseRTree.obj
 0001:000d1030       ??1?$RayRTreeCallback@$0A@$0A@@@UEAA@XZ 00000001800d2030 f i GuMidphaseRTree.obj
 0001:000d10e0       ??1Callback@RTree@Gu@physx@@UEAA@XZ 00000001800d20e0 f i GuMidphaseRTree.obj
 0001:000d10f0       ??1CallbackRaycast@RTree@Gu@physx@@UEAA@XZ 00000001800d20f0 f i GuMidphaseRTree.obj
 0001:000d1110       ??_E?$RayRTreeCallback@$00$00@@W7EAAPEAXI@Z 00000001800d2110 f i GuMidphaseRTree.obj
 0001:000d111c       ??_E?$RayRTreeCallback@$00$0A@@@W7EAAPEAXI@Z 00000001800d211c f i GuMidphaseRTree.obj
 0001:000d1128       ??_E?$RayRTreeCallback@$0A@$00@@W7EAAPEAXI@Z 00000001800d2128 f i GuMidphaseRTree.obj
 0001:000d1134       ??_E?$RayRTreeCallback@$0A@$0A@@@W7EAAPEAXI@Z 00000001800d2134 f i GuMidphaseRTree.obj
 0001:000d1140       ??_E?$IntersectBoxVsMeshCallback@$00@?A0x7a9a12d2@@UEAAPEAXI@Z 00000001800d2140 f i GuMidphaseRTree.obj
 0001:000d1140       ??_G?$IntersectBoxVsMeshCallback@$00@?A0x7a9a12d2@@UEAAPEAXI@Z 00000001800d2140 f i GuMidphaseRTree.obj
 0001:000d1180       ??_G?$IntersectBoxVsMeshCallback@$0A@@?A0x7a9a12d2@@UEAAPEAXI@Z 00000001800d2180 f i GuMidphaseRTree.obj
 0001:000d1180       ??_E?$IntersectBoxVsMeshCallback@$0A@@?A0x7a9a12d2@@UEAAPEAXI@Z 00000001800d2180 f i GuMidphaseRTree.obj
 0001:000d11c0       ??_G?$IntersectCapsuleVsMeshCallback@$00@?A0x7a9a12d2@@UEAAPEAXI@Z 00000001800d21c0 f i GuMidphaseRTree.obj
 0001:000d11c0       ??_E?$IntersectCapsuleVsMeshCallback@$00@?A0x7a9a12d2@@UEAAPEAXI@Z 00000001800d21c0 f i GuMidphaseRTree.obj
 0001:000d1200       ??_G?$IntersectCapsuleVsMeshCallback@$0A@@?A0x7a9a12d2@@UEAAPEAXI@Z 00000001800d2200 f i GuMidphaseRTree.obj
 0001:000d1200       ??_E?$IntersectCapsuleVsMeshCallback@$0A@@?A0x7a9a12d2@@UEAAPEAXI@Z 00000001800d2200 f i GuMidphaseRTree.obj
 0001:000d1240       ??_G?$IntersectSphereVsMeshCallback@$00@?A0x7a9a12d2@@UEAAPEAXI@Z 00000001800d2240 f i GuMidphaseRTree.obj
 0001:000d1240       ??_E?$IntersectSphereVsMeshCallback@$00@?A0x7a9a12d2@@UEAAPEAXI@Z 00000001800d2240 f i GuMidphaseRTree.obj
 0001:000d1280       ??_E?$IntersectSphereVsMeshCallback@$0A@@?A0x7a9a12d2@@UEAAPEAXI@Z 00000001800d2280 f i GuMidphaseRTree.obj
 0001:000d1280       ??_G?$IntersectSphereVsMeshCallback@$0A@@?A0x7a9a12d2@@UEAAPEAXI@Z 00000001800d2280 f i GuMidphaseRTree.obj
 0001:000d12c0       ??_E?$RayRTreeCallback@$00$00@@UEAAPEAXI@Z 00000001800d22c0 f i GuMidphaseRTree.obj
 0001:000d12c0       ??_G?$RayRTreeCallback@$00$00@@UEAAPEAXI@Z 00000001800d22c0 f i GuMidphaseRTree.obj
 0001:000d1310       ??_G?$RayRTreeCallback@$00$0A@@@UEAAPEAXI@Z 00000001800d2310 f i GuMidphaseRTree.obj
 0001:000d1310       ??_E?$RayRTreeCallback@$00$0A@@@UEAAPEAXI@Z 00000001800d2310 f i GuMidphaseRTree.obj
 0001:000d1360       ??_G?$RayRTreeCallback@$0A@$00@@UEAAPEAXI@Z 00000001800d2360 f i GuMidphaseRTree.obj
 0001:000d1360       ??_E?$RayRTreeCallback@$0A@$00@@UEAAPEAXI@Z 00000001800d2360 f i GuMidphaseRTree.obj
 0001:000d13b0       ??_E?$RayRTreeCallback@$0A@$0A@@@UEAAPEAXI@Z 00000001800d23b0 f i GuMidphaseRTree.obj
 0001:000d13b0       ??_G?$RayRTreeCallback@$0A@$0A@@@UEAAPEAXI@Z 00000001800d23b0 f i GuMidphaseRTree.obj
 0001:000d1400       ??_GCallback@RTree@Gu@physx@@UEAAPEAXI@Z 00000001800d2400 f i GuMidphaseRTree.obj
 0001:000d1400       ??_ECallback@RTree@Gu@physx@@UEAAPEAXI@Z 00000001800d2400 f i GuMidphaseRTree.obj
 0001:000d1440       ??_ECallbackRaycast@RTree@Gu@physx@@UEAAPEAXI@Z 00000001800d2440 f i GuMidphaseRTree.obj
 0001:000d1440       ??_GCallbackRaycast@RTree@Gu@physx@@UEAAPEAXI@Z 00000001800d2440 f i GuMidphaseRTree.obj
 0001:000d1480       ??_EIntersectShapeVsMeshCallback@?A0x7a9a12d2@@UEAAPEAXI@Z 00000001800d2480 f i GuMidphaseRTree.obj
 0001:000d1480       ??_GIntersectShapeVsMeshCallback@?A0x7a9a12d2@@UEAAPEAXI@Z 00000001800d2480 f i GuMidphaseRTree.obj
 0001:000d14c0       ??_ERayMeshColliderCallback@@UEAAPEAXI@Z 00000001800d24c0 f i GuMidphaseRTree.obj
 0001:000d14c0       ??_GRayMeshColliderCallback@@UEAAPEAXI@Z 00000001800d24c0 f i GuMidphaseRTree.obj
 0001:000d2770       ?processHit@RayMeshColliderCallback@@UEAA_NAEBUPxRaycastHit@physx@@AEBVPxVec3@3@11AEAMPEBI@Z 00000001800d3770 f i GuMidphaseRTree.obj
 0001:000d2f70       ?processResults@?$RayRTreeCallback@$00$00@@UEAA_NIPEAI@Z 00000001800d3f70 f i GuMidphaseRTree.obj
 0001:000d3440       ?processResults@?$RayRTreeCallback@$00$00@@UEAA_NIPEAIAEAM@Z 00000001800d4440 f i GuMidphaseRTree.obj
 0001:000d3910       ?processResults@?$RayRTreeCallback@$00$0A@@@UEAA_NIPEAI@Z 00000001800d4910 f i GuMidphaseRTree.obj
 0001:000d3c60       ?processResults@?$RayRTreeCallback@$00$0A@@@UEAA_NIPEAIAEAM@Z 00000001800d4c60 f i GuMidphaseRTree.obj
 0001:000d3fc0       ?processResults@?$RayRTreeCallback@$0A@$00@@UEAA_NIPEAI@Z 00000001800d4fc0 f i GuMidphaseRTree.obj
 0001:000d4810       ?processResults@?$RayRTreeCallback@$0A@$00@@UEAA_NIPEAIAEAM@Z 00000001800d5810 f i GuMidphaseRTree.obj
 0001:000d5050       ?processResults@?$RayRTreeCallback@$0A@$0A@@@UEAA_NIPEAI@Z 00000001800d6050 f i GuMidphaseRTree.obj
 0001:000d53a0       ?processResults@?$RayRTreeCallback@$0A@$0A@@@UEAA_NIPEAIAEAM@Z 00000001800d63a0 f i GuMidphaseRTree.obj
 0001:000d5700       ?profile@Callback@RTree@Gu@physx@@UEAAXXZ 00000001800d6700 f i GuMidphaseRTree.obj
 0001:000d5710       ?transformBoxOrthonormal@physx@@YA?AVBox@Gu@1@AEBV231@AEBVPxTransform@1@@Z 00000001800d6710 f i GuMidphaseRTree.obj
 0001:000d5cd0       ?checkOverlapAABB_triangleGeom@Gu@physx@@YA_NAEBVPxGeometry@2@AEBVPxTransform@2@AEBVPxBounds3@2@@Z 00000001800d6cd0 f   GuOverlapTestsMesh.obj
 0001:000d5dd0       ?GeomOverlapCallback_SphereMesh@@YA_NAEBVPxGeometry@physx@@AEBVPxTransform@2@01PEAUTriggerCache@Gu@2@@Z 00000001800d6dd0 f   GuOverlapTestsMesh.obj
 0001:000d5e40       ?GeomOverlapCallback_CapsuleMesh@@YA_NAEBVPxGeometry@physx@@AEBVPxTransform@2@01PEAUTriggerCache@Gu@2@@Z 00000001800d6e40 f   GuOverlapTestsMesh.obj
 0001:000d5f70       ?GeomOverlapCallback_BoxMesh@@YA_NAEBVPxGeometry@physx@@AEBVPxTransform@2@01PEAUTriggerCache@Gu@2@@Z 00000001800d6f70 f   GuOverlapTestsMesh.obj
 0001:000d6080       ?GeomOverlapCallback_ConvexMesh@@YA_NAEBVPxGeometry@physx@@AEBVPxTransform@2@01PEAUTriggerCache@Gu@2@@Z 00000001800d7080 f   GuOverlapTestsMesh.obj
 0001:000d68d0       ??$gjk@U?$RelativeConvex@VTriangleV@Gu@physx@@@Gu@physx@@U?$LocalConvex@VConvexHullV@Gu@physx@@@23@@Gu@physx@@YA?AW4GjkStatus@01@AEBU?$RelativeConvex@VTriangleV@Gu@physx@@@01@AEBU?$LocalConvex@VConvexHullV@Gu@physx@@@01@AEBT__m128@@2AEAT5@333@Z 00000001800d78d0 f i GuOverlapTestsMesh.obj
 0001:000d7b50       ??0ConvexVsMeshOverlapCallback@@QEAA@AEBVConvexMesh@Gu@physx@@AEBVPxMeshScale@3@AEBVFastVertex2ShapeScaling@Cm@3@AEBVPxTransform@3@3_NAEBVBox@23@@Z 00000001800d8b50 f i GuOverlapTestsMesh.obj
 0001:000d86f0       ??1ConvexVsMeshOverlapCallback@@UEAA@XZ 00000001800d96f0 f i GuOverlapTestsMesh.obj
 0001:000d8700       ??_G?$RelativeConvex@VTriangleV@Gu@physx@@@Gu@physx@@UEAAPEAXI@Z 00000001800d9700 f i GuOverlapTestsMesh.obj
 0001:000d8700       ??_E?$RelativeConvex@VTriangleV@Gu@physx@@@Gu@physx@@UEAAPEAXI@Z 00000001800d9700 f i GuOverlapTestsMesh.obj
 0001:000d8740       ??_GConvexVsMeshOverlapCallback@@UEAAPEAXI@Z 00000001800d9740 f i GuOverlapTestsMesh.obj
 0001:000d8740       ??_EConvexVsMeshOverlapCallback@@UEAAPEAXI@Z 00000001800d9740 f i GuOverlapTestsMesh.obj
 0001:000d8780       ?getSweepMargin@?$RelativeConvex@VTriangleV@Gu@physx@@@Gu@physx@@UEBA?AT__m128@@XZ 00000001800d9780 f i GuOverlapTestsMesh.obj
 0001:000d87b0       ?processHit@ConvexVsMeshOverlapCallback@@UEAA_NAEBUPxRaycastHit@physx@@AEBVPxVec3@3@11AEAMPEBI@Z 00000001800d97b0 f i GuOverlapTestsMesh.obj
 0001:000d8c50       ?support@?$RelativeConvex@VTriangleV@Gu@physx@@@Gu@physx@@UEBA?AT__m128@@AEBT4@@Z 00000001800d9c50 f i GuOverlapTestsMesh.obj
 0001:000d8d90       ?support@?$RelativeConvex@VTriangleV@Gu@physx@@@Gu@physx@@UEBA?AT__m128@@AEBT4@AEAHPEAT4@@Z 00000001800d9d90 f i GuOverlapTestsMesh.obj
 0001:000d8f30       ?supportPoint@?$RelativeConvex@VTriangleV@Gu@physx@@@Gu@physx@@UEBA?AT__m128@@HPEAT4@@Z 00000001800d9f30 f i GuOverlapTestsMesh.obj
 0001:000d8f90       ??0RTree@Gu@physx@@QEAA@W4PxEMPTY@2@@Z 00000001800d9f90 f   GuRTree.obj
 0001:000d8fa0       ?exportExtraData@RTree@Gu@physx@@QEAAXAEAVPxSerializationContext@3@@Z 00000001800d9fa0 f   GuRTree.obj
 0001:000d8ff0       ?importExtraData@RTree@Gu@physx@@QEAAXAEAVPxDeserializationContext@3@@Z 00000001800d9ff0 f   GuRTree.obj
 0001:000d9020       ?save@RTree@Gu@physx@@QEBA_NAEAVPxOutputStream@3@@Z 00000001800da020 f   GuRTree.obj
 0001:000d9230       ?load@RTree@Gu@physx@@QEAA_NAEAVPxInputStream@3@I@Z 00000001800da230 f   GuRTree.obj
 0001:000d94d0       ?refitAllStaticTree@RTree@Gu@physx@@QEAAXAEAUCallbackRefit@123@PEAVPxBounds3@3@@Z 00000001800da4d0 f   GuRTree.obj
 0001:000d9930       ?validate@RTree@Gu@physx@@QEAAXPEAUCallbackRefit@123@@Z 00000001800da930 f   GuRTree.obj
 0001:000d9b70       ?computeBottomLevelCount@RTree@Gu@physx@@QEBAII@Z 00000001800dab70 f   GuRTree.obj
 0001:000d9c60       ?validateRecursive@RTree@Gu@physx@@IEAAXIURTreeNodeQ@23@PEAURTreePage@23@PEAUCallbackRefit@123@@Z 00000001800dac60 f   GuRTree.obj
 0001:000da140       ?traverseAABB@RTree@Gu@physx@@QEBAXAEBVPxVec3@3@0IPEAIPEAUCallback@123@@Z 00000001800db140 f   GuRTreeQueries.obj
 0001:000da320       ?traverseOBB@RTree@Gu@physx@@QEBAXAEBVBox@23@IPEAIPEAUCallback@123@@Z 00000001800db320 f   GuRTreeQueries.obj
 0001:000daf70       ??$traverseRay@$00@RTree@Gu@physx@@QEBAXAEBVPxVec3@2@0IPEAIPEAUCallbackRaycast@012@PEBV32@M@Z 00000001800dbf70 f i GuRTreeQueries.obj
 0001:000db430       ??$traverseRay@$0A@@RTree@Gu@physx@@QEBAXAEBVPxVec3@2@0IPEAIPEAUCallbackRaycast@012@PEBV32@M@Z 00000001800dc430 f i GuRTreeQueries.obj
 0001:000db860       ??0SweepShapeMeshHitCallback@Gu@physx@@QEAA@W4Enum@CallbackMode@12@AEBV?$PxFlags@W4Enum@PxHitFlag@physx@@G@2@_NM@Z 00000001800dc860 f   GuSweepsMesh.obj
 0001:000db8a0       ??0SweepCapsuleMeshHitCallback@Gu@physx@@QEAA@AEAUPxSweepHit@2@AEBVMatrix34@Cm@2@M_NAEBVCapsule@12@AEBVPxVec3@2@AEBV?$PxFlags@W4Enum@PxHitFlag@physx@@G@2@2M@Z 00000001800dc8a0 f   GuSweepsMesh.obj
 0001:000db970       ?processHit@SweepCapsuleMeshHitCallback@Gu@physx@@UEAA_NAEBUPxRaycastHit@3@AEBVPxVec3@3@11AEAMPEBI@Z 00000001800dc970 f   GuSweepsMesh.obj
 0001:000dbe30       ?finalizeHit@SweepCapsuleMeshHitCallback@Gu@physx@@QEBA_NAEAUPxSweepHit@3@AEBVCapsule@23@AEBVPxTriangleMeshGeometry@3@AEBVPxTransform@3@_N@Z 00000001800dce30 f   GuSweepsMesh.obj
 0001:000dc020       ??0SweepBoxMeshHitCallback@Gu@physx@@QEAA@W4Enum@CallbackMode@12@AEBVMatrix34Padded@12@M_NAEBVBox@12@AEBVPxVec3@2@44AEBV?$PxFlags@W4Enum@PxHitFlag@physx@@G@2@M2M@Z 00000001800dd020 f   GuSweepsMesh.obj
 0001:000dc140       ?processHit@SweepBoxMeshHitCallback@Gu@physx@@UEAA_NAEBUPxRaycastHit@3@AEBVPxVec3@3@11AEAMPEBI@Z 00000001800dd140 f   GuSweepsMesh.obj
 0001:000dc940       ?finalizeHit@SweepBoxMeshHitCallback@Gu@physx@@QEBA_NAEAUPxSweepHit@3@AEBVPxTriangleMeshGeometry@3@AEBVPxTransform@3@2AEBVPxVec3@3@_N4@Z 00000001800dd940 f   GuSweepsMesh.obj
 0001:000dd090       ??0SweepConvexMeshHitCallback@Gu@physx@@QEAA@AEBUConvexHullData@12@AEBVPxMeshScale@2@AEBVFastVertex2ShapeScaling@Cm@2@AEBVPxTransform@2@3AEBVPxVec3@2@MV?$PxFlags@W4Enum@PxHitFlag@physx@@G@2@_NM6M@Z 00000001800de090 f   GuSweepsMesh.obj
 0001:000dda80       ?processHit@SweepConvexMeshHitCallback@Gu@physx@@UEAA_NAEBUPxRaycastHit@3@AEBVPxVec3@3@11AEAMPEBI@Z 00000001800dea80 f   GuSweepsMesh.obj
 0001:000de240       ?finalizeHit@SweepConvexMeshHitCallback@Gu@physx@@QEAA_NAEAUPxSweepHit@3@AEBVPxTriangleMeshGeometry@3@AEBVPxTransform@3@AEBVPxConvexMeshGeometry@3@2AEBVPxVec3@3@M_N555@Z 00000001800df240 f   GuSweepsMesh.obj
 0001:000de730       ?sweepCapsule_MeshGeom@@YA_NAEBVPxGeometry@physx@@AEBVPxTransform@2@AEBVPxCapsuleGeometry@2@1AEBVCapsule@Gu@2@AEBVPxVec3@2@MAEAUPxSweepHit@2@V?$PxFlags@W4Enum@PxHitFlag@physx@@G@2@M@Z 00000001800df730 f   GuSweepsMesh.obj
 0001:000de7d0       ?sweepBox_MeshGeom@@YA_NAEBVPxGeometry@physx@@AEBVPxTransform@2@AEBVPxBoxGeometry@2@1AEBVBox@Gu@2@AEBVPxVec3@2@MAEAUPxSweepHit@2@V?$PxFlags@W4Enum@PxHitFlag@physx@@G@2@M@Z 00000001800df7d0 f   GuSweepsMesh.obj
 0001:000de870       ?sweepConvex_MeshGeom@@YA_NAEBVPxGeometry@physx@@AEBVPxTransform@2@AEBVPxConvexMeshGeometry@2@1AEBVPxVec3@2@MAEAUPxSweepHit@2@V?$PxFlags@W4Enum@PxHitFlag@physx@@G@2@M@Z 00000001800df870 f   GuSweepsMesh.obj
 0001:000e0020       ??$gjkPenetration@U?$LocalConvex@VTriangleV@Gu@physx@@@Gu@physx@@U?$LocalConvex@VShrunkBoxV@Gu@physx@@@23@@Gu@physx@@YA?AW4GjkStatus@01@AEBU?$LocalConvex@VTriangleV@Gu@physx@@@01@AEBU?$LocalConvex@VShrunkBoxV@Gu@physx@@@01@AEBT__m128@@2AEAT5@333PEIAE4AEAE_N@Z 00000001800e1020 f i GuSweepsMesh.obj
 0001:000e1f80       ??$gjkPenetration@U?$LocalConvex@VTriangleV@Gu@physx@@@Gu@physx@@U?$LocalConvex@VShrunkConvexHullV@Gu@physx@@@23@@Gu@physx@@YA?AW4GjkStatus@01@AEBU?$LocalConvex@VTriangleV@Gu@physx@@@01@AEBU?$LocalConvex@VShrunkConvexHullV@Gu@physx@@@01@AEBT__m128@@2AEAT5@333PEIAE4AEAE_N@Z 00000001800e2f80 f i GuSweepsMesh.obj
 0001:000e4150       ??$gjkRaycast@U?$LocalConvex@VTriangleV@Gu@physx@@@Gu@physx@@U?$LocalConvex@VBoxV@Gu@physx@@@23@@Gu@physx@@YA_NAEBU?$LocalConvex@VTriangleV@Gu@physx@@@01@AEBU?$LocalConvex@VBoxV@Gu@physx@@@01@AEBT__m128@@222AEAT4@33M@Z 00000001800e5150 f i GuSweepsMesh.obj
 0001:000e52b0       ??$gjkRaycast@U?$LocalConvex@VTriangleV@Gu@physx@@@Gu@physx@@U?$LocalConvex@VConvexHullV@Gu@physx@@@23@@Gu@physx@@YA_NAEBU?$LocalConvex@VTriangleV@Gu@physx@@@01@AEBU?$LocalConvex@VConvexHullV@Gu@physx@@@01@AEBT__m128@@222AEAT4@33M@Z 00000001800e62b0 f i GuSweepsMesh.obj
 0001:000e65b0       ??$gjkRaycastPenetration@U?$LocalConvex@VTriangleV@Gu@physx@@@Gu@physx@@U?$LocalConvex@VBoxV@Gu@physx@@@23@@Gu@physx@@YA_NAEBU?$LocalConvex@VTriangleV@Gu@physx@@@01@AEBU?$LocalConvex@VBoxV@Gu@physx@@@01@AEBT__m128@@222AEAT4@33M_N@Z 00000001800e75b0 f i GuSweepsMesh.obj
 0001:000e68b0       ??$gjkRaycastPenetration@U?$LocalConvex@VTriangleV@Gu@physx@@@Gu@physx@@U?$LocalConvex@VConvexHullV@Gu@physx@@@23@@Gu@physx@@YA_NAEBU?$LocalConvex@VTriangleV@Gu@physx@@@01@AEBU?$LocalConvex@VConvexHullV@Gu@physx@@@01@AEBT__m128@@222AEAT4@33M_N@Z 00000001800e78b0 f i GuSweepsMesh.obj
 0001:000e6bb0       ??1SweepConvexMeshHitCallback@Gu@physx@@UEAA@XZ 00000001800e7bb0 f i GuSweepsMesh.obj
 0001:000e6bc0       ??_G?$LocalConvex@VShrunkBoxV@Gu@physx@@@Gu@physx@@UEAAPEAXI@Z 00000001800e7bc0 f i GuSweepsMesh.obj
 0001:000e6bc0       ??_E?$LocalConvex@VShrunkBoxV@Gu@physx@@@Gu@physx@@UEAAPEAXI@Z 00000001800e7bc0 f i GuSweepsMesh.obj
 0001:000e6c00       ??_E?$LocalConvex@VShrunkConvexHullV@Gu@physx@@@Gu@physx@@UEAAPEAXI@Z 00000001800e7c00 f i GuSweepsMesh.obj
 0001:000e6c00       ??_G?$LocalConvex@VShrunkConvexHullV@Gu@physx@@@Gu@physx@@UEAAPEAXI@Z 00000001800e7c00 f i GuSweepsMesh.obj
 0001:000e6c40       ??_GSweepBoxMeshHitCallback@Gu@physx@@UEAAPEAXI@Z 00000001800e7c40 f i GuSweepsMesh.obj
 0001:000e6c40       ??_ESweepBoxMeshHitCallback@Gu@physx@@UEAAPEAXI@Z 00000001800e7c40 f i GuSweepsMesh.obj
 0001:000e6c80       ??_GSweepCapsuleMeshHitCallback@Gu@physx@@UEAAPEAXI@Z 00000001800e7c80 f i GuSweepsMesh.obj
 0001:000e6c80       ??_ESweepCapsuleMeshHitCallback@Gu@physx@@UEAAPEAXI@Z 00000001800e7c80 f i GuSweepsMesh.obj
 0001:000e6cc0       ??_GSweepConvexMeshHitCallback@Gu@physx@@UEAAPEAXI@Z 00000001800e7cc0 f i GuSweepsMesh.obj
 0001:000e6cc0       ??_ESweepConvexMeshHitCallback@Gu@physx@@UEAAPEAXI@Z 00000001800e7cc0 f i GuSweepsMesh.obj
 0001:000e6d00       ??_ESweepShapeMeshHitCallback@Gu@physx@@UEAAPEAXI@Z 00000001800e7d00 f i GuSweepsMesh.obj
 0001:000e6d00       ??_GSweepShapeMeshHitCallback@Gu@physx@@UEAAPEAXI@Z 00000001800e7d00 f i GuSweepsMesh.obj
 0001:000e6d40       ?getSweepMargin@?$LocalConvex@VShrunkBoxV@Gu@physx@@@Gu@physx@@UEBA?AT__m128@@XZ 00000001800e7d40 f i GuSweepsMesh.obj
 0001:000e6d70       ?getSweepMargin@?$LocalConvex@VShrunkConvexHullV@Gu@physx@@@Gu@physx@@UEBA?AT__m128@@XZ 00000001800e7d70 f i GuSweepsMesh.obj
 0001:000e6da0       ?support@?$LocalConvex@VShrunkBoxV@Gu@physx@@@Gu@physx@@UEBA?AT__m128@@AEBT4@@Z 00000001800e7da0 f i GuSweepsMesh.obj
 0001:000e6e00       ?support@?$LocalConvex@VShrunkBoxV@Gu@physx@@@Gu@physx@@UEBA?AT__m128@@AEBT4@AEAHPEAT4@@Z 00000001800e7e00 f i GuSweepsMesh.obj
 0001:000e6e80       ?support@?$LocalConvex@VShrunkConvexHullV@Gu@physx@@@Gu@physx@@UEBA?AT__m128@@AEBT4@@Z 00000001800e7e80 f i GuSweepsMesh.obj
 0001:000e7300       ?support@?$LocalConvex@VShrunkConvexHullV@Gu@physx@@@Gu@physx@@UEBA?AT__m128@@AEBT4@AEAHPEAT4@@Z 00000001800e8300 f i GuSweepsMesh.obj
 0001:000e77d0       ?supportPoint@?$LocalConvex@VShrunkBoxV@Gu@physx@@@Gu@physx@@UEBA?AT__m128@@HPEAT4@@Z 00000001800e87d0 f i GuSweepsMesh.obj
 0001:000e7850       ?supportPoint@?$LocalConvex@VShrunkConvexHullV@Gu@physx@@@Gu@physx@@UEBA?AT__m128@@HPEAT4@@Z 00000001800e8850 f i GuSweepsMesh.obj
 0001:000e80a0       ?exportExtraData@TriangleMesh@Gu@physx@@UEAAXAEAVPxSerializationContext@3@@Z 00000001800e90a0 f   GuTriangleMesh.obj
 0001:000e81e0       ?importExtraData@TriangleMesh@Gu@physx@@QEAAXAEAVPxDeserializationContext@3@@Z 00000001800e91e0 f   GuTriangleMesh.obj
 0001:000e8310       ?release@TriangleMesh@Gu@physx@@UEAAXXZ 00000001800e9310 f   GuTriangleMesh.obj
 0001:000e8350       ?onRefCountZero@TriangleMesh@Gu@physx@@UEAAXXZ 00000001800e9350 f   GuTriangleMesh.obj
 0001:000e83f0       ??0TriangleMesh@Gu@physx@@QEAA@AEAVGuMeshFactory@2@AEAVTriangleMeshData@12@@Z 00000001800e93f0 f   GuTriangleMesh.obj
 0001:000e85e0       ??1TriangleMesh@Gu@physx@@UEAA@XZ 00000001800e95e0 f   GuTriangleMesh.obj
 0001:000e8800       ?getVerticesForModification@TriangleMesh@Gu@physx@@UEAAPEAVPxVec3@3@XZ 00000001800e9800 f   GuTriangleMesh.obj
 0001:000e8840       ?refitBVH@TriangleMesh@Gu@physx@@UEAA?AVPxBounds3@3@XZ 00000001800e9840 f   GuTriangleMesh.obj
 0001:000e8b00       ??1PxTriangleMesh@physx@@MEAA@XZ 00000001800e9b00 f i GuTriangleMesh.obj
 0001:000e8b10       ??_ETriangleMesh@Gu@physx@@WBA@EAAPEAXI@Z 00000001800e9b10 f i GuTriangleMesh.obj
 0001:000e8b20       ??_EPxTriangleMesh@physx@@MEAAPEAXI@Z 00000001800e9b20 f i GuTriangleMesh.obj
 0001:000e8b20       ??_GPxTriangleMesh@physx@@MEAAPEAXI@Z 00000001800e9b20 f i GuTriangleMesh.obj
 0001:000e8b60       ??_ETriangleMesh@Gu@physx@@UEAAPEAXI@Z 00000001800e9b60 f i GuTriangleMesh.obj
 0001:000e8b60       ??_GTriangleMesh@Gu@physx@@UEAAPEAXI@Z 00000001800e9b60 f i GuTriangleMesh.obj
 0001:000e8be0       ?acquireReference@TriangleMesh@Gu@physx@@UEAAXXZ 00000001800e9be0 f i GuTriangleMesh.obj
 0001:000e8bf0       ?getLocalBounds@TriangleMesh@Gu@physx@@UEBA?AVPxBounds3@3@XZ 00000001800e9bf0 f i GuTriangleMesh.obj
 0001:000e8ca0       ?getNbTriangles@TriangleMesh@Gu@physx@@UEBAIXZ 00000001800e9ca0 f i GuTriangleMesh.obj
 0001:000e8cb0       ?getNbVertices@TriangleMesh@Gu@physx@@UEBAIXZ 00000001800e9cb0 f i GuTriangleMesh.obj
 0001:000e8cc0       ?getReferenceCount@TriangleMesh@Gu@physx@@UEBAIXZ 00000001800e9cc0 f i GuTriangleMesh.obj
 0001:000e8cd0       ?getTriangleMaterialIndex@TriangleMesh@Gu@physx@@UEBAGI@Z 00000001800e9cd0 f i GuTriangleMesh.obj
 0001:000e8cf0       ?getTriangleMeshFlags@TriangleMesh@Gu@physx@@UEBA?AV?$PxFlags@W4Enum@PxTriangleMeshFlag@physx@@E@3@XZ 00000001800e9cf0 f i GuTriangleMesh.obj
 0001:000e8d00       ?getTriangles@TriangleMesh@Gu@physx@@UEBAPEBXXZ 00000001800e9d00 f i GuTriangleMesh.obj
 0001:000e8d10       ?getTrianglesRemap@TriangleMesh@Gu@physx@@UEBAPEBIXZ 00000001800e9d10 f i GuTriangleMesh.obj
 0001:000e8d20       ?getVertices@TriangleMesh@Gu@physx@@UEBAPEBVPxVec3@3@XZ 00000001800e9d20 f i GuTriangleMesh.obj
 0001:000e8d30       ?isKindOf@PxTriangleMesh@physx@@MEBA_NPEBD@Z 00000001800e9d30 f i GuTriangleMesh.obj
 0001:000e8d90       ?requires@TriangleMesh@Gu@physx@@UEAAXAEAVPxProcessPxBaseCallback@3@@Z 00000001800e9d90 f i GuTriangleMesh.obj
 0001:000e8da0       ?exportExtraData@BV4TriangleMesh@Gu@physx@@UEAAXAEAVPxSerializationContext@3@@Z 00000001800e9da0 f   GuTriangleMeshBV4.obj
 0001:000e8de0       ?importExtraData@BV4TriangleMesh@Gu@physx@@QEAAXAEAVPxDeserializationContext@3@@Z 00000001800e9de0 f   GuTriangleMeshBV4.obj
 0001:000e8e80       ?createObject@BV4TriangleMesh@Gu@physx@@SAPEAVTriangleMesh@23@AEAPEAEAEAVPxDeserializationContext@3@@Z 00000001800e9e80 f   GuTriangleMeshBV4.obj
 0001:000e8ef0       ??0BV4TriangleMesh@Gu@physx@@QEAA@AEAVGuMeshFactory@2@AEAVTriangleMeshData@12@@Z 00000001800e9ef0 f   GuTriangleMeshBV4.obj
 0001:000e9000       ??0BV4TriangleMesh@Gu@physx@@QEAA@V?$PxFlags@W4Enum@PxBaseFlag@physx@@G@2@@Z 00000001800ea000 f i GuTriangleMeshBV4.obj
 0001:000e9080       ??1BV4TriangleMesh@Gu@physx@@UEAA@XZ 00000001800ea080 f i GuTriangleMeshBV4.obj
 0001:000e90d4       ??_EBV4TriangleMesh@Gu@physx@@WBA@EAAPEAXI@Z 00000001800ea0d4 f i GuTriangleMeshBV4.obj
 0001:000e90e0       ??_GBV4TriangleMesh@Gu@physx@@UEAAPEAXI@Z 00000001800ea0e0 f i GuTriangleMeshBV4.obj
 0001:000e90e0       ??_EBV4TriangleMesh@Gu@physx@@UEAAPEAXI@Z 00000001800ea0e0 f i GuTriangleMeshBV4.obj
 0001:000e9190       ?getConcreteTypeName@BV4TriangleMesh@Gu@physx@@UEBAPEBDXZ 00000001800ea190 f i GuTriangleMeshBV4.obj
 0001:000e91a0       ?getMidphaseID@BV4TriangleMesh@Gu@physx@@UEBA?AW4Enum@PxMeshMidPhase@3@XZ 00000001800ea1a0 f i GuTriangleMeshBV4.obj
 0001:000e91b0       ?exportExtraData@RTreeTriangleMesh@Gu@physx@@UEAAXAEAVPxSerializationContext@3@@Z 00000001800ea1b0 f   GuTriangleMeshRTree.obj
 0001:000e91f0       ?importExtraData@RTreeTriangleMesh@Gu@physx@@QEAAXAEAVPxDeserializationContext@3@@Z 00000001800ea1f0 f   GuTriangleMeshRTree.obj
 0001:000e9230       ?createObject@RTreeTriangleMesh@Gu@physx@@SAPEAVTriangleMesh@23@AEAPEAEAEAVPxDeserializationContext@3@@Z 00000001800ea230 f   GuTriangleMeshRTree.obj
 0001:000e92b0       ??0RTreeTriangleMesh@Gu@physx@@QEAA@AEAVGuMeshFactory@2@AEAVTriangleMeshData@12@@Z 00000001800ea2b0 f   GuTriangleMeshRTree.obj
 0001:000e9430       ?getVerticesForModification@RTreeTriangleMesh@Gu@physx@@UEAAPEAVPxVec3@3@XZ 00000001800ea430 f   GuTriangleMeshRTree.obj
 0001:000e9440       ?refitBVH@RTreeTriangleMesh@Gu@physx@@UEAA?AVPxBounds3@3@XZ 00000001800ea440 f   GuTriangleMeshRTree.obj
 0001:000e9700       ??0RTreeTriangleMesh@Gu@physx@@QEAA@V?$PxFlags@W4Enum@PxBaseFlag@physx@@G@2@@Z 00000001800ea700 f i GuTriangleMeshRTree.obj
 0001:000e9780       ??1CallbackRefit@RTree@Gu@physx@@UEAA@XZ 00000001800ea780 f i GuTriangleMeshRTree.obj
 0001:000e9790       ??1RTreeTriangleMesh@Gu@physx@@UEAA@XZ 00000001800ea790 f i GuTriangleMeshRTree.obj
 0001:000e9818       ??_ERTreeTriangleMesh@Gu@physx@@WBA@EAAPEAXI@Z 00000001800ea818 f i GuTriangleMeshRTree.obj
 0001:000e9830       ??_G?$RefitCallback@G@physx@@UEAAPEAXI@Z 00000001800ea830 f i GuTriangleMeshRTree.obj
 0001:000e9830       ??_E?$RefitCallback@G@physx@@UEAAPEAXI@Z 00000001800ea830 f i GuTriangleMeshRTree.obj
 0001:000e9870       ??_E?$RefitCallback@I@physx@@UEAAPEAXI@Z 00000001800ea870 f i GuTriangleMeshRTree.obj
 0001:000e9870       ??_G?$RefitCallback@I@physx@@UEAAPEAXI@Z 00000001800ea870 f i GuTriangleMeshRTree.obj
 0001:000e98b0       ??_ECallbackRefit@RTree@Gu@physx@@UEAAPEAXI@Z 00000001800ea8b0 f i GuTriangleMeshRTree.obj
 0001:000e98b0       ??_GCallbackRefit@RTree@Gu@physx@@UEAAPEAXI@Z 00000001800ea8b0 f i GuTriangleMeshRTree.obj
 0001:000e98f0       ??_ERTreeTriangleMesh@Gu@physx@@UEAAPEAXI@Z 00000001800ea8f0 f i GuTriangleMeshRTree.obj
 0001:000e98f0       ??_GRTreeTriangleMesh@Gu@physx@@UEAAPEAXI@Z 00000001800ea8f0 f i GuTriangleMeshRTree.obj
 0001:000e9970       ?getConcreteTypeName@RTreeTriangleMesh@Gu@physx@@UEBAPEBDXZ 00000001800ea970 f i GuTriangleMeshRTree.obj
 0001:000e9980       ?getMidphaseID@RTreeTriangleMesh@Gu@physx@@UEBA?AW4Enum@PxMeshMidPhase@3@XZ 00000001800ea980 f i GuTriangleMeshRTree.obj
 0001:000e9990       ?recomputeBounds@?$RefitCallback@G@physx@@UEAAXIAEAT__m128@@0@Z 00000001800ea990 f i GuTriangleMeshRTree.obj
 0001:000e9b70       ?recomputeBounds@?$RefitCallback@I@physx@@UEAAXIAEAT__m128@@0@Z 00000001800eab70 f i GuTriangleMeshRTree.obj
 0001:000e9d50       ?exportExtraData@HeightField@Gu@physx@@UEAAXAEAVPxSerializationContext@3@@Z 00000001800ead50 f   GuHeightField.obj
 0001:000e9db0       ?importExtraData@HeightField@Gu@physx@@QEAAXAEAVPxDeserializationContext@3@@Z 00000001800eadb0 f   GuHeightField.obj
 0001:000e9de0       ?createObject@HeightField@Gu@physx@@SAPEAV123@AEAPEAEAEAVPxDeserializationContext@3@@Z 00000001800eade0 f   GuHeightField.obj
 0001:000e9e70       ??0HeightField@Gu@physx@@QEAA@PEAVGuMeshFactory@2@@Z 00000001800eae70 f   GuHeightField.obj
 0001:000e9ef0       ??0HeightField@Gu@physx@@QEAA@AEAVGuMeshFactory@2@AEAUHeightFieldData@12@@Z 00000001800eaef0 f   GuHeightField.obj
 0001:000e9fe0       ?release@HeightField@Gu@physx@@UEAAXXZ 00000001800eafe0 f   GuHeightField.obj
 0001:000ea020       ?saveCells@HeightField@Gu@physx@@UEBAIPEAXI@Z 00000001800eb020 f   GuHeightField.obj
 0001:000ea060       ?modifySamples@HeightField@Gu@physx@@UEAA_NHHAEBVPxHeightFieldDesc@3@_N@Z 00000001800eb060 f   GuHeightField.obj
 0001:000ea420       ?acquireReference@HeightField@Gu@physx@@UEAAXXZ 00000001800eb420 f   GuHeightField.obj
 0001:000ea430       ?getReferenceCount@HeightField@Gu@physx@@UEBAIXZ 00000001800eb430 f   GuHeightField.obj
 0001:000ea440       ?onRefCountZero@HeightField@Gu@physx@@UEAAXXZ 00000001800eb440 f   GuHeightField.obj
 0001:000ea4e0       ?loadFromDesc@HeightField@Gu@physx@@QEAA_NAEBVPxHeightFieldDesc@3@@Z 00000001800eb4e0 f   GuHeightField.obj
 0001:000ea820       ?load@HeightField@Gu@physx@@QEAA_NAEAVPxInputStream@3@@Z 00000001800eb820 f   GuHeightField.obj
 0001:000eab50       ?computeCellCoordinates@HeightField@Gu@physx@@QEBAIMMAEAM0@Z 00000001800ebb50 f   GuHeightField.obj
 0001:000eac60       ?isSolidVertex@HeightField@Gu@physx@@QEBA_NIIIGAEA_N@Z 00000001800ebc60 f   GuHeightField.obj
 0001:000eade0       ?isCollisionVertexPreca@HeightField@Gu@physx@@QEBA_NIIIG@Z 00000001800ebde0 f   GuHeightField.obj
 0001:000eae90       ?parseTrianglesForCollisionVertices@HeightField@Gu@physx@@QEAAXG@Z 00000001800ebe90 f   GuHeightField.obj
 0001:000eb330       ?computeExtreme@HeightField@Gu@physx@@QEBAMIIII@Z 00000001800ec330 f   GuHeightField.obj
 0001:000eb420       ?releaseMemory@HeightField@Gu@physx@@QEAAXXZ 00000001800ec420 f   GuHeightField.obj
 0001:000eb470       ??1HeightField@Gu@physx@@UEAA@XZ 00000001800ec470 f   GuHeightField.obj
 0001:000eb4f0       ?getVertexEdgeIndices@physx@@YAIAEBVHeightField@Gu@1@IIIQEAUEdgeData@1@@Z 00000001800ec4f0 f   GuHeightField.obj
 0001:000eb6d0       ?getEdgeTriangleIndices@physx@@YAIAEBVHeightField@Gu@1@AEBUEdgeData@1@PEIAI@Z 00000001800ec6d0 f   GuHeightField.obj
 0001:000ebea0       ??0?$BitMapBase@VNonTrackingAllocator@shdfnd@physx@@@Cm@physx@@QEAA@XZ 00000001800ecea0 f i GuHeightField.obj
 0001:000ebeb0       ??1?$BitMapBase@VNonTrackingAllocator@shdfnd@physx@@@Cm@physx@@QEAA@XZ 00000001800eceb0 f i GuHeightField.obj
 0001:000ebf20       ??_EHeightField@Gu@physx@@UEAAPEAXI@Z 00000001800ecf20 f i GuHeightField.obj
 0001:000ec0f4       ??_EHeightField@Gu@physx@@WBA@EAAPEAXI@Z 00000001800ed0f4 f i GuHeightField.obj
 0001:000ec100       ??_EPxHeightField@physx@@MEAAPEAXI@Z 00000001800ed100 f i GuHeightField.obj
 0001:000ec1b0       ?extendUninitialized@?$BitMapBase@VNonTrackingAllocator@shdfnd@physx@@@Cm@physx@@IEAAXI@Z 00000001800ed1b0 f i GuHeightField.obj
 0001:000ec270       ?isConvexVertex@HeightField@Gu@physx@@QEBA_NIII@Z 00000001800ed270 f i GuHeightField.obj
 0001:000ec3c0       ?requires@HeightField@Gu@physx@@UEAAXAEAVPxProcessPxBaseCallback@3@@Z 00000001800ed3c0 f i GuHeightField.obj
 0001:000ec3d0       ?computeLocalBounds@HeightFieldUtil@Gu@physx@@QEBAXAEAVPxBounds3@3@@Z 00000001800ed3d0 f   GuHeightFieldUtil.obj
 0001:000ec700       ?isCollisionEdge@HeightFieldUtil@Gu@physx@@QEBA_NI@Z 00000001800ed700 f   GuHeightFieldUtil.obj
 0001:000ec830       ?isCollisionEdge@HeightFieldUtil@Gu@physx@@QEBA_NIIPEIBIIII@Z 00000001800ed830 f   GuHeightFieldUtil.obj
 0001:000ec910       ?isBoundaryEdge@HeightFieldUtil@Gu@physx@@QEBA_NI@Z 00000001800ed910 f   GuHeightFieldUtil.obj
 0001:000ec9e0       ?getFaceIndexAtShapePoint@HeightFieldUtil@Gu@physx@@QEBAIMM@Z 00000001800ed9e0 f   GuHeightFieldUtil.obj
 0001:000ecb00       ?getFaceIndexAtShapePointNoTest@HeightFieldUtil@Gu@physx@@QEBAIMM@Z 00000001800edb00 f   GuHeightFieldUtil.obj
 0001:000ecbb0       ?getFaceIndexAtShapePointNoTest2@HeightFieldUtil@Gu@physx@@QEBAIIMM@Z 00000001800edbb0 f   GuHeightFieldUtil.obj
 0001:000ecc20       ?getFaceIndexAtTriangleIndex@HeightFieldUtil@Gu@physx@@QEBAII@Z 00000001800edc20 f   GuHeightFieldUtil.obj
 0001:000ecc70       ?getSmoothNormalAtShapePoint@HeightFieldUtil@Gu@physx@@QEBA?AVPxVec3@3@MM@Z 00000001800edc70 f   GuHeightFieldUtil.obj
 0001:000ed100       ?getVertexNormal@HeightFieldUtil@Gu@physx@@QEBA?AVPxVec3@3@III@Z 00000001800ee100 f   GuHeightFieldUtil.obj
 0001:000ed3d0       ?getVertexFaceIndex@HeightFieldUtil@Gu@physx@@QEBAIIII@Z 00000001800ee3d0 f   GuHeightFieldUtil.obj
 0001:000ed500       ?getEdge@HeightFieldUtil@Gu@physx@@QEBAXIIIIAEAVPxVec3@3@0@Z 00000001800ee500 f   GuHeightFieldUtil.obj
 0001:000ed750       ?getEdgeFaceIndex@HeightFieldUtil@Gu@physx@@QEBAII@Z 00000001800ee750 f   GuHeightFieldUtil.obj
 0001:000ed810       ?getEdgeFaceIndex@HeightFieldUtil@Gu@physx@@QEBAIIIII@Z 00000001800ee810 f   GuHeightFieldUtil.obj
 0001:000ed8e0       ?getEdgeFaceIndex@HeightFieldUtil@Gu@physx@@QEBAIIIPEIBI@Z 00000001800ee8e0 f   GuHeightFieldUtil.obj
 0001:000ed990       ?findClosestPointsOnCell@HeightFieldUtil@Gu@physx@@QEBAIIIVPxVec3@3@PEIAV43@PEIAI_N33@Z 00000001800ee990 f   GuHeightFieldUtil.obj
 0001:000ee150       ?findProjectionOnTriangle@HeightFieldUtil@Gu@physx@@QEBA_NIIIAEBVPxVec3@3@AEAV43@@Z 00000001800ef150 f   GuHeightFieldUtil.obj
 0001:000ee410       ?findClosestPointOnEdge@HeightFieldUtil@Gu@physx@@QEBAMIIIIAEBVPxVec3@3@AEAV43@@Z 00000001800ef410 f   GuHeightFieldUtil.obj
 0001:000ee710       ?getTriangle@HeightFieldUtil@Gu@physx@@QEBAIAEBVPxTransform@3@AEAVPxTriangle@3@PEAI2I_N3@Z 00000001800ef710 f   GuHeightFieldUtil.obj
 0001:000eed20       ?overlapAABBTriangles@HeightFieldUtil@Gu@physx@@QEBA_NAEBVPxTransform@3@AEBVPxBounds3@3@IPEAV?$EntityReport@I@23@@Z 00000001800efd20 f   GuHeightFieldUtil.obj
 0001:000effd0       ?getEdgeTriangleIndices@HeightField@Gu@physx@@QEBAIIQEAIIII@Z 00000001800f0fd0 f i GuHeightFieldUtil.obj
 0001:000f0130       ?getTriangleAdjacencyIndices@HeightField@Gu@physx@@QEBAXIIIIAEAI00@Z 00000001800f1130 f i GuHeightFieldUtil.obj
 0001:000f0310       ?getTriangleVertexIndices@HeightField@Gu@physx@@QEBAXIAEAI00@Z 00000001800f1310 f i GuHeightFieldUtil.obj
 0001:000f03f0       ?isConvexEdge@HeightField@Gu@physx@@QEBA_NIIII@Z 00000001800f13f0 f i GuHeightFieldUtil.obj
 0001:000f0600       ?checkOverlapAABB_heightFieldGeom@Gu@physx@@YA_NAEBVPxGeometry@2@AEBVPxTransform@2@AEBVPxBounds3@2@@Z 00000001800f1600 f   GuOverlapTestsHF.obj
 0001:000f0a50       ?GeomOverlapCallback_SphereHeightfield@@YA_NAEBVPxGeometry@physx@@AEBVPxTransform@2@01PEAUTriggerCache@Gu@2@@Z 00000001800f1a50 f   GuOverlapTestsHF.obj
 0001:000f0c30       ?GeomOverlapCallback_CapsuleHeightfield@@YA_NAEBVPxGeometry@physx@@AEBVPxTransform@2@01PEAUTriggerCache@Gu@2@@Z 00000001800f1c30 f   GuOverlapTestsHF.obj
 0001:000f0e60       ?GeomOverlapCallback_BoxHeightfield@@YA_NAEBVPxGeometry@physx@@AEBVPxTransform@2@01PEAUTriggerCache@Gu@2@@Z 00000001800f1e60 f   GuOverlapTestsHF.obj
 0001:000f1130       ?GeomOverlapCallback_ConvexHeightfield@@YA_NAEBVPxGeometry@physx@@AEBVPxTransform@2@01PEAUTriggerCache@Gu@2@@Z 00000001800f2130 f   GuOverlapTestsHF.obj
 0001:000f1480       ??$traceSegment@UTriggerTraceSegmentCallback@Gu@physx@@$0A@$0A@@HeightFieldUtil@Gu@physx@@QEBAXAEBVPxVec3@2@0MPEAUTriggerTraceSegmentCallback@12@AEBVPxBounds3@2@_NPEBV32@@Z 00000001800f2480 f i GuOverlapTestsHF.obj
 0001:000f68a0       ?sweepCapsule_HeightFieldGeom@@YA_NAEBVPxGeometry@physx@@AEBVPxTransform@2@AEBVPxCapsuleGeometry@2@1AEBVCapsule@Gu@2@AEBVPxVec3@2@MAEAUPxSweepHit@2@V?$PxFlags@W4Enum@PxHitFlag@physx@@G@2@M@Z 00000001800f78a0 f   GuSweepsHF.obj
 0001:000f70e0       ?sweepConvex_HeightFieldGeom@@YA_NAEBVPxGeometry@physx@@AEBVPxTransform@2@AEBVPxConvexMeshGeometry@2@1AEBVPxVec3@2@MAEAUPxSweepHit@2@V?$PxFlags@W4Enum@PxHitFlag@physx@@G@2@M@Z 00000001800f80e0 f   GuSweepsHF.obj
 0001:000f7b90       ?sweepBox_HeightFieldGeom@@YA_NAEBVPxGeometry@physx@@AEBVPxTransform@2@AEBVPxBoxGeometry@2@1AEBVBox@Gu@2@AEBVPxVec3@2@MAEAUPxSweepHit@2@V?$PxFlags@W4Enum@PxHitFlag@physx@@G@2@M@Z 00000001800f8b90 f   GuSweepsHF.obj
 0001:000f8e80       ??$traceSegment@VBoxTraceSegmentReport@@$0A@$00@HeightFieldUtil@Gu@physx@@QEBAXAEBVPxVec3@2@0MPEAVBoxTraceSegmentReport@@AEBVPxBounds3@2@_NPEBV32@@Z 00000001800f9e80 f i GuSweepsHF.obj
 0001:000f9690       ??$traceSegment@VCapsuleTraceSegmentReport@@$0A@$00@HeightFieldUtil@Gu@physx@@QEBAXAEBVPxVec3@2@0MPEAVCapsuleTraceSegmentReport@@AEBVPxBounds3@2@_NPEBV32@@Z 00000001800fa690 f i GuSweepsHF.obj
 0001:000f9ea0       ??$traceSegment@VConvexTraceSegmentReport@@$0A@$00@HeightFieldUtil@Gu@physx@@QEBAXAEBVPxVec3@2@0MPEAVConvexTraceSegmentReport@@AEBVPxBounds3@2@_NPEBV32@@Z 00000001800faea0 f i GuSweepsHF.obj
 0001:000fa6b0       ??0ConvexTraceSegmentReport@@QEAA@AEBVHeightFieldUtil@Gu@physx@@AEBUConvexHullData@23@AEBVPxMeshScale@3@AEBVPxTransform@3@3AEBVPxVec3@3@MV?$PxFlags@W4Enum@PxHitFlag@physx@@G@3@M@Z 00000001800fb6b0 f i GuSweepsHF.obj
 0001:000fb310       ??_EBoxTraceSegmentReport@@UEAAPEAXI@Z 00000001800fc310 f i GuSweepsHF.obj
 0001:000fb310       ??_GBoxTraceSegmentReport@@UEAAPEAXI@Z 00000001800fc310 f i GuSweepsHF.obj
 0001:000fb350       ??_ECapsuleTraceSegmentReport@@UEAAPEAXI@Z 00000001800fc350 f i GuSweepsHF.obj
 0001:000fb350       ??_GCapsuleTraceSegmentReport@@UEAAPEAXI@Z 00000001800fc350 f i GuSweepsHF.obj
 0001:000fb390       ??_EConvexTraceSegmentReport@@UEAAPEAXI@Z 00000001800fc390 f i GuSweepsHF.obj
 0001:000fb390       ??_GConvexTraceSegmentReport@@UEAAPEAXI@Z 00000001800fc390 f i GuSweepsHF.obj
 0001:000fb3d0       ??_GHeightFieldTraceSegmentReport@@UEAAPEAXI@Z 00000001800fc3d0 f i GuSweepsHF.obj
 0001:000fb3d0       ??_EHeightFieldTraceSegmentReport@@UEAAPEAXI@Z 00000001800fc3d0 f i GuSweepsHF.obj
 0001:000fb410       ?addIndex@?$OverlapTraceSegment@VBoxTraceSegmentReport@@@HeightFieldUtil@Gu@physx@@QEAA_NI@Z 00000001800fc410 f i GuSweepsHF.obj
 0001:000fb490       ?addIndex@?$OverlapTraceSegment@VCapsuleTraceSegmentReport@@@HeightFieldUtil@Gu@physx@@QEAA_NI@Z 00000001800fc490 f i GuSweepsHF.obj
 0001:000fb510       ?addIndex@?$OverlapTraceSegment@VConvexTraceSegmentReport@@@HeightFieldUtil@Gu@physx@@QEAA_NI@Z 00000001800fc510 f i GuSweepsHF.obj
 0001:000fb590       ?finalizeHit@BoxTraceSegmentReport@@QEAA_NAEAUPxSweepHit@physx@@AEBVPxHeightFieldGeometry@3@AEBVPxTransform@3@2AEBVBox@Gu@3@AEBVPxVec3@3@MM@Z 00000001800fc590 f i GuSweepsHF.obj
 0001:000fbb50       ?finalizeHit@CapsuleTraceSegmentReport@@QEAA_NAEAUPxSweepHit@physx@@AEBVPxHeightFieldGeometry@3@AEBVPxTransform@3@AEBVCapsule@Gu@3@3AEBVPxVec3@3@@Z 00000001800fcb50 f i GuSweepsHF.obj
 0001:000fbdc0       ?finalizeHit@ConvexTraceSegmentReport@@QEAA_NAEAUPxSweepHit@physx@@AEBVPxHeightFieldGeometry@3@AEBVPxTransform@3@AEBVPxConvexMeshGeometry@3@2AEBVPxVec3@3@M@Z 00000001800fcdc0 f i GuSweepsHF.obj
 0001:000fc070       ?onEvent@BoxTraceSegmentReport@@UEAA_NIPEAI@Z 00000001800fd070 f i GuSweepsHF.obj
 0001:000fc720       ?onEvent@CapsuleTraceSegmentReport@@UEAA_NIPEAI@Z 00000001800fd720 f i GuSweepsHF.obj
 0001:000fc9e0       ?onEvent@ConvexTraceSegmentReport@@UEAA_NIPEAI@Z 00000001800fd9e0 f i GuSweepsHF.obj
 0001:000fd1c0       ?prepare@?$OverlapTraceSegment@VBoxTraceSegmentReport@@@HeightFieldUtil@Gu@physx@@QEAAXAEBVPxVec3@4@00AEAM1@Z 00000001800fe1c0 f i GuSweepsHF.obj
 0001:000fd500       ?prepare@?$OverlapTraceSegment@VCapsuleTraceSegmentReport@@@HeightFieldUtil@Gu@physx@@QEAAXAEBVPxVec3@4@00AEAM1@Z 00000001800fe500 f i GuSweepsHF.obj
 0001:000fd840       ?prepare@?$OverlapTraceSegment@VConvexTraceSegmentReport@@@HeightFieldUtil@Gu@physx@@QEAAXAEBVPxVec3@4@00AEAM1@Z 00000001800fe840 f i GuSweepsHF.obj
 0001:000fdb80       ?step@?$OverlapTraceSegment@VBoxTraceSegmentReport@@@HeightFieldUtil@Gu@physx@@QEAA_NHH@Z 00000001800feb80 f i GuSweepsHF.obj
 0001:000fdc90       ?step@?$OverlapTraceSegment@VCapsuleTraceSegmentReport@@@HeightFieldUtil@Gu@physx@@QEAA_NHH@Z 00000001800fec90 f i GuSweepsHF.obj
 0001:000fdda0       ?step@?$OverlapTraceSegment@VConvexTraceSegmentReport@@@HeightFieldUtil@Gu@physx@@QEAA_NHH@Z 00000001800feda0 f i GuSweepsHF.obj
 0001:000fdeb0       ?testVertexIndex@?$OverlapTraceSegment@VBoxTraceSegmentReport@@@HeightFieldUtil@Gu@physx@@QEAA_NI@Z 00000001800feeb0 f i GuSweepsHF.obj
 0001:000fdfe0       ?testVertexIndex@?$OverlapTraceSegment@VCapsuleTraceSegmentReport@@@HeightFieldUtil@Gu@physx@@QEAA_NI@Z 00000001800fefe0 f i GuSweepsHF.obj
 0001:000fe110       ?testVertexIndex@?$OverlapTraceSegment@VConvexTraceSegmentReport@@@HeightFieldUtil@Gu@physx@@QEAA_NI@Z 00000001800ff110 f i GuSweepsHF.obj
 0001:000fe240       ?visitCells@?$OverlapTraceSegment@VBoxTraceSegmentReport@@@HeightFieldUtil@Gu@physx@@QEAA_NAEBUOverlapLine@1234@@Z 00000001800ff240 f i GuSweepsHF.obj
 0001:000fe360       ?visitCells@?$OverlapTraceSegment@VBoxTraceSegmentReport@@@HeightFieldUtil@Gu@physx@@QEAA_NAEBUOverlapRectangle@1234@@Z 00000001800ff360 f i GuSweepsHF.obj
 0001:000fe5d0       ?visitCells@?$OverlapTraceSegment@VCapsuleTraceSegmentReport@@@HeightFieldUtil@Gu@physx@@QEAA_NAEBUOverlapLine@1234@@Z 00000001800ff5d0 f i GuSweepsHF.obj
 0001:000fe6f0       ?visitCells@?$OverlapTraceSegment@VCapsuleTraceSegmentReport@@@HeightFieldUtil@Gu@physx@@QEAA_NAEBUOverlapRectangle@1234@@Z 00000001800ff6f0 f i GuSweepsHF.obj
 0001:000fe960       ?visitCells@?$OverlapTraceSegment@VConvexTraceSegmentReport@@@HeightFieldUtil@Gu@physx@@QEAA_NAEBUOverlapLine@1234@@Z 00000001800ff960 f i GuSweepsHF.obj
 0001:000fea80       ?visitCells@?$OverlapTraceSegment@VConvexTraceSegmentReport@@@HeightFieldUtil@Gu@physx@@QEAA_NAEBUOverlapRectangle@1234@@Z 00000001800ffa80 f i GuSweepsHF.obj
 0001:000fecf0       ?pcmContactBoxBox@Gu@physx@@YA_NAEBVGeometryUnion@12@0AEBVPxTransform@2@1AEBUNarrowPhaseParams@12@AEAUCache@12@AEAVContactBuffer@12@PEAVRenderOutput@Cm@2@@Z 00000001800ffcf0 f   GuPCMContactBoxBox.obj
 0001:000ffed0       ??$gjkPenetration@U?$RelativeConvex@VShrunkBoxV@Gu@physx@@@Gu@physx@@U?$LocalConvex@VShrunkBoxV@Gu@physx@@@23@@Gu@physx@@YA?AW4GjkStatus@01@AEBU?$RelativeConvex@VShrunkBoxV@Gu@physx@@@01@AEBU?$LocalConvex@VShrunkBoxV@Gu@physx@@@01@AEBT__m128@@2AEAT5@333PEIAE4AEAE_N@Z 0000000180100ed0 f i GuPCMContactBoxBox.obj
 0001:00101ed0       ??0MeshPersistentContact@Gu@physx@@QEAA@XZ 0000000180102ed0 f i GuPCMContactBoxBox.obj
 0001:00101ee0       ??0MultiplePersistentContactManifold@Gu@physx@@QEAA@XZ 0000000180102ee0 f i GuPCMContactBoxBox.obj
 0001:00101fc0       ??0PersistentContact@Gu@physx@@QEAA@XZ 0000000180102fc0 f i GuPCMContactBoxBox.obj
 0001:00101fd0       ??0SinglePersistentContactManifold@Gu@physx@@QEAA@XZ 0000000180102fd0 f i GuPCMContactBoxBox.obj
 0001:00101ff0       ??4MultiplePersistentContactManifold@Gu@physx@@QEAAAEAV012@$$QEAV012@@Z 0000000180102ff0 f i GuPCMContactBoxBox.obj
 0001:001023c0       ??4MultiplePersistentContactManifold@Gu@physx@@QEAAAEAV012@AEBV012@@Z 00000001801033c0 f i GuPCMContactBoxBox.obj
 0001:00102460       ??_G?$RelativeConvex@VBoxV@Gu@physx@@@Gu@physx@@UEAAPEAXI@Z 0000000180103460 f i GuPCMContactBoxBox.obj
 0001:00102460       ??_E?$RelativeConvex@VBoxV@Gu@physx@@@Gu@physx@@UEAAPEAXI@Z 0000000180103460 f i GuPCMContactBoxBox.obj
 0001:001024a0       ??_E?$RelativeConvex@VShrunkBoxV@Gu@physx@@@Gu@physx@@UEAAPEAXI@Z 00000001801034a0 f i GuPCMContactBoxBox.obj
 0001:001024a0       ??_G?$RelativeConvex@VShrunkBoxV@Gu@physx@@@Gu@physx@@UEAAPEAXI@Z 00000001801034a0 f i GuPCMContactBoxBox.obj
 0001:00103520       ?clearManifold@MultiplePersistentContactManifold@Gu@physx@@QEAAXXZ 0000000180104520 f i GuPCMContactBoxBox.obj
 0001:00105670       ?getEmptyManifold@MultiplePersistentContactManifold@Gu@physx@@QEAAPEAVSinglePersistentContactManifold@23@XZ 0000000180106670 f i GuPCMContactBoxBox.obj
 0001:00105920       ?getManifold@MultiplePersistentContactManifold@Gu@physx@@QEAAPEAVSinglePersistentContactManifold@23@I@Z 0000000180106920 f i GuPCMContactBoxBox.obj
 0001:00105940       ?getSweepMargin@?$RelativeConvex@VBoxV@Gu@physx@@@Gu@physx@@UEBA?AT__m128@@XZ 0000000180106940 f i GuPCMContactBoxBox.obj
 0001:00105970       ?getSweepMargin@?$RelativeConvex@VShrunkBoxV@Gu@physx@@@Gu@physx@@UEBA?AT__m128@@XZ 0000000180106970 f i GuPCMContactBoxBox.obj
 0001:001059a0       ?initialize@MultiplePersistentContactManifold@Gu@physx@@QEAAXXZ 00000001801069a0 f i GuPCMContactBoxBox.obj
 0001:00105a50       ?invalidate@MultiplePersistentContactManifold@Gu@physx@@QEAAIAEBVPsTransformV@aos@shdfnd@3@AEBT__m128@@1@Z 0000000180106a50 f i GuPCMContactBoxBox.obj
 0001:00105b00       ?invalidate@MultiplePersistentContactManifold@Gu@physx@@QEAAIAEBVPsTransformV@aos@shdfnd@3@AEBT__m128@@@Z 0000000180106b00 f i GuPCMContactBoxBox.obj
 0001:00105bd0       ?maxTransformPositionDelta@MultiplePersistentContactManifold@Gu@physx@@QEAA?AT__m128@@AEBT4@@Z 0000000180106bd0 f i GuPCMContactBoxBox.obj
 0001:00105c20       ?maxTransformQuatDelta@MultiplePersistentContactManifold@Gu@physx@@QEAA?AT__m128@@AEBT4@@Z 0000000180106c20 f i GuPCMContactBoxBox.obj
 0001:00105c70       ?reduceManifoldContactsInDifferentPatches@MultiplePersistentContactManifold@Gu@physx@@QEAAIPEAPEAUPCMContactPatch@23@IPEAVMeshPersistentContact@23@IAEBT__m128@@@Z 0000000180106c70 f i GuPCMContactBoxBox.obj
 0001:00105e20       ?refineContactPatchConnective@MultiplePersistentContactManifold@Gu@physx@@QEAAXPEAPEAUPCMContactPatch@23@IPEAVMeshPersistentContact@23@AEBT__m128@@@Z 0000000180106e20 f i GuPCMContactBoxBox.obj
 0001:00105f30       ?refreshManifold@MultiplePersistentContactManifold@Gu@physx@@QEAAXAEBVPsMatTransformV@aos@shdfnd@3@AEBT__m128@@1@Z 0000000180106f30 f i GuPCMContactBoxBox.obj
 0001:00106080       ?setRelativeTransform@MultiplePersistentContactManifold@Gu@physx@@QEAAXAEBVPsTransformV@aos@shdfnd@3@@Z 0000000180107080 f i GuPCMContactBoxBox.obj
 0001:001060a0       ?support@?$RelativeConvex@VBoxV@Gu@physx@@@Gu@physx@@UEBA?AT__m128@@AEBT4@@Z 00000001801070a0 f i GuPCMContactBoxBox.obj
 0001:00106140       ?support@?$RelativeConvex@VBoxV@Gu@physx@@@Gu@physx@@UEBA?AT__m128@@AEBT4@AEAHPEAT4@@Z 0000000180107140 f i GuPCMContactBoxBox.obj
 0001:001061f0       ?support@?$RelativeConvex@VShrunkBoxV@Gu@physx@@@Gu@physx@@UEBA?AT__m128@@AEBT4@@Z 00000001801071f0 f i GuPCMContactBoxBox.obj
 0001:001062c0       ?support@?$RelativeConvex@VShrunkBoxV@Gu@physx@@@Gu@physx@@UEBA?AT__m128@@AEBT4@AEAHPEAT4@@Z 00000001801072c0 f i GuPCMContactBoxBox.obj
 0001:001063b0       ?supportPoint@?$RelativeConvex@VBoxV@Gu@physx@@@Gu@physx@@UEBA?AT__m128@@HPEAT4@@Z 00000001801073b0 f i GuPCMContactBoxBox.obj
 0001:00106430       ?supportPoint@?$RelativeConvex@VShrunkBoxV@Gu@physx@@@Gu@physx@@UEBA?AT__m128@@HPEAT4@@Z 0000000180107430 f i GuPCMContactBoxBox.obj
 0001:001064e0       ?toBuffer@MultiplePersistentContactManifold@Gu@physx@@QEAAXPEIAE@Z 00000001801074e0 f i GuPCMContactBoxBox.obj
 0001:001065f0       ?pcmContactBoxConvex@Gu@physx@@YA_NAEBVGeometryUnion@12@0AEBVPxTransform@2@1AEBUNarrowPhaseParams@12@AEAUCache@12@AEAVContactBuffer@12@PEAVRenderOutput@Cm@2@@Z 00000001801075f0 f   GuPCMContactBoxConvex.obj
 0001:00107ac0       ??$gjkPenetration@U?$RelativeConvex@VShrunkBoxV@Gu@physx@@@Gu@physx@@U?$LocalConvex@VShrunkConvexHullNoScaleV@Gu@physx@@@23@@Gu@physx@@YA?AW4GjkStatus@01@AEBU?$RelativeConvex@VShrunkBoxV@Gu@physx@@@01@AEBU?$LocalConvex@VShrunkConvexHullNoScaleV@Gu@physx@@@01@AEBT__m128@@2AEAT5@333PEIAE4AEAE_N@Z 0000000180108ac0 f i GuPCMContactBoxConvex.obj
 0001:00109be0       ??$gjkPenetration@U?$RelativeConvex@VShrunkBoxV@Gu@physx@@@Gu@physx@@U?$LocalConvex@VShrunkConvexHullV@Gu@physx@@@23@@Gu@physx@@YA?AW4GjkStatus@01@AEBU?$RelativeConvex@VShrunkBoxV@Gu@physx@@@01@AEBU?$LocalConvex@VShrunkConvexHullV@Gu@physx@@@01@AEBT__m128@@2AEAT5@333PEIAE4AEAE_N@Z 000000018010abe0 f i GuPCMContactBoxConvex.obj
 0001:0010bf00       ??1SupportLocal@Gu@physx@@UEAA@XZ 000000018010cf00 f i GuPCMContactBoxConvex.obj
 0001:0010bf10       ??_G?$LocalConvex@VShrunkConvexHullNoScaleV@Gu@physx@@@Gu@physx@@UEAAPEAXI@Z 000000018010cf10 f i GuPCMContactBoxConvex.obj
 0001:0010bf10       ??_E?$LocalConvex@VShrunkConvexHullNoScaleV@Gu@physx@@@Gu@physx@@UEAAPEAXI@Z 000000018010cf10 f i GuPCMContactBoxConvex.obj
 0001:0010bf50       ??_G?$SupportLocalImpl@VBoxV@Gu@physx@@@Gu@physx@@UEAAPEAXI@Z 000000018010cf50 f i GuPCMContactBoxConvex.obj
 0001:0010bf50       ??_E?$SupportLocalImpl@VBoxV@Gu@physx@@@Gu@physx@@UEAAPEAXI@Z 000000018010cf50 f i GuPCMContactBoxConvex.obj
 0001:0010bf90       ??_E?$SupportLocalImpl@VConvexHullNoScaleV@Gu@physx@@@Gu@physx@@UEAAPEAXI@Z 000000018010cf90 f i GuPCMContactBoxConvex.obj
 0001:0010bf90       ??_G?$SupportLocalImpl@VConvexHullNoScaleV@Gu@physx@@@Gu@physx@@UEAAPEAXI@Z 000000018010cf90 f i GuPCMContactBoxConvex.obj
 0001:0010bfd0       ??_G?$SupportLocalImpl@VConvexHullV@Gu@physx@@@Gu@physx@@UEAAPEAXI@Z 000000018010cfd0 f i GuPCMContactBoxConvex.obj
 0001:0010bfd0       ??_E?$SupportLocalImpl@VConvexHullV@Gu@physx@@@Gu@physx@@UEAAPEAXI@Z 000000018010cfd0 f i GuPCMContactBoxConvex.obj
 0001:0010c010       ??_GSupportLocal@Gu@physx@@UEAAPEAXI@Z 000000018010d010 f i GuPCMContactBoxConvex.obj
 0001:0010c010       ??_ESupportLocal@Gu@physx@@UEAAPEAXI@Z 000000018010d010 f i GuPCMContactBoxConvex.obj
 0001:0010c460       ?doSupport@?$SupportLocalImpl@VBoxV@Gu@physx@@@Gu@physx@@UEBA?AT__m128@@AEBT4@@Z 000000018010d460 f i GuPCMContactBoxConvex.obj
 0001:0010c4a0       ?doSupport@?$SupportLocalImpl@VBoxV@Gu@physx@@@Gu@physx@@UEBAXAEBT__m128@@AEAT4@1@Z 000000018010d4a0 f i GuPCMContactBoxConvex.obj
 0001:0010c500       ?doSupport@?$SupportLocalImpl@VConvexHullNoScaleV@Gu@physx@@@Gu@physx@@UEBA?AT__m128@@AEBT4@@Z 000000018010d500 f i GuPCMContactBoxConvex.obj
 0001:0010c560       ?doSupport@?$SupportLocalImpl@VConvexHullNoScaleV@Gu@physx@@@Gu@physx@@UEBAXAEBT__m128@@AEAT4@1@Z 000000018010d560 f i GuPCMContactBoxConvex.obj
 0001:0010c740       ?doSupport@?$SupportLocalImpl@VConvexHullV@Gu@physx@@@Gu@physx@@UEBA?AT__m128@@AEBT4@@Z 000000018010d740 f i GuPCMContactBoxConvex.obj
 0001:0010c830       ?doSupport@?$SupportLocalImpl@VConvexHullV@Gu@physx@@@Gu@physx@@UEBAXAEBT__m128@@AEAT4@1@Z 000000018010d830 f i GuPCMContactBoxConvex.obj
 0001:0010cfa0       ?getSweepMargin@?$LocalConvex@VShrunkConvexHullNoScaleV@Gu@physx@@@Gu@physx@@UEBA?AT__m128@@XZ 000000018010dfa0 f i GuPCMContactBoxConvex.obj
 0001:0010cfd0       ?populateVerts@?$SupportLocalImpl@VBoxV@Gu@physx@@@Gu@physx@@UEBAXPEBEIPEBVPxVec3@3@PEAT__m128@@@Z 000000018010dfd0 f i GuPCMContactBoxConvex.obj
 0001:0010d020       ?populateVerts@?$SupportLocalImpl@VConvexHullNoScaleV@Gu@physx@@@Gu@physx@@UEBAXPEBEIPEBVPxVec3@3@PEAT__m128@@@Z 000000018010e020 f i GuPCMContactBoxConvex.obj
 0001:0010d070       ?populateVerts@?$SupportLocalImpl@VConvexHullV@Gu@physx@@@Gu@physx@@UEBAXPEBEIPEBVPxVec3@3@PEAT__m128@@@Z 000000018010e070 f i GuPCMContactBoxConvex.obj
 0001:0010d0f0       ?support@?$LocalConvex@VShrunkConvexHullNoScaleV@Gu@physx@@@Gu@physx@@UEBA?AT__m128@@AEBT4@@Z 000000018010e0f0 f i GuPCMContactBoxConvex.obj
 0001:0010d370       ?support@?$LocalConvex@VShrunkConvexHullNoScaleV@Gu@physx@@@Gu@physx@@UEBA?AT__m128@@AEBT4@AEAHPEAT4@@Z 000000018010e370 f i GuPCMContactBoxConvex.obj
 0001:0010d640       ?supportPoint@?$LocalConvex@VShrunkConvexHullNoScaleV@Gu@physx@@@Gu@physx@@UEBA?AT__m128@@HPEAT4@@Z 000000018010e640 f i GuPCMContactBoxConvex.obj
 0001:0010d8f0       ?pcmContactCapsuleBox@Gu@physx@@YA_NAEBVGeometryUnion@12@0AEBVPxTransform@2@1AEBUNarrowPhaseParams@12@AEAUCache@12@AEAVContactBuffer@12@PEAVRenderOutput@Cm@2@@Z 000000018010e8f0 f   GuPCMContactCapsuleBox.obj
 0001:0010ed30       ??$gjkPenetration@U?$LocalConvex@VCapsuleV@Gu@physx@@@Gu@physx@@U?$LocalConvex@VBoxV@Gu@physx@@@23@@Gu@physx@@YA?AW4GjkStatus@01@AEBU?$LocalConvex@VCapsuleV@Gu@physx@@@01@AEBU?$LocalConvex@VBoxV@Gu@physx@@@01@AEBT__m128@@2AEAT5@333PEIAE4AEAE_N@Z 000000018010fd30 f i GuPCMContactCapsuleBox.obj
 0001:00110bf0       ?pcmContactCapsuleCapsule@Gu@physx@@YA_NAEBVGeometryUnion@12@0AEBVPxTransform@2@1AEBUNarrowPhaseParams@12@AEAUCache@12@AEAVContactBuffer@12@PEAVRenderOutput@Cm@2@@Z 0000000180111bf0 f   GuPCMContactCapsuleCapsule.obj
 0001:001117d0       ?pcmContactCapsuleConvex@Gu@physx@@YA_NAEBVGeometryUnion@12@0AEBVPxTransform@2@1AEBUNarrowPhaseParams@12@AEAUCache@12@AEAVContactBuffer@12@PEAVRenderOutput@Cm@2@@Z 00000001801127d0 f   GuPCMContactCapsuleConvex.obj
 0001:001130f0       ??$gjkPenetration@U?$LocalConvex@VCapsuleV@Gu@physx@@@Gu@physx@@U?$LocalConvex@VConvexHullNoScaleV@Gu@physx@@@23@@Gu@physx@@YA?AW4GjkStatus@01@AEBU?$LocalConvex@VCapsuleV@Gu@physx@@@01@AEBU?$LocalConvex@VConvexHullNoScaleV@Gu@physx@@@01@AEBT__m128@@2AEAT5@333PEIAE4AEAE_N@Z 00000001801140f0 f i GuPCMContactCapsuleConvex.obj
 0001:00115010       ??$gjkPenetration@U?$LocalConvex@VCapsuleV@Gu@physx@@@Gu@physx@@U?$LocalConvex@VConvexHullV@Gu@physx@@@23@@Gu@physx@@YA?AW4GjkStatus@01@AEBU?$LocalConvex@VCapsuleV@Gu@physx@@@01@AEBU?$LocalConvex@VConvexHullV@Gu@physx@@@01@AEBT__m128@@2AEAT5@333PEIAE4AEAE_N@Z 0000000180116010 f i GuPCMContactCapsuleConvex.obj
 0001:00117010       ??_G?$LocalConvex@VConvexHullNoScaleV@Gu@physx@@@Gu@physx@@UEAAPEAXI@Z 0000000180118010 f i GuPCMContactCapsuleConvex.obj
 0001:00117010       ??_E?$LocalConvex@VConvexHullNoScaleV@Gu@physx@@@Gu@physx@@UEAAPEAXI@Z 0000000180118010 f i GuPCMContactCapsuleConvex.obj
 0001:001173e0       ?getSweepMargin@?$LocalConvex@VConvexHullNoScaleV@Gu@physx@@@Gu@physx@@UEBA?AT__m128@@XZ 00000001801183e0 f i GuPCMContactCapsuleConvex.obj
 0001:00117410       ?support@?$LocalConvex@VConvexHullNoScaleV@Gu@physx@@@Gu@physx@@UEBA?AT__m128@@AEBT4@@Z 0000000180118410 f i GuPCMContactCapsuleConvex.obj
 0001:00117470       ?support@?$LocalConvex@VConvexHullNoScaleV@Gu@physx@@@Gu@physx@@UEBA?AT__m128@@AEBT4@AEAHPEAT4@@Z 0000000180118470 f i GuPCMContactCapsuleConvex.obj
 0001:001174e0       ?supportPoint@?$LocalConvex@VConvexHullNoScaleV@Gu@physx@@@Gu@physx@@UEBA?AT__m128@@HPEAT4@@Z 00000001801184e0 f i GuPCMContactCapsuleConvex.obj
 0001:00117510       ?pcmContactCapsuleHeightField@Gu@physx@@YA_NAEBVGeometryUnion@12@0AEBVPxTransform@2@1AEBUNarrowPhaseParams@12@AEAUCache@12@AEAVContactBuffer@12@PEAVRenderOutput@Cm@2@@Z 0000000180118510 f   GuPCMContactCapsuleHeightField.obj
 0001:00118600       ??0PCMContactPatch@Gu@physx@@QEAA@XZ 0000000180119600 f i GuPCMContactCapsuleHeightField.obj
 0001:00118640       ??0PCMMeshContactGeneration@Gu@physx@@QEAA@AEBT__m128@@0AEBVPsTransformV@aos@shdfnd@2@1AEAVMultiplePersistentContactManifold@12@AEAVContactBuffer@12@PEAVRenderOutput@Cm@2@@Z 0000000180119640 f i GuPCMContactCapsuleHeightField.obj
 0001:00118ad0       ??_E?$PCMHeightfieldContactGenerationCallback@UPCMCapsuleVsHeightfieldContactGenerationCallback@physx@@@Gu@physx@@UEAAPEAXI@Z 0000000180119ad0 f i GuPCMContactCapsuleHeightField.obj
 0001:00118ad0       ??_G?$PCMHeightfieldContactGenerationCallback@UPCMCapsuleVsHeightfieldContactGenerationCallback@physx@@@Gu@physx@@UEAAPEAXI@Z 0000000180119ad0 f i GuPCMContactCapsuleHeightField.obj
 0001:00118b10       ??_GPCMCapsuleVsHeightfieldContactGenerationCallback@physx@@UEAAPEAXI@Z 0000000180119b10 f i GuPCMContactCapsuleHeightField.obj
 0001:00118b10       ??_EPCMCapsuleVsHeightfieldContactGenerationCallback@physx@@UEAAPEAXI@Z 0000000180119b10 f i GuPCMContactCapsuleHeightField.obj
 0001:00118b50       ?onEvent@?$PCMHeightfieldContactGenerationCallback@UPCMCapsuleVsHeightfieldContactGenerationCallback@physx@@@Gu@physx@@UEAA_NIPEAI@Z 0000000180119b50 f i GuPCMContactCapsuleHeightField.obj
 0001:00119220       ?pcmContactCapsuleMesh@Gu@physx@@YA_NAEBVGeometryUnion@12@0AEBVPxTransform@2@1AEBUNarrowPhaseParams@12@AEAUCache@12@AEAVContactBuffer@12@PEAVRenderOutput@Cm@2@@Z 000000018011a220 f   GuPCMContactCapsuleMesh.obj
 0001:0011a530       ??$processTriangleCache@$0BA@VPCMCapsuleVsMeshContactGeneration@Gu@physx@@@PCMMeshContactGeneration@Gu@physx@@QEAA_NAEAU?$TriangleCache@$0BA@@12@@Z 000000018011b530 f i GuPCMContactCapsuleMesh.obj
 0001:0011a5e0       ??_G?$PCMMeshContactGenerationCallback@UPCMCapsuleVsMeshContactGenerationCallback@physx@@@Gu@physx@@UEAAPEAXI@Z 000000018011b5e0 f i GuPCMContactCapsuleMesh.obj
 0001:0011a5e0       ??_E?$PCMMeshContactGenerationCallback@UPCMCapsuleVsMeshContactGenerationCallback@physx@@@Gu@physx@@UEAAPEAXI@Z 000000018011b5e0 f i GuPCMContactCapsuleMesh.obj
 0001:0011a620       ??_EPCMCapsuleVsMeshContactGenerationCallback@physx@@UEAAPEAXI@Z 000000018011b620 f i GuPCMContactCapsuleMesh.obj
 0001:0011a620       ??_GPCMCapsuleVsMeshContactGenerationCallback@physx@@UEAAPEAXI@Z 000000018011b620 f i GuPCMContactCapsuleMesh.obj
 0001:0011a660       ?processHit@?$PCMMeshContactGenerationCallback@UPCMCapsuleVsMeshContactGenerationCallback@physx@@@Gu@physx@@UEAA_NAEBUPxRaycastHit@3@AEBVPxVec3@3@11AEAMPEBI@Z 000000018011b660 f i GuPCMContactCapsuleMesh.obj
 0001:0011aad0       ?generateLastContacts@PCMConvexVsMeshContactGeneration@Gu@physx@@QEAAXXZ 000000018011bad0 f   GuPCMContactConvexCommon.obj
 0001:0011b080       ?addContactsToPatch@PCMConvexVsMeshContactGeneration@Gu@physx@@QEAAXAEBT__m128@@I@Z 000000018011c080 f   GuPCMContactConvexCommon.obj
 0001:0011b820       ?processTriangle@PCMConvexVsMeshContactGeneration@Gu@physx@@QEAA_NPEBVPxVec3@3@IEPEBI@Z 000000018011c820 f   GuPCMContactConvexCommon.obj
 0001:0011bc70       ?processTriangle@PCMConvexVsMeshContactGeneration@Gu@physx@@SA_NAEBUPolygonalData@23@PEAVSupportLocal@23@PEBVPxVec3@3@IEAEBT__m128@@_NAEBVPsTransformV@aos@shdfnd@3@AEBVPsMatTransformV@9shdfnd@3@PEAVMeshPersistentContact@23@AEAI@Z 000000018011cc70 f   GuPCMContactConvexCommon.obj
 0001:0011bf60       ?processTriangle@PCMSphereVsMeshContactGeneration@Gu@physx@@QEAA_NPEBVPxVec3@3@IEPEBI@Z 000000018011cf60 f   GuPCMContactConvexCommon.obj
 0001:0011c670       ?generateEEContacts@PCMCapsuleVsMeshContactGeneration@Gu@physx@@QEAAXAEBT__m128@@000I000PEAVMeshPersistentContact@23@AEAI@Z 000000018011d670 f   GuPCMContactConvexCommon.obj
 0001:0011c7a0       ?generateEE@PCMCapsuleVsMeshContactGeneration@Gu@physx@@QEAAXAEBT__m128@@000I00PEAVMeshPersistentContact@23@AEAI@Z 000000018011d7a0 f   GuPCMContactConvexCommon.obj
 0001:0011ca30       ?generateContacts@PCMCapsuleVsMeshContactGeneration@Gu@physx@@SA_NAEBT__m128@@0000I000PEAVMeshPersistentContact@23@AEAI@Z 000000018011da30 f   GuPCMContactConvexCommon.obj
 0001:0011cf10       ?generateEEContactsMTD@PCMCapsuleVsMeshContactGeneration@Gu@physx@@SAXAEBT__m128@@000I000PEAVMeshPersistentContact@23@AEAI@Z 000000018011df10 f   GuPCMContactConvexCommon.obj
 0001:0011d030       ?generateEEMTD@PCMCapsuleVsMeshContactGeneration@Gu@physx@@SAXAEBT__m128@@000I00PEAVMeshPersistentContact@23@AEAI@Z 000000018011e030 f   GuPCMContactConvexCommon.obj
 0001:0011d290       ?processTriangle@PCMCapsuleVsMeshContactGeneration@Gu@physx@@QEAA_NPEBVPxVec3@3@IEPEBI@Z 000000018011e290 f   GuPCMContactConvexCommon.obj
 0001:0011dce0       ?processTriangle@PCMCapsuleVsMeshContactGeneration@Gu@physx@@SA_NAEBVTriangleV@23@IAEBVCapsuleV@23@AEBT__m128@@EPEAVMeshPersistentContact@23@AEAI@Z 000000018011ece0 f   GuPCMContactConvexCommon.obj
 0001:0011e040       ?pcmDistanceSegmentTriangleSquared@Gu@physx@@YA?AT__m128@@AEBT3@0000AEAT3@11@Z 000000018011f040 f   GuPCMContactConvexCommon.obj
 0001:0011fa10       ??_E?$SupportLocalImpl@VTriangleV@Gu@physx@@@Gu@physx@@UEAAPEAXI@Z 0000000180120a10 f i GuPCMContactConvexCommon.obj
 0001:0011fa10       ??_G?$SupportLocalImpl@VTriangleV@Gu@physx@@@Gu@physx@@UEAAPEAXI@Z 0000000180120a10 f i GuPCMContactConvexCommon.obj
 0001:0011fa50       ?doSupport@?$SupportLocalImpl@VTriangleV@Gu@physx@@@Gu@physx@@UEBA?AT__m128@@AEBT4@@Z 0000000180120a50 f i GuPCMContactConvexCommon.obj
 0001:0011fb00       ?doSupport@?$SupportLocalImpl@VTriangleV@Gu@physx@@@Gu@physx@@UEBAXAEBT__m128@@AEAT4@1@Z 0000000180120b00 f i GuPCMContactConvexCommon.obj
 0001:00120250       ?populateVerts@?$SupportLocalImpl@VTriangleV@Gu@physx@@@Gu@physx@@UEBAXPEBEIPEBVPxVec3@3@PEAT__m128@@@Z 0000000180121250 f i GuPCMContactConvexCommon.obj
 0001:001202b0       ?pcmContactConvexConvex@Gu@physx@@YA_NAEBVGeometryUnion@12@0AEBVPxTransform@2@1AEBUNarrowPhaseParams@12@AEAUCache@12@AEAVContactBuffer@12@PEAVRenderOutput@Cm@2@@Z 00000001801212b0 f   GuPCMContactConvexConvex.obj
 0001:00121b50       ??$gjkPenetration@U?$RelativeConvex@VShrunkConvexHullNoScaleV@Gu@physx@@@Gu@physx@@U?$LocalConvex@VShrunkConvexHullNoScaleV@Gu@physx@@@23@@Gu@physx@@YA?AW4GjkStatus@01@AEBU?$RelativeConvex@VShrunkConvexHullNoScaleV@Gu@physx@@@01@AEBU?$LocalConvex@VShrunkConvexHullNoScaleV@Gu@physx@@@01@AEBT__m128@@2AEAT5@333PEIAE4AEAE_N@Z 0000000180122b50 f i GuPCMContactConvexConvex.obj
 0001:00123dc0       ??$gjkPenetration@U?$RelativeConvex@VShrunkConvexHullNoScaleV@Gu@physx@@@Gu@physx@@U?$LocalConvex@VShrunkConvexHullV@Gu@physx@@@23@@Gu@physx@@YA?AW4GjkStatus@01@AEBU?$RelativeConvex@VShrunkConvexHullNoScaleV@Gu@physx@@@01@AEBU?$LocalConvex@VShrunkConvexHullV@Gu@physx@@@01@AEBT__m128@@2AEAT5@333PEIAE4AEAE_N@Z 0000000180124dc0 f i GuPCMContactConvexConvex.obj
 0001:001261f0       ??$gjkPenetration@U?$RelativeConvex@VShrunkConvexHullV@Gu@physx@@@Gu@physx@@U?$LocalConvex@VShrunkConvexHullNoScaleV@Gu@physx@@@23@@Gu@physx@@YA?AW4GjkStatus@01@AEBU?$RelativeConvex@VShrunkConvexHullV@Gu@physx@@@01@AEBU?$LocalConvex@VShrunkConvexHullNoScaleV@Gu@physx@@@01@AEBT__m128@@2AEAT5@333PEIAE4AEAE_N@Z 00000001801271f0 f i GuPCMContactConvexConvex.obj
 0001:00128670       ??$gjkPenetration@U?$RelativeConvex@VShrunkConvexHullV@Gu@physx@@@Gu@physx@@U?$LocalConvex@VShrunkConvexHullV@Gu@physx@@@23@@Gu@physx@@YA?AW4GjkStatus@01@AEBU?$RelativeConvex@VShrunkConvexHullV@Gu@physx@@@01@AEBU?$LocalConvex@VShrunkConvexHullV@Gu@physx@@@01@AEBT__m128@@2AEAT5@333PEIAE4AEAE_N@Z 0000000180129670 f i GuPCMContactConvexConvex.obj
 0001:0012ac90       ??_G?$RelativeConvex@VConvexHullV@Gu@physx@@@Gu@physx@@UEAAPEAXI@Z 000000018012bc90 f i GuPCMContactConvexConvex.obj
 0001:0012ac90       ??_E?$RelativeConvex@VConvexHullV@Gu@physx@@@Gu@physx@@UEAAPEAXI@Z 000000018012bc90 f i GuPCMContactConvexConvex.obj
 0001:0012acd0       ??_G?$RelativeConvex@VShrunkConvexHullNoScaleV@Gu@physx@@@Gu@physx@@UEAAPEAXI@Z 000000018012bcd0 f i GuPCMContactConvexConvex.obj
 0001:0012acd0       ??_E?$RelativeConvex@VShrunkConvexHullNoScaleV@Gu@physx@@@Gu@physx@@UEAAPEAXI@Z 000000018012bcd0 f i GuPCMContactConvexConvex.obj
 0001:0012ad10       ??_E?$RelativeConvex@VShrunkConvexHullV@Gu@physx@@@Gu@physx@@UEAAPEAXI@Z 000000018012bd10 f i GuPCMContactConvexConvex.obj
 0001:0012ad10       ??_G?$RelativeConvex@VShrunkConvexHullV@Gu@physx@@@Gu@physx@@UEAAPEAXI@Z 000000018012bd10 f i GuPCMContactConvexConvex.obj
 0001:0012b960       ?getSweepMargin@?$RelativeConvex@VConvexHullV@Gu@physx@@@Gu@physx@@UEBA?AT__m128@@XZ 000000018012c960 f i GuPCMContactConvexConvex.obj
 0001:0012b990       ?getSweepMargin@?$RelativeConvex@VShrunkConvexHullNoScaleV@Gu@physx@@@Gu@physx@@UEBA?AT__m128@@XZ 000000018012c990 f i GuPCMContactConvexConvex.obj
 0001:0012b9c0       ?getSweepMargin@?$RelativeConvex@VShrunkConvexHullV@Gu@physx@@@Gu@physx@@UEBA?AT__m128@@XZ 000000018012c9c0 f i GuPCMContactConvexConvex.obj
 0001:0012b9f0       ?support@?$RelativeConvex@VConvexHullV@Gu@physx@@@Gu@physx@@UEBA?AT__m128@@AEBT4@@Z 000000018012c9f0 f i GuPCMContactConvexConvex.obj
 0001:0012bb50       ?support@?$RelativeConvex@VConvexHullV@Gu@physx@@@Gu@physx@@UEBA?AT__m128@@AEBT4@AEAHPEAT4@@Z 000000018012cb50 f i GuPCMContactConvexConvex.obj
 0001:0012bcc0       ?support@?$RelativeConvex@VShrunkConvexHullNoScaleV@Gu@physx@@@Gu@physx@@UEBA?AT__m128@@AEBT4@@Z 000000018012ccc0 f i GuPCMContactConvexConvex.obj
 0001:0012bfb0       ?support@?$RelativeConvex@VShrunkConvexHullNoScaleV@Gu@physx@@@Gu@physx@@UEBA?AT__m128@@AEBT4@AEAHPEAT4@@Z 000000018012cfb0 f i GuPCMContactConvexConvex.obj
 0001:0012c300       ?support@?$RelativeConvex@VShrunkConvexHullV@Gu@physx@@@Gu@physx@@UEBA?AT__m128@@AEBT4@@Z 000000018012d300 f i GuPCMContactConvexConvex.obj
 0001:0012c7f0       ?support@?$RelativeConvex@VShrunkConvexHullV@Gu@physx@@@Gu@physx@@UEBA?AT__m128@@AEBT4@AEAHPEAT4@@Z 000000018012d7f0 f i GuPCMContactConvexConvex.obj
 0001:0012cd30       ?supportPoint@?$RelativeConvex@VConvexHullV@Gu@physx@@@Gu@physx@@UEBA?AT__m128@@HPEAT4@@Z 000000018012dd30 f i GuPCMContactConvexConvex.obj
 0001:0012cdd0       ?supportPoint@?$RelativeConvex@VShrunkConvexHullNoScaleV@Gu@physx@@@Gu@physx@@UEBA?AT__m128@@HPEAT4@@Z 000000018012ddd0 f i GuPCMContactConvexConvex.obj
 0001:0012d0c0       ?supportPoint@?$RelativeConvex@VShrunkConvexHullV@Gu@physx@@@Gu@physx@@UEBA?AT__m128@@HPEAT4@@Z 000000018012e0c0 f i GuPCMContactConvexConvex.obj
 0001:0012d550       ?pcmContactBoxHeightField@Gu@physx@@YA_NAEBVGeometryUnion@12@0AEBVPxTransform@2@1AEBUNarrowPhaseParams@12@AEAUCache@12@AEAVContactBuffer@12@PEAVRenderOutput@Cm@2@@Z 000000018012e550 f   GuPCMContactConvexHeightField.obj
 0001:0012d870       ?pcmContactConvexHeightField@Gu@physx@@YA_NAEBVGeometryUnion@12@0AEBVPxTransform@2@1AEBUNarrowPhaseParams@12@AEAUCache@12@AEAVContactBuffer@12@PEAVRenderOutput@Cm@2@@Z 000000018012e870 f   GuPCMContactConvexHeightField.obj
 0001:0012df60       ?PCMContactConvexHeightfield@Gu@physx@@YA_NAEBUPolygonalData@12@PEAVSupportLocal@12@AEBT__m128@@AEBVPxBounds3@2@AEBVPxHeightFieldGeometry@2@AEBVPxTransform@2@5MAEAVContactBuffer@12@AEBVFastVertex2ShapeScaling@Cm@2@_NAEAVMultiplePersistentContactManifold@12@PEAVRenderOutput@Cm@2@@Z 000000018012ef60 f   GuPCMContactConvexHeightField.obj
 0001:0012efe0       ??_G?$PCMHeightfieldContactGenerationCallback@UPCMConvexVsHeightfieldContactGenerationCallback@physx@@@Gu@physx@@UEAAPEAXI@Z 000000018012ffe0 f i GuPCMContactConvexHeightField.obj
 0001:0012efe0       ??_E?$PCMHeightfieldContactGenerationCallback@UPCMConvexVsHeightfieldContactGenerationCallback@physx@@@Gu@physx@@UEAAPEAXI@Z 000000018012ffe0 f i GuPCMContactConvexHeightField.obj
 0001:0012f020       ??_E?$SupportLocalShrunkImpl@VBoxV@Gu@physx@@VShrunkBoxV@23@@Gu@physx@@UEAAPEAXI@Z 0000000180130020 f i GuPCMContactConvexHeightField.obj
 0001:0012f020       ??_G?$SupportLocalShrunkImpl@VBoxV@Gu@physx@@VShrunkBoxV@23@@Gu@physx@@UEAAPEAXI@Z 0000000180130020 f i GuPCMContactConvexHeightField.obj
 0001:0012f060       ??_E?$SupportLocalShrunkImpl@VConvexHullNoScaleV@Gu@physx@@VShrunkConvexHullNoScaleV@23@@Gu@physx@@UEAAPEAXI@Z 0000000180130060 f i GuPCMContactConvexHeightField.obj
 0001:0012f060       ??_G?$SupportLocalShrunkImpl@VConvexHullNoScaleV@Gu@physx@@VShrunkConvexHullNoScaleV@23@@Gu@physx@@UEAAPEAXI@Z 0000000180130060 f i GuPCMContactConvexHeightField.obj
 0001:0012f0a0       ??_G?$SupportLocalShrunkImpl@VConvexHullV@Gu@physx@@VShrunkConvexHullV@23@@Gu@physx@@UEAAPEAXI@Z 00000001801300a0 f i GuPCMContactConvexHeightField.obj
 0001:0012f0a0       ??_E?$SupportLocalShrunkImpl@VConvexHullV@Gu@physx@@VShrunkConvexHullV@23@@Gu@physx@@UEAAPEAXI@Z 00000001801300a0 f i GuPCMContactConvexHeightField.obj
 0001:0012f0e0       ??_EPCMConvexVsHeightfieldContactGenerationCallback@physx@@UEAAPEAXI@Z 00000001801300e0 f i GuPCMContactConvexHeightField.obj
 0001:0012f0e0       ??_GPCMConvexVsHeightfieldContactGenerationCallback@physx@@UEAAPEAXI@Z 00000001801300e0 f i GuPCMContactConvexHeightField.obj
 0001:0012f120       ?doSupport@?$SupportLocalShrunkImpl@VBoxV@Gu@physx@@VShrunkBoxV@23@@Gu@physx@@UEBA?AT__m128@@AEBT4@@Z 0000000180130120 f i GuPCMContactConvexHeightField.obj
 0001:0012f160       ?doSupport@?$SupportLocalShrunkImpl@VBoxV@Gu@physx@@VShrunkBoxV@23@@Gu@physx@@UEBAXAEBT__m128@@AEAT4@1@Z 0000000180130160 f i GuPCMContactConvexHeightField.obj
 0001:0012f1c0       ?doSupport@?$SupportLocalShrunkImpl@VConvexHullNoScaleV@Gu@physx@@VShrunkConvexHullNoScaleV@23@@Gu@physx@@UEBA?AT__m128@@AEBT4@@Z 00000001801301c0 f i GuPCMContactConvexHeightField.obj
 0001:0012f220       ?doSupport@?$SupportLocalShrunkImpl@VConvexHullNoScaleV@Gu@physx@@VShrunkConvexHullNoScaleV@23@@Gu@physx@@UEBAXAEBT__m128@@AEAT4@1@Z 0000000180130220 f i GuPCMContactConvexHeightField.obj
 0001:0012f400       ?doSupport@?$SupportLocalShrunkImpl@VConvexHullV@Gu@physx@@VShrunkConvexHullV@23@@Gu@physx@@UEBA?AT__m128@@AEBT4@@Z 0000000180130400 f i GuPCMContactConvexHeightField.obj
 0001:0012f4f0       ?doSupport@?$SupportLocalShrunkImpl@VConvexHullV@Gu@physx@@VShrunkConvexHullV@23@@Gu@physx@@UEBAXAEBT__m128@@AEAT4@1@Z 00000001801304f0 f i GuPCMContactConvexHeightField.obj
 0001:0012f7a0       ?onEvent@?$PCMHeightfieldContactGenerationCallback@UPCMConvexVsHeightfieldContactGenerationCallback@physx@@@Gu@physx@@UEAA_NIPEAI@Z 00000001801307a0 f i GuPCMContactConvexHeightField.obj
 0001:0012fe70       ?populateVerts@?$SupportLocalShrunkImpl@VBoxV@Gu@physx@@VShrunkBoxV@23@@Gu@physx@@UEBAXPEBEIPEBVPxVec3@3@PEAT__m128@@@Z 0000000180130e70 f i GuPCMContactConvexHeightField.obj
 0001:0012fec0       ?populateVerts@?$SupportLocalShrunkImpl@VConvexHullNoScaleV@Gu@physx@@VShrunkConvexHullNoScaleV@23@@Gu@physx@@UEBAXPEBEIPEBVPxVec3@3@PEAT__m128@@@Z 0000000180130ec0 f i GuPCMContactConvexHeightField.obj
 0001:0012ff10       ?populateVerts@?$SupportLocalShrunkImpl@VConvexHullV@Gu@physx@@VShrunkConvexHullV@23@@Gu@physx@@UEBAXPEBEIPEBVPxVec3@3@PEAT__m128@@@Z 0000000180130f10 f i GuPCMContactConvexHeightField.obj
 0001:0012ff90       ?pcmContactBoxMesh@Gu@physx@@YA_NAEBVGeometryUnion@12@0AEBVPxTransform@2@1AEBUNarrowPhaseParams@12@AEAUCache@12@AEAVContactBuffer@12@PEAVRenderOutput@Cm@2@@Z 0000000180130f90 f   GuPCMContactConvexMesh.obj
 0001:00130320       ?pcmContactConvexMesh@Gu@physx@@YA_NAEBVGeometryUnion@12@0AEBVPxTransform@2@1AEBUNarrowPhaseParams@12@AEAUCache@12@AEAVContactBuffer@12@PEAVRenderOutput@Cm@2@@Z 0000000180131320 f   GuPCMContactConvexMesh.obj
 0001:00130a80       ?PCMContactConvexMesh@Gu@physx@@YA_NAEBUPolygonalData@12@PEAVSupportLocal@12@AEBT__m128@@AEBVPxBounds3@2@AEBUPxTriangleMeshGeometryLL@2@AEBVPxTransform@2@5MAEAVContactBuffer@12@AEBVFastVertex2ShapeScaling@Cm@2@7_N8AEAVMultiplePersistentContactManifold@12@PEAVRenderOutput@Cm@2@@Z 0000000180131a80 f   GuPCMContactConvexMesh.obj
 0001:00131cb0       ??$processTriangleCache@$0BA@VPCMConvexVsMeshContactGeneration@Gu@physx@@@PCMMeshContactGeneration@Gu@physx@@QEAA_NAEAU?$TriangleCache@$0BA@@12@@Z 0000000180132cb0 f i GuPCMContactConvexMesh.obj
 0001:00131d60       ??_E?$PCMMeshContactGenerationCallback@UPCMConvexVsMeshContactGenerationCallback@physx@@@Gu@physx@@UEAAPEAXI@Z 0000000180132d60 f i GuPCMContactConvexMesh.obj
 0001:00131d60       ??_G?$PCMMeshContactGenerationCallback@UPCMConvexVsMeshContactGenerationCallback@physx@@@Gu@physx@@UEAAPEAXI@Z 0000000180132d60 f i GuPCMContactConvexMesh.obj
 0001:00131da0       ??_EPCMConvexVsMeshContactGenerationCallback@physx@@UEAAPEAXI@Z 0000000180132da0 f i GuPCMContactConvexMesh.obj
 0001:00131da0       ??_GPCMConvexVsMeshContactGenerationCallback@physx@@UEAAPEAXI@Z 0000000180132da0 f i GuPCMContactConvexMesh.obj
 0001:00131de0       ?processHit@?$PCMMeshContactGenerationCallback@UPCMConvexVsMeshContactGenerationCallback@physx@@@Gu@physx@@UEAA_NAEBUPxRaycastHit@3@AEBVPxVec3@3@11AEAMPEBI@Z 0000000180132de0 f i GuPCMContactConvexMesh.obj
 0001:001322c0       ?generateFullContactManifold@Gu@physx@@YA_NAEAUPolygonalData@12@0PEAVSupportLocal@12@1PEAVPersistentContact@12@AEAIAEBT__m128@@44444_NPEAVRenderOutput@Cm@2@4@Z 00000001801332c0 f   GuPCMContactGenBoxConvex.obj
 0001:00133790       ?computeMTD@Gu@physx@@YA_NAEAUPolygonalData@12@0PEAVSupportLocal@12@1AEAT__m128@@2@Z 0000000180134790 f   GuPCMContactGenBoxConvex.obj
 0001:00133e60       ?buildPartialHull@Gu@physx@@YAXAEBUPolygonalData@12@PEAVSupportLocal@12@AEAVSeparatingAxes@12@AEBT__m128@@3@Z 0000000180134e60 f   GuPCMContactGenBoxConvex.obj
 0001:00134150       ?generatedContacts@Gu@physx@@YAXAEAUPolygonalData@12@0AEBUHullPolygonData@12@1PEAVSupportLocal@12@2AEBVPsMatTransformV@aos@shdfnd@2@PEAVPersistentContact@12@AEAIAEBT__m128@@PEAVRenderOutput@Cm@2@@Z 0000000180135150 f   GuPCMContactGenBoxConvex.obj
 0001:00136720       ?generateFullContactManifold@Gu@physx@@YA_NAEBVCapsuleV@12@AEAUPolygonalData@12@PEAVSupportLocal@12@AEBVPsMatTransformV@aos@shdfnd@2@PEAVPersistentContact@12@AEAIAEBT__m128@@AEAT__m128@@66_N6@Z 0000000180137720 f   GuPCMContactGenSphereCapsule.obj
 0001:00136d90       ?generateCapsuleBoxFullContactManifold@Gu@physx@@YA_NAEBVCapsuleV@12@AEAUPolygonalData@12@PEAVSupportLocal@12@AEBVPsMatTransformV@aos@shdfnd@2@PEAVPersistentContact@12@AEAIAEBT__m128@@AEAT__m128@@66_N6@Z 0000000180137d90 f   GuPCMContactGenSphereCapsule.obj
 0001:00137390       ?computeMTD@Gu@physx@@YA_NAEBVCapsuleV@12@AEAUPolygonalData@12@PEAVSupportLocal@12@AEAT__m128@@3@Z 0000000180138390 f   GuPCMContactGenSphereCapsule.obj
 0001:001374c0       ?generateSphereFullContactManifold@Gu@physx@@YA_NAEBVCapsuleV@12@AEAUPolygonalData@12@PEAVSupportLocal@12@PEAVPersistentContact@12@AEAIAEBT__m128@@AEAT7@_N@Z 00000001801384c0 f   GuPCMContactGenSphereCapsule.obj
 0001:00137980       ?generatedCapsuleBoxFaceContacts@Gu@physx@@YAXAEBVCapsuleV@12@AEAUPolygonalData@12@AEBUHullPolygonData@12@PEAVSupportLocal@12@AEBVPsMatTransformV@aos@shdfnd@2@PEAVPersistentContact@12@AEAIAEBT__m128@@7@Z 0000000180138980 f   GuPCMContactGenSphereCapsule.obj
 0001:001381b0       ?generatedContactsEEContacts@Gu@physx@@YAXAEBVCapsuleV@12@AEAUPolygonalData@12@AEBUHullPolygonData@12@PEAVSupportLocal@12@AEBVPsMatTransformV@aos@shdfnd@2@PEAVPersistentContact@12@AEAIAEBT__m128@@7@Z 00000001801391b0 f   GuPCMContactGenSphereCapsule.obj
 0001:00139910       ?pcmContactPlaneBox@Gu@physx@@YA_NAEBVGeometryUnion@12@0AEBVPxTransform@2@1AEBUNarrowPhaseParams@12@AEAUCache@12@AEAVContactBuffer@12@PEAVRenderOutput@Cm@2@@Z 000000018013a910 f   GuPCMContactPlaneBox.obj
 0001:0013a7e0       ?pcmContactPlaneCapsule@Gu@physx@@YA_NAEBVGeometryUnion@12@0AEBVPxTransform@2@1AEBUNarrowPhaseParams@12@AEAUCache@12@AEAVContactBuffer@12@PEAVRenderOutput@Cm@2@@Z 000000018013b7e0 f   GuPCMContactPlaneCapsule.obj
 0001:0013b300       ?pcmContactPlaneConvex@Gu@physx@@YA_NAEBVGeometryUnion@12@0AEBVPxTransform@2@1AEBUNarrowPhaseParams@12@AEAUCache@12@AEAVContactBuffer@12@PEAVRenderOutput@Cm@2@@Z 000000018013c300 f   GuPCMContactPlaneConvex.obj
 0001:0013bf90       ?pcmContactSphereBox@Gu@physx@@YA_NAEBVGeometryUnion@12@0AEBVPxTransform@2@1AEBUNarrowPhaseParams@12@AEAUCache@12@AEAVContactBuffer@12@PEAVRenderOutput@Cm@2@@Z 000000018013cf90 f   GuPCMContactSphereBox.obj
 0001:0013c620       ?pcmContactSphereCapsule@Gu@physx@@YA_NAEBVGeometryUnion@12@0AEBVPxTransform@2@1AEBUNarrowPhaseParams@12@AEAUCache@12@AEAVContactBuffer@12@PEAVRenderOutput@Cm@2@@Z 000000018013d620 f   GuPCMContactSphereCapsule.obj
 0001:0013c9b0       ?pcmContactSphereConvex@Gu@physx@@YA_NAEBVGeometryUnion@12@0AEBVPxTransform@2@1AEBUNarrowPhaseParams@12@AEAUCache@12@AEAVContactBuffer@12@PEAVRenderOutput@Cm@2@@Z 000000018013d9b0 f   GuPCMContactSphereConvex.obj
 0001:0013ddf0       ?pcmContactSphereHeightField@Gu@physx@@YA_NAEBVGeometryUnion@12@0AEBVPxTransform@2@1AEBUNarrowPhaseParams@12@AEAUCache@12@AEAVContactBuffer@12@PEAVRenderOutput@Cm@2@@Z 000000018013edf0 f   GuPCMContactSphereHeightField.obj
 0001:0013ea60       ??_G?$PCMHeightfieldContactGenerationCallback@UPCMSphereVsHeightfieldContactGenerationCallback@physx@@@Gu@physx@@UEAAPEAXI@Z 000000018013fa60 f i GuPCMContactSphereHeightField.obj
 0001:0013ea60       ??_E?$PCMHeightfieldContactGenerationCallback@UPCMSphereVsHeightfieldContactGenerationCallback@physx@@@Gu@physx@@UEAAPEAXI@Z 000000018013fa60 f i GuPCMContactSphereHeightField.obj
 0001:0013eaa0       ??_GPCMSphereVsHeightfieldContactGenerationCallback@physx@@UEAAPEAXI@Z 000000018013faa0 f i GuPCMContactSphereHeightField.obj
 0001:0013eaa0       ??_EPCMSphereVsHeightfieldContactGenerationCallback@physx@@UEAAPEAXI@Z 000000018013faa0 f i GuPCMContactSphereHeightField.obj
 0001:0013eae0       ?onEvent@?$PCMHeightfieldContactGenerationCallback@UPCMSphereVsHeightfieldContactGenerationCallback@physx@@@Gu@physx@@UEAA_NIPEAI@Z 000000018013fae0 f i GuPCMContactSphereHeightField.obj
 0001:0013f1b0       ?pcmContactSphereMesh@Gu@physx@@YA_NAEBVGeometryUnion@12@0AEBVPxTransform@2@1AEBUNarrowPhaseParams@12@AEAUCache@12@AEAVContactBuffer@12@PEAVRenderOutput@Cm@2@@Z 00000001801401b0 f   GuPCMContactSphereMesh.obj
 0001:0013ffa0       ??$processTriangleCache@$0BA@VPCMSphereVsMeshContactGeneration@Gu@physx@@@PCMMeshContactGeneration@Gu@physx@@QEAA_NAEAU?$TriangleCache@$0BA@@12@@Z 0000000180140fa0 f i GuPCMContactSphereMesh.obj
 0001:00140050       ??_E?$PCMMeshContactGenerationCallback@UPCMSphereVsMeshContactGenerationCallback@physx@@@Gu@physx@@UEAAPEAXI@Z 0000000180141050 f i GuPCMContactSphereMesh.obj
 0001:00140050       ??_G?$PCMMeshContactGenerationCallback@UPCMSphereVsMeshContactGenerationCallback@physx@@@Gu@physx@@UEAAPEAXI@Z 0000000180141050 f i GuPCMContactSphereMesh.obj
 0001:00140090       ??_GPCMSphereVsMeshContactGenerationCallback@physx@@UEAAPEAXI@Z 0000000180141090 f i GuPCMContactSphereMesh.obj
 0001:00140090       ??_EPCMSphereVsMeshContactGenerationCallback@physx@@UEAAPEAXI@Z 0000000180141090 f i GuPCMContactSphereMesh.obj
 0001:001400d0       ?processHit@?$PCMMeshContactGenerationCallback@UPCMSphereVsMeshContactGenerationCallback@physx@@@Gu@physx@@UEAA_NAEBUPxRaycastHit@3@AEBVPxVec3@3@11AEAMPEBI@Z 00000001801410d0 f i GuPCMContactSphereMesh.obj
 0001:00140540       ?pcmContactSpherePlane@Gu@physx@@YA_NAEBVGeometryUnion@12@0AEBVPxTransform@2@1AEBUNarrowPhaseParams@12@AEAUCache@12@AEAVContactBuffer@12@PEAVRenderOutput@Cm@2@@Z 0000000180141540 f   GuPCMContactSpherePlane.obj
 0001:001407b0       ?pcmContactSphereSphere@Gu@physx@@YA_NAEBVGeometryUnion@12@0AEBVPxTransform@2@1AEBUNarrowPhaseParams@12@AEAUCache@12@AEAVContactBuffer@12@PEAVRenderOutput@Cm@2@@Z 00000001801417b0 f   GuPCMContactSphereSphere.obj
 0001:00140980       ??0PCMPolygonalBox@Gu@physx@@QEAA@AEBVPxVec3@2@@Z 0000000180141980 f   GuPCMShapeConvex.obj
 0001:00140b80       ?getPolygonalData@PCMPolygonalBox@Gu@physx@@QEBAXPEIAUPolygonalData@23@@Z 0000000180141b80 f   GuPCMShapeConvex.obj
 0001:00140bd0       ?getPCMConvexData@Gu@physx@@YAXAEBVConvexHullV@12@_NAEAUPolygonalData@12@@Z 0000000180141bd0 f   GuPCMShapeConvex.obj
 0001:00140c20       ?getPCMConvexData@Gu@physx@@YA_NAEBVGeometryUnion@12@AEAVFastVertex2ShapeScaling@Cm@2@AEAVPxBounds3@2@AEAUPolygonalData@12@@Z 0000000180141c20 f   GuPCMShapeConvex.obj
 0001:00141280       ?generateTriangleFullContactManifold@PCMConvexVsMeshContactGeneration@Gu@physx@@QEAA_NAEAVTriangleV@23@IPEBIEAEBUPolygonalData@23@PEAV?$SupportLocalImpl@VTriangleV@Gu@physx@@@23@PEAVSupportLocal@23@PEAVMeshPersistentContact@23@AEAIAEBT__m128@@AEAT9@@Z 0000000180142280 f   GuPCMTriangleContactGen.obj
 0001:00141c40       ?generatePolyDataContactManifold@PCMConvexVsMeshContactGeneration@Gu@physx@@QEAA_NAEAVTriangleV@23@IIEPEAVMeshPersistentContact@23@AEAIAEBT__m128@@AEAT6@@Z 0000000180142c40 f   GuPCMTriangleContactGen.obj
 0001:00141d80       ?generateTriangleFullContactManifold@PCMConvexVsMeshContactGeneration@Gu@physx@@SA_NAEAVTriangleV@23@IEAEBUPolygonalData@23@PEAV?$SupportLocalImpl@VTriangleV@Gu@physx@@@23@PEAVSupportLocal@23@PEAVMeshPersistentContact@23@AEAIAEBT__m128@@AEAT9@PEAVRenderOutput@Cm@3@@Z 0000000180142d80 f   GuPCMTriangleContactGen.obj
 0001:001452a0       ?findRotationMatrixFromZAxis@Gu@physx@@YA?AUMat33V@aos@shdfnd@2@AEBT__m128@@@Z 00000001801462a0 f   GuPersistentContactManifold.obj
 0001:00145580       ?replaceManifoldPoint@PersistentContactManifold@Gu@physx@@QEAA_NAEBT__m128@@000@Z 0000000180146580 f   GuPersistentContactManifold.obj
 0001:00145640       ?addManifoldPoint@PersistentContactManifold@Gu@physx@@QEAAIAEBT__m128@@000@Z 0000000180146640 f   GuPersistentContactManifold.obj
 0001:00145700       ?addManifoldPoint2@PersistentContactManifold@Gu@physx@@QEAAIAEBT__m128@@000@Z 0000000180146700 f   GuPersistentContactManifold.obj
 0001:001457d0       ?addBatchManifoldContactsCluster@PersistentContactManifold@Gu@physx@@QEAAXPEBVPersistentContact@23@I@Z 00000001801467d0 f   GuPersistentContactManifold.obj
 0001:00145850       ?addBatchManifoldContacts2@PersistentContactManifold@Gu@physx@@QEAAXPEBVPersistentContact@23@I@Z 0000000180146850 f   GuPersistentContactManifold.obj
 0001:001458d0       ?addBatchManifoldContacts@PersistentContactManifold@Gu@physx@@QEAAXPEBVPersistentContact@23@I@Z 00000001801468d0 f   GuPersistentContactManifold.obj
 0001:00145950       ?reduceBatchContactsCluster@PersistentContactManifold@Gu@physx@@QEAAXPEBVPersistentContact@23@I@Z 0000000180146950 f   GuPersistentContactManifold.obj
 0001:00145df0       ?reduceBatchContacts2@PersistentContactManifold@Gu@physx@@QEAAXPEBVPersistentContact@23@I@Z 0000000180146df0 f   GuPersistentContactManifold.obj
 0001:00145ff0       ?reduceBatchContacts@PersistentContactManifold@Gu@physx@@QEAAXPEBVPersistentContact@23@I@Z 0000000180146ff0 f   GuPersistentContactManifold.obj
 0001:00146320       ?reduceContactsForPCM@PersistentContactManifold@Gu@physx@@QEAAIAEBT__m128@@00@Z 0000000180147320 f   GuPersistentContactManifold.obj
 0001:00146790       ?reduceContactSegment@PersistentContactManifold@Gu@physx@@QEAAIAEBT__m128@@00@Z 0000000180147790 f   GuPersistentContactManifold.obj
 0001:00146830       ?addManifoldContactsToContactBuffer@PersistentContactManifold@Gu@physx@@QEAAXAEAVContactBuffer@23@AEBT__m128@@AEBVPsMatTransformV@aos@shdfnd@3@@Z 0000000180147830 f   GuPersistentContactManifold.obj
 0001:001468e0       ?addManifoldContactsToContactBuffer@PersistentContactManifold@Gu@physx@@QEAAXAEAVContactBuffer@23@AEBT__m128@@AEBVPsTransformV@aos@shdfnd@3@1@Z 00000001801478e0 f   GuPersistentContactManifold.obj
 0001:00146a60       ?addManifoldContactsToContactBuffer@PersistentContactManifold@Gu@physx@@QEAAXAEAVContactBuffer@23@AEBT__m128@@1AEBVPsTransformV@aos@shdfnd@3@11@Z 0000000180147a60 f   GuPersistentContactManifold.obj
 0001:00146c20       ?drawManifold@PersistentContactManifold@Gu@physx@@QEAAXAEAVRenderOutput@Cm@3@AEBVPsTransformV@aos@shdfnd@3@1@Z 0000000180147c20 f   GuPersistentContactManifold.obj
 0001:00146ca0       ?drawManifold@PersistentContactManifold@Gu@physx@@QEAAXAEAVRenderOutput@Cm@3@AEBVPsTransformV@aos@shdfnd@3@1AEBT__m128@@@Z 0000000180147ca0 f   GuPersistentContactManifold.obj
 0001:00146d40       ?drawManifold@PersistentContactManifold@Gu@physx@@QEAAXAEBVPersistentContact@23@AEAVRenderOutput@Cm@3@AEBVPsTransformV@aos@shdfnd@3@2@Z 0000000180147d40 f   GuPersistentContactManifold.obj
 0001:00146d70       ?drawPoint@PersistentContactManifold@Gu@physx@@SAXAEAVRenderOutput@Cm@3@AEBT__m128@@MI@Z 0000000180147d70 f   GuPersistentContactManifold.obj
 0001:00146f50       ?drawLine@PersistentContactManifold@Gu@physx@@SAXAEAVRenderOutput@Cm@3@AEBT__m128@@1I@Z 0000000180147f50 f   GuPersistentContactManifold.obj
 0001:00147010       ?drawTriangle@PersistentContactManifold@Gu@physx@@SAXAEAVRenderOutput@Cm@3@AEBT__m128@@11I@Z 0000000180148010 f   GuPersistentContactManifold.obj
 0001:00147100       ?drawPolygon@PersistentContactManifold@Gu@physx@@SAXAEAVRenderOutput@Cm@3@AEBVPsTransformV@aos@shdfnd@3@PEAT__m128@@II@Z 0000000180148100 f   GuPersistentContactManifold.obj
 0001:00147420       ?drawPolygon@PersistentContactManifold@Gu@physx@@SAXAEAVRenderOutput@Cm@3@AEBVPsMatTransformV@aos@shdfnd@3@PEAT__m128@@II@Z 0000000180148420 f   GuPersistentContactManifold.obj
 0001:001475e0       ?reduceBatchContactsConvex@SinglePersistentContactManifold@Gu@physx@@QEAA?AT__m128@@PEBVMeshPersistentContact@23@IAEAUPCMContactPatch@23@@Z 00000001801485e0 f   GuPersistentContactManifold.obj
 0001:00147ba0       ?reduceBatchContactsSphere@SinglePersistentContactManifold@Gu@physx@@QEAA?AT__m128@@PEBVMeshPersistentContact@23@IAEAUPCMContactPatch@23@@Z 0000000180148ba0 f   GuPersistentContactManifold.obj
 0001:00147c70       ?reduceBatchContactsCapsule@SinglePersistentContactManifold@Gu@physx@@QEAA?AT__m128@@PEBVMeshPersistentContact@23@IAEAUPCMContactPatch@23@@Z 0000000180148c70 f   GuPersistentContactManifold.obj
 0001:00147f10       ?addBatchManifoldContactsConvex@SinglePersistentContactManifold@Gu@physx@@QEAA?AT__m128@@PEBVMeshPersistentContact@23@IAEAUPCMContactPatch@23@AEBT4@@Z 0000000180148f10 f   GuPersistentContactManifold.obj
 0001:00147fe0       ?addBatchManifoldContactsSphere@SinglePersistentContactManifold@Gu@physx@@QEAA?AT__m128@@PEBVMeshPersistentContact@23@IAEAUPCMContactPatch@23@AEBT4@@Z 0000000180148fe0 f   GuPersistentContactManifold.obj
 0001:00148030       ?addBatchManifoldContactsCapsule@SinglePersistentContactManifold@Gu@physx@@QEAA?AT__m128@@PEBVMeshPersistentContact@23@IAEAUPCMContactPatch@23@AEBT4@@Z 0000000180149030 f   GuPersistentContactManifold.obj
 0001:00148100       ?reduceContacts@SinglePersistentContactManifold@Gu@physx@@SAIPEAVMeshPersistentContact@23@I@Z 0000000180149100 f   GuPersistentContactManifold.obj
 0001:00148550       ?refreshContactPoints@SinglePersistentContactManifold@Gu@physx@@QEAA?AT__m128@@AEBVPsMatTransformV@aos@shdfnd@3@AEBT4@1@Z 0000000180149550 f   GuPersistentContactManifold.obj
 0001:001486a0       ?drawManifold@SinglePersistentContactManifold@Gu@physx@@QEAAXAEAVRenderOutput@Cm@3@AEBVPsTransformV@aos@shdfnd@3@1@Z 00000001801496a0 f   GuPersistentContactManifold.obj
 0001:00148730       ?addManifoldContactPoints@MultiplePersistentContactManifold@Gu@physx@@QEAAXPEAVMeshPersistentContact@23@IPEAPEAUPCMContactPatch@23@IAEBT__m128@@2E@Z 0000000180149730 f   GuPersistentContactManifold.obj
 0001:00148b60       ?addManifoldContactsToContactBuffer@MultiplePersistentContactManifold@Gu@physx@@QEAA_NAEAVContactBuffer@23@AEBVPsTransformV@aos@shdfnd@3@@Z 0000000180149b60 f   GuPersistentContactManifold.obj
 0001:00148e40       ?addManifoldContactsToContactBuffer@MultiplePersistentContactManifold@Gu@physx@@QEAA_NAEAVContactBuffer@23@AEBVPsTransformV@aos@shdfnd@3@1AEBT__m128@@@Z 0000000180149e40 f   GuPersistentContactManifold.obj
 0001:00149180       ?drawManifold@MultiplePersistentContactManifold@Gu@physx@@QEAAXAEAVRenderOutput@Cm@3@AEBVPsTransformV@aos@shdfnd@3@1@Z 000000018014a180 f   GuPersistentContactManifold.obj
 0001:00149240       ?fromBuffer@MultiplePersistentContactManifold@Gu@physx@@QEAAXPEIAE@Z 000000018014a240 f   GuPersistentContactManifold.obj
 0001:001493b0       ?drawLine@MultiplePersistentContactManifold@Gu@physx@@SAXAEAVRenderOutput@Cm@3@AEBT__m128@@1I@Z 000000018014a3b0 f   GuPersistentContactManifold.obj
 0001:00149470       ?drawLine@MultiplePersistentContactManifold@Gu@physx@@SAXAEAVRenderOutput@Cm@3@VPxVec3@3@1I@Z 000000018014a470 f   GuPersistentContactManifold.obj
 0001:00149530       ?drawPoint@MultiplePersistentContactManifold@Gu@physx@@SAXAEAVRenderOutput@Cm@3@AEBT__m128@@MI@Z 000000018014a530 f   GuPersistentContactManifold.obj
 0001:00149710       ?drawPolygon@MultiplePersistentContactManifold@Gu@physx@@SAXAEAVRenderOutput@Cm@3@AEBVPsTransformV@aos@shdfnd@3@PEAT__m128@@II@Z 000000018014a710 f   GuPersistentContactManifold.obj
 0001:0014c360       ?SweepEstimateAnyShapeHeightfield@Gu@physx@@YAMAEBUCCDShape@12@0AEBVPxTransform@2@111MM@Z 000000018014d360 f   GuCCDSweepConvexMesh.obj
 0001:0014cc10       ?SweepEstimateAnyShapeMesh@Gu@physx@@YAMAEBUCCDShape@12@0AEBVPxTransform@2@111MM@Z 000000018014dc10 f   GuCCDSweepConvexMesh.obj
 0001:0014d010       ?SweepAnyShapeHeightfield@Gu@physx@@YAMAEBUCCDShape@12@0AEBVPxTransform@2@111MAEAVPxVec3@2@2MAEAIM@Z 000000018014e010 f   GuCCDSweepConvexMesh.obj
 0001:0014e220       ?SweepAnyShapeMesh@Gu@physx@@YAMAEBUCCDShape@12@0AEBVPxTransform@2@111MAEAVPxVec3@2@2MAEAIM@Z 000000018014f220 f   GuCCDSweepConvexMesh.obj
 0001:00150890       ??0?$InlineArray@I$0EA@VNamedAllocator@shdfnd@physx@@@shdfnd@physx@@QEAA@AEBVNamedAllocator@12@@Z 0000000180151890 f i GuCCDSweepConvexMesh.obj
 0001:001509c0       ??_EAccumCallback@?A0x54bc49bb@Gu@physx@@UEAAPEAXI@Z 00000001801519c0 f i GuCCDSweepConvexMesh.obj
 0001:001509c0       ??_GAccumCallback@?A0x54bc49bb@Gu@physx@@UEAAPEAXI@Z 00000001801519c0 f i GuCCDSweepConvexMesh.obj
 0001:00150a00       ??_GCB@?1??SweepEstimateAnyShapeMesh@Gu@physx@@YAMAEBUCCDShape@23@0AEBVPxTransform@3@111MM@Z@UEAAPEAXI@Z 0000000180151a00 f i GuCCDSweepConvexMesh.obj
 0001:00150a00       ??_ECB@?1??SweepEstimateAnyShapeMesh@Gu@physx@@YAMAEBUCCDShape@23@0AEBVPxTransform@3@111MM@Z@UEAAPEAXI@Z 0000000180151a00 f i GuCCDSweepConvexMesh.obj
 0001:00150a40       ??_EEntityReportContainerCallback@?A0x54bc49bb@Gu@physx@@UEAAPEAXI@Z 0000000180151a40 f i GuCCDSweepConvexMesh.obj
 0001:00150a40       ??_GEntityReportContainerCallback@?A0x54bc49bb@Gu@physx@@UEAAPEAXI@Z 0000000180151a40 f i GuCCDSweepConvexMesh.obj
 0001:00150a80       ?allocate@?$Array@IV?$InlineAllocator@$0BAA@VNamedAllocator@shdfnd@physx@@@shdfnd@physx@@@shdfnd@physx@@IEAAPEAII@Z 0000000180151a80 f i GuCCDSweepConvexMesh.obj
 0001:00151920       ?growAndPushBack@?$Array@IV?$InlineAllocator@$0BAA@VNamedAllocator@shdfnd@physx@@@shdfnd@physx@@@shdfnd@physx@@IEAAAEAIAEBI@Z 0000000180152920 f i GuCCDSweepConvexMesh.obj
 0001:00152210       ?recreate@?$Array@IV?$InlineAllocator@$0BAA@VNamedAllocator@shdfnd@physx@@@shdfnd@physx@@@shdfnd@physx@@IEAAXI@Z 0000000180153210 f i GuCCDSweepConvexMesh.obj
 0001:001522c0       ?recreate@?$Array@IVNamedAllocator@shdfnd@physx@@@shdfnd@physx@@IEAAXI@Z 00000001801532c0 f i GuCCDSweepConvexMesh.obj
 0001:00152390       ?resize@?$Array@IV?$InlineAllocator@$0BAA@VNamedAllocator@shdfnd@physx@@@shdfnd@physx@@@shdfnd@physx@@QEAAXIAEBI@Z 0000000180153390 f i GuCCDSweepConvexMesh.obj
 0001:00152450       ?resize@?$Array@IVNamedAllocator@shdfnd@physx@@@shdfnd@physx@@QEAAXIAEBI@Z 0000000180153450 f i GuCCDSweepConvexMesh.obj
 0001:00152510       ?supportPoint@?$RelativeConvex@VCapsuleV@Gu@physx@@@Gu@physx@@UEBA?AT__m128@@HPEAT4@@Z 0000000180153510 f i GuCCDSweepPrimitives.obj
 0001:00152580       ?support@?$RelativeConvex@VCapsuleV@Gu@physx@@@Gu@physx@@UEBA?AT__m128@@AEBT4@@Z 0000000180153580 f i GuCCDSweepPrimitives.obj
 0001:00152660       ?support@?$RelativeConvex@VCapsuleV@Gu@physx@@@Gu@physx@@UEBA?AT__m128@@AEBT4@AEAHPEAT4@@Z 0000000180153660 f i GuCCDSweepPrimitives.obj
 0001:00152760       ?getSweepMargin@?$RelativeConvex@VCapsuleV@Gu@physx@@@Gu@physx@@UEBA?AT__m128@@XZ 0000000180153760 f i GuCCDSweepPrimitives.obj
 0001:00152770       ??_E?$RelativeConvex@VCapsuleV@Gu@physx@@@Gu@physx@@UEAAPEAXI@Z 0000000180153770 f i GuCCDSweepPrimitives.obj
 0001:00152770       ??_G?$RelativeConvex@VCapsuleV@Gu@physx@@@Gu@physx@@UEAAPEAXI@Z 0000000180153770 f i GuCCDSweepPrimitives.obj
 0001:001527b0       ?SweepShapeShape@Gu@physx@@YAMAEBUCCDShape@12@0AEBVPxTransform@2@111MAEAVPxVec3@2@2MAEAIM@Z 00000001801537b0 f   GuCCDSweepPrimitives.obj
 0001:001527e0       ?UnimplementedSweep@Gu@physx@@YAMAEBUCCDShape@12@0AEBVPxTransform@2@111MAEAVPxVec3@2@2MAEAIM@Z 00000001801537e0 f   GuCCDSweepPrimitives.obj
 0001:001527f0       ?UnimplementedTriangleSweep@Gu@physx@@YAMAEBVGeometryUnion@12@0AEBVPxTransform@2@111MAEAVPxVec3@2@2AEBVFastVertex2ShapeScaling@Cm@2@AEAVTriangleV@12@M@Z 00000001801537f0 f   GuCCDSweepPrimitives.obj
 0001:00152800       ?SweepShapeTriangle@Gu@physx@@YAMAEBVGeometryUnion@12@0AEBVPxTransform@2@111MAEAVPxVec3@2@2AEBVFastVertex2ShapeScaling@Cm@2@AEAVTriangleV@12@M@Z 0000000180153800 f   GuCCDSweepPrimitives.obj
 0001:00152830       ??$SweepGeomGeom@VCapsuleV@Gu@physx@@V123@@Gu@physx@@YAMAEBUCCDShape@01@0AEBVPxTransform@1@111MAEAVPxVec3@1@2MAEAIM@Z 0000000180153830 f i GuCCDSweepPrimitives.obj
 0001:001529e0       ??$SweepGeomGeom@VCapsuleV@Gu@physx@@VBoxV@23@@Gu@physx@@YAMAEBUCCDShape@01@0AEBVPxTransform@1@111MAEAVPxVec3@1@2MAEAIM@Z 00000001801539e0 f i GuCCDSweepPrimitives.obj
 0001:00152c20       ??$SweepGeomGeom@VCapsuleV@Gu@physx@@VConvexHullV@23@@Gu@physx@@YAMAEBUCCDShape@01@0AEBVPxTransform@1@111MAEAVPxVec3@1@2MAEAIM@Z 0000000180153c20 f i GuCCDSweepPrimitives.obj
 0001:00153300       ??$SweepGeomGeom@VBoxV@Gu@physx@@V123@@Gu@physx@@YAMAEBUCCDShape@01@0AEBVPxTransform@1@111MAEAVPxVec3@1@2MAEAIM@Z 0000000180154300 f i GuCCDSweepPrimitives.obj
 0001:00153590       ??$SweepGeomGeom@VBoxV@Gu@physx@@VConvexHullV@23@@Gu@physx@@YAMAEBUCCDShape@01@0AEBVPxTransform@1@111MAEAVPxVec3@1@2MAEAIM@Z 0000000180154590 f i GuCCDSweepPrimitives.obj
 0001:00153cf0       ??$SweepGeomGeom@VConvexHullV@Gu@physx@@V123@@Gu@physx@@YAMAEBUCCDShape@01@0AEBVPxTransform@1@111MAEAVPxVec3@1@2MAEAIM@Z 0000000180154cf0 f i GuCCDSweepPrimitives.obj
 0001:00154810       ??$SweepGeomTriangles@VCapsuleV@Gu@physx@@@Gu@physx@@YAMAEBVGeometryUnion@01@0AEBVPxTransform@1@111MAEAVPxVec3@1@2AEBVFastVertex2ShapeScaling@Cm@1@AEAVTriangleV@01@M@Z 0000000180155810 f i GuCCDSweepPrimitives.obj
 0001:00154930       ??$SweepGeomTriangles@VBoxV@Gu@physx@@@Gu@physx@@YAMAEBVGeometryUnion@01@0AEBVPxTransform@1@111MAEAVPxVec3@1@2AEBVFastVertex2ShapeScaling@Cm@1@AEAVTriangleV@01@M@Z 0000000180155930 f i GuCCDSweepPrimitives.obj
 0001:00154ae0       ??$SweepGeomTriangles@VConvexHullV@Gu@physx@@@Gu@physx@@YAMAEBVGeometryUnion@01@0AEBVPxTransform@1@111MAEAVPxVec3@1@2AEBVFastVertex2ShapeScaling@Cm@1@AEAVTriangleV@01@M@Z 0000000180155ae0 f i GuCCDSweepPrimitives.obj
 0001:0015a9e0       ??$gjkPenetration@U?$RelativeConvex@VCapsuleV@Gu@physx@@@Gu@physx@@U?$LocalConvex@VCapsuleV@Gu@physx@@@23@@Gu@physx@@YA?AW4GjkStatus@01@AEBU?$RelativeConvex@VCapsuleV@Gu@physx@@@01@AEBU?$LocalConvex@VCapsuleV@Gu@physx@@@01@AEBT__m128@@2AEAT5@333PEIAE4AEAE_N@Z 000000018015b9e0 f i GuCCDSweepPrimitives.obj
 0001:0015c9e0       ??$gjkPenetration@U?$RelativeConvex@VCapsuleV@Gu@physx@@@Gu@physx@@U?$LocalConvex@VShrunkBoxV@Gu@physx@@@23@@Gu@physx@@YA?AW4GjkStatus@01@AEBU?$RelativeConvex@VCapsuleV@Gu@physx@@@01@AEBU?$LocalConvex@VShrunkBoxV@Gu@physx@@@01@AEBT__m128@@2AEAT5@333PEIAE4AEAE_N@Z 000000018015d9e0 f i GuCCDSweepPrimitives.obj
 0001:0015e9e0       ??$gjkPenetration@U?$RelativeConvex@VCapsuleV@Gu@physx@@@Gu@physx@@U?$LocalConvex@VShrunkConvexHullV@Gu@physx@@@23@@Gu@physx@@YA?AW4GjkStatus@01@AEBU?$RelativeConvex@VCapsuleV@Gu@physx@@@01@AEBU?$LocalConvex@VShrunkConvexHullV@Gu@physx@@@01@AEBT__m128@@2AEAT5@333PEIAE4AEAE_N@Z 000000018015f9e0 f i GuCCDSweepPrimitives.obj
 0001:00160ce0       ??$gjkPenetration@U?$RelativeConvex@VTriangleV@Gu@physx@@@Gu@physx@@U?$LocalConvex@VCapsuleV@Gu@physx@@@23@@Gu@physx@@YA?AW4GjkStatus@01@AEBU?$RelativeConvex@VTriangleV@Gu@physx@@@01@AEBU?$LocalConvex@VCapsuleV@Gu@physx@@@01@AEBT__m128@@2AEAT5@333PEIAE4AEAE_N@Z 0000000180161ce0 f i GuCCDSweepPrimitives.obj
 0001:00162ce0       ??$gjkPenetration@U?$RelativeConvex@VTriangleV@Gu@physx@@@Gu@physx@@U?$LocalConvex@VShrunkBoxV@Gu@physx@@@23@@Gu@physx@@YA?AW4GjkStatus@01@AEBU?$RelativeConvex@VTriangleV@Gu@physx@@@01@AEBU?$LocalConvex@VShrunkBoxV@Gu@physx@@@01@AEBT__m128@@2AEAT5@333PEIAE4AEAE_N@Z 0000000180163ce0 f i GuCCDSweepPrimitives.obj
 0001:00164c00       ??$gjkPenetration@U?$RelativeConvex@VTriangleV@Gu@physx@@@Gu@physx@@U?$LocalConvex@VShrunkConvexHullV@Gu@physx@@@23@@Gu@physx@@YA?AW4GjkStatus@01@AEBU?$RelativeConvex@VTriangleV@Gu@physx@@@01@AEBU?$LocalConvex@VShrunkConvexHullV@Gu@physx@@@01@AEBT__m128@@2AEAT5@333PEIAE4AEAE_N@Z 0000000180165c00 f i GuCCDSweepPrimitives.obj
 0001:00166e10       ??$gjkRaycast@U?$RelativeConvex@VCapsuleV@Gu@physx@@@Gu@physx@@U?$LocalConvex@VCapsuleV@Gu@physx@@@23@@Gu@physx@@YA_NAEBU?$RelativeConvex@VCapsuleV@Gu@physx@@@01@AEBU?$LocalConvex@VCapsuleV@Gu@physx@@@01@AEBT__m128@@222AEAT4@33M@Z 0000000180167e10 f i GuCCDSweepPrimitives.obj
 0001:00167ff0       ??$gjkRaycast@U?$RelativeConvex@VCapsuleV@Gu@physx@@@Gu@physx@@U?$LocalConvex@VShrunkBoxV@Gu@physx@@@23@@Gu@physx@@YA_NAEBU?$RelativeConvex@VCapsuleV@Gu@physx@@@01@AEBU?$LocalConvex@VShrunkBoxV@Gu@physx@@@01@AEBT__m128@@222AEAT4@33M@Z 0000000180168ff0 f i GuCCDSweepPrimitives.obj
 0001:001691f0       ??$gjkRaycast@U?$RelativeConvex@VCapsuleV@Gu@physx@@@Gu@physx@@U?$LocalConvex@VShrunkConvexHullV@Gu@physx@@@23@@Gu@physx@@YA_NAEBU?$RelativeConvex@VCapsuleV@Gu@physx@@@01@AEBU?$LocalConvex@VShrunkConvexHullV@Gu@physx@@@01@AEBT__m128@@222AEAT4@33M@Z 000000018016a1f0 f i GuCCDSweepPrimitives.obj
 0001:0016a360       ??$gjkRaycast@U?$RelativeConvex@VShrunkBoxV@Gu@physx@@@Gu@physx@@U?$LocalConvex@VShrunkBoxV@Gu@physx@@@23@@Gu@physx@@YA_NAEBU?$RelativeConvex@VShrunkBoxV@Gu@physx@@@01@AEBU?$LocalConvex@VShrunkBoxV@Gu@physx@@@01@AEBT__m128@@222AEAT4@33M@Z 000000018016b360 f i GuCCDSweepPrimitives.obj
 0001:0016b560       ??$gjkRaycast@U?$RelativeConvex@VShrunkBoxV@Gu@physx@@@Gu@physx@@U?$LocalConvex@VShrunkConvexHullV@Gu@physx@@@23@@Gu@physx@@YA_NAEBU?$RelativeConvex@VShrunkBoxV@Gu@physx@@@01@AEBU?$LocalConvex@VShrunkConvexHullV@Gu@physx@@@01@AEBT__m128@@222AEAT4@33M@Z 000000018016c560 f i GuCCDSweepPrimitives.obj
 0001:0016c6e0       ??$gjkRaycast@U?$RelativeConvex@VShrunkConvexHullV@Gu@physx@@@Gu@physx@@U?$LocalConvex@VShrunkConvexHullV@Gu@physx@@@23@@Gu@physx@@YA_NAEBU?$RelativeConvex@VShrunkConvexHullV@Gu@physx@@@01@AEBU?$LocalConvex@VShrunkConvexHullV@Gu@physx@@@01@AEBT__m128@@222AEAT4@33M@Z 000000018016d6e0 f i GuCCDSweepPrimitives.obj
 0001:0016d6d0       ??$gjkRaycast@U?$RelativeConvex@VTriangleV@Gu@physx@@@Gu@physx@@U?$LocalConvex@VBoxV@Gu@physx@@@23@@Gu@physx@@YA_NAEBU?$RelativeConvex@VTriangleV@Gu@physx@@@01@AEBU?$LocalConvex@VBoxV@Gu@physx@@@01@AEBT__m128@@222AEAT4@33M@Z 000000018016e6d0 f i GuCCDSweepPrimitives.obj
 0001:0016e920       ??$gjkRaycast@U?$RelativeConvex@VTriangleV@Gu@physx@@@Gu@physx@@U?$LocalConvex@VCapsuleV@Gu@physx@@@23@@Gu@physx@@YA_NAEBU?$RelativeConvex@VTriangleV@Gu@physx@@@01@AEBU?$LocalConvex@VCapsuleV@Gu@physx@@@01@AEBT__m128@@222AEAT4@33M@Z 000000018016f920 f i GuCCDSweepPrimitives.obj
 0001:0016fc00       ??$gjkRaycast@U?$RelativeConvex@VTriangleV@Gu@physx@@@Gu@physx@@U?$LocalConvex@VConvexHullV@Gu@physx@@@23@@Gu@physx@@YA_NAEBU?$RelativeConvex@VTriangleV@Gu@physx@@@01@AEBU?$LocalConvex@VConvexHullV@Gu@physx@@@01@AEBT__m128@@222AEAT4@33M@Z 0000000180170c00 f i GuCCDSweepPrimitives.obj
 0001:001710a0       ??$gjkRaycastPenetration@U?$RelativeConvex@VCapsuleV@Gu@physx@@@Gu@physx@@U?$LocalConvex@VCapsuleV@Gu@physx@@@23@@Gu@physx@@YA_NAEBU?$RelativeConvex@VCapsuleV@Gu@physx@@@01@AEBU?$LocalConvex@VCapsuleV@Gu@physx@@@01@AEBT__m128@@222AEAT4@33M_N@Z 00000001801720a0 f i GuCCDSweepPrimitives.obj
 0001:00171410       ??$gjkRaycastPenetration@U?$RelativeConvex@VCapsuleV@Gu@physx@@@Gu@physx@@U?$LocalConvex@VShrunkBoxV@Gu@physx@@@23@@Gu@physx@@YA_NAEBU?$RelativeConvex@VCapsuleV@Gu@physx@@@01@AEBU?$LocalConvex@VShrunkBoxV@Gu@physx@@@01@AEBT__m128@@222AEAT4@33M_N@Z 0000000180172410 f i GuCCDSweepPrimitives.obj
 0001:00171780       ??$gjkRaycastPenetration@U?$RelativeConvex@VCapsuleV@Gu@physx@@@Gu@physx@@U?$LocalConvex@VShrunkConvexHullV@Gu@physx@@@23@@Gu@physx@@YA_NAEBU?$RelativeConvex@VCapsuleV@Gu@physx@@@01@AEBU?$LocalConvex@VShrunkConvexHullV@Gu@physx@@@01@AEBT__m128@@222AEAT4@33M_N@Z 0000000180172780 f i GuCCDSweepPrimitives.obj
 0001:00171af0       ??$gjkRaycastPenetration@U?$RelativeConvex@VShrunkBoxV@Gu@physx@@@Gu@physx@@U?$LocalConvex@VShrunkBoxV@Gu@physx@@@23@@Gu@physx@@YA_NAEBU?$RelativeConvex@VShrunkBoxV@Gu@physx@@@01@AEBU?$LocalConvex@VShrunkBoxV@Gu@physx@@@01@AEBT__m128@@222AEAT4@33M_N@Z 0000000180172af0 f i GuCCDSweepPrimitives.obj
 0001:00171e60       ??$gjkRaycastPenetration@U?$RelativeConvex@VShrunkBoxV@Gu@physx@@@Gu@physx@@U?$LocalConvex@VShrunkConvexHullV@Gu@physx@@@23@@Gu@physx@@YA_NAEBU?$RelativeConvex@VShrunkBoxV@Gu@physx@@@01@AEBU?$LocalConvex@VShrunkConvexHullV@Gu@physx@@@01@AEBT__m128@@222AEAT4@33M_N@Z 0000000180172e60 f i GuCCDSweepPrimitives.obj
 0001:001721d0       ??$gjkRaycastPenetration@U?$RelativeConvex@VShrunkConvexHullV@Gu@physx@@@Gu@physx@@U?$LocalConvex@VShrunkConvexHullV@Gu@physx@@@23@@Gu@physx@@YA_NAEBU?$RelativeConvex@VShrunkConvexHullV@Gu@physx@@@01@AEBU?$LocalConvex@VShrunkConvexHullV@Gu@physx@@@01@AEBT__m128@@222AEAT4@33M_N@Z 00000001801731d0 f i GuCCDSweepPrimitives.obj
 0001:00172540       ??$gjkRaycastPenetration@U?$RelativeConvex@VTriangleV@Gu@physx@@@Gu@physx@@U?$LocalConvex@VBoxV@Gu@physx@@@23@@Gu@physx@@YA_NAEBU?$RelativeConvex@VTriangleV@Gu@physx@@@01@AEBU?$LocalConvex@VBoxV@Gu@physx@@@01@AEBT__m128@@222AEAT4@33M_N@Z 0000000180173540 f i GuCCDSweepPrimitives.obj
 0001:001728b0       ??$gjkRaycastPenetration@U?$RelativeConvex@VTriangleV@Gu@physx@@@Gu@physx@@U?$LocalConvex@VCapsuleV@Gu@physx@@@23@@Gu@physx@@YA_NAEBU?$RelativeConvex@VTriangleV@Gu@physx@@@01@AEBU?$LocalConvex@VCapsuleV@Gu@physx@@@01@AEBT__m128@@222AEAT4@33M_N@Z 00000001801738b0 f i GuCCDSweepPrimitives.obj
 0001:00172c20       ??$gjkRaycastPenetration@U?$RelativeConvex@VTriangleV@Gu@physx@@@Gu@physx@@U?$LocalConvex@VConvexHullV@Gu@physx@@@23@@Gu@physx@@YA_NAEBU?$RelativeConvex@VTriangleV@Gu@physx@@@01@AEBU?$LocalConvex@VConvexHullV@Gu@physx@@@01@AEBT__m128@@222AEAT4@33M_N@Z 0000000180173c20 f i GuCCDSweepPrimitives.obj
 0001:00172f90       ?computeBounds@Gu@physx@@YAXAEAVPxBounds3@2@AEBVPxGeometry@2@AEBVPxTransform@2@MPEIBVCenterExtentsPadded@12@M_N@Z 0000000180173f90 f   GuBounds.obj
 0001:00173830       ?computeBoundsWithCCDThreshold@Gu@physx@@YAMAEAVVec3p@12@0AEBVPxGeometry@2@AEBVPxTransform@2@PEIBVCenterExtentsPadded@12@@Z 0000000180174830 f   GuBounds.obj
 0001:00173dc0       ??0ShapeData@Gu@physx@@QEAA@AEBVPxGeometry@2@AEBVPxTransform@2@M@Z 0000000180174dc0 f   GuBounds.obj
 0001:00175e20       ?computeOBBPoints@Gu@physx@@YAXPEIAVPxVec3@2@AEBV32@1111@Z 0000000180176e20 f   GuBox.obj
 0001:00176130       ?create@Box@Gu@physx@@QEAAXAEBVCapsule@23@@Z 0000000180177130 f   GuBox.obj
 0001:00176260       ?getBoxEdges@Gu@physx@@YAPEBEXZ 0000000180177260 f   GuBox.obj
 0001:00176380       ?computeBoxAroundCapsule@Gu@physx@@YAXAEBVCapsule@12@AEAVBox@12@@Z 0000000180177380 f   GuCapsule.obj
 0001:001765f0       ?sweepBoxTriangles_Precise@Gu@physx@@YA_NIPEBVPxTriangle@2@_NAEBVPxBoxGeometry@2@AEBVPxTransform@2@AEBVPxVec3@2@MAEAUPxSweepHit@2@PEBIMV?$PxFlags@W4Enum@PxHitFlag@physx@@G@2@@Z 00000001801775f0 f   GuCCTSweepTests.obj
 0001:00176740       ?sweepCapsule_BoxGeom_Precise@@YA_NAEBVPxGeometry@physx@@AEBVPxTransform@2@AEBVPxCapsuleGeometry@2@1AEBVCapsule@Gu@2@AEBVPxVec3@2@MAEAUPxSweepHit@2@V?$PxFlags@W4Enum@PxHitFlag@physx@@G@2@M@Z 0000000180177740 f   GuCCTSweepTests.obj
 0001:00176df0       ?sweepBox_SphereGeom_Precise@@YA_NAEBVPxGeometry@physx@@AEBVPxTransform@2@AEBVPxBoxGeometry@2@1AEBVBox@Gu@2@AEBVPxVec3@2@MAEAUPxSweepHit@2@V?$PxFlags@W4Enum@PxHitFlag@physx@@G@2@M@Z 0000000180177df0 f   GuCCTSweepTests.obj
 0001:00177100       ?sweepBox_CapsuleGeom_Precise@@YA_NAEBVPxGeometry@physx@@AEBVPxTransform@2@AEBVPxBoxGeometry@2@1AEBVBox@Gu@2@AEBVPxVec3@2@MAEAUPxSweepHit@2@V?$PxFlags@W4Enum@PxHitFlag@physx@@G@2@M@Z 0000000180178100 f   GuCCTSweepTests.obj
 0001:001774e0       ?sweepBox_BoxGeom_Precise@@YA_NAEBVPxGeometry@physx@@AEBVPxTransform@2@AEBVPxBoxGeometry@2@1AEBVBox@Gu@2@AEBVPxVec3@2@MAEAUPxSweepHit@2@V?$PxFlags@W4Enum@PxHitFlag@physx@@G@2@M@Z 00000001801784e0 f   GuCCTSweepTests.obj
 0001:001776a0       ?sweepBox_HeightFieldGeom_Precise@@YA_NAEBVPxGeometry@physx@@AEBVPxTransform@2@AEBVPxBoxGeometry@2@1AEBVBox@Gu@2@AEBVPxVec3@2@MAEAUPxSweepHit@2@V?$PxFlags@W4Enum@PxHitFlag@physx@@G@2@M@Z 00000001801786a0 f   GuCCTSweepTests.obj
 0001:00177d30       ??_ELocalReport@?1??sweepBox_HeightFieldGeom_Precise@@YA_NAEBVPxGeometry@physx@@AEBVPxTransform@3@AEBVPxBoxGeometry@3@1AEBVBox@Gu@3@AEBVPxVec3@3@MAEAUPxSweepHit@3@V?$PxFlags@W4Enum@PxHitFlag@physx@@G@3@M@Z@UEAAPEAXI@Z 0000000180178d30 f i GuCCTSweepTests.obj
 0001:00177d30       ??_GLocalReport@?1??sweepBox_HeightFieldGeom_Precise@@YA_NAEBVPxGeometry@physx@@AEBVPxTransform@3@AEBVPxBoxGeometry@3@1AEBVBox@Gu@3@AEBVPxVec3@3@MAEAUPxSweepHit@3@V?$PxFlags@W4Enum@PxHitFlag@physx@@G@3@M@Z@UEAAPEAXI@Z 0000000180178d30 f i GuCCTSweepTests.obj
 0001:00178f60       ?sweep@PxGeometryQuery@physx@@SA_NAEBVPxVec3@2@MAEBVPxGeometry@2@AEBVPxTransform@2@12AEAUPxSweepHit@2@V?$PxFlags@W4Enum@PxHitFlag@physx@@G@2@M@Z 0000000180179f60 f   GuGeometryQuery.obj
 0001:001795b0       ?overlap@PxGeometryQuery@physx@@SA_NAEBVPxGeometry@2@AEBVPxTransform@2@01@Z 000000018017a5b0 f   GuGeometryQuery.obj
 0001:001796e0       ?raycast@PxGeometryQuery@physx@@SAIAEBVPxVec3@2@0AEBVPxGeometry@2@AEBVPxTransform@2@MV?$PxFlags@W4Enum@PxHitFlag@physx@@G@2@IPEIAUPxRaycastHit@2@@Z 000000018017a6e0 f   GuGeometryQuery.obj
 0001:001799e0       ?computePenetration@PxGeometryQuery@physx@@SA_NAEAVPxVec3@2@AEAMAEBVPxGeometry@2@AEBVPxTransform@2@23@Z 000000018017a9e0 f   GuGeometryQuery.obj
 0001:00179b70       ?pointDistance@PxGeometryQuery@physx@@SAMAEBVPxVec3@2@AEBVPxGeometry@2@AEBVPxTransform@2@PEAV32@@Z 000000018017ab70 f   GuGeometryQuery.obj
 0001:0017a1c0       ?getWorldBounds@PxGeometryQuery@physx@@SA?AVPxBounds3@2@AEBVPxGeometry@2@AEBVPxTransform@2@M@Z 000000018017b1c0 f   GuGeometryQuery.obj
 0001:0017a320       ?isValid@PxGeometryQuery@physx@@SA_NAEBVPxGeometry@2@@Z 000000018017b320 f   GuGeometryQuery.obj
 0001:0017a890       ?isValid@PxBoxGeometry@physx@@QEBA_NXZ 000000018017b890 f i GuGeometryQuery.obj
 0001:0017a920       ?isValid@PxCapsuleGeometry@physx@@QEBA_NXZ 000000018017b920 f i GuGeometryQuery.obj
 0001:0017a990       ?isValid@PxConvexMeshGeometry@physx@@QEBA_NXZ 000000018017b990 f i GuGeometryQuery.obj
 0001:0017aa60       ?set@GeometryUnion@Gu@physx@@QEAAXAEBVPxGeometry@3@@Z 000000018017ba60 f   GuGeometryUnion.obj
 0001:0017acb0       ?computeBoxPoints@Gu@physx@@YAXAEBVPxBounds3@2@PEIAVPxVec3@2@@Z 000000018017bcb0 f   GuInternal.obj
 0001:0017ad50       ?computeBoundsAroundVertices@Gu@physx@@YAXAEAVPxBounds3@2@IPEIBVPxVec3@2@@Z 000000018017bd50 f   GuInternal.obj
 0001:0017adf0       ?getPlane@Gu@physx@@YA?AVPxPlane@2@AEBVPxTransform@2@@Z 000000018017bdf0 f   GuInternal.obj
 0001:0017aea0       ?computeSweptBox@Gu@physx@@YAXAEAVBox@12@AEBVPxVec3@2@1AEBVPxMat33@2@1M@Z 000000018017bea0 f   GuInternal.obj
 0001:0017b560       ??0GuMeshFactory@physx@@QEAA@XZ 000000018017c560 f   GuMeshFactory.obj
 0001:0017b6f0       ??1GuMeshFactory@physx@@MEAA@XZ 000000018017c6f0 f   GuMeshFactory.obj
 0001:0017b7c0       ?release@GuMeshFactory@physx@@QEAAXXZ 000000018017c7c0 f   GuMeshFactory.obj
 0001:0017b890       ?addTriangleMesh@GuMeshFactory@physx@@QEAAXPEAVTriangleMesh@Gu@2@_N@Z 000000018017c890 f   GuMeshFactory.obj
 0001:0017b910       ?createTriangleMesh@GuMeshFactory@physx@@QEAAPEAVPxTriangleMesh@2@AEAVPxInputStream@2@@Z 000000018017c910 f   GuMeshFactory.obj
 0001:0017b970       ?createTriangleMesh@GuMeshFactory@physx@@QEAAPEAVPxTriangleMesh@2@PEAX@Z 000000018017c970 f   GuMeshFactory.obj
 0001:0017b980       ?removeTriangleMesh@GuMeshFactory@physx@@QEAA_NAEAVPxTriangleMesh@2@@Z 000000018017c980 f   GuMeshFactory.obj
 0001:0017b9f0       ?getNbTriangleMeshes@GuMeshFactory@physx@@QEBAIXZ 000000018017c9f0 f   GuMeshFactory.obj
 0001:0017ba30       ?getTriangleMeshes@GuMeshFactory@physx@@QEBAIPEAPEAVPxTriangleMesh@2@II@Z 000000018017ca30 f   GuMeshFactory.obj
 0001:0017bac0       ?addConvexMesh@GuMeshFactory@physx@@QEAAXPEAVConvexMesh@Gu@2@_N@Z 000000018017cac0 f   GuMeshFactory.obj
 0001:0017bb40       ?createConvexMesh@GuMeshFactory@physx@@QEAAPEAVPxConvexMesh@2@AEAVPxInputStream@2@@Z 000000018017cb40 f   GuMeshFactory.obj
 0001:0017bcb0       ?createConvexMesh@GuMeshFactory@physx@@QEAAPEAVPxConvexMesh@2@PEAX@Z 000000018017ccb0 f   GuMeshFactory.obj
 0001:0017bcc0       ?removeConvexMesh@GuMeshFactory@physx@@QEAA_NAEAVPxConvexMesh@2@@Z 000000018017ccc0 f   GuMeshFactory.obj
 0001:0017bd30       ?getNbConvexMeshes@GuMeshFactory@physx@@QEBAIXZ 000000018017cd30 f   GuMeshFactory.obj
 0001:0017bd70       ?getConvexMeshes@GuMeshFactory@physx@@QEBAIPEAPEAVPxConvexMesh@2@II@Z 000000018017cd70 f   GuMeshFactory.obj
 0001:0017be00       ?addHeightField@GuMeshFactory@physx@@QEAAXPEAVHeightField@Gu@2@_N@Z 000000018017ce00 f   GuMeshFactory.obj
 0001:0017be90       ?createHeightField@GuMeshFactory@physx@@QEAAPEAVPxHeightField@2@PEAX@Z 000000018017ce90 f   GuMeshFactory.obj
 0001:0017bfd0       ?createHeightField@GuMeshFactory@physx@@QEAAPEAVPxHeightField@2@AEAVPxInputStream@2@@Z 000000018017cfd0 f   GuMeshFactory.obj
 0001:0017c130       ?removeHeightField@GuMeshFactory@physx@@QEAA_NAEAVPxHeightField@2@@Z 000000018017d130 f   GuMeshFactory.obj
 0001:0017c1a0       ?getNbHeightFields@GuMeshFactory@physx@@QEBAIXZ 000000018017d1a0 f   GuMeshFactory.obj
 0001:0017c1e0       ?getHeightFields@GuMeshFactory@physx@@QEBAIPEAPEAVPxHeightField@2@II@Z 000000018017d1e0 f   GuMeshFactory.obj
 0001:0017c280       ?addFactoryListener@GuMeshFactory@physx@@QEAAXAEAVGuMeshFactoryListener@2@@Z 000000018017d280 f   GuMeshFactory.obj
 0001:0017c2f0       ?removeFactoryListener@GuMeshFactory@physx@@QEAAXAEAVGuMeshFactoryListener@2@@Z 000000018017d2f0 f   GuMeshFactory.obj
 0001:0017c380       ?notifyFactoryListener@GuMeshFactory@physx@@QEAAXPEBVPxBase@2@G@Z 000000018017d380 f   GuMeshFactory.obj
 0001:0017c400       ?createTriangleMesh@GuMeshFactory@physx@@IEAAPEAVPxTriangleMesh@2@AEAVTriangleMeshData@Gu@2@@Z 000000018017d400 f   GuMeshFactory.obj
 0001:0017c650       ?createConvexMesh@GuMeshFactory@physx@@IEAAPEAVPxConvexMesh@2@AEAUConvexHullData@Gu@2@@Z 000000018017d650 f   GuMeshFactory.obj
 0001:0017cc20       ??0BV4TriangleData@Gu@physx@@QEAA@XZ 000000018017dc20 f i GuMeshFactory.obj
 0001:0017cd10       ??0RTreeTriangleData@Gu@physx@@QEAA@XZ 000000018017dd10 f i GuMeshFactory.obj
 0001:0017cdf0       ??1BV4TriangleData@Gu@physx@@UEAA@XZ 000000018017ddf0 f i GuMeshFactory.obj
 0001:0017ce40       ??1RTreeTriangleData@Gu@physx@@UEAA@XZ 000000018017de40 f i GuMeshFactory.obj
 0001:0017cec0       ??1TriangleMeshData@Gu@physx@@UEAA@XZ 000000018017dec0 f i GuMeshFactory.obj
 0001:0017d110       ??_EGuMeshFactory@physx@@MEAAPEAXI@Z 000000018017e110 f i GuMeshFactory.obj
 0001:0017d260       ??_EBV4TriangleData@Gu@physx@@UEAAPEAXI@Z 000000018017e260 f i GuMeshFactory.obj
 0001:0017d260       ??_GBV4TriangleData@Gu@physx@@UEAAPEAXI@Z 000000018017e260 f i GuMeshFactory.obj
 0001:0017d300       ??_GGuMeshFactory@physx@@MEAAPEAXI@Z 000000018017e300 f i GuMeshFactory.obj
 0001:0017d380       ??_ERTreeTriangleData@Gu@physx@@UEAAPEAXI@Z 000000018017e380 f i GuMeshFactory.obj
 0001:0017d380       ??_GRTreeTriangleData@Gu@physx@@UEAAPEAXI@Z 000000018017e380 f i GuMeshFactory.obj
 0001:0017d460       ??_GTriangleMeshData@Gu@physx@@UEAAPEAXI@Z 000000018017e460 f i GuMeshFactory.obj
 0001:0017d460       ??_ETriangleMeshData@Gu@physx@@UEAAPEAXI@Z 000000018017e460 f i GuMeshFactory.obj
 0001:0017d4e0       ?allocateAdjacencies@TriangleMeshData@Gu@physx@@QEAAPEAIXZ 000000018017e4e0 f i GuMeshFactory.obj
 0001:0017d5d0       ?allocateExtraTrigData@TriangleMeshData@Gu@physx@@QEAAPEAEXZ 000000018017e5d0 f i GuMeshFactory.obj
 0001:0017d690       ?allocateFaceRemap@TriangleMeshData@Gu@physx@@QEAAPEAIXZ 000000018017e690 f i GuMeshFactory.obj
 0001:0017d770       ?allocateMaterials@TriangleMeshData@Gu@physx@@QEAAPEAGXZ 000000018017e770 f i GuMeshFactory.obj
 0001:0017d850       ?allocateTriangles@TriangleMeshData@Gu@physx@@QEAAPEAXI_NI@Z 000000018017e850 f i GuMeshFactory.obj
 0001:0017d960       ?allocateVertices@TriangleMeshData@Gu@physx@@QEAAPEAVPxVec3@3@I@Z 000000018017e960 f i GuMeshFactory.obj
 0001:0017d9f0       ?create@?$HashBase@PEAVConvexMesh@Gu@physx@@PEAV123@U?$Hash@PEAVConvexMesh@Gu@physx@@@shdfnd@3@UGetKey@?$HashSetBase@PEAVConvexMesh@Gu@physx@@U?$Hash@PEAVConvexMesh@Gu@physx@@@shdfnd@3@VNonTrackingAllocator@53@$00@internal@53@VNonTrackingAllocator@53@$00@internal@shdfnd@physx@@QEAAPEAPEAVConvexMesh@Gu@4@AEBQEAV564@AEA_N@Z 000000018017e9f0 f i GuMeshFactory.obj
 0001:0017dbf0       ?create@?$HashBase@PEAVHeightField@Gu@physx@@PEAV123@U?$Hash@PEAVHeightField@Gu@physx@@@shdfnd@3@UGetKey@?$HashSetBase@PEAVHeightField@Gu@physx@@U?$Hash@PEAVHeightField@Gu@physx@@@shdfnd@3@VNonTrackingAllocator@53@$00@internal@53@VNonTrackingAllocator@53@$00@internal@shdfnd@physx@@QEAAPEAPEAVHeightField@Gu@4@AEBQEAV564@AEA_N@Z 000000018017ebf0 f i GuMeshFactory.obj
 0001:0017ddf0       ?create@?$HashBase@PEAVTriangleMesh@Gu@physx@@PEAV123@U?$Hash@PEAVTriangleMesh@Gu@physx@@@shdfnd@3@UGetKey@?$HashSetBase@PEAVTriangleMesh@Gu@physx@@U?$Hash@PEAVTriangleMesh@Gu@physx@@@shdfnd@3@VNonTrackingAllocator@53@$00@internal@53@VNonTrackingAllocator@53@$00@internal@shdfnd@physx@@QEAAPEAPEAVTriangleMesh@Gu@4@AEBQEAV564@AEA_N@Z 000000018017edf0 f i GuMeshFactory.obj
 0001:0017dff0       ?erase@?$HashBase@PEAVConvexMesh@Gu@physx@@PEAV123@U?$Hash@PEAVConvexMesh@Gu@physx@@@shdfnd@3@UGetKey@?$HashSetBase@PEAVConvexMesh@Gu@physx@@U?$Hash@PEAVConvexMesh@Gu@physx@@@shdfnd@3@VNonTrackingAllocator@53@$00@internal@53@VNonTrackingAllocator@53@$00@internal@shdfnd@physx@@QEAA_NAEBQEAVConvexMesh@Gu@4@@Z 000000018017eff0 f i GuMeshFactory.obj
 0001:0017e100       ?erase@?$HashBase@PEAVHeightField@Gu@physx@@PEAV123@U?$Hash@PEAVHeightField@Gu@physx@@@shdfnd@3@UGetKey@?$HashSetBase@PEAVHeightField@Gu@physx@@U?$Hash@PEAVHeightField@Gu@physx@@@shdfnd@3@VNonTrackingAllocator@53@$00@internal@53@VNonTrackingAllocator@53@$00@internal@shdfnd@physx@@QEAA_NAEBQEAVHeightField@Gu@4@@Z 000000018017f100 f i GuMeshFactory.obj
 0001:0017e210       ?erase@?$HashBase@PEAVTriangleMesh@Gu@physx@@PEAV123@U?$Hash@PEAVTriangleMesh@Gu@physx@@@shdfnd@3@UGetKey@?$HashSetBase@PEAVTriangleMesh@Gu@physx@@U?$Hash@PEAVTriangleMesh@Gu@physx@@@shdfnd@3@VNonTrackingAllocator@53@$00@internal@53@VNonTrackingAllocator@53@$00@internal@shdfnd@physx@@QEAA_NAEBQEAVTriangleMesh@Gu@4@@Z 000000018017f210 f i GuMeshFactory.obj
 0001:0017e320       ?growAndPushBack@?$Array@PEAVGuMeshFactoryListener@physx@@VNamedAllocator@shdfnd@2@@shdfnd@physx@@IEAAAEAPEAVGuMeshFactoryListener@3@AEBQEAV43@@Z 000000018017f320 f i GuMeshFactory.obj
 0001:0017f640       ?replaceWithLast@?$HashBase@PEAVConvexMesh@Gu@physx@@PEAV123@U?$Hash@PEAVConvexMesh@Gu@physx@@@shdfnd@3@UGetKey@?$HashSetBase@PEAVConvexMesh@Gu@physx@@U?$Hash@PEAVConvexMesh@Gu@physx@@@shdfnd@3@VNonTrackingAllocator@53@$00@internal@53@VNonTrackingAllocator@53@$00@internal@shdfnd@physx@@AEAAXI@Z 0000000180180640 f i GuMeshFactory.obj
 0001:0017f740       ?replaceWithLast@?$HashBase@PEAVHeightField@Gu@physx@@PEAV123@U?$Hash@PEAVHeightField@Gu@physx@@@shdfnd@3@UGetKey@?$HashSetBase@PEAVHeightField@Gu@physx@@U?$Hash@PEAVHeightField@Gu@physx@@@shdfnd@3@VNonTrackingAllocator@53@$00@internal@53@VNonTrackingAllocator@53@$00@internal@shdfnd@physx@@AEAAXI@Z 0000000180180740 f i GuMeshFactory.obj
 0001:0017f840       ?replaceWithLast@?$HashBase@PEAVTriangleMesh@Gu@physx@@PEAV123@U?$Hash@PEAVTriangleMesh@Gu@physx@@@shdfnd@3@UGetKey@?$HashSetBase@PEAVTriangleMesh@Gu@physx@@U?$Hash@PEAVTriangleMesh@Gu@physx@@@shdfnd@3@VNonTrackingAllocator@53@$00@internal@53@VNonTrackingAllocator@53@$00@internal@shdfnd@physx@@AEAAXI@Z 0000000180180840 f i GuMeshFactory.obj
 0001:0017f940       ?reserveInternal@?$HashBase@PEAVConvexMesh@Gu@physx@@PEAV123@U?$Hash@PEAVConvexMesh@Gu@physx@@@shdfnd@3@UGetKey@?$HashSetBase@PEAVConvexMesh@Gu@physx@@U?$Hash@PEAVConvexMesh@Gu@physx@@@shdfnd@3@VNonTrackingAllocator@53@$00@internal@53@VNonTrackingAllocator@53@$00@internal@shdfnd@physx@@AEAAXI@Z 0000000180180940 f i GuMeshFactory.obj
 0001:0017fbb0       ?reserveInternal@?$HashBase@PEAVHeightField@Gu@physx@@PEAV123@U?$Hash@PEAVHeightField@Gu@physx@@@shdfnd@3@UGetKey@?$HashSetBase@PEAVHeightField@Gu@physx@@U?$Hash@PEAVHeightField@Gu@physx@@@shdfnd@3@VNonTrackingAllocator@53@$00@internal@53@VNonTrackingAllocator@53@$00@internal@shdfnd@physx@@AEAAXI@Z 0000000180180bb0 f i GuMeshFactory.obj
 0001:0017fe20       ?reserveInternal@?$HashBase@PEAVTriangleMesh@Gu@physx@@PEAV123@U?$Hash@PEAVTriangleMesh@Gu@physx@@@shdfnd@3@UGetKey@?$HashSetBase@PEAVTriangleMesh@Gu@physx@@U?$Hash@PEAVTriangleMesh@Gu@physx@@@shdfnd@3@VNonTrackingAllocator@53@$00@internal@53@VNonTrackingAllocator@53@$00@internal@shdfnd@physx@@AEAAXI@Z 0000000180180e20 f i GuMeshFactory.obj
 0001:00180090       ?getBinaryMetaData@HeightField@Gu@physx@@SAXAEAVPxOutputStream@3@@Z 0000000180181090 f   GuMetaData.obj
 0001:001803b0       ?getBinaryMetaData@BigConvexData@physx@@SAXAEAVPxOutputStream@2@@Z 00000001801813b0 f   GuMetaData.obj
 0001:001805d0       ?getBinaryMetaData@ConvexMesh@Gu@physx@@SAXAEAVPxOutputStream@3@@Z 00000001801815d0 f   GuMetaData.obj
 0001:00180a90       ?getBinaryMetaData@RTree@Gu@physx@@SAXAEAVPxOutputStream@3@@Z 0000000180181a90 f   GuMetaData.obj
 0001:00180dd0       ?getBinaryMetaData@SourceMesh@Gu@physx@@SAXAEAVPxOutputStream@3@@Z 0000000180181dd0 f   GuMetaData.obj
 0001:00180fc0       ?getBinaryMetaData@BV4Tree@Gu@physx@@SAXAEAVPxOutputStream@3@@Z 0000000180181fc0 f   GuMetaData.obj
 0001:00181360       ?getBinaryMetaData@TriangleMesh@Gu@physx@@SAXAEAVPxOutputStream@3@@Z 0000000180182360 f   GuMetaData.obj
 0001:00181c70       ?getBinaryMetaData@BV4TriangleMesh@Gu@physx@@SAXAEAVPxOutputStream@3@@Z 0000000180182c70 f   GuMetaData.obj
 0001:00181da0       ?getBinaryMetaData@RTreeTriangleMesh@Gu@physx@@SAXAEAVPxOutputStream@3@@Z 0000000180182da0 f   GuMetaData.obj
 0001:00181e90       ?getBinaryMetaData@MaterialIndicesStruct@physx@@SAXAEAVPxOutputStream@2@@Z 0000000180182e90 f   GuMetaData.obj
 0001:00182040       ?getBinaryMetaData@GeometryUnion@Gu@physx@@SAXAEAVPxOutputStream@3@@Z 0000000180183040 f   GuMetaData.obj
 0001:00184fe0       ?pointConvexDistance@@YA_NAEAVPxVec3@physx@@0AEAMAEBV12@PEBVConvexMesh@Gu@2@AEBVPxMeshScale@2@AEBVPxTransform@2@@Z 0000000180185fe0 f   GuMTD.obj
 0001:00187650       ??0ContactPoint@Gu@physx@@QEAA@XZ 0000000180188650 f i GuMTD.obj
 0001:0018db50       ?getOverlapFuncTable@Gu@physx@@YAPEAY06Q6A_NAEBVPxGeometry@2@AEBVPxTransform@2@01PEAUTriggerCache@12@@ZXZ 000000018018eb50 f   GuOverlapTests.obj
 0001:0018db60       ?registerHeightFields@Gu@physx@@YAXXZ 000000018018eb60 f   GuOverlapTests.obj
 0001:00190820       ??$gjk@U?$RelativeConvex@VBoxV@Gu@physx@@@Gu@physx@@U?$LocalConvex@VConvexHullV@Gu@physx@@@23@@Gu@physx@@YA?AW4GjkStatus@01@AEBU?$RelativeConvex@VBoxV@Gu@physx@@@01@AEBU?$LocalConvex@VConvexHullV@Gu@physx@@@01@AEBT__m128@@2AEAT5@333@Z 0000000180191820 f i GuOverlapTests.obj
 0001:00191a20       ??$gjk@U?$RelativeConvex@VConvexHullV@Gu@physx@@@Gu@physx@@U?$LocalConvex@VConvexHullV@Gu@physx@@@23@@Gu@physx@@YA?AW4GjkStatus@01@AEBU?$RelativeConvex@VConvexHullV@Gu@physx@@@01@AEBU?$LocalConvex@VConvexHullV@Gu@physx@@@01@AEBT__m128@@2AEAT5@333@Z 0000000180192a20 f i GuOverlapTests.obj
 0001:00194d60       ?getRaycastFuncTable@Gu@physx@@YAAEAY06Q6AIAEBVPxGeometry@2@AEBVPxTransform@2@AEBVPxVec3@2@2MV?$PxFlags@W4Enum@PxHitFlag@physx@@G@2@IPEIAUPxRaycastHit@2@@ZXZ 0000000180195d60 f   GuRaycastTests.obj
 0001:00194d70       ?raycast_box@@YAIAEBVPxGeometry@physx@@AEBVPxTransform@2@AEBVPxVec3@2@2MV?$PxFlags@W4Enum@PxHitFlag@physx@@G@2@IPEIAUPxRaycastHit@2@@Z 0000000180195d70 f   GuRaycastTests.obj
 0001:001953a0       ?raycast_sphere@@YAIAEBVPxGeometry@physx@@AEBVPxTransform@2@AEBVPxVec3@2@2MV?$PxFlags@W4Enum@PxHitFlag@physx@@G@2@IPEIAUPxRaycastHit@2@@Z 00000001801963a0 f   GuRaycastTests.obj
 0001:00195540       ?raycast_capsule@@YAIAEBVPxGeometry@physx@@AEBVPxTransform@2@AEBVPxVec3@2@2MV?$PxFlags@W4Enum@PxHitFlag@physx@@G@2@IPEIAUPxRaycastHit@2@@Z 0000000180196540 f   GuRaycastTests.obj
 0001:001959f0       ?raycast_plane@@YAIAEBVPxGeometry@physx@@AEBVPxTransform@2@AEBVPxVec3@2@2MV?$PxFlags@W4Enum@PxHitFlag@physx@@G@2@IPEIAUPxRaycastHit@2@@Z 00000001801969f0 f   GuRaycastTests.obj
 0001:00195bc0       ?raycast_convexMesh@@YAIAEBVPxGeometry@physx@@AEBVPxTransform@2@AEBVPxVec3@2@2MV?$PxFlags@W4Enum@PxHitFlag@physx@@G@2@IPEIAUPxRaycastHit@2@@Z 0000000180196bc0 f   GuRaycastTests.obj
 0001:00196740       ?raycast_triangleMesh@@YAIAEBVPxGeometry@physx@@AEBVPxTransform@2@AEBVPxVec3@2@2MV?$PxFlags@W4Enum@PxHitFlag@physx@@G@2@IPEIAUPxRaycastHit@2@@Z 0000000180197740 f   GuRaycastTests.obj
 0001:001967d0       ?raycast_heightField@@YAIAEBVPxGeometry@physx@@AEBVPxTransform@2@AEBVPxVec3@2@2MV?$PxFlags@W4Enum@PxHitFlag@physx@@G@2@IPEIAUPxRaycastHit@2@@Z 00000001801977d0 f   GuRaycastTests.obj
 0001:00196e40       ?registerHeightFields_Raycasts@@YAXXZ 0000000180197e40 f   GuRaycastTests.obj
 0001:00197690       ??$traceSegment@UHFTraceSegmentCallback@?A0x3d0fc70a@@$0A@$0A@@HeightFieldUtil@Gu@physx@@QEBAXAEBVPxVec3@2@0MPEAUHFTraceSegmentCallback@?A0x3d0fc70a@@AEBVPxBounds3@2@_NPEBV32@@Z 0000000180198690 f i GuRaycastTests.obj
 0001:00199350       ?readChunk@physx@@YAXAEAC000AEAVPxInputStream@1@@Z 000000018019a350 f   GuSerialize.obj
 0001:001993e0       ?readWord@physx@@YAG_NAEAVPxInputStream@1@@Z 000000018019a3e0 f   GuSerialize.obj
 0001:00199430       ?readDword@physx@@YAI_NAEAVPxInputStream@1@@Z 000000018019a430 f   GuSerialize.obj
 0001:00199490       ?readFloat@physx@@YAM_NAEAVPxInputStream@1@@Z 000000018019a490 f   GuSerialize.obj
 0001:001994f0       ?writeWord@physx@@YAXG_NAEAVPxOutputStream@1@@Z 000000018019a4f0 f   GuSerialize.obj
 0001:00199530       ?writeDword@physx@@YAXI_NAEAVPxOutputStream@1@@Z 000000018019a530 f   GuSerialize.obj
 0001:00199590       ?writeFloat@physx@@YAXM_NAEAVPxOutputStream@1@@Z 000000018019a590 f   GuSerialize.obj
 0001:001995f0       ?readFloatBuffer@physx@@YA_NPEAMI_NAEAVPxInputStream@1@@Z 000000018019a5f0 f   GuSerialize.obj
 0001:00199670       ?writeFloatBuffer@physx@@YAXPEBMI_NAEAVPxOutputStream@1@@Z 000000018019a670 f   GuSerialize.obj
 0001:00199710       ?writeWordBuffer@physx@@YAXPEBGI_NAEAVPxOutputStream@1@@Z 000000018019a710 f   GuSerialize.obj
 0001:001997a0       ?readWordBuffer@physx@@YAXPEAGI_NAEAVPxInputStream@1@@Z 000000018019a7a0 f   GuSerialize.obj
 0001:00199810       ?writeHeader@physx@@YA_NCCCCI_NAEAVPxOutputStream@1@@Z 000000018019a810 f   GuSerialize.obj
 0001:00199940       ?readHeader@physx@@YA_NCCCCAEAIAEA_NAEAVPxInputStream@1@@Z 000000018019a940 f   GuSerialize.obj
 0001:00199aa0       ?computeMaxIndex@physx@@YAIPEBII@Z 000000018019aaa0 f   GuSerialize.obj
 0001:00199ad0       ?computeMaxIndex@physx@@YAGPEBGI@Z 000000018019aad0 f   GuSerialize.obj
 0001:00199b00       ?storeIndices@physx@@YAXIIPEBIAEAVPxOutputStream@1@_N@Z 000000018019ab00 f   GuSerialize.obj
 0001:00199c00       ?readIndices@physx@@YAXIIPEAIAEAVPxInputStream@1@_N@Z 000000018019ac00 f   GuSerialize.obj
 0001:00199d00       ?WriteHeader@Gu@physx@@YA_NEEEEI_NAEAVPxOutputStream@2@@Z 000000018019ad00 f   GuSerialize.obj
 0001:00199e30       ?ReadHeader@Gu@physx@@YA_NEEEEAEAIAEA_NAEAVPxInputStream@2@@Z 000000018019ae30 f   GuSerialize.obj
 0001:00199fb0       ?StoreIndices@Gu@physx@@YAXIIPEBIAEAVPxOutputStream@2@_N@Z 000000018019afb0 f   GuSerialize.obj
 0001:0019a0f0       ?ReadIndices@Gu@physx@@YAXIIPEAIAEAVPxInputStream@2@_N@Z 000000018019b0f0 f   GuSerialize.obj
 0001:0019a200       ?StoreIndices@Gu@physx@@YAXGIPEBGAEAVPxOutputStream@2@_N@Z 000000018019b200 f   GuSerialize.obj
 0001:0019a2e0       ?ReadIndices@Gu@physx@@YAXGIPEAGAEAVPxInputStream@2@_N@Z 000000018019b2e0 f   GuSerialize.obj
 0001:0019a840       ?computeCapsule_TriangleMeshMTD@Gu@physx@@YA_NAEBVPxTriangleMeshGeometry@2@AEBVPxTransform@2@AEAVCapsuleV@12@M_NAEAUPxSweepHit@2@@Z 000000018019b840 f   GuSweepMTD.obj
 0001:0019b1b0       ?computeCapsule_HeightFieldMTD@Gu@physx@@YA_NAEBVPxHeightFieldGeometry@2@AEBVPxTransform@2@AEAVCapsuleV@12@M_NIAEAUPxSweepHit@2@@Z 000000018019c1b0 f   GuSweepMTD.obj
 0001:0019b890       ?computeBox_TriangleMeshMTD@Gu@physx@@YA_NAEBVPxTriangleMeshGeometry@2@AEBVPxTransform@2@AEBVBox@12@1M_NAEAUPxSweepHit@2@@Z 000000018019c890 f   GuSweepMTD.obj
 0001:0019c630       ?computeBox_HeightFieldMTD@Gu@physx@@YA_NAEBVPxHeightFieldGeometry@2@AEBVPxTransform@2@AEBVBox@12@1M_NIAEAUPxSweepHit@2@@Z 000000018019d630 f   GuSweepMTD.obj
 0001:0019d4c0       ?computeConvex_TriangleMeshMTD@Gu@physx@@YA_NAEBVPxTriangleMeshGeometry@2@AEBVPxTransform@2@AEBVPxConvexMeshGeometry@2@1M_NAEAUPxSweepHit@2@@Z 000000018019e4c0 f   GuSweepMTD.obj
 0001:0019e860       ?computeConvex_HeightFieldMTD@Gu@physx@@YA_NAEBVPxHeightFieldGeometry@2@AEBVPxTransform@2@AEBVPxConvexMeshGeometry@2@1M_NIAEAUPxSweepHit@2@@Z 000000018019f860 f   GuSweepMTD.obj
 0001:0019fd30       ?computeSphere_SphereMTD@Gu@physx@@YA_NAEBVSphere@12@0AEAUPxSweepHit@2@@Z 00000001801a0d30 f   GuSweepMTD.obj
 0001:0019fe10       ?computeSphere_CapsuleMTD@Gu@physx@@YA_NAEBVSphere@12@AEBVCapsule@12@AEAUPxSweepHit@2@@Z 00000001801a0e10 f   GuSweepMTD.obj
 0001:0019ff50       ?computeCapsule_CapsuleMTD@Gu@physx@@YA_NAEBVCapsule@12@0AEAUPxSweepHit@2@@Z 00000001801a0f50 f   GuSweepMTD.obj
 0001:001a0190       ?computePlane_CapsuleMTD@Gu@physx@@YA_NAEBVPxPlane@2@AEBVCapsule@12@AEAUPxSweepHit@2@@Z 00000001801a1190 f   GuSweepMTD.obj
 0001:001a02a0       ?computePlane_BoxMTD@Gu@physx@@YA_NAEBVPxPlane@2@AEBVBox@12@AEAUPxSweepHit@2@@Z 00000001801a12a0 f   GuSweepMTD.obj
 0001:001a0500       ?computePlane_ConvexMTD@Gu@physx@@YA_NAEBVPxPlane@2@AEBVPxConvexMeshGeometry@2@AEBVPxTransform@2@AEAUPxSweepHit@2@@Z 00000001801a1500 f   GuSweepMTD.obj
 0001:001a2260       ??0MTDTriangle@@QEAA@XZ    00000001801a3260 f i GuSweepMTD.obj
 0001:001a2270       ??1MTDTriangle@@QEAA@XZ    00000001801a3270 f i GuSweepMTD.obj
 0001:001a2280       ??_EMeshMTDGenerationCallback@@UEAAPEAXI@Z 00000001801a3280 f i GuSweepMTD.obj
 0001:001a2280       ??_GMeshMTDGenerationCallback@@UEAAPEAXI@Z 00000001801a3280 f i GuSweepMTD.obj
 0001:001a22c0       ??_EMidPhaseQueryLocalReport@@UEAAPEAXI@Z 00000001801a32c0 f i GuSweepMTD.obj
 0001:001a22c0       ??_GMidPhaseQueryLocalReport@@UEAAPEAXI@Z 00000001801a32c0 f i GuSweepMTD.obj
 0001:001a2300       ?onEvent@MidPhaseQueryLocalReport@@UEAA_NIPEAI@Z 00000001801a3300 f i GuSweepMTD.obj
 0001:001a2390       ?processHit@MeshMTDGenerationCallback@@UEAA_NAEBUPxRaycastHit@physx@@AEBVPxVec3@3@11AEAMPEBI@Z 00000001801a3390 f i GuSweepMTD.obj
 0001:001a23f0       ?sweepCapsuleTriangles@Gu@physx@@YA_NIPEBVPxTriangle@2@_NAEBVPxCapsuleGeometry@2@AEBVPxTransform@2@AEBVPxVec3@2@MAEAUPxSweepHit@2@PEBIMV?$PxFlags@W4Enum@PxHitFlag@physx@@G@2@@Z 00000001801a33f0 f   GuSweepSharedTests.obj
 0001:001a25f0       ?sweepCapsule_SphereGeom@@YA_NAEBVPxGeometry@physx@@AEBVPxTransform@2@AEBVPxCapsuleGeometry@2@1AEBVCapsule@Gu@2@AEBVPxVec3@2@MAEAUPxSweepHit@2@V?$PxFlags@W4Enum@PxHitFlag@physx@@G@2@M@Z 00000001801a35f0 f   GuSweepSharedTests.obj
 0001:001a2790       ?sweepCapsule_PlaneGeom@@YA_NAEBVPxGeometry@physx@@AEBVPxTransform@2@AEBVPxCapsuleGeometry@2@1AEBVCapsule@Gu@2@AEBVPxVec3@2@MAEAUPxSweepHit@2@V?$PxFlags@W4Enum@PxHitFlag@physx@@G@2@M@Z 00000001801a3790 f   GuSweepSharedTests.obj
 0001:001a2a90       ?sweepCapsule_CapsuleGeom@@YA_NAEBVPxGeometry@physx@@AEBVPxTransform@2@AEBVPxCapsuleGeometry@2@1AEBVCapsule@Gu@2@AEBVPxVec3@2@MAEAUPxSweepHit@2@V?$PxFlags@W4Enum@PxHitFlag@physx@@G@2@M@Z 00000001801a3a90 f   GuSweepSharedTests.obj
 0001:001a2c70       ?sweepCapsule_ConvexGeom@@YA_NAEBVPxGeometry@physx@@AEBVPxTransform@2@AEBVPxCapsuleGeometry@2@1AEBVCapsule@Gu@2@AEBVPxVec3@2@MAEAUPxSweepHit@2@V?$PxFlags@W4Enum@PxHitFlag@physx@@G@2@M@Z 00000001801a3c70 f   GuSweepSharedTests.obj
 0001:001a3b70       ?sweepBox_PlaneGeom@@YA_NAEBVPxGeometry@physx@@AEBVPxTransform@2@AEBVPxBoxGeometry@2@1AEBVBox@Gu@2@AEBVPxVec3@2@MAEAUPxSweepHit@2@V?$PxFlags@W4Enum@PxHitFlag@physx@@G@2@M@Z 00000001801a4b70 f   GuSweepSharedTests.obj
 0001:001a3f70       ?sweepBox_ConvexGeom@@YA_NAEBVPxGeometry@physx@@AEBVPxTransform@2@AEBVPxBoxGeometry@2@1AEBVBox@Gu@2@AEBVPxVec3@2@MAEAUPxSweepHit@2@V?$PxFlags@W4Enum@PxHitFlag@physx@@G@2@M@Z 00000001801a4f70 f   GuSweepSharedTests.obj
 0001:001a4ff0       ?sweepConvex_SphereGeom@@YA_NAEBVPxGeometry@physx@@AEBVPxTransform@2@AEBVPxConvexMeshGeometry@2@1AEBVPxVec3@2@MAEAUPxSweepHit@2@V?$PxFlags@W4Enum@PxHitFlag@physx@@G@2@M@Z 00000001801a5ff0 f   GuSweepSharedTests.obj
 0001:001a5d80       ?sweepConvex_PlaneGeom@@YA_NAEBVPxGeometry@physx@@AEBVPxTransform@2@AEBVPxConvexMeshGeometry@2@1AEBVPxVec3@2@MAEAUPxSweepHit@2@V?$PxFlags@W4Enum@PxHitFlag@physx@@G@2@M@Z 00000001801a6d80 f   GuSweepSharedTests.obj
 0001:001a61e0       ?sweepConvex_CapsuleGeom@@YA_NAEBVPxGeometry@physx@@AEBVPxTransform@2@AEBVPxConvexMeshGeometry@2@1AEBVPxVec3@2@MAEAUPxSweepHit@2@V?$PxFlags@W4Enum@PxHitFlag@physx@@G@2@M@Z 00000001801a71e0 f   GuSweepSharedTests.obj
 0001:001a6400       ?sweepConvex_BoxGeom@@YA_NAEBVPxGeometry@physx@@AEBVPxTransform@2@AEBVPxConvexMeshGeometry@2@1AEBVPxVec3@2@MAEAUPxSweepHit@2@V?$PxFlags@W4Enum@PxHitFlag@physx@@G@2@M@Z 00000001801a7400 f   GuSweepSharedTests.obj
 0001:001a6610       ?sweepConvex_ConvexGeom@@YA_NAEBVPxGeometry@physx@@AEBVPxTransform@2@AEBVPxConvexMeshGeometry@2@1AEBVPxVec3@2@MAEAUPxSweepHit@2@V?$PxFlags@W4Enum@PxHitFlag@physx@@G@2@M@Z 00000001801a7610 f   GuSweepSharedTests.obj
 0001:001a8c90       ??$gjkPenetration@U?$LocalConvex@VCapsuleV@Gu@physx@@@Gu@physx@@U?$LocalConvex@VShrunkConvexHullV@Gu@physx@@@23@@Gu@physx@@YA?AW4GjkStatus@01@AEBU?$LocalConvex@VCapsuleV@Gu@physx@@@01@AEBU?$LocalConvex@VShrunkConvexHullV@Gu@physx@@@01@AEBT__m128@@2AEAT5@333PEIAE4AEAE_N@Z 00000001801a9c90 f i GuSweepSharedTests.obj
 0001:001aaee0       ??$gjkRaycast@U?$LocalConvex@VCapsuleV@Gu@physx@@@Gu@physx@@U?$LocalConvex@VConvexHullV@Gu@physx@@@23@@Gu@physx@@YA_NAEBU?$LocalConvex@VCapsuleV@Gu@physx@@@01@AEBU?$LocalConvex@VConvexHullV@Gu@physx@@@01@AEBT__m128@@222AEAT4@33M@Z 00000001801abee0 f i GuSweepSharedTests.obj
 0001:001ac100       ??$gjkRaycast@U?$RelativeConvex@VBoxV@Gu@physx@@@Gu@physx@@U?$LocalConvex@VConvexHullV@Gu@physx@@@23@@Gu@physx@@YA_NAEBU?$RelativeConvex@VBoxV@Gu@physx@@@01@AEBU?$LocalConvex@VConvexHullV@Gu@physx@@@01@AEBT__m128@@222AEAT4@33M@Z 00000001801ad100 f i GuSweepSharedTests.obj
 0001:001ad490       ??$gjkRaycast@U?$RelativeConvex@VConvexHullV@Gu@physx@@@Gu@physx@@U?$LocalConvex@VConvexHullV@Gu@physx@@@23@@Gu@physx@@YA_NAEBU?$RelativeConvex@VConvexHullV@Gu@physx@@@01@AEBU?$LocalConvex@VConvexHullV@Gu@physx@@@01@AEBT__m128@@222AEAT4@33M@Z 00000001801ae490 f i GuSweepSharedTests.obj
 0001:001ae960       ??$gjkRaycastPenetration@U?$LocalConvex@VCapsuleV@Gu@physx@@@Gu@physx@@U?$LocalConvex@VConvexHullV@Gu@physx@@@23@@Gu@physx@@YA_NAEBU?$LocalConvex@VCapsuleV@Gu@physx@@@01@AEBU?$LocalConvex@VConvexHullV@Gu@physx@@@01@AEBT__m128@@222AEAT4@33M_N@Z 00000001801af960 f i GuSweepSharedTests.obj
 0001:001aec60       ??$gjkRaycastPenetration@U?$RelativeConvex@VBoxV@Gu@physx@@@Gu@physx@@U?$LocalConvex@VConvexHullV@Gu@physx@@@23@@Gu@physx@@YA_NAEBU?$RelativeConvex@VBoxV@Gu@physx@@@01@AEBU?$LocalConvex@VConvexHullV@Gu@physx@@@01@AEBT__m128@@222AEAT4@33M_N@Z 00000001801afc60 f i GuSweepSharedTests.obj
 0001:001aefd0       ??$gjkRaycastPenetration@U?$RelativeConvex@VConvexHullV@Gu@physx@@@Gu@physx@@U?$LocalConvex@VConvexHullV@Gu@physx@@@23@@Gu@physx@@YA_NAEBU?$RelativeConvex@VConvexHullV@Gu@physx@@@01@AEBU?$LocalConvex@VConvexHullV@Gu@physx@@@01@AEBT__m128@@222AEAT4@33M_N@Z 00000001801affd0 f i GuSweepSharedTests.obj
 0001:001afeb0       ?getSweepFuncTable@Gu@physx@@YAAEBUGeomSweepFuncs@12@XZ 00000001801b0eb0 f   GuSweepTests.obj
 0001:001afec0       ?sweepBoxTriangles@Gu@physx@@YA_NIPEBVPxTriangle@2@_NAEBVPxBoxGeometry@2@AEBVPxTransform@2@AEBVPxVec3@2@MAEAUPxSweepHit@2@PEBIMV?$PxFlags@W4Enum@PxHitFlag@physx@@G@2@@Z 00000001801b0ec0 f   GuSweepTests.obj
 0001:001b0a70       ?sweepCapsule_BoxGeom@@YA_NAEBVPxGeometry@physx@@AEBVPxTransform@2@AEBVPxCapsuleGeometry@2@1AEBVCapsule@Gu@2@AEBVPxVec3@2@MAEAUPxSweepHit@2@V?$PxFlags@W4Enum@PxHitFlag@physx@@G@2@M@Z 00000001801b1a70 f   GuSweepTests.obj
 0001:001b15a0       ?sweepBox_SphereGeom@@YA_NAEBVPxGeometry@physx@@AEBVPxTransform@2@AEBVPxBoxGeometry@2@1AEBVBox@Gu@2@AEBVPxVec3@2@MAEAUPxSweepHit@2@V?$PxFlags@W4Enum@PxHitFlag@physx@@G@2@M@Z 00000001801b25a0 f   GuSweepTests.obj
 0001:001b1ea0       ?sweepBox_CapsuleGeom@@YA_NAEBVPxGeometry@physx@@AEBVPxTransform@2@AEBVPxBoxGeometry@2@1AEBVBox@Gu@2@AEBVPxVec3@2@MAEAUPxSweepHit@2@V?$PxFlags@W4Enum@PxHitFlag@physx@@G@2@M@Z 00000001801b2ea0 f   GuSweepTests.obj
 0001:001b29c0       ?sweepBox_BoxGeom@@YA_NAEBVPxGeometry@physx@@AEBVPxTransform@2@AEBVPxBoxGeometry@2@1AEBVBox@Gu@2@AEBVPxVec3@2@MAEAUPxSweepHit@2@V?$PxFlags@W4Enum@PxHitFlag@physx@@G@2@M@Z 00000001801b39c0 f   GuSweepTests.obj
 0001:001b3690       ?registerHeightFields_Sweeps@@YAXXZ 00000001801b4690 f   GuSweepTests.obj
 0001:001b44e0       ??$gjkPenetration@U?$LocalConvex@VCapsuleV@Gu@physx@@@Gu@physx@@U?$LocalConvex@VShrunkBoxV@Gu@physx@@@23@@Gu@physx@@YA?AW4GjkStatus@01@AEBU?$LocalConvex@VCapsuleV@Gu@physx@@@01@AEBU?$LocalConvex@VShrunkBoxV@Gu@physx@@@01@AEBT__m128@@2AEAT5@333PEIAE4AEAE_N@Z 00000001801b54e0 f i GuSweepTests.obj
 0001:001b6420       ??$gjkRaycast@U?$LocalConvex@VCapsuleV@Gu@physx@@@Gu@physx@@U?$LocalConvex@VBoxV@Gu@physx@@@23@@Gu@physx@@YA_NAEBU?$LocalConvex@VCapsuleV@Gu@physx@@@01@AEBU?$LocalConvex@VBoxV@Gu@physx@@@01@AEBT__m128@@222AEAT4@33M@Z 00000001801b7420 f i GuSweepTests.obj
 0001:001b74b0       ??$gjkRaycast@U?$RelativeConvex@VBoxV@Gu@physx@@@Gu@physx@@U?$LocalConvex@VBoxV@Gu@physx@@@23@@Gu@physx@@YA_NAEBU?$RelativeConvex@VBoxV@Gu@physx@@@01@AEBU?$LocalConvex@VBoxV@Gu@physx@@@01@AEBT__m128@@222AEAT4@33M@Z 00000001801b84b0 f i GuSweepTests.obj
 0001:001b85c0       ??$gjkRaycastPenetration@U?$LocalConvex@VCapsuleV@Gu@physx@@@Gu@physx@@U?$LocalConvex@VBoxV@Gu@physx@@@23@@Gu@physx@@YA_NAEBU?$LocalConvex@VCapsuleV@Gu@physx@@@01@AEBU?$LocalConvex@VBoxV@Gu@physx@@@01@AEBT__m128@@222AEAT4@33M_N@Z 00000001801b95c0 f i GuSweepTests.obj
 0001:001b88c0       ??$gjkRaycastPenetration@U?$RelativeConvex@VBoxV@Gu@physx@@@Gu@physx@@U?$LocalConvex@VBoxV@Gu@physx@@@23@@Gu@physx@@YA_NAEBU?$RelativeConvex@VBoxV@Gu@physx@@@01@AEBU?$LocalConvex@VBoxV@Gu@physx@@@01@AEBT__m128@@222AEAT4@33M_N@Z 00000001801b98c0 f i GuSweepTests.obj
 0001:001b8c28       LoadLibraryA               00000001801b9c28 f   kernel32:KERNEL32.dll
 0001:001b8c2e       FreeLibrary                00000001801b9c2e f   kernel32:KERNEL32.dll
 0001:001b8c34       GetProcAddress             00000001801b9c34 f   kernel32:KERNEL32.dll
 0001:001b8c3a       __imp_load_??0NamedAllocator@shdfnd@physx@@QEAA@PEBD@Z 00000001801b9c3a f   PxFoundationCHECKED_x64:PxFoundationCHECKED_x64.dll
 0001:001b8c46       __tailMerge_PxFoundationCHECKED_x64_dll 00000001801b9c46 f i PxFoundationCHECKED_x64:PxFoundationCHECKED_x64.dll
 0001:001b8cbf       ??0NamedAllocator@shdfnd@physx@@QEAA@PEBD@Z 00000001801b9cbf f   PxFoundationCHECKED_x64:PxFoundationCHECKED_x64.dll
 0001:001b8cc5       __imp_load_?getAllocator@shdfnd@physx@@YAAEAVPxAllocatorCallback@2@XZ 00000001801b9cc5 f   PxFoundationCHECKED_x64:PxFoundationCHECKED_x64.dll
 0001:001b8cd1       ?getAllocator@shdfnd@physx@@YAAEAVPxAllocatorCallback@2@XZ 00000001801b9cd1 f   PxFoundationCHECKED_x64:PxFoundationCHECKED_x64.dll
 0001:001b8cd7       __imp_load_??1NamedAllocator@shdfnd@physx@@QEAA@XZ 00000001801b9cd7 f   PxFoundationCHECKED_x64:PxFoundationCHECKED_x64.dll
 0001:001b8ce3       ??1NamedAllocator@shdfnd@physx@@QEAA@XZ 00000001801b9ce3 f   PxFoundationCHECKED_x64:PxFoundationCHECKED_x64.dll
 0001:001b8ce9       __imp_load_?allocate@NamedAllocator@shdfnd@physx@@QEAAPEAX_KPEBDH@Z 00000001801b9ce9 f   PxFoundationCHECKED_x64:PxFoundationCHECKED_x64.dll
 0001:001b8cf5       ?allocate@NamedAllocator@shdfnd@physx@@QEAAPEAX_KPEBDH@Z 00000001801b9cf5 f   PxFoundationCHECKED_x64:PxFoundationCHECKED_x64.dll
 0001:001b8cfb       __imp_load_?deallocate@NamedAllocator@shdfnd@physx@@QEAAXPEAX@Z 00000001801b9cfb f   PxFoundationCHECKED_x64:PxFoundationCHECKED_x64.dll
 0001:001b8d07       ?deallocate@NamedAllocator@shdfnd@physx@@QEAAXPEAX@Z 00000001801b9d07 f   PxFoundationCHECKED_x64:PxFoundationCHECKED_x64.dll
 0001:001b8d0d       __imp_load_PxGetFoundation 00000001801b9d0d f   PxFoundationCHECKED_x64:PxFoundationCHECKED_x64.dll
 0001:001b8d19       PxGetFoundation            00000001801b9d19 f   PxFoundationCHECKED_x64:PxFoundationCHECKED_x64.dll
 0001:001b8d1f       __imp_load_?getInstance@Foundation@shdfnd@physx@@SAAEAV123@XZ 00000001801b9d1f f   PxFoundationCHECKED_x64:PxFoundationCHECKED_x64.dll
 0001:001b8d2b       ?getInstance@Foundation@shdfnd@physx@@SAAEAV123@XZ 00000001801b9d2b f   PxFoundationCHECKED_x64:PxFoundationCHECKED_x64.dll
 0001:001b8d31       __imp_load_?error@Foundation@shdfnd@physx@@QEAAXW4Enum@PxErrorCode@3@PEBDH1ZZ 00000001801b9d31 f   PxFoundationCHECKED_x64:PxFoundationCHECKED_x64.dll
 0001:001b8d3d       ?error@Foundation@shdfnd@physx@@QEAAXW4Enum@PxErrorCode@3@PEBDH1ZZ 00000001801b9d3d f   PxFoundationCHECKED_x64:PxFoundationCHECKED_x64.dll
 0001:001b8d43       __imp_load_?PxShortestRotation@physx@@YA?AVPxQuat@1@AEBVPxVec3@1@0@Z 00000001801b9d43 f   PxFoundationCHECKED_x64:PxFoundationCHECKED_x64.dll
 0001:001b8d4f       ?PxShortestRotation@physx@@YA?AVPxQuat@1@AEBVPxVec3@1@0@Z 00000001801b9d4f f   PxFoundationCHECKED_x64:PxFoundationCHECKED_x64.dll
 0001:001b8d55       __imp_load_?vsnprintf@shdfnd@physx@@YAHPEAD_KPEBD0@Z 00000001801b9d55 f   PxFoundationCHECKED_x64:PxFoundationCHECKED_x64.dll
 0001:001b8d61       ?vsnprintf@shdfnd@physx@@YAHPEAD_KPEBD0@Z 00000001801b9d61 f   PxFoundationCHECKED_x64:PxFoundationCHECKED_x64.dll
 0001:001b8d67       __imp_load_?optimizeBoundingBox@shdfnd@physx@@YA?AVPxVec3@2@AEAVPxMat33@2@@Z 00000001801b9d67 f   PxFoundationCHECKED_x64:PxFoundationCHECKED_x64.dll
 0001:001b8d73       ?optimizeBoundingBox@shdfnd@physx@@YA?AVPxVec3@2@AEAVPxMat33@2@@Z 00000001801b9d73 f   PxFoundationCHECKED_x64:PxFoundationCHECKED_x64.dll
 0001:001b8d79       __imp_load_??0NamedAllocator@shdfnd@physx@@QEAA@AEBV012@@Z 00000001801b9d79 f   PxFoundationCHECKED_x64:PxFoundationCHECKED_x64.dll
 0001:001b8d85       ??0NamedAllocator@shdfnd@physx@@QEAA@AEBV012@@Z 00000001801b9d85 f   PxFoundationCHECKED_x64:PxFoundationCHECKED_x64.dll
 0001:001b8d8b       __imp_load_?allocate@TempAllocator@shdfnd@physx@@QEAAPEAX_KPEBDH@Z 00000001801b9d8b f   PxFoundationCHECKED_x64:PxFoundationCHECKED_x64.dll
 0001:001b8d97       ?allocate@TempAllocator@shdfnd@physx@@QEAAPEAX_KPEBDH@Z 00000001801b9d97 f   PxFoundationCHECKED_x64:PxFoundationCHECKED_x64.dll
 0001:001b8d9d       __imp_load_?deallocate@TempAllocator@shdfnd@physx@@QEAAXPEAX@Z 00000001801b9d9d f   PxFoundationCHECKED_x64:PxFoundationCHECKED_x64.dll
 0001:001b8da9       ?deallocate@TempAllocator@shdfnd@physx@@QEAAXPEAX@Z 00000001801b9da9 f   PxFoundationCHECKED_x64:PxFoundationCHECKED_x64.dll
 0001:001b8daf       __imp_load_?atomicIncrement@shdfnd@physx@@YAHPECH@Z 00000001801b9daf f   PxFoundationCHECKED_x64:PxFoundationCHECKED_x64.dll
 0001:001b8dbb       ?atomicIncrement@shdfnd@physx@@YAHPECH@Z 00000001801b9dbb f   PxFoundationCHECKED_x64:PxFoundationCHECKED_x64.dll
 0001:001b8dc1       __imp_load_?atomicDecrement@shdfnd@physx@@YAHPECH@Z 00000001801b9dc1 f   PxFoundationCHECKED_x64:PxFoundationCHECKED_x64.dll
 0001:001b8dcd       ?atomicDecrement@shdfnd@physx@@YAHPECH@Z 00000001801b9dcd f   PxFoundationCHECKED_x64:PxFoundationCHECKED_x64.dll
 0001:001b8dd3       __imp_load_PxGetProfilerCallback 00000001801b9dd3 f   PxFoundationCHECKED_x64:PxFoundationCHECKED_x64.dll
 0001:001b8ddf       PxGetProfilerCallback      00000001801b9ddf f   PxFoundationCHECKED_x64:PxFoundationCHECKED_x64.dll
 0001:001b8de5       __imp_load_??0MutexImpl@shdfnd@physx@@QEAA@XZ 00000001801b9de5 f   PxFoundationCHECKED_x64:PxFoundationCHECKED_x64.dll
 0001:001b8df1       ??0MutexImpl@shdfnd@physx@@QEAA@XZ 00000001801b9df1 f   PxFoundationCHECKED_x64:PxFoundationCHECKED_x64.dll
 0001:001b8df7       __imp_load_??1MutexImpl@shdfnd@physx@@QEAA@XZ 00000001801b9df7 f   PxFoundationCHECKED_x64:PxFoundationCHECKED_x64.dll
 0001:001b8e03       ??1MutexImpl@shdfnd@physx@@QEAA@XZ 00000001801b9e03 f   PxFoundationCHECKED_x64:PxFoundationCHECKED_x64.dll
 0001:001b8e09       __imp_load_?lock@MutexImpl@shdfnd@physx@@QEAAXXZ 00000001801b9e09 f   PxFoundationCHECKED_x64:PxFoundationCHECKED_x64.dll
 0001:001b8e15       ?lock@MutexImpl@shdfnd@physx@@QEAAXXZ 00000001801b9e15 f   PxFoundationCHECKED_x64:PxFoundationCHECKED_x64.dll
 0001:001b8e1b       __imp_load_?unlock@MutexImpl@shdfnd@physx@@QEAAXXZ 00000001801b9e1b f   PxFoundationCHECKED_x64:PxFoundationCHECKED_x64.dll
 0001:001b8e27       ?unlock@MutexImpl@shdfnd@physx@@QEAAXXZ 00000001801b9e27 f   PxFoundationCHECKED_x64:PxFoundationCHECKED_x64.dll
 0001:001b8e2d       __imp_load_?getSize@MutexImpl@shdfnd@physx@@SAAEBIXZ 00000001801b9e2d f   PxFoundationCHECKED_x64:PxFoundationCHECKED_x64.dll
 0001:001b8e39       ?getSize@MutexImpl@shdfnd@physx@@SAAEBIXZ 00000001801b9e39 f   PxFoundationCHECKED_x64:PxFoundationCHECKED_x64.dll
 0001:001b8e40       ??$PFromRva@PEAP6A_JXZ@@YAPEAP6A_JXZK@Z 00000001801b9e40 f i delayimp:delayhlp.obj
 0001:001b8e50       ??$PFromRva@PEAPEAUHINSTANCE__@@@@YAPEAPEAUHINSTANCE__@@K@Z 00000001801b9e50 f i delayimp:delayhlp.obj
 0001:001b8e60       ??$PFromRva@PEAU_IMAGE_IMPORT_BY_NAME@@@@YAPEAU_IMAGE_IMPORT_BY_NAME@@K@Z 00000001801b9e60 f i delayimp:delayhlp.obj
 0001:001b8e70       ??$PFromRva@PEAU_IMAGE_THUNK_DATA64@@@@YAPEAU_IMAGE_THUNK_DATA64@@K@Z 00000001801b9e70 f i delayimp:delayhlp.obj
 0001:001b8e80       ??$PFromRva@PEBD@@YAPEBDK@Z 00000001801b9e80 f i delayimp:delayhlp.obj
 0001:001b8e90       ??$PFromRva@PEBUImgDelayDescr@@@@YAPEBUImgDelayDescr@@K@Z 00000001801b9e90 f i delayimp:delayhlp.obj
 0001:001b8ea0       ??$PFromRva@PEBU_IMAGE_THUNK_DATA64@@@@YAPEBU_IMAGE_THUNK_DATA64@@K@Z 00000001801b9ea0 f i delayimp:delayhlp.obj
 0001:001b8eb0       ?CountOfImports@@YAIPEBU_IMAGE_THUNK_DATA64@@@Z 00000001801b9eb0 f i delayimp:delayhlp.obj
 0001:001b8ecc       ?DloadAcquireSectionWriteAccess@@YAXXZ 00000001801b9ecc f i delayimp:delayhlp.obj
 0001:001b8fb4       ?DloadGetSRWLockFunctionPointers@@YAEXZ 00000001801b9fb4 f i delayimp:delayhlp.obj
 0001:001b9078       ?DloadLock@@YAXXZ          00000001801ba078 f i delayimp:delayhlp.obj
 0001:001b90e0       ?DloadMakePermanentImageCommit@@YAXPEAX_K@Z 00000001801ba0e0 f i delayimp:delayhlp.obj
 0001:001b919c       ?DloadObtainSection@@YAPEAXPEAK0@Z 00000001801ba19c f i delayimp:delayhlp.obj
 0001:001b925c       ?DloadProtectSection@@YAXKPEAK@Z 00000001801ba25c f i delayimp:delayhlp.obj
 0001:001b9310       ?DloadReleaseSectionWriteAccess@@YAXXZ 00000001801ba310 f i delayimp:delayhlp.obj
 0001:001b93e0       ?DloadUnlock@@YAXXZ        00000001801ba3e0 f i delayimp:delayhlp.obj
 0001:001b9440       ?IndexFromPImgThunkData@@YAIPEBU_IMAGE_THUNK_DATA64@@0@Z 00000001801ba440 f i delayimp:delayhlp.obj
 0001:001b95d4       HRESULT_FROM_WIN32         00000001801ba5d4 f i delayimp:delayhlp.obj
 0001:001b95e8       ReadAcquire64              00000001801ba5e8 f i delayimp:delayhlp.obj
 0001:001b95ec       ReadPointerAcquire         00000001801ba5ec f i delayimp:delayhlp.obj
 0001:001b95f0       WritePointerRelease        00000001801ba5f0 f i delayimp:delayhlp.obj
 0001:001b95f4       WriteRelease64             00000001801ba5f4 f i delayimp:delayhlp.obj
 0001:001b95f8       __FUnloadDelayLoadedDLL2   00000001801ba5f8 f   delayimp:delayhlp.obj
 0001:001b96e0       __HrLoadAllImportsForDll   00000001801ba6e0 f   delayimp:delayhlp.obj
 0001:001b9770       __delayLoadHelper2         00000001801ba770 f   delayimp:delayhlp.obj
 0001:001b9b28       ??3@YAXPEAX_K@Z            00000001801bab28 f   LIBCMT:delete_scalar_size.obj
 0001:001b9b30       ??_V@YAXPEAX_K@Z           00000001801bab30 f   LIBCMT:delete_array_size.obj
 0001:001b9b38       ?__scrt_initialize_type_info@@YAXXZ 00000001801bab38 f   LIBCMT:tncleanup.obj
 0001:001b9b4c       ?__scrt_uninitialize_type_info@@YAXXZ 00000001801bab4c f   LIBCMT:tncleanup.obj
 0001:001b9b5c       ??1type_info@@UEAA@XZ      00000001801bab5c f   LIBCMT:std_type_info_static.obj
 0001:001b9b6c       ??_Etype_info@@UEAAPEAXI@Z 00000001801bab6c f i LIBCMT:std_type_info_static.obj
 0001:001b9b6c       ??_Gtype_info@@UEAAPEAXI@Z 00000001801bab6c f i LIBCMT:std_type_info_static.obj
 0001:001b9bc0       __chkstk                   00000001801babc0 f   LIBCMT:_chkstk_.obj
 0001:001b9bc0       _alloca_probe              00000001801babc0 f   LIBCMT:_chkstk_.obj
 0001:001b9c2c       ??3@YAXPEAX@Z              00000001801bac2c f   LIBCMT:delete_scalar.obj
 0001:001b9c34       ??_V@YAXPEAX@Z             00000001801bac34 f   LIBCMT:delete_array.obj
 0001:001ba05c       _CRT_INIT                  00000001801bb05c f   LIBCMT:dll_dllmain.obj
 0001:001ba064       _DllMainCRTStartup         00000001801bb064 f   LIBCMT:dll_dllmain.obj
 0001:001ba0b0       _guard_check_icall_nop     00000001801bb0b0 f i LIBCMT:guard_support.obj
 0001:001ba0b4       _guard_icall_checks_enforced 00000001801bb0b4 f i LIBCMT:guard_support.obj
 0001:001ba0d0       ??$__crt_fast_decode_pointer@PEAP6AXXZ@@YAPEAP6AXXZQEAP6AXXZ@Z 00000001801bb0d0 f i LIBCMT:utility.obj
 0001:001ba0ec       ??$__crt_fast_encode_pointer@PEAP6AXXZ@@YAPEAP6AXXZQEAP6AXXZ@Z 00000001801bb0ec f i LIBCMT:utility.obj
 0001:001ba114       ?__crt_rotate_pointer_value@@YA_K_KH@Z 00000001801bb114 f i LIBCMT:utility.obj
 0001:001ba120       ?configure_argv@__scrt_narrow_argv_policy@@SAHXZ 00000001801bb120 f i LIBCMT:utility.obj
 0001:001ba1d4       NtCurrentTeb               00000001801bb1d4 f i LIBCMT:utility.obj
 0001:001ba1e0       __scrt_acquire_startup_lock 00000001801bb1e0 f   LIBCMT:utility.obj
 0001:001ba228       __scrt_dllmain_after_initialize_c 00000001801bb228 f   LIBCMT:utility.obj
 0001:001ba26c       __scrt_dllmain_before_initialize_c 00000001801bb26c f   LIBCMT:utility.obj
 0001:001ba288       __scrt_dllmain_crt_thread_attach 00000001801bb288 f   LIBCMT:utility.obj
 0001:001ba2bc       __scrt_dllmain_crt_thread_detach 00000001801bb2bc f   LIBCMT:utility.obj
 0001:001ba2d8       __scrt_dllmain_exception_filter 00000001801bb2d8 f   LIBCMT:utility.obj
 0001:001ba354       __scrt_dllmain_uninitialize_c 00000001801bb354 f   LIBCMT:utility.obj
 0001:001ba390       __scrt_dllmain_uninitialize_critical 00000001801bb390 f   LIBCMT:utility.obj
 0001:001ba3ac       __scrt_initialize_crt      00000001801bb3ac f   LIBCMT:utility.obj
 0001:001ba408       __scrt_initialize_onexit_tables 00000001801bb408 f   LIBCMT:utility.obj
 0001:001ba504       __scrt_is_nonwritable_in_current_image 00000001801bb504 f   LIBCMT:utility.obj
 0001:001ba5c4       __scrt_release_startup_lock 00000001801bb5c4 f   LIBCMT:utility.obj
 0001:001ba5f4       __scrt_uninitialize_crt    00000001801bb5f4 f   LIBCMT:utility.obj
 0001:001ba62c       _onexit                    00000001801bb62c f   LIBCMT:utility.obj
 0001:001ba690       at_quick_exit              00000001801bb690 f   LIBCMT:utility.obj
 0001:001ba6d4       atexit                     00000001801bb6d4 f   LIBCMT:utility.obj
 0001:001ba6f0       __security_init_cookie     00000001801bb6f0 f   LIBCMT:gs_support.obj
 0001:001ba7c8       DllMain                    00000001801bb7c8 f   LIBCMT:dll_dllmain_stub.obj
 0001:001ba7d0       __local_stdio_printf_options 00000001801bb7d0 f i LIBCMT:default_local_stdio_options.obj
 0001:001ba7dc       __local_stdio_scanf_options 00000001801bb7dc f i LIBCMT:default_local_stdio_options.obj
 0001:001ba7e8       __scrt_initialize_default_local_stdio_options 00000001801bb7e8 f   LIBCMT:default_local_stdio_options.obj
 0001:001ba80c       __scrt_get_dyn_tls_init_callback 00000001801bb80c f   LIBCMT:dyn_tls_init.obj
 0001:001ba818       __crt_debugger_hook        00000001801bb818 f   LIBCMT:utility_desktop.obj
 0001:001ba824       __scrt_fastfail            00000001801bb824 f   LIBCMT:utility_desktop.obj
 0001:001ba9bc       __scrt_get_show_window_mode 00000001801bb9bc f   LIBCMT:utility_desktop.obj
 0001:001baa08       __scrt_initialize_winrt    00000001801bba08 f   LIBCMT:utility_desktop.obj
 0001:001baa0c       __scrt_is_managed_app      00000001801bba0c f   LIBCMT:utility_desktop.obj
 0001:001baa78       __scrt_set_unhandled_exception_filter 00000001801bba78 f   LIBCMT:utility_desktop.obj
 0001:001baa8c       __scrt_unhandled_exception_filter 00000001801bba8c f   LIBCMT:utility_desktop.obj
 0001:001baad4       _RTC_Initialize            00000001801bbad4 f   LIBCMT:_initsect_.obj
 0001:001bab30       _RTC_Terminate             00000001801bbb30 f   LIBCMT:_initsect_.obj
 0001:001bab8c       _guard_check_icall         00000001801bbb8c f i LIBCMT:checkcfg.obj
 0001:001baba0       __isa_available_init       00000001801bbba0 f   LIBCMT:_cpu_disp_.obj
 0001:001badd8       _get_startup_argv_mode     00000001801bbdd8 f   LIBCMT:argv_mode.obj
 0001:001bade0       __scrt_is_ucrt_dll_in_use  00000001801bbde0 f   LIBCMT:ucrt_detection.obj
 0001:001badf0       strstr                     00000001801bbdf0 f   libvcruntime:strstr.obj
 0001:001bb060       ??$__crt_fast_decode_pointer@P6AXXZ@@YAP6AXXZQ6AXXZ@Z 00000001801bc060 f i libvcruntime:purevirt.obj
 0001:001bb07c       ??$__crt_fast_encode_pointer@P6AXXZ@@YAP6AXXZQ6AXXZ@Z 00000001801bc07c f i libvcruntime:purevirt.obj
 0001:001bb0a4       ??$__crt_interlocked_compare_exchange_pointer@$$A6AXXZ$$T$$T@@YAP6AXXZPEDS6AXXZ$$T1@Z 00000001801bc0a4 f i libvcruntime:purevirt.obj
 0001:001bb0b0       ??$__crt_interlocked_exchange_pointer@$$A6AXXZP6AXXZ@@YAP6AXXZPEDS6AXXZQ6AXXZ@Z 00000001801bc0b0 f i libvcruntime:purevirt.obj
 0001:001bb0b8       ??$__crt_interlocked_read_pointer@$$A6AXXZ@@YAP6AXXZPEDS6AXXZ@Z 00000001801bc0b8 f i libvcruntime:purevirt.obj
 0001:001bb0c4       _get_purecall_handler      00000001801bc0c4 f   libvcruntime:purevirt.obj
 0001:001bb0ec       _purecall                  00000001801bc0ec f   libvcruntime:purevirt.obj
 0001:001bb134       _set_purecall_handler      00000001801bc134 f   libvcruntime:purevirt.obj
 0001:001bb190       memcpy                     00000001801bc190 f   libvcruntime:memcpy.obj
 0001:001bb190       memmove                    00000001801bc190 f   libvcruntime:memcpy.obj
 0001:001bb6e8       ??$?RD@__crt_internal_free_policy@@QEBAXQEBD@Z 00000001801bc6e8 f i libvcruntime:std_type_info.obj
 0001:001bb6f4       ??$?RX@__crt_internal_free_policy@@QEBAXQEBX@Z 00000001801bc6f4 f i libvcruntime:std_type_info.obj
 0001:001bb700       ??$__crt_interlocked_compare_exchange_pointer@$$CBD$$T$$T@@YAPEBDPEDSEBD$$T1@Z 00000001801bc700 f i libvcruntime:std_type_info.obj
 0001:001bb70c       ??$__crt_interlocked_compare_exchange_pointer@$$CBDPEAD$$T@@YAPEBDPEDSEBDQEAD$$T@Z 00000001801bc70c f i libvcruntime:std_type_info.obj
 0001:001bb718       ??$__crt_interlocked_read_pointer@$$CBD@@YAPEBDPEDSEBD@Z 00000001801bc718 f i libvcruntime:std_type_info.obj
 0001:001bb724       ??0?$__crt_unique_heap_ptr@DU__crt_internal_free_policy@@@@QEAA@QEAD@Z 00000001801bc724 f i libvcruntime:std_type_info.obj
 0001:001bb72c       ??0?$__crt_unique_heap_ptr@XU__crt_internal_free_policy@@@@QEAA@QEAX@Z 00000001801bc72c f i libvcruntime:std_type_info.obj
 0001:001bb734       ??1?$__crt_unique_heap_ptr@DU__crt_internal_free_policy@@@@QEAA@XZ 00000001801bc734 f i libvcruntime:std_type_info.obj
 0001:001bb758       ??1?$__crt_unique_heap_ptr@XU__crt_internal_free_policy@@@@QEAA@XZ 00000001801bc758 f i libvcruntime:std_type_info.obj
 0001:001bb794       ??B?$__crt_unique_heap_ptr@DU__crt_internal_free_policy@@@@QEBA_NXZ 00000001801bc794 f i libvcruntime:std_type_info.obj
 0001:001bb7a0       ??B?$__crt_unique_heap_ptr@XU__crt_internal_free_policy@@@@QEBA_NXZ 00000001801bc7a0 f i libvcruntime:std_type_info.obj
 0001:001bb7c4       ?detach@?$__crt_unique_heap_ptr@XU__crt_internal_free_policy@@@@QEAAPEAXXZ 00000001801bc7c4 f i libvcruntime:std_type_info.obj
 0001:001bb7d0       ?get@?$__crt_unique_heap_ptr@DU__crt_internal_free_policy@@@@QEBAPEADXZ 00000001801bc7d0 f i libvcruntime:std_type_info.obj
 0001:001bb7d4       ?get@?$__crt_unique_heap_ptr@XU__crt_internal_free_policy@@@@QEBAPEAXXZ 00000001801bc7d4 f i libvcruntime:std_type_info.obj
 0001:001bb7d8       ?is_valid@?$__crt_unique_heap_ptr@DU__crt_internal_free_policy@@@@QEBA_NXZ 00000001801bc7d8 f i libvcruntime:std_type_info.obj
 0001:001bb7e4       ?is_valid@?$__crt_unique_heap_ptr@XU__crt_internal_free_policy@@@@QEBA_NXZ 00000001801bc7e4 f i libvcruntime:std_type_info.obj
 0001:001bb7f0       ?release@?$__crt_unique_heap_ptr@DU__crt_internal_free_policy@@@@QEAAXXZ 00000001801bc7f0 f i libvcruntime:std_type_info.obj
 0001:001bb814       ?release@?$__crt_unique_heap_ptr@XU__crt_internal_free_policy@@@@QEAAXXZ 00000001801bc814 f i libvcruntime:std_type_info.obj
 0001:001bb838       __std_type_info_compare    00000001801bc838 f   libvcruntime:std_type_info.obj
 0001:001bb868       __std_type_info_destroy_list 00000001801bc868 f   libvcruntime:std_type_info.obj
 0001:001bb89c       __std_type_info_hash       00000001801bc89c f   libvcruntime:std_type_info.obj
 0001:001bb8e8       __std_type_info_name       00000001801bc8e8 f   libvcruntime:std_type_info.obj
 0001:001bba60       memset                     00000001801bca60 f   libvcruntime:memset.obj
 0001:001bbc6c       __C_specific_handler       00000001801bcc6c f   libvcruntime:_chandler_.obj
 0001:001bbee8       __vcrt_initialize          00000001801bcee8 f   libvcruntime:initialization.obj
 0001:001bbf28       __vcrt_thread_attach       00000001801bcf28 f   libvcruntime:initialization.obj
 0001:001bbf44       __vcrt_thread_detach       00000001801bcf44 f   libvcruntime:initialization.obj
 0001:001bbf5c       __vcrt_uninitialize        00000001801bcf5c f   libvcruntime:initialization.obj
 0001:001bbf84       __vcrt_uninitialize_critical 00000001801bcf84 f   libvcruntime:initialization.obj
 0001:001bbf9c       ??$?B$$A6AXXZ@__crt_fast_encoded_nullptr_t@@QEBAP6AXXZXZ 00000001801bcf9c f i libvcruntime:purevirt_data.obj
 0001:001bbfc0       ?__crt_fast_encode_pointer@@YA?AU__crt_fast_encoded_nullptr_t@@$$T@Z 00000001801bcfc0 f i libvcruntime:purevirt_data.obj
 0001:001bbfc8       __vcrt_initialize_pure_virtual_call_handler 00000001801bcfc8 f   libvcruntime:purevirt_data.obj
 0001:001bbff4       ??$__vcrt_va_start_verify_argument_type@QEBD@@YAXXZ 00000001801bcff4 f i libvcruntime:undname.obj
 0001:001bbff8       ??0Block@_HeapManager@@QEAA@XZ 00000001801bcff8 f i libvcruntime:undname.obj
 0001:001bc004       ??0DName@@QEAA@AEAPEBDD@Z  00000001801bd004 f   libvcruntime:undname.obj
 0001:001bc11c       ??0DName@@QEAA@AEBV0@@Z    00000001801bd11c f i libvcruntime:undname.obj
 0001:001bc12c       ??0DName@@QEAA@D@Z         00000001801bd12c f   libvcruntime:undname.obj
 0001:001bc174       ??0DName@@QEAA@PEAV0@@Z    00000001801bd174 f   libvcruntime:undname.obj
 0001:001bc21c       ??0DName@@QEAA@PEBD@Z      00000001801bd21c f   libvcruntime:undname.obj
 0001:001bc274       ??0DName@@QEAA@W4DNameStatus@@@Z 00000001801bd274 f   libvcruntime:undname.obj
 0001:001bc2d8       ??0DName@@QEAA@XZ          00000001801bd2d8 f i libvcruntime:undname.obj
 0001:001bc2f0       ??0DName@@QEAA@_J@Z        00000001801bd2f0 f   libvcruntime:undname.obj
 0001:001bc3c4       ??0DName@@QEAA@_K@Z        00000001801bd3c4 f   libvcruntime:undname.obj
 0001:001bc478       ??0DNameNode@@IEAA@XZ      00000001801bd478 f   libvcruntime:undname.obj
 0001:001bc48c       ??0DNameStatusNode@@AEAA@W4DNameStatus@@@Z 00000001801bd48c f   libvcruntime:undname.obj
 0001:001bc4b8       ??0Replicator@@QEAA@XZ     00000001801bd4b8 f i libvcruntime:undname.obj
 0001:001bc4c0       ??0UnDecorator@@QEAA@PEADPEBDHP6APEADJ@ZK@Z 00000001801bd4c0 f i libvcruntime:undname.obj
 0001:001bc550       ??0charNode@@QEAA@D@Z      00000001801bd550 f   libvcruntime:undname.obj
 0001:001bc568       ??0pDNameNode@@QEAA@PEAVDName@@@Z 00000001801bd568 f   libvcruntime:undname.obj
 0001:001bc598       ??0pairNode@@QEAA@PEAVDNameNode@@0@Z 00000001801bd598 f   libvcruntime:undname.obj
 0001:001bc5b8       ??0pcharNode@@QEAA@PEBDH@Z 00000001801bd5b8 f   libvcruntime:undname.obj
 0001:001bc664       ??2@YAPEAX_KAEAV_HeapManager@@H@Z 00000001801bd664 f i libvcruntime:undname.obj
 0001:001bc678       ??4DName@@QEAAAEAV0@AEBV0@@Z 00000001801bd678 f   libvcruntime:undname.obj
 0001:001bc688       ??4DName@@QEAAAEAV0@D@Z    00000001801bd688 f i libvcruntime:undname.obj
 0001:001bc6d0       ??4DName@@QEAAAEAV0@PEAV0@@Z 00000001801bd6d0 f   libvcruntime:undname.obj
 0001:001bc778       ??4DName@@QEAAAEAV0@PEBD@Z 00000001801bd778 f   libvcruntime:undname.obj
 0001:001bc7c4       ??4DName@@QEAAAEAV0@W4DNameStatus@@@Z 00000001801bd7c4 f   libvcruntime:undname.obj
 0001:001bc810       ??AReplicator@@QEBA?AVDName@@H@Z 00000001801bd810 f   libvcruntime:undname.obj
 0001:001bc868       ??BUnDecorator@@QEAAPEADXZ 00000001801bd868 f i libvcruntime:undname.obj
 0001:001bcafc       ??H@YA?AVDName@@DAEBV0@@Z  00000001801bdafc f i libvcruntime:undname.obj
 0001:001bcb44       ??H@YA?AVDName@@PEBDAEBV0@@Z 00000001801bdb44 f i libvcruntime:undname.obj
 0001:001bcb8c       ??H@YA?AVDName@@W4DNameStatus@@AEBV0@@Z 00000001801bdb8c f i libvcruntime:undname.obj
 0001:001bcbd4       ??HDName@@QEBA?AV0@AEBV0@@Z 00000001801bdbd4 f   libvcruntime:undname.obj
 0001:001bcc04       ??HDName@@QEBA?AV0@D@Z     00000001801bdc04 f   libvcruntime:undname.obj
 0001:001bcc34       ??HDName@@QEBA?AV0@PEAV0@@Z 00000001801bdc34 f   libvcruntime:undname.obj
 0001:001bcc64       ??HDName@@QEBA?AV0@PEBD@Z  00000001801bdc64 f   libvcruntime:undname.obj
 0001:001bcc94       ??HDName@@QEBA?AV0@W4DNameStatus@@@Z 00000001801bdc94 f   libvcruntime:undname.obj
 0001:001bccc4       ??YDName@@QEAAAEAV0@AEBV0@@Z 00000001801bdcc4 f   libvcruntime:undname.obj
 0001:001bcd14       ??YDName@@QEAAAEAV0@D@Z    00000001801bdd14 f   libvcruntime:undname.obj
 0001:001bcdbc       ??YDName@@QEAAAEAV0@PEAV0@@Z 00000001801bddbc f   libvcruntime:undname.obj
 0001:001bce78       ??YDName@@QEAAAEAV0@PEBD@Z 00000001801bde78 f   libvcruntime:undname.obj
 0001:001bcf24       ??YDName@@QEAAAEAV0@W4DNameStatus@@@Z 00000001801bdf24 f   libvcruntime:undname.obj
 0001:001bcf78       ??YReplicator@@QEAAAEAV0@AEBVDName@@@Z 00000001801bdf78 f   libvcruntime:undname.obj
 0001:001bcff0       ??_5DName@@QEAAAEAV0@AEBV0@@Z 00000001801bdff0 f   libvcruntime:undname.obj
 0001:001bd00c       ?Constructor@_HeapManager@@QEAAXP6APEAX_K@ZP6AXPEAX@Z@Z 00000001801be00c f i libvcruntime:undname.obj
 0001:001bd028       ?Destructor@_HeapManager@@QEAAXXZ 00000001801be028 f i libvcruntime:undname.obj
 0001:001bd090       ?UScore@UnDecorator@@SAPEBDW4Tokens@@@Z 00000001801be090 f   libvcruntime:undname.obj
 0001:001bd0b8       ?append@DName@@AEAAXPEAVDNameNode@@@Z 00000001801be0b8 f   libvcruntime:undname.obj
 0001:001bd134       ?composeDeclaration@UnDecorator@@CA?AVDName@@AEBV2@@Z 00000001801be134 f i libvcruntime:undname.obj
 0001:001be374       ?doAccessSpecifiers@UnDecorator@@SAHXZ 00000001801bf374 f i libvcruntime:undname.obj
 0001:001be388       ?doAllocationLanguage@UnDecorator@@SAHXZ 00000001801bf388 f i libvcruntime:undname.obj
 0001:001be39c       ?doAllocationModel@UnDecorator@@SAHXZ 00000001801bf39c f i libvcruntime:undname.obj
 0001:001be3b0       ?doEcsu@UnDecorator@@SAHXZ 00000001801bf3b0 f i libvcruntime:undname.obj
 0001:001be3c4       ?doEllipsis@UnDecorator@@SAHXZ 00000001801bf3c4 f i libvcruntime:undname.obj
 0001:001be3d8       ?doFunctionReturns@UnDecorator@@SAHXZ 00000001801bf3d8 f i libvcruntime:undname.obj
 0001:001be3ec       ?doMSKeywords@UnDecorator@@SAHXZ 00000001801bf3ec f i libvcruntime:undname.obj
 0001:001be400       ?doMemberTypes@UnDecorator@@SAHXZ 00000001801bf400 f i libvcruntime:undname.obj
 0001:001be414       ?doNameOnly@UnDecorator@@SAHXZ 00000001801bf414 f i libvcruntime:undname.obj
 0001:001be424       ?doNoIdentCharCheck@UnDecorator@@SAHXZ 00000001801bf424 f i libvcruntime:undname.obj
 0001:001be434       ?doPchar@DName@@AEAAXPEBDH@Z 00000001801bf434 f   libvcruntime:undname.obj
 0001:001be508       ?doPtr64@UnDecorator@@SAHXZ 00000001801bf508 f i libvcruntime:undname.obj
 0001:001be51c       ?doRestrictionSpec@UnDecorator@@SAHXZ 00000001801bf51c f i libvcruntime:undname.obj
 0001:001be530       ?doThisTypes@UnDecorator@@SAHXZ 00000001801bf530 f i libvcruntime:undname.obj
 0001:001be548       ?doThrowTypes@UnDecorator@@SAHXZ 00000001801bf548 f i libvcruntime:undname.obj
 0001:001be55c       ?doTypeOnly@UnDecorator@@SAHXZ 00000001801bf55c f i libvcruntime:undname.obj
 0001:001be56c       ?doUnderScore@UnDecorator@@SAHXZ 00000001801bf56c f i libvcruntime:undname.obj
 0001:001be57c       ?getArgumentList@UnDecorator@@CA?AVDName@@XZ 00000001801bf57c f   libvcruntime:undname.obj
 0001:001be710       ?getArgumentTypes@UnDecorator@@CA?AVDName@@XZ 00000001801bf710 f   libvcruntime:undname.obj
 0001:001be848       ?getArrayType@UnDecorator@@CA?AVDName@@AEBV2@@Z 00000001801bf848 f i libvcruntime:undname.obj
 0001:001beb14       ?getBasedType@UnDecorator@@CA?AVDName@@XZ 00000001801bfb14 f   libvcruntime:undname.obj
 0001:001bec00       ?getBasicDataType@UnDecorator@@CA?AVDName@@AEBV2@@Z 00000001801bfc00 f   libvcruntime:undname.obj
 0001:001bf154       ?getCallIndex@UnDecorator@@CA?AVDName@@XZ 00000001801c0154 f i libvcruntime:undname.obj
 0001:001bf174       ?getCallingConvention@UnDecorator@@CA?AVDName@@XZ 00000001801c0174 f   libvcruntime:undname.obj
 0001:001bf2b4       ?getDataIndirectType@UnDecorator@@CA?AVDName@@AEBV2@PEBD0H@Z 00000001801c02b4 f   libvcruntime:undname.obj
 0001:001bfbb8       ?getDataIndirectType@UnDecorator@@CA?AVDName@@XZ 00000001801c0bb8 f i libvcruntime:undname.obj
 0001:001bfc10       ?getDataType@UnDecorator@@CA?AVDName@@PEAV2@@Z 00000001801c0c10 f   libvcruntime:undname.obj
 0001:001bfd2c       ?getDecoratedName@UnDecorator@@CA?AVDName@@XZ 00000001801c0d2c f   libvcruntime:undname.obj
 0001:001c003c       ?getDimension@UnDecorator@@CA?AVDName@@_N@Z 00000001801c103c f   libvcruntime:undname.obj
 0001:001c01f0       ?getDispatchTarget@UnDecorator@@CA?AVDName@@XZ 00000001801c11f0 f   libvcruntime:undname.obj
 0001:001c026c       ?getDisplacement@UnDecorator@@CA?AVDName@@XZ 00000001801c126c f i libvcruntime:undname.obj
 0001:001c028c       ?getECSUDataType@UnDecorator@@CA?AVDName@@XZ 00000001801c128c f   libvcruntime:undname.obj
 0001:001c0448       ?getECSUName@UnDecorator@@CA?AVDName@@XZ 00000001801c1448 f i libvcruntime:undname.obj
 0001:001c0464       ?getEnumType@UnDecorator@@CA?AVDName@@XZ 00000001801c1464 f i libvcruntime:undname.obj
 0001:001c0584       ?getExtendedDataIndirectType@UnDecorator@@CA?AVDName@@AEAPEBDAEA_NH@Z 00000001801c1584 f   libvcruntime:undname.obj
 0001:001c085c       ?getExternalDataType@UnDecorator@@CA?AVDName@@AEBV2@@Z 00000001801c185c f i libvcruntime:undname.obj
 0001:001c0964       ?getFunctionIndirectType@UnDecorator@@CA?AVDName@@AEBV2@@Z 00000001801c1964 f   libvcruntime:undname.obj
 0001:001c0fcc       ?getGuardNumber@UnDecorator@@CA?AVDName@@XZ 00000001801c1fcc f i libvcruntime:undname.obj
 0001:001c0fec       ?getLastChar@DName@@QEBADXZ 00000001801c1fec f i libvcruntime:undname.obj
 0001:001c1030       ?getLastChar@DNameStatusNode@@UEBADXZ 00000001801c2030 f i libvcruntime:undname.obj
 0001:001c1040       ?getLastChar@charNode@@UEBADXZ 00000001801c2040 f i libvcruntime:undname.obj
 0001:001c1044       ?getLastChar@pDNameNode@@UEBADXZ 00000001801c2044 f i libvcruntime:undname.obj
 0001:001c1090       ?getLastChar@pairNode@@UEBADXZ 00000001801c2090 f i libvcruntime:undname.obj
 0001:001c10fc       ?getLastChar@pcharNode@@UEBADXZ 00000001801c20fc f i libvcruntime:undname.obj
 0001:001c1118       ?getLexicalFrame@UnDecorator@@CA?AVDName@@XZ 00000001801c2118 f i libvcruntime:undname.obj
 0001:001c1190       ?getMemory@_HeapManager@@QEAAPEAX_KH@Z 00000001801c2190 f   libvcruntime:undname.obj
 0001:001c127c       ?getNumberOfDimensions@UnDecorator@@CAHXZ 00000001801c227c f   libvcruntime:undname.obj
 0001:001c130c       ?getOperatorName@UnDecorator@@CA?AVDName@@_NPEA_N@Z 00000001801c230c f i libvcruntime:undname.obj
 0001:001c1c34       ?getPointerType@UnDecorator@@CA?AVDName@@AEBV2@0@Z 00000001801c2c34 f i libvcruntime:undname.obj
 0001:001c1c5c       ?getPointerTypeArray@UnDecorator@@CA?AVDName@@AEBV2@0@Z 00000001801c2c5c f i libvcruntime:undname.obj
 0001:001c1c84       ?getPrimaryDataType@UnDecorator@@CA?AVDName@@AEBV2@@Z 00000001801c2c84 f   libvcruntime:undname.obj
 0001:001c1f78       ?getPtrRefDataType@UnDecorator@@CA?AVDName@@AEBV2@H@Z 00000001801c2f78 f   libvcruntime:undname.obj
 0001:001c20e8       ?getPtrRefType@UnDecorator@@CA?AVDName@@AEBV2@0PEBD@Z 00000001801c30e8 f   libvcruntime:undname.obj
 0001:001c2268       ?getReferenceType@UnDecorator@@CA?AVDName@@AEBV2@0PEBD@Z 00000001801c3268 f i libvcruntime:undname.obj
 0001:001c2284       ?getRestrictionSpec@UnDecorator@@CA?AVDName@@XZ 00000001801c3284 f   libvcruntime:undname.obj
 0001:001c23f8       ?getReturnType@UnDecorator@@CA?AVDName@@PEAV2@@Z 00000001801c33f8 f   libvcruntime:undname.obj
 0001:001c243c       ?getScope@UnDecorator@@CA?AVDName@@XZ 00000001801c343c f   libvcruntime:undname.obj
 0001:001c2a10       ?getScopedName@UnDecorator@@CA?AVDName@@XZ 00000001801c3a10 f   libvcruntime:undname.obj
 0001:001c2b70       ?getSignedDimension@UnDecorator@@CA?AVDName@@XZ 00000001801c3b70 f   libvcruntime:undname.obj
 0001:001c2c0c       ?getStorageConvention@UnDecorator@@CA?AVDName@@XZ 00000001801c3c0c f i libvcruntime:undname.obj
 0001:001c2c64       ?getString@DName@@QEBAPEADPEAD0@Z 00000001801c3c64 f i libvcruntime:undname.obj
 0001:001c2cd0       ?getString@DName@@QEBAPEADPEADH@Z 00000001801c3cd0 f i libvcruntime:undname.obj
 0001:001c2dac       ?getString@DNameStatusNode@@UEBAPEADPEAD0@Z 00000001801c3dac f i libvcruntime:undname.obj
 0001:001c2e04       ?getString@charNode@@UEBAPEADPEAD0@Z 00000001801c3e04 f i libvcruntime:undname.obj
 0001:001c2e1c       ?getString@pDNameNode@@UEBAPEADPEAD0@Z 00000001801c3e1c f i libvcruntime:undname.obj
 0001:001c2e94       ?getString@pairNode@@UEBAPEADPEAD0@Z 00000001801c3e94 f i libvcruntime:undname.obj
 0001:001c2f38       ?getString@pcharNode@@UEBAPEADPEAD0@Z 00000001801c3f38 f i libvcruntime:undname.obj
 0001:001c2f7c       ?getStringEncoding@UnDecorator@@CA?AVDName@@PEADH@Z 00000001801c3f7c f   libvcruntime:undname.obj
 0001:001c306c       ?getStringHelper@@YAPEADPEAD00H@Z 00000001801c406c f i libvcruntime:undname.obj
 0001:001c30a4       ?getSymbolName@UnDecorator@@CA?AVDName@@XZ 00000001801c40a4 f i libvcruntime:undname.obj
 0001:001c3104       ?getTemplateArgumentList@UnDecorator@@CA?AVDName@@XZ 00000001801c4104 f   libvcruntime:undname.obj
 0001:001c3488       ?getTemplateConstant@UnDecorator@@CA?AVDName@@XZ 00000001801c4488 f   libvcruntime:undname.obj
 0001:001c3918       ?getTemplateName@UnDecorator@@CA?AVDName@@_N@Z 00000001801c4918 f   libvcruntime:undname.obj
 0001:001c3b68       ?getThisType@UnDecorator@@CA?AVDName@@XZ 00000001801c4b68 f i libvcruntime:undname.obj
 0001:001c3bc0       ?getThrowTypes@UnDecorator@@CA?AVDName@@XZ 00000001801c4bc0 f   libvcruntime:undname.obj
 0001:001c3cb4       ?getTypeEncoding@UnDecorator@@CAHXZ 00000001801c4cb4 f i libvcruntime:undname.obj
 0001:001c40f0       ?getVCallThunkType@UnDecorator@@CA?AVDName@@XZ 00000001801c50f0 f i libvcruntime:undname.obj
 0001:001c4150       ?getVbTableType@UnDecorator@@CA?AVDName@@AEBV2@@Z 00000001801c5150 f i libvcruntime:undname.obj
 0001:001c416c       ?getVdispMapType@UnDecorator@@CA?AVDName@@AEBV2@@Z 00000001801c516c f i libvcruntime:undname.obj
 0001:001c41dc       ?getVfTableType@UnDecorator@@CA?AVDName@@AEBV2@@Z 00000001801c51dc f i libvcruntime:undname.obj
 0001:001c441c       ?getZName@UnDecorator@@CA?AVDName@@_N0@Z 00000001801c541c f   libvcruntime:undname.obj
 0001:001c4760       ?haveTemplateParameters@UnDecorator@@SAHXZ 00000001801c5760 f i libvcruntime:undname.obj
 0001:001c4770       ?isArray@DName@@QEBAHXZ    00000001801c5770 f i libvcruntime:undname.obj
 0001:001c477c       ?isComArray@DName@@QEBAHXZ 00000001801c577c f i libvcruntime:undname.obj
 0001:001c4788       ?isEmpty@DName@@QEBAHXZ    00000001801c5788 f i libvcruntime:undname.obj
 0001:001c4794       ?isFull@Replicator@@QEBAHXZ 00000001801c5794 f i libvcruntime:undname.obj
 0001:001c47a0       ?isNoTE@DName@@QEBAHXZ     00000001801c57a0 f i libvcruntime:undname.obj
 0001:001c47ac       ?isPinPtr@DName@@QEBAHXZ   00000001801c57ac f i libvcruntime:undname.obj
 0001:001c47b8       ?isPtrRef@DName@@QEBAHXZ   00000001801c57b8 f i libvcruntime:undname.obj
 0001:001c47c4       ?isUDC@DName@@QEBAHXZ      00000001801c57c4 f i libvcruntime:undname.obj
 0001:001c47e0       ?isUDTThunk@DName@@QEBAHXZ 00000001801c57e0 f i libvcruntime:undname.obj
 0001:001c47fc       ?isVCallThunk@DName@@QEBAHXZ 00000001801c57fc f i libvcruntime:undname.obj
 0001:001c4808       ?isValid@DName@@QEBAHXZ    00000001801c5808 f i libvcruntime:undname.obj
 0001:001c4814       ?length@DName@@QEBAHXZ     00000001801c5814 f i libvcruntime:undname.obj
 0001:001c4858       ?length@DNameStatusNode@@UEBAHXZ 00000001801c5858 f i libvcruntime:undname.obj
 0001:001c485c       ?length@charNode@@UEBAHXZ  00000001801c585c f i libvcruntime:undname.obj
 0001:001c4864       ?length@pDNameNode@@UEBAHXZ 00000001801c5864 f i libvcruntime:undname.obj
 0001:001c48b0       ?length@pairNode@@UEBAHXZ  00000001801c58b0 f i libvcruntime:undname.obj
 0001:001c4934       ?length@pcharNode@@UEBAHXZ 00000001801c5934 f i libvcruntime:undname.obj
 0001:001c4938       ?make@DNameStatusNode@@SAPEAV1@W4DNameStatus@@@Z 00000001801c5938 f i libvcruntime:undname.obj
 0001:001c49e4       ?setIsArray@DName@@QEAAXXZ 00000001801c59e4 f i libvcruntime:undname.obj
 0001:001c49ec       ?setIsComArray@DName@@QEAAXXZ 00000001801c59ec f i libvcruntime:undname.obj
 0001:001c49f4       ?setIsNoTE@DName@@QEAAXXZ  00000001801c59f4 f i libvcruntime:undname.obj
 0001:001c49fc       ?setIsPinPtr@DName@@QEAAXXZ 00000001801c59fc f i libvcruntime:undname.obj
 0001:001c4a04       ?setIsUDC@DName@@QEAAXXZ   00000001801c5a04 f i libvcruntime:undname.obj
 0001:001c4a14       ?setIsVCallThunk@DName@@QEAAXXZ 00000001801c5a14 f i libvcruntime:undname.obj
 0001:001c4a1c       ?setPtrRef@DName@@QEAAAEAV1@XZ 00000001801c5a1c f i libvcruntime:undname.obj
 0001:001c4a28       ?status@DName@@QEBA?AW4DNameStatus@@XZ 00000001801c5a28 f i libvcruntime:undname.obj
 0001:001c4aa0       __unDName                  00000001801c5aa0 f   libvcruntime:undname.obj
 0001:001c4bd4       __unDNameEx                00000001801c5bd4 f   libvcruntime:undname.obj
 0001:001c4d10       _vsprintf_s_l              00000001801c5d10 f i libvcruntime:undname.obj
 0001:001c4d8c       sprintf_s                  00000001801c5d8c f i libvcruntime:undname.obj
 0001:001c4e10       _local_unwind              00000001801c5e10 f   libvcruntime:_jmpuwind_.obj
 0001:001c4e40       _NLG_Notify                00000001801c5e40 f   libvcruntime:_jmpuwind_.obj
 0001:001c4e60       __NLG_Dispatch2            00000001801c5e60 f   libvcruntime:_jmpuwind_.obj
 0001:001c4e70       __NLG_Return2              00000001801c5e70 f   libvcruntime:_jmpuwind_.obj
 0001:001c4e90       __except_validate_context_record 00000001801c5e90 f   libvcruntime:jbcxrval.obj
 0001:001c4e94       __except_validate_jump_buffer 00000001801c5e94 f   libvcruntime:jbcxrval.obj
 0001:001c4e98       ??$?RU__vcrt_ptd@@@__crt_internal_free_policy@@QEBAXQEBU__vcrt_ptd@@@Z 00000001801c5e98 f i libvcruntime:per_thread_data.obj
 0001:001c4ea4       ??0?$__crt_unique_heap_ptr@U__vcrt_ptd@@U__crt_internal_free_policy@@@@QEAA@QEAU__vcrt_ptd@@@Z 00000001801c5ea4 f i libvcruntime:per_thread_data.obj
 0001:001c4ecc       ??1?$__crt_unique_heap_ptr@U__vcrt_ptd@@U__crt_internal_free_policy@@@@QEAA@XZ 00000001801c5ecc f i libvcruntime:per_thread_data.obj
 0001:001c4efc       ??B?$__crt_unique_heap_ptr@U__vcrt_ptd@@U__crt_internal_free_policy@@@@QEBA_NXZ 00000001801c5efc f i libvcruntime:per_thread_data.obj
 0001:001c4f08       ?detach@?$__crt_unique_heap_ptr@U__vcrt_ptd@@U__crt_internal_free_policy@@@@QEAAPEAU__vcrt_ptd@@XZ 00000001801c5f08 f i libvcruntime:per_thread_data.obj
 0001:001c4f14       ?get@?$__crt_unique_heap_ptr@U__vcrt_ptd@@U__crt_internal_free_policy@@@@QEBAPEAU__vcrt_ptd@@XZ 00000001801c5f14 f i libvcruntime:per_thread_data.obj
 0001:001c4f18       ?is_valid@?$__crt_unique_heap_ptr@U__vcrt_ptd@@U__crt_internal_free_policy@@@@QEBA_NXZ 00000001801c5f18 f i libvcruntime:per_thread_data.obj
 0001:001c4f24       ?release@?$__crt_unique_heap_ptr@U__vcrt_ptd@@U__crt_internal_free_policy@@@@QEAAXXZ 00000001801c5f24 f i libvcruntime:per_thread_data.obj
 0001:001c4f6c       __vcrt_freefls             00000001801c5f6c f   libvcruntime:per_thread_data.obj
 0001:001c4f94       __vcrt_freeptd             00000001801c5f94 f   libvcruntime:per_thread_data.obj
 0001:001c4ff4       __vcrt_getptd              00000001801c5ff4 f   libvcruntime:per_thread_data.obj
 0001:001c5014       __vcrt_getptd_noexit       00000001801c6014 f   libvcruntime:per_thread_data.obj
 0001:001c50fc       __vcrt_initialize_ptd      00000001801c60fc f   libvcruntime:per_thread_data.obj
 0001:001c514c       __vcrt_uninitialize_ptd    00000001801c614c f   libvcruntime:per_thread_data.obj
 0001:001c5178       __vcrt_initialize_locks    00000001801c6178 f   libvcruntime:locks.obj
 0001:001c51d0       __vcrt_lock                00000001801c61d0 f   libvcruntime:locks.obj
 0001:001c51f0       __vcrt_uninitialize_locks  00000001801c61f0 f   libvcruntime:locks.obj
 0001:001c5234       __vcrt_unlock              00000001801c6234 f   libvcruntime:locks.obj
 0001:001c5254       ??$?BX@__crt_fast_encoded_nullptr_t@@QEBAPEAXXZ 00000001801c6254 f i libvcruntime:winapi_downlevel.obj
 0001:001c5278       ??$__crt_fast_decode_pointer@PEAX@@YAPEAXQEAX@Z 00000001801c6278 f i libvcruntime:winapi_downlevel.obj
 0001:001c5294       ??$__crt_fast_encode_pointer@PEAX@@YAPEAXQEAX@Z 00000001801c6294 f i libvcruntime:winapi_downlevel.obj
 0001:001c52bc       ??$__crt_interlocked_compare_exchange_pointer@UHINSTANCE__@@$$T$$T@@YAPEAUHINSTANCE__@@PEDSEAU0@$$T1@Z 00000001801c62bc f i libvcruntime:winapi_downlevel.obj
 0001:001c52c8       ??$__crt_interlocked_compare_exchange_pointer@X$$T$$T@@YAPEAXPEDSEAX$$T1@Z 00000001801c62c8 f i libvcruntime:winapi_downlevel.obj
 0001:001c52d4       ??$__crt_interlocked_exchange_pointer@UHINSTANCE__@@PEAU1@@@YAPEAUHINSTANCE__@@PEDSEAU0@QEAU0@@Z 00000001801c62d4 f i libvcruntime:winapi_downlevel.obj
 0001:001c52dc       ??$__crt_interlocked_exchange_pointer@UHINSTANCE__@@PEAX@@YAPEAUHINSTANCE__@@PEDSEAU0@QEAX@Z 00000001801c62dc f i libvcruntime:winapi_downlevel.obj
 0001:001c52e4       ??$__crt_interlocked_exchange_pointer@XPEAX@@YAPEAXPEDSEAXQEAX@Z 00000001801c62e4 f i libvcruntime:winapi_downlevel.obj
 0001:001c52ec       ??$__crt_interlocked_read_pointer@UHINSTANCE__@@@@YAPEAUHINSTANCE__@@PEDSEAU0@@Z 00000001801c62ec f i libvcruntime:winapi_downlevel.obj
 0001:001c52f8       ??$__crt_interlocked_read_pointer@X@@YAPEAXPEDSEAX@Z 00000001801c62f8 f i libvcruntime:winapi_downlevel.obj
 0001:001c5a80       __vcrt_EventRegister       00000001801c6a80 f   libvcruntime:winapi_downlevel.obj
 0001:001c5b24       __vcrt_EventSetInformation 00000001801c6b24 f   libvcruntime:winapi_downlevel.obj
 0001:001c5bc8       __vcrt_EventUnregister     00000001801c6bc8 f   libvcruntime:winapi_downlevel.obj
 0001:001c5c30       __vcrt_EventWriteTransfer  00000001801c6c30 f   libvcruntime:winapi_downlevel.obj
 0001:001c5cec       __vcrt_FlsAlloc            00000001801c6cec f   libvcruntime:winapi_downlevel.obj
 0001:001c5d58       __vcrt_FlsFree             00000001801c6d58 f   libvcruntime:winapi_downlevel.obj
 0001:001c5dc4       __vcrt_FlsGetValue         00000001801c6dc4 f   libvcruntime:winapi_downlevel.obj
 0001:001c5e30       __vcrt_FlsSetValue         00000001801c6e30 f   libvcruntime:winapi_downlevel.obj
 0001:001c5eb0       __vcrt_InitializeCriticalSectionEx 00000001801c6eb0 f   libvcruntime:winapi_downlevel.obj
 0001:001c5f44       __vcrt_initialize_winapi_thunks 00000001801c6f44 f   libvcruntime:winapi_downlevel.obj
 0001:001c5fa0       __vcrt_uninitialize_winapi_thunks 00000001801c6fa0 f   libvcruntime:winapi_downlevel.obj
 0001:001c5ff0       cosf                       00000001801c6ff0 f   libucrt:cosf.obj
 0001:001c6630       sinf                       00000001801c7630 f   libucrt:sinf.obj
 0001:001c6f00       strcmp                     00000001801c7f00 f   libucrt:strcmp.obj
 0001:001c6f84       _fpclass                   00000001801c7f84 f   libucrt:ieeemisc.obj
 0001:001c705c       _fpclassf                  00000001801c805c f   libucrt:ieeemisc.obj
 0001:001c70f0       _isnan                     00000001801c80f0 f   libucrt:ieeemisc.obj
 0001:001c7128       _isnanf                    00000001801c8128 f   libucrt:ieeemisc.obj
 0001:001c7148       _nextafter                 00000001801c8148 f   libucrt:ieeemisc.obj
 0001:001c7150       _nextafterf                00000001801c8150 f   libucrt:ieeemisc.obj
 0001:001c7158       _scalb                     00000001801c8158 f   libucrt:ieeemisc.obj
 0001:001c7360       _scalbf                    00000001801c8360 f   libucrt:ieeemisc.obj
 0001:001c7564       free                       00000001801c8564 f   libucrt:free.obj
 0001:001c756c       _initterm                  00000001801c856c f   libucrt:initterm.obj
 0001:001c7600       _initterm_e                00000001801c8600 f   libucrt:initterm.obj
 0001:001c7684       _seh_filter_dll            00000001801c8684 f   libucrt:exception_filter.obj
 0001:001c769c       _seh_filter_exe            00000001801c869c f   libucrt:exception_filter.obj
 0001:001c788c       ??$?B$$A6AXPEAXK0@Z@__crt_fast_encoded_nullptr_t@@QEBAP6AXPEAXK0@ZXZ 00000001801c888c f i libucrt:exit.obj
 0001:001c78b0       ??$__crt_fast_decode_pointer@P6AXPEAXK0@Z@@YAP6AXPEAXK0@ZQ6AX0K0@Z@Z 00000001801c88b0 f i libucrt:exit.obj
 0001:001c78cc       ??$__crt_fast_encode_pointer@P6AXPEAXK0@Z@@YAP6AXPEAXK0@ZQ6AX0K0@Z@Z 00000001801c88cc f i libucrt:exit.obj
 0001:001c78f4       ??$__crt_get_proc_address@P6AXI@Z@@YAP6AXI@ZQEAUHINSTANCE__@@QEBD@Z 00000001801c88f4 f i libucrt:exit.obj
 0001:001c78fc       ??$__crt_interlocked_read@J@@YAJPEDJ@Z 00000001801c88fc f i libucrt:exit.obj
 0001:001c7900       ??0?$__crt_unique_handle_t@U__crt_hmodule_traits@@@@QEAA@QEAUHINSTANCE__@@@Z 00000001801c8900 f i libucrt:exit.obj
 0001:001c7908       ??1?$__crt_unique_handle_t@U__crt_hmodule_traits@@@@QEAA@XZ 00000001801c8908 f i libucrt:exit.obj
 0001:001c7934       ?__crt_interlocked_read_32@@YAHPEDH@Z 00000001801c8934 f i libucrt:exit.obj
 0001:001c7948       ?close@?$__crt_unique_handle_t@U__crt_hmodule_traits@@@@QEAAXXZ 00000001801c8948 f i libucrt:exit.obj
 0001:001c7974       ?close@__crt_hmodule_traits@@SA_NPEAUHINSTANCE__@@@Z 00000001801c8974 f i libucrt:exit.obj
 0001:001c7bb4       ?get@?$__crt_unique_handle_t@U__crt_hmodule_traits@@@@QEBAPEAUHINSTANCE__@@XZ 00000001801c8bb4 f i libucrt:exit.obj
 0001:001c7bb8       ?get_address_of@?$__crt_unique_handle_t@U__crt_hmodule_traits@@@@QEAAPEAPEAUHINSTANCE__@@XZ 00000001801c8bb8 f i libucrt:exit.obj
 0001:001c7bbc       ?get_invalid_value@__crt_hmodule_traits@@SAPEAUHINSTANCE__@@XZ 00000001801c8bbc f i libucrt:exit.obj
 0001:001c7ce8       _Exit                      00000001801c8ce8 f   libucrt:exit.obj
 0001:001c7cf8       __acrt_initialize_thread_local_exit_callback 00000001801c8cf8 f   libucrt:exit.obj
 0001:001c7d04       _c_exit                    00000001801c8d04 f   libucrt:exit.obj
 0001:001c7d18       _cexit                     00000001801c8d18 f   libucrt:exit.obj
 0001:001c7d28       _exit                      00000001801c8d28 f   libucrt:exit.obj
 0001:001c7d38       _is_c_termination_complete 00000001801c8d38 f   libucrt:exit.obj
 0001:001c7d40       _register_thread_local_exe_atexit_callback 00000001801c8d40 f   libucrt:exit.obj
 0001:001c7d98       exit                       00000001801c8d98 f   libucrt:exit.obj
 0001:001c7da4       quick_exit                 00000001801c8da4 f   libucrt:exit.obj
 0001:001c7db4       ??$?RE@__crt_internal_free_policy@@QEBAXQEBE@Z 00000001801c8db4 f i libucrt:argv_parsing.obj
 0001:001c7dc0       ??$?RPEAD@__crt_internal_free_policy@@QEBAXQEBQEAD@Z 00000001801c8dc0 f i libucrt:argv_parsing.obj
 0001:001c7dcc       ??$?RPEA_W@__crt_internal_free_policy@@QEBAXQEBQEA_W@Z 00000001801c8dcc f i libucrt:argv_parsing.obj
 0001:001c8160       ??$get_module_file_name@$$TAEAY0BAF@DH@?$__crt_char_traits@D@@SAK$$QEA$$TAEAY0BAF@D$$QEAH@Z 00000001801c9160 f i libucrt:argv_parsing.obj
 0001:001c8170       ??$get_module_file_name@$$TAEAY0BAF@_WH@?$__crt_char_traits@_W@@SAK$$QEA$$TAEAY0BAF@_W$$QEAH@Z 00000001801c9170 f i libucrt:argv_parsing.obj
 0001:001c85a8       ??$set_program_name@PEAD@?$__crt_char_traits@D@@SAX$$QEAPEAD@Z 00000001801c95a8 f i libucrt:argv_parsing.obj
 0001:001c85b8       ??$set_program_name@PEA_W@?$__crt_char_traits@_W@@SAX$$QEAPEA_W@Z 00000001801c95b8 f i libucrt:argv_parsing.obj
 0001:001c85d8       ??0?$__crt_unique_heap_ptr@EU__crt_internal_free_policy@@@@QEAA@QEAE@Z 00000001801c95d8 f i libucrt:argv_parsing.obj
 0001:001c85e0       ??0?$__crt_unique_heap_ptr@PEADU__crt_internal_free_policy@@@@QEAA@QEAPEAD@Z 00000001801c95e0 f i libucrt:argv_parsing.obj
 0001:001c85e8       ??0?$__crt_unique_heap_ptr@PEA_WU__crt_internal_free_policy@@@@QEAA@QEAPEA_W@Z 00000001801c95e8 f i libucrt:argv_parsing.obj
 0001:001c85f0       ??1?$__crt_unique_heap_ptr@EU__crt_internal_free_policy@@@@QEAA@XZ 00000001801c95f0 f i libucrt:argv_parsing.obj
 0001:001c8614       ??1?$__crt_unique_heap_ptr@PEADU__crt_internal_free_policy@@@@QEAA@XZ 00000001801c9614 f i libucrt:argv_parsing.obj
 0001:001c8638       ??1?$__crt_unique_heap_ptr@PEA_WU__crt_internal_free_policy@@@@QEAA@XZ 00000001801c9638 f i libucrt:argv_parsing.obj
 0001:001c865c       ??B?$__crt_unique_heap_ptr@EU__crt_internal_free_policy@@@@QEBA_NXZ 00000001801c965c f i libucrt:argv_parsing.obj
 0001:001c86b0       ?detach@?$__crt_unique_heap_ptr@EU__crt_internal_free_policy@@@@QEAAPEAEXZ 00000001801c96b0 f i libucrt:argv_parsing.obj
 0001:001c86bc       ?detach@?$__crt_unique_heap_ptr@PEADU__crt_internal_free_policy@@@@QEAAPEAPEADXZ 00000001801c96bc f i libucrt:argv_parsing.obj
 0001:001c86c8       ?detach@?$__crt_unique_heap_ptr@PEA_WU__crt_internal_free_policy@@@@QEAAPEAPEA_WXZ 00000001801c96c8 f i libucrt:argv_parsing.obj
 0001:001c86f0       ?get@?$__crt_unique_heap_ptr@EU__crt_internal_free_policy@@@@QEBAPEAEXZ 00000001801c96f0 f i libucrt:argv_parsing.obj
 0001:001c86f4       ?get@?$__crt_unique_heap_ptr@PEADU__crt_internal_free_policy@@@@QEBAPEAPEADXZ 00000001801c96f4 f i libucrt:argv_parsing.obj
 0001:001c86f8       ?get@?$__crt_unique_heap_ptr@PEA_WU__crt_internal_free_policy@@@@QEBAPEAPEA_WXZ 00000001801c96f8 f i libucrt:argv_parsing.obj
 0001:001c86fc       ?get_address_of@?$__crt_unique_heap_ptr@PEADU__crt_internal_free_policy@@@@QEAAPEAPEAPEADXZ 00000001801c96fc f i libucrt:argv_parsing.obj
 0001:001c8700       ?get_address_of@?$__crt_unique_heap_ptr@PEA_WU__crt_internal_free_policy@@@@QEAAPEAPEAPEA_WXZ 00000001801c9700 f i libucrt:argv_parsing.obj
 0001:001c8734       ?is_valid@?$__crt_unique_heap_ptr@EU__crt_internal_free_policy@@@@QEBA_NXZ 00000001801c9734 f i libucrt:argv_parsing.obj
 0001:001c8740       ?release@?$__crt_unique_heap_ptr@EU__crt_internal_free_policy@@@@QEAAXXZ 00000001801c9740 f i libucrt:argv_parsing.obj
 0001:001c8764       ?release@?$__crt_unique_heap_ptr@PEADU__crt_internal_free_policy@@@@QEAAXXZ 00000001801c9764 f i libucrt:argv_parsing.obj
 0001:001c8788       ?release@?$__crt_unique_heap_ptr@PEA_WU__crt_internal_free_policy@@@@QEAAXXZ 00000001801c9788 f i libucrt:argv_parsing.obj
 0001:001c87cc       __acrt_allocate_buffer_for_argv 00000001801c97cc f   libucrt:argv_parsing.obj
 0001:001c8848       _configure_narrow_argv     00000001801c9848 f   libucrt:argv_parsing.obj
 0001:001c8a1c       _configure_wide_argv       00000001801c9a1c f   libucrt:argv_parsing.obj
 0001:001c8bec       _set_pgmptr                00000001801c9bec f i libucrt:argv_parsing.obj
 0001:001c8bf8       _set_wpgmptr               00000001801c9bf8 f i libucrt:argv_parsing.obj
 0001:001c8c04       ??$?R_W@__crt_internal_free_policy@@QEBAXQEB_W@Z 00000001801c9c04 f i libucrt:environment_initialization.obj
 0001:001c91b0       ??$get_environment_from_os@$$$V@?$__crt_char_traits@D@@SAPEADXZ 00000001801ca1b0 f i libucrt:environment_initialization.obj
 0001:001c91b8       ??$get_environment_from_os@$$$V@?$__crt_char_traits@_W@@SAPEA_WXZ 00000001801ca1b8 f i libucrt:environment_initialization.obj
 0001:001c93a4       ??$set_variable_in_environment_nolock@PEADH@?$__crt_char_traits@D@@SAH$$QEAPEAD$$QEAH@Z 00000001801ca3a4 f i libucrt:environment_initialization.obj
 0001:001c93b0       ??$set_variable_in_environment_nolock@PEA_WH@?$__crt_char_traits@_W@@SAH$$QEAPEA_W$$QEAH@Z 00000001801ca3b0 f i libucrt:environment_initialization.obj
 0001:001c93bc       ??$tcscpy_s@PEADAEB_KAEAPEAD@?$__crt_char_traits@D@@SAH$$QEAPEADAEB_KAEAPEAD@Z 00000001801ca3bc f i libucrt:environment_initialization.obj
 0001:001c93d0       ??$tcscpy_s@PEA_WAEB_KAEAPEA_W@?$__crt_char_traits@_W@@SAH$$QEAPEA_WAEB_KAEAPEA_W@Z 00000001801ca3d0 f i libucrt:environment_initialization.obj
 0001:001c93e4       ??$tcslen@AEAPEAD@?$__crt_char_traits@D@@SA_KAEAPEAD@Z 00000001801ca3e4 f i libucrt:environment_initialization.obj
 0001:001c93fc       ??$tcslen@AEAPEA_W@?$__crt_char_traits@_W@@SA_KAEAPEA_W@Z 00000001801ca3fc f i libucrt:environment_initialization.obj
 0001:001c9414       ??$uninitialize@A6AXAEAPEAPEAD@Z@?$dual_state_global@PEAPEAD@__crt_state_management@@QEAAXA6AXAEAPEAPEAD@Z@Z 00000001801ca414 f i libucrt:environment_initialization.obj
 0001:001c946c       ??$uninitialize@A6AXAEAPEAPEA_W@Z@?$dual_state_global@PEAPEA_W@__crt_state_management@@QEAAXA6AXAEAPEAPEA_W@Z@Z 00000001801ca46c f i libucrt:environment_initialization.obj
 0001:001c9504       ??0?$__crt_unique_heap_ptr@_WU__crt_internal_free_policy@@@@QEAA@QEA_W@Z 00000001801ca504 f i libucrt:environment_initialization.obj
 0001:001c950c       ??1?$__crt_unique_heap_ptr@_WU__crt_internal_free_policy@@@@QEAA@XZ 00000001801ca50c f i libucrt:environment_initialization.obj
 0001:001c9530       ??B?$__crt_unique_heap_ptr@PEADU__crt_internal_free_policy@@@@QEBA_NXZ 00000001801ca530 f i libucrt:environment_initialization.obj
 0001:001c953c       ??B?$__crt_unique_heap_ptr@PEA_WU__crt_internal_free_policy@@@@QEBA_NXZ 00000001801ca53c f i libucrt:environment_initialization.obj
 0001:001c9548       ??B?$__crt_unique_heap_ptr@_WU__crt_internal_free_policy@@@@QEBA_NXZ 00000001801ca548 f i libucrt:environment_initialization.obj
 0001:001c9554       ?__crt_compute_required_transform_buffer_count@@YA_KIQEBD@Z 00000001801ca554 f i libucrt:environment_initialization.obj
 0001:001c9584       ?__crt_compute_required_transform_buffer_count@@YA_KIQEB_W@Z 00000001801ca584 f i libucrt:environment_initialization.obj
 0001:001c95c0       ?__crt_transform_string@@YA_KIQEBDQEA_W_K@Z 00000001801ca5c0 f i libucrt:environment_initialization.obj
 0001:001c95f0       ?__crt_transform_string@@YA_KIQEB_WQEAD_K@Z 00000001801ca5f0 f i libucrt:environment_initialization.obj
 0001:001c962c       ?detach@?$__crt_unique_heap_ptr@DU__crt_internal_free_policy@@@@QEAAPEADXZ 00000001801ca62c f i libucrt:environment_initialization.obj
 0001:001c9638       ?detach@?$__crt_unique_heap_ptr@_WU__crt_internal_free_policy@@@@QEAAPEA_WXZ 00000001801ca638 f i libucrt:environment_initialization.obj
 0001:001c9644       ?get@?$__crt_unique_heap_ptr@_WU__crt_internal_free_policy@@@@QEBAPEA_WXZ 00000001801ca644 f i libucrt:environment_initialization.obj
 0001:001c9648       ?get_current_state_index@__crt_state_management@@YA_KXZ 00000001801ca648 f i libucrt:environment_initialization.obj
 0001:001c9694       ?initialize@?$dual_state_global@PEAPEAD@__crt_state_management@@QEAAXQEAPEAD@Z 00000001801ca694 f i libucrt:environment_initialization.obj
 0001:001c96d4       ?initialize@?$dual_state_global@PEAPEA_W@__crt_state_management@@QEAAXQEAPEA_W@Z 00000001801ca6d4 f i libucrt:environment_initialization.obj
 0001:001c9714       ?is_valid@?$__crt_unique_heap_ptr@PEADU__crt_internal_free_policy@@@@QEBA_NXZ 00000001801ca714 f i libucrt:environment_initialization.obj
 0001:001c9720       ?is_valid@?$__crt_unique_heap_ptr@PEA_WU__crt_internal_free_policy@@@@QEBA_NXZ 00000001801ca720 f i libucrt:environment_initialization.obj
 0001:001c972c       ?is_valid@?$__crt_unique_heap_ptr@_WU__crt_internal_free_policy@@@@QEBA_NXZ 00000001801ca72c f i libucrt:environment_initialization.obj
 0001:001c9744       ?release@?$__crt_unique_heap_ptr@_WU__crt_internal_free_policy@@@@QEAAXXZ 00000001801ca744 f i libucrt:environment_initialization.obj
 0001:001c9768       ?value@?$dual_state_global@PEAPEAD@__crt_state_management@@QEAAAEAPEAPEADXZ 00000001801ca768 f i libucrt:environment_initialization.obj
 0001:001c976c       ?value@?$dual_state_global@PEAPEA_W@__crt_state_management@@QEAAAEAPEAPEA_WXZ 00000001801ca76c f i libucrt:environment_initialization.obj
 0001:001c9770       __dcrt_get_or_create_narrow_environment_nolock 00000001801ca770 f   libucrt:environment_initialization.obj
 0001:001c9778       __dcrt_get_or_create_wide_environment_nolock 00000001801ca778 f   libucrt:environment_initialization.obj
 0001:001c9780       __dcrt_uninitialize_environments_nolock 00000001801ca780 f   libucrt:environment_initialization.obj
 0001:001c97c8       __p__environ               00000001801ca7c8 f   libucrt:environment_initialization.obj
 0001:001c97d4       __p__wenviron              00000001801ca7d4 f   libucrt:environment_initialization.obj
 0001:001c97e0       _get_initial_narrow_environment 00000001801ca7e0 f   libucrt:environment_initialization.obj
 0001:001c980c       _get_initial_wide_environment 00000001801ca80c f   libucrt:environment_initialization.obj
 0001:001c9838       _initialize_narrow_environment 00000001801ca838 f   libucrt:environment_initialization.obj
 0001:001c9840       _initialize_wide_environment 00000001801ca840 f   libucrt:environment_initialization.obj
 0001:001c9848       _invoke_watson_if_error    00000001801ca848 f i libucrt:environment_initialization.obj
 0001:001c9888       ??$?BP6AXXZ@__crt_fast_encoded_nullptr_t@@QEBAPEAP6AXXZXZ 00000001801ca888 f i libucrt:onexit.obj
 0001:001c98ac       ??$?RP6AXXZ@__crt_internal_free_policy@@QEBAXQEBQ6AXXZ@Z 00000001801ca8ac f i libucrt:onexit.obj
 0001:001c98b8       ??$?RV<lambda_b8c45f8f788dd370798f47cfe8ac3a86>@@AEAV<lambda_4e60a939b0d047cfe11ddc22648dfba9>@@V<lambda_332c3edc96d0294ec56c57d38c1cdfd5>@@@?$__crt_seh_guarded_call@H@@QEAAH$$QEAV<lambda_b8c45f8f788dd370798f47cfe8ac3a86>@@AEAV<lambda_4e60a939b0d047cfe11ddc22648dfba9>@@$$QEAV<lambda_332c3edc96d0294ec56c57d38c1cdfd5>@@@Z 00000001801ca8b8 f i libucrt:onexit.obj
 0001:001c9904       ??$?RV<lambda_e24bbb7b643b32fcea6fa61b31d4c984>@@AEAV<lambda_275893d493268fdec8709772e3fcec0e>@@V<lambda_9d71df4d7cf3f480f8d633942495c3b0>@@@?$__crt_seh_guarded_call@H@@QEAAH$$QEAV<lambda_e24bbb7b643b32fcea6fa61b31d4c984>@@AEAV<lambda_275893d493268fdec8709772e3fcec0e>@@$$QEAV<lambda_9d71df4d7cf3f480f8d633942495c3b0>@@@Z 00000001801ca904 f i libucrt:onexit.obj
 0001:001c9b0c       ??$__acrt_lock_and_call@V<lambda_275893d493268fdec8709772e3fcec0e>@@@@YAHW4__acrt_lock_id@@$$QEAV<lambda_275893d493268fdec8709772e3fcec0e>@@@Z 00000001801cab0c f i libucrt:onexit.obj
 0001:001c9b3c       ??$__acrt_lock_and_call@V<lambda_4e60a939b0d047cfe11ddc22648dfba9>@@@@YAHW4__acrt_lock_id@@$$QEAV<lambda_4e60a939b0d047cfe11ddc22648dfba9>@@@Z 00000001801cab3c f i libucrt:onexit.obj
 0001:001c9b6c       ??$__crt_fast_encode_pointer@P6AHXZ@@YAP6AHXZQ6AHXZ@Z 00000001801cab6c f i libucrt:onexit.obj
 0001:001c9bdc       ??0?$__crt_unique_heap_ptr@P6AXXZU__crt_internal_free_policy@@@@QEAA@QEAP6AXXZ@Z 00000001801cabdc f i libucrt:onexit.obj
 0001:001c9be4       ??1?$__crt_unique_heap_ptr@P6AXXZU__crt_internal_free_policy@@@@QEAA@XZ 00000001801cabe4 f i libucrt:onexit.obj
 0001:001ca01c       ?detach@?$__crt_unique_heap_ptr@P6AXXZU__crt_internal_free_policy@@@@QEAAPEAP6AXXZXZ 00000001801cb01c f i libucrt:onexit.obj
 0001:001ca028       ?release@?$__crt_unique_heap_ptr@P6AXXZU__crt_internal_free_policy@@@@QEAAXXZ 00000001801cb028 f i libucrt:onexit.obj
 0001:001ca04c       _crt_at_quick_exit         00000001801cb04c f   libucrt:onexit.obj
 0001:001ca060       _crt_atexit                00000001801cb060 f   libucrt:onexit.obj
 0001:001ca074       _execute_onexit_table      00000001801cb074 f   libucrt:onexit.obj
 0001:001ca0bc       _initialize_onexit_table   00000001801cb0bc f   libucrt:onexit.obj
 0001:001ca10c       _register_onexit_function  00000001801cb10c f   libucrt:onexit.obj
 0001:001ca2f8       ?initialize@?$dual_state_global@PEAU__crt_locale_data@@@__crt_state_management@@QEAAXQEAU__crt_locale_data@@@Z 00000001801cb2f8 f i libucrt:initialization.obj
 0001:001ca338       __acrt_initialize          00000001801cb338 f   libucrt:initialization.obj
 0001:001ca350       __acrt_thread_attach       00000001801cb350 f   libucrt:initialization.obj
 0001:001ca36c       __acrt_thread_detach       00000001801cb36c f   libucrt:initialization.obj
 0001:001ca380       __acrt_uninitialize        00000001801cb380 f   libucrt:initialization.obj
 0001:001ca398       __acrt_uninitialize_critical 00000001801cb398 f   libucrt:initialization.obj
 0001:001ca3c4       _get_terminate             00000001801cb3c4 f   libucrt:terminate.obj
 0001:001ca3f0       set_terminate              00000001801cb3f0 f   libucrt:terminate.obj
 0001:001ca428       terminate                  00000001801cb428 f   libucrt:terminate.obj
 0001:001ca458       _set_abort_behavior        00000001801cb458 f   libucrt:abort.obj
 0001:001ca47c       abort                      00000001801cb47c f   libucrt:abort.obj
 0001:001ca4e8       ??$__crt_interlocked_exchange_pointer@X$$T@@YAPEAXPEDSEAX$$T@Z 00000001801cb4e8 f i libucrt:free_base.obj
 0001:001ca4f0       ?__crt_interlocked_read_64@@YA_JPED_J@Z 00000001801cb4f0 f i libucrt:free_base.obj
 0001:001ca500       __acrt_get_msvcrt_heap_handle 00000001801cb500 f   libucrt:free_base.obj
 0001:001ca588       _free_base                 00000001801cb588 f   libucrt:free_base.obj
 0001:001ca5d4       _malloc_base               00000001801cb5d4 f   libucrt:malloc_base.obj
 0001:001ca6c8       strcpy_s                   00000001801cb6c8 f   libucrt:strcpy_s.obj
 0001:001ca740       ??$?0AEBV?$stream_output_adapter@D@__crt_stdio_output@@AEB_KAEBQEBDAEBQEAU__crt_locale_pointers@@AEBQEAD@?$format_validation_base@DV?$stream_output_adapter@D@__crt_stdio_output@@@__crt_stdio_output@@IEAA@AEBV?$stream_output_adapter@D@1@AEB_KAEBQEBDAEBQEAU__crt_locale_pointers@@AEBQEAD@Z 00000001801cb740 f i libucrt:output.obj
 0001:001ca7e4       ??$?0AEBV?$stream_output_adapter@D@__crt_stdio_output@@AEB_KAEBQEBDAEBQEAU__crt_locale_pointers@@AEBQEAD@?$positional_parameter_base@DV?$stream_output_adapter@D@__crt_stdio_output@@@__crt_stdio_output@@IEAA@AEBV?$stream_output_adapter@D@1@AEB_KAEBQEBDAEBQEAU__crt_locale_pointers@@AEBQEAD@Z 00000001801cb7e4 f i libucrt:output.obj
 0001:001ca8ac       ??$?0AEBV?$stream_output_adapter@D@__crt_stdio_output@@AEB_KAEBQEBDAEBQEAU__crt_locale_pointers@@AEBQEAD@?$standard_base@DV?$stream_output_adapter@D@__crt_stdio_output@@@__crt_stdio_output@@IEAA@AEBV?$stream_output_adapter@D@1@AEB_KAEBQEBDAEBQEAU__crt_locale_pointers@@AEBQEAD@Z 00000001801cb8ac f i libucrt:output.obj
 0001:001ca950       ??$?0AEBV?$stream_output_adapter@_W@__crt_stdio_output@@AEB_KAEBQEB_WAEBQEAU__crt_locale_pointers@@AEBQEAD@?$format_validation_base@_WV?$stream_output_adapter@_W@__crt_stdio_output@@@__crt_stdio_output@@IEAA@AEBV?$stream_output_adapter@_W@1@AEB_KAEBQEB_WAEBQEAU__crt_locale_pointers@@AEBQEAD@Z 00000001801cb950 f i libucrt:output.obj
 0001:001ca9f8       ??$?0AEBV?$stream_output_adapter@_W@__crt_stdio_output@@AEB_KAEBQEB_WAEBQEAU__crt_locale_pointers@@AEBQEAD@?$positional_parameter_base@_WV?$stream_output_adapter@_W@__crt_stdio_output@@@__crt_stdio_output@@IEAA@AEBV?$stream_output_adapter@_W@1@AEB_KAEBQEB_WAEBQEAU__crt_locale_pointers@@AEBQEAD@Z 00000001801cb9f8 f i libucrt:output.obj
 0001:001caac4       ??$?0AEBV?$stream_output_adapter@_W@__crt_stdio_output@@AEB_KAEBQEB_WAEBQEAU__crt_locale_pointers@@AEBQEAD@?$standard_base@_WV?$stream_output_adapter@_W@__crt_stdio_output@@@__crt_stdio_output@@IEAA@AEBV?$stream_output_adapter@_W@1@AEB_KAEBQEB_WAEBQEAU__crt_locale_pointers@@AEBQEAD@Z 00000001801cbac4 f i libucrt:output.obj
 0001:001cab6c       ??$?0AEBV?$string_output_adapter@D@__crt_stdio_output@@AEB_KAEBQEBDAEBQEAU__crt_locale_pointers@@AEBQEAD@?$format_validation_base@DV?$string_output_adapter@D@__crt_stdio_output@@@__crt_stdio_output@@IEAA@AEBV?$string_output_adapter@D@1@AEB_KAEBQEBDAEBQEAU__crt_locale_pointers@@AEBQEAD@Z 00000001801cbb6c f i libucrt:output.obj
 0001:001cac10       ??$?0AEBV?$string_output_adapter@D@__crt_stdio_output@@AEB_KAEBQEBDAEBQEAU__crt_locale_pointers@@AEBQEAD@?$positional_parameter_base@DV?$string_output_adapter@D@__crt_stdio_output@@@__crt_stdio_output@@IEAA@AEBV?$string_output_adapter@D@1@AEB_KAEBQEBDAEBQEAU__crt_locale_pointers@@AEBQEAD@Z 00000001801cbc10 f i libucrt:output.obj
 0001:001cacd8       ??$?0AEBV?$string_output_adapter@D@__crt_stdio_output@@AEB_KAEBQEBDAEBQEAU__crt_locale_pointers@@AEBQEAD@?$standard_base@DV?$string_output_adapter@D@__crt_stdio_output@@@__crt_stdio_output@@IEAA@AEBV?$string_output_adapter@D@1@AEB_KAEBQEBDAEBQEAU__crt_locale_pointers@@AEBQEAD@Z 00000001801cbcd8 f i libucrt:output.obj
 0001:001cad7c       ??$?0AEBV?$string_output_adapter@_W@__crt_stdio_output@@AEB_KAEBQEB_WAEBQEAU__crt_locale_pointers@@AEBQEAD@?$format_validation_base@_WV?$string_output_adapter@_W@__crt_stdio_output@@@__crt_stdio_output@@IEAA@AEBV?$string_output_adapter@_W@1@AEB_KAEBQEB_WAEBQEAU__crt_locale_pointers@@AEBQEAD@Z 00000001801cbd7c f i libucrt:output.obj
 0001:001cae24       ??$?0AEBV?$string_output_adapter@_W@__crt_stdio_output@@AEB_KAEBQEB_WAEBQEAU__crt_locale_pointers@@AEBQEAD@?$positional_parameter_base@_WV?$string_output_adapter@_W@__crt_stdio_output@@@__crt_stdio_output@@IEAA@AEBV?$string_output_adapter@_W@1@AEB_KAEBQEB_WAEBQEAU__crt_locale_pointers@@AEBQEAD@Z 00000001801cbe24 f i libucrt:output.obj
 0001:001caef0       ??$?0AEBV?$string_output_adapter@_W@__crt_stdio_output@@AEB_KAEBQEB_WAEBQEAU__crt_locale_pointers@@AEBQEAD@?$standard_base@_WV?$string_output_adapter@_W@__crt_stdio_output@@@__crt_stdio_output@@IEAA@AEBV?$string_output_adapter@_W@1@AEB_KAEBQEB_WAEBQEAU__crt_locale_pointers@@AEBQEAD@Z 00000001801cbef0 f i libucrt:output.obj
 0001:001caf98       ??$?RV<lambda_2647abb55a408a205467c4169a724277>@@AEAV<lambda_576477a770bb5ab586b2d9569451c7f7>@@V<lambda_c2b006f504a10a4cf14b9a1fbce2a01e>@@@?$__crt_seh_guarded_call@H@@QEAAH$$QEAV<lambda_2647abb55a408a205467c4169a724277>@@AEAV<lambda_576477a770bb5ab586b2d9569451c7f7>@@$$QEAV<lambda_c2b006f504a10a4cf14b9a1fbce2a01e>@@@Z 00000001801cbf98 f i libucrt:output.obj
 0001:001cafe4       ??$?RV<lambda_2b8ba55cb2a29189d70f882b678c7350>@@AEAV<lambda_ab9668973a2a61b07c64846465621f55>@@V<lambda_748afda9c1ab82b4e15f74dcdf75db74>@@@?$__crt_seh_guarded_call@H@@QEAAH$$QEAV<lambda_2b8ba55cb2a29189d70f882b678c7350>@@AEAV<lambda_ab9668973a2a61b07c64846465621f55>@@$$QEAV<lambda_748afda9c1ab82b4e15f74dcdf75db74>@@@Z 00000001801cbfe4 f i libucrt:output.obj
 0001:001cb030       ??$?RV<lambda_4942f9dcb8a83a0b649775421cdab7f2>@@AEAV<lambda_9fdeb54d99e6c7e515b8c19e0613d470>@@V<lambda_f61bc4569557b8ad96931f67d51af400>@@@?$__crt_seh_guarded_call@H@@QEAAH$$QEAV<lambda_4942f9dcb8a83a0b649775421cdab7f2>@@AEAV<lambda_9fdeb54d99e6c7e515b8c19e0613d470>@@$$QEAV<lambda_f61bc4569557b8ad96931f67d51af400>@@@Z 00000001801cc030 f i libucrt:output.obj
 0001:001cb07c       ??$?RV<lambda_7b91131dde12e1c3dfc74ff76b3f2eac>@@AEAV<lambda_dd75445284c072d0bd3768540cc698fa>@@V<lambda_16bc4ecb55b4718497c16bceaea2ceaf>@@@?$__crt_seh_guarded_call@H@@QEAAH$$QEAV<lambda_7b91131dde12e1c3dfc74ff76b3f2eac>@@AEAV<lambda_dd75445284c072d0bd3768540cc698fa>@@$$QEAV<lambda_16bc4ecb55b4718497c16bceaea2ceaf>@@@Z 00000001801cc07c f i libucrt:output.obj
 0001:001cb0c8       ??$?RV<lambda_aa279a7bcb127014629d5b1d62c7325d>@@AEAV<lambda_0a64b6a4deda75c01876f29c44fc5eb3>@@V<lambda_3323e69fbefe9d1a11713e670d47cdfa>@@@?$__crt_seh_guarded_call@H@@QEAAH$$QEAV<lambda_aa279a7bcb127014629d5b1d62c7325d>@@AEAV<lambda_0a64b6a4deda75c01876f29c44fc5eb3>@@$$QEAV<lambda_3323e69fbefe9d1a11713e670d47cdfa>@@@Z 00000001801cc0c8 f i libucrt:output.obj
 0001:001cb114       ??$?RV<lambda_c232a0c49490a30f399a8430f51b50ba>@@AEAV<lambda_7b6c652cce95ef5b7c2ff34f92bf0578>@@V<lambda_c415c6f6d9d103d7e93818ef66b8cc8a>@@@?$__crt_seh_guarded_call@H@@QEAAH$$QEAV<lambda_c232a0c49490a30f399a8430f51b50ba>@@AEAV<lambda_7b6c652cce95ef5b7c2ff34f92bf0578>@@$$QEAV<lambda_c415c6f6d9d103d7e93818ef66b8cc8a>@@@Z 00000001801cc114 f i libucrt:output.obj
 0001:001cb160       ??$__acrt_lock_stream_and_call@V<lambda_0a64b6a4deda75c01876f29c44fc5eb3>@@@@YAHQEAU_iobuf@@$$QEAV<lambda_0a64b6a4deda75c01876f29c44fc5eb3>@@@Z 00000001801cc160 f i libucrt:output.obj
 0001:001cb194       ??$__acrt_lock_stream_and_call@V<lambda_576477a770bb5ab586b2d9569451c7f7>@@@@YAHQEAU_iobuf@@$$QEAV<lambda_576477a770bb5ab586b2d9569451c7f7>@@@Z 00000001801cc194 f i libucrt:output.obj
 0001:001cb1c8       ??$__acrt_lock_stream_and_call@V<lambda_7b6c652cce95ef5b7c2ff34f92bf0578>@@@@YAHQEAU_iobuf@@$$QEAV<lambda_7b6c652cce95ef5b7c2ff34f92bf0578>@@@Z 00000001801cc1c8 f i libucrt:output.obj
 0001:001cb1fc       ??$__acrt_lock_stream_and_call@V<lambda_9fdeb54d99e6c7e515b8c19e0613d470>@@@@YAHQEAU_iobuf@@$$QEAV<lambda_9fdeb54d99e6c7e515b8c19e0613d470>@@@Z 00000001801cc1fc f i libucrt:output.obj
 0001:001cb230       ??$__acrt_lock_stream_and_call@V<lambda_ab9668973a2a61b07c64846465621f55>@@@@YAHQEAU_iobuf@@$$QEAV<lambda_ab9668973a2a61b07c64846465621f55>@@@Z 00000001801cc230 f i libucrt:output.obj
 0001:001cb264       ??$__acrt_lock_stream_and_call@V<lambda_dd75445284c072d0bd3768540cc698fa>@@@@YAHQEAU_iobuf@@$$QEAV<lambda_dd75445284c072d0bd3768540cc698fa>@@@Z 00000001801cc264 f i libucrt:output.obj
 0001:001cc76c       ??$count@D@formatting_buffer@__crt_stdio_output@@QEBA_KXZ 00000001801cd76c f i libucrt:output.obj
 0001:001cc790       ??$data@D@formatting_buffer@__crt_stdio_output@@QEAAPEADXZ 00000001801cd790 f i libucrt:output.obj
 0001:001cc7a4       ??$data@_W@formatting_buffer@__crt_stdio_output@@QEAAPEA_WXZ 00000001801cd7a4 f i libucrt:output.obj
 0001:001cc7b8       ??$ensure_buffer_is_big_enough@D@formatting_buffer@__crt_stdio_output@@QEAA_N_K@Z 00000001801cd7b8 f i libucrt:output.obj
 0001:001cc890       ??$extract_argument_from_va_list@C_J@?$positional_parameter_base@DV?$stream_output_adapter@D@__crt_stdio_output@@@__crt_stdio_output@@IEAA_NAEA_J@Z 00000001801cd890 f i libucrt:output.obj
 0001:001cc984       ??$extract_argument_from_va_list@C_J@?$positional_parameter_base@DV?$string_output_adapter@D@__crt_stdio_output@@@__crt_stdio_output@@IEAA_NAEA_J@Z 00000001801cd984 f i libucrt:output.obj
 0001:001cca78       ??$extract_argument_from_va_list@C_J@?$positional_parameter_base@_WV?$stream_output_adapter@_W@__crt_stdio_output@@@__crt_stdio_output@@IEAA_NAEA_J@Z 00000001801cda78 f i libucrt:output.obj
 0001:001ccb70       ??$extract_argument_from_va_list@C_J@?$positional_parameter_base@_WV?$string_output_adapter@_W@__crt_stdio_output@@@__crt_stdio_output@@IEAA_NAEA_J@Z 00000001801cdb70 f i libucrt:output.obj
 0001:001ccc68       ??$extract_argument_from_va_list@C_J@?$standard_base@DV?$stream_output_adapter@D@__crt_stdio_output@@@__crt_stdio_output@@IEAA_NAEA_J@Z 00000001801cdc68 f i libucrt:output.obj
 0001:001ccc84       ??$extract_argument_from_va_list@C_J@?$standard_base@DV?$string_output_adapter@D@__crt_stdio_output@@@__crt_stdio_output@@IEAA_NAEA_J@Z 00000001801cdc84 f i libucrt:output.obj
 0001:001ccca0       ??$extract_argument_from_va_list@C_J@?$standard_base@_WV?$stream_output_adapter@_W@__crt_stdio_output@@@__crt_stdio_output@@IEAA_NAEA_J@Z 00000001801cdca0 f i libucrt:output.obj
 0001:001cccbc       ??$extract_argument_from_va_list@C_J@?$standard_base@_WV?$string_output_adapter@_W@__crt_stdio_output@@@__crt_stdio_output@@IEAA_NAEA_J@Z 00000001801cdcbc f i libucrt:output.obj
 0001:001cccd8       ??$extract_argument_from_va_list@E_J@?$positional_parameter_base@DV?$stream_output_adapter@D@__crt_stdio_output@@@__crt_stdio_output@@IEAA_NAEA_J@Z 00000001801cdcd8 f i libucrt:output.obj
 0001:001ccdcc       ??$extract_argument_from_va_list@E_J@?$positional_parameter_base@DV?$string_output_adapter@D@__crt_stdio_output@@@__crt_stdio_output@@IEAA_NAEA_J@Z 00000001801cddcc f i libucrt:output.obj
 0001:001ccec0       ??$extract_argument_from_va_list@E_J@?$positional_parameter_base@_WV?$stream_output_adapter@_W@__crt_stdio_output@@@__crt_stdio_output@@IEAA_NAEA_J@Z 00000001801cdec0 f i libucrt:output.obj
 0001:001ccfb8       ??$extract_argument_from_va_list@E_J@?$positional_parameter_base@_WV?$string_output_adapter@_W@__crt_stdio_output@@@__crt_stdio_output@@IEAA_NAEA_J@Z 00000001801cdfb8 f i libucrt:output.obj
 0001:001cd0b0       ??$extract_argument_from_va_list@E_J@?$standard_base@DV?$stream_output_adapter@D@__crt_stdio_output@@@__crt_stdio_output@@IEAA_NAEA_J@Z 00000001801ce0b0 f i libucrt:output.obj
 0001:001cd0c8       ??$extract_argument_from_va_list@E_J@?$standard_base@DV?$string_output_adapter@D@__crt_stdio_output@@@__crt_stdio_output@@IEAA_NAEA_J@Z 00000001801ce0c8 f i libucrt:output.obj
 0001:001cd0e0       ??$extract_argument_from_va_list@E_J@?$standard_base@_WV?$stream_output_adapter@_W@__crt_stdio_output@@@__crt_stdio_output@@IEAA_NAEA_J@Z 00000001801ce0e0 f i libucrt:output.obj
 0001:001cd0f8       ??$extract_argument_from_va_list@E_J@?$standard_base@_WV?$string_output_adapter@_W@__crt_stdio_output@@@__crt_stdio_output@@IEAA_NAEA_J@Z 00000001801ce0f8 f i libucrt:output.obj
 0001:001cd110       ??$extract_argument_from_va_list@F_J@?$positional_parameter_base@DV?$stream_output_adapter@D@__crt_stdio_output@@@__crt_stdio_output@@IEAA_NAEA_J@Z 00000001801ce110 f i libucrt:output.obj
 0001:001cd204       ??$extract_argument_from_va_list@F_J@?$positional_parameter_base@DV?$string_output_adapter@D@__crt_stdio_output@@@__crt_stdio_output@@IEAA_NAEA_J@Z 00000001801ce204 f i libucrt:output.obj
 0001:001cd2f8       ??$extract_argument_from_va_list@F_J@?$positional_parameter_base@_WV?$stream_output_adapter@_W@__crt_stdio_output@@@__crt_stdio_output@@IEAA_NAEA_J@Z 00000001801ce2f8 f i libucrt:output.obj
 0001:001cd3f0       ??$extract_argument_from_va_list@F_J@?$positional_parameter_base@_WV?$string_output_adapter@_W@__crt_stdio_output@@@__crt_stdio_output@@IEAA_NAEA_J@Z 00000001801ce3f0 f i libucrt:output.obj
 0001:001cd4e8       ??$extract_argument_from_va_list@F_J@?$standard_base@DV?$stream_output_adapter@D@__crt_stdio_output@@@__crt_stdio_output@@IEAA_NAEA_J@Z 00000001801ce4e8 f i libucrt:output.obj
 0001:001cd504       ??$extract_argument_from_va_list@F_J@?$standard_base@DV?$string_output_adapter@D@__crt_stdio_output@@@__crt_stdio_output@@IEAA_NAEA_J@Z 00000001801ce504 f i libucrt:output.obj
 0001:001cd520       ??$extract_argument_from_va_list@F_J@?$standard_base@_WV?$stream_output_adapter@_W@__crt_stdio_output@@@__crt_stdio_output@@IEAA_NAEA_J@Z 00000001801ce520 f i libucrt:output.obj
 0001:001cd53c       ??$extract_argument_from_va_list@F_J@?$standard_base@_WV?$string_output_adapter@_W@__crt_stdio_output@@@__crt_stdio_output@@IEAA_NAEA_J@Z 00000001801ce53c f i libucrt:output.obj
 0001:001cd558       ??$extract_argument_from_va_list@GD@?$positional_parameter_base@DV?$stream_output_adapter@D@__crt_stdio_output@@@__crt_stdio_output@@IEAA_NAEAD@Z 00000001801ce558 f i libucrt:output.obj
 0001:001cd648       ??$extract_argument_from_va_list@GD@?$positional_parameter_base@DV?$string_output_adapter@D@__crt_stdio_output@@@__crt_stdio_output@@IEAA_NAEAD@Z 00000001801ce648 f i libucrt:output.obj
 0001:001cd738       ??$extract_argument_from_va_list@GD@?$standard_base@DV?$stream_output_adapter@D@__crt_stdio_output@@@__crt_stdio_output@@IEAA_NAEAD@Z 00000001801ce738 f i libucrt:output.obj
 0001:001cd750       ??$extract_argument_from_va_list@GD@?$standard_base@DV?$string_output_adapter@D@__crt_stdio_output@@@__crt_stdio_output@@IEAA_NAEAD@Z 00000001801ce750 f i libucrt:output.obj
 0001:001cd768       ??$extract_argument_from_va_list@G_J@?$positional_parameter_base@DV?$stream_output_adapter@D@__crt_stdio_output@@@__crt_stdio_output@@IEAA_NAEA_J@Z 00000001801ce768 f i libucrt:output.obj
 0001:001cd85c       ??$extract_argument_from_va_list@G_J@?$positional_parameter_base@DV?$string_output_adapter@D@__crt_stdio_output@@@__crt_stdio_output@@IEAA_NAEA_J@Z 00000001801ce85c f i libucrt:output.obj
 0001:001cd950       ??$extract_argument_from_va_list@G_J@?$positional_parameter_base@_WV?$stream_output_adapter@_W@__crt_stdio_output@@@__crt_stdio_output@@IEAA_NAEA_J@Z 00000001801ce950 f i libucrt:output.obj
 0001:001cda48       ??$extract_argument_from_va_list@G_J@?$positional_parameter_base@_WV?$string_output_adapter@_W@__crt_stdio_output@@@__crt_stdio_output@@IEAA_NAEA_J@Z 00000001801cea48 f i libucrt:output.obj
 0001:001cdb40       ??$extract_argument_from_va_list@G_J@?$standard_base@DV?$stream_output_adapter@D@__crt_stdio_output@@@__crt_stdio_output@@IEAA_NAEA_J@Z 00000001801ceb40 f i libucrt:output.obj
 0001:001cdb58       ??$extract_argument_from_va_list@G_J@?$standard_base@DV?$string_output_adapter@D@__crt_stdio_output@@@__crt_stdio_output@@IEAA_NAEA_J@Z 00000001801ceb58 f i libucrt:output.obj
 0001:001cdb70       ??$extract_argument_from_va_list@G_J@?$standard_base@_WV?$stream_output_adapter@_W@__crt_stdio_output@@@__crt_stdio_output@@IEAA_NAEA_J@Z 00000001801ceb70 f i libucrt:output.obj
 0001:001cdb88       ??$extract_argument_from_va_list@G_J@?$standard_base@_WV?$string_output_adapter@_W@__crt_stdio_output@@@__crt_stdio_output@@IEAA_NAEA_J@Z 00000001801ceb88 f i libucrt:output.obj
 0001:001cdba0       ??$extract_argument_from_va_list@H_J@?$positional_parameter_base@DV?$stream_output_adapter@D@__crt_stdio_output@@@__crt_stdio_output@@IEAA_NAEA_J@Z 00000001801ceba0 f i libucrt:output.obj
 0001:001cdc94       ??$extract_argument_from_va_list@H_J@?$positional_parameter_base@DV?$string_output_adapter@D@__crt_stdio_output@@@__crt_stdio_output@@IEAA_NAEA_J@Z 00000001801cec94 f i libucrt:output.obj
 0001:001cdd88       ??$extract_argument_from_va_list@H_J@?$positional_parameter_base@_WV?$stream_output_adapter@_W@__crt_stdio_output@@@__crt_stdio_output@@IEAA_NAEA_J@Z 00000001801ced88 f i libucrt:output.obj
 0001:001cde7c       ??$extract_argument_from_va_list@H_J@?$positional_parameter_base@_WV?$string_output_adapter@_W@__crt_stdio_output@@@__crt_stdio_output@@IEAA_NAEA_J@Z 00000001801cee7c f i libucrt:output.obj
 0001:001cdf70       ??$extract_argument_from_va_list@H_J@?$standard_base@DV?$stream_output_adapter@D@__crt_stdio_output@@@__crt_stdio_output@@IEAA_NAEA_J@Z 00000001801cef70 f i libucrt:output.obj
 0001:001cdf88       ??$extract_argument_from_va_list@H_J@?$standard_base@DV?$string_output_adapter@D@__crt_stdio_output@@@__crt_stdio_output@@IEAA_NAEA_J@Z 00000001801cef88 f i libucrt:output.obj
 0001:001cdfa0       ??$extract_argument_from_va_list@H_J@?$standard_base@_WV?$stream_output_adapter@_W@__crt_stdio_output@@@__crt_stdio_output@@IEAA_NAEA_J@Z 00000001801cefa0 f i libucrt:output.obj
 0001:001cdfb8       ??$extract_argument_from_va_list@H_J@?$standard_base@_WV?$string_output_adapter@_W@__crt_stdio_output@@@__crt_stdio_output@@IEAA_NAEA_J@Z 00000001801cefb8 f i libucrt:output.obj
 0001:001cdfd0       ??$extract_argument_from_va_list@I_J@?$positional_parameter_base@DV?$stream_output_adapter@D@__crt_stdio_output@@@__crt_stdio_output@@IEAA_NAEA_J@Z 00000001801cefd0 f i libucrt:output.obj
 0001:001ce0c0       ??$extract_argument_from_va_list@I_J@?$positional_parameter_base@DV?$string_output_adapter@D@__crt_stdio_output@@@__crt_stdio_output@@IEAA_NAEA_J@Z 00000001801cf0c0 f i libucrt:output.obj
 0001:001ce1b0       ??$extract_argument_from_va_list@I_J@?$positional_parameter_base@_WV?$stream_output_adapter@_W@__crt_stdio_output@@@__crt_stdio_output@@IEAA_NAEA_J@Z 00000001801cf1b0 f i libucrt:output.obj
 0001:001ce2a4       ??$extract_argument_from_va_list@I_J@?$positional_parameter_base@_WV?$string_output_adapter@_W@__crt_stdio_output@@@__crt_stdio_output@@IEAA_NAEA_J@Z 00000001801cf2a4 f i libucrt:output.obj
 0001:001ce398       ??$extract_argument_from_va_list@I_J@?$standard_base@DV?$stream_output_adapter@D@__crt_stdio_output@@@__crt_stdio_output@@IEAA_NAEA_J@Z 00000001801cf398 f i libucrt:output.obj
 0001:001ce3b0       ??$extract_argument_from_va_list@I_J@?$standard_base@DV?$string_output_adapter@D@__crt_stdio_output@@@__crt_stdio_output@@IEAA_NAEA_J@Z 00000001801cf3b0 f i libucrt:output.obj
 0001:001ce3c8       ??$extract_argument_from_va_list@I_J@?$standard_base@_WV?$stream_output_adapter@_W@__crt_stdio_output@@@__crt_stdio_output@@IEAA_NAEA_J@Z 00000001801cf3c8 f i libucrt:output.obj
 0001:001ce3e0       ??$extract_argument_from_va_list@I_J@?$standard_base@_WV?$string_output_adapter@_W@__crt_stdio_output@@@__crt_stdio_output@@IEAA_NAEA_J@Z 00000001801cf3e0 f i libucrt:output.obj
 0001:001ce3f8       ??$extract_argument_from_va_list@PEADPEAD@?$positional_parameter_base@DV?$stream_output_adapter@D@__crt_stdio_output@@@__crt_stdio_output@@IEAA_NAEAPEAD@Z 00000001801cf3f8 f i libucrt:output.obj
 0001:001ce4ec       ??$extract_argument_from_va_list@PEADPEAD@?$positional_parameter_base@DV?$string_output_adapter@D@__crt_stdio_output@@@__crt_stdio_output@@IEAA_NAEAPEAD@Z 00000001801cf4ec f i libucrt:output.obj
 0001:001ce5e0       ??$extract_argument_from_va_list@PEADPEAD@?$positional_parameter_base@_WV?$stream_output_adapter@_W@__crt_stdio_output@@@__crt_stdio_output@@IEAA_NAEAPEAD@Z 00000001801cf5e0 f i libucrt:output.obj
 0001:001ce6d4       ??$extract_argument_from_va_list@PEADPEAD@?$positional_parameter_base@_WV?$string_output_adapter@_W@__crt_stdio_output@@@__crt_stdio_output@@IEAA_NAEAPEAD@Z 00000001801cf6d4 f i libucrt:output.obj
 0001:001ce7c8       ??$extract_argument_from_va_list@PEADPEAD@?$standard_base@DV?$stream_output_adapter@D@__crt_stdio_output@@@__crt_stdio_output@@IEAA_NAEAPEAD@Z 00000001801cf7c8 f i libucrt:output.obj
 0001:001ce7e0       ??$extract_argument_from_va_list@PEADPEAD@?$standard_base@DV?$string_output_adapter@D@__crt_stdio_output@@@__crt_stdio_output@@IEAA_NAEAPEAD@Z 00000001801cf7e0 f i libucrt:output.obj
 0001:001ce7f8       ??$extract_argument_from_va_list@PEADPEAD@?$standard_base@_WV?$stream_output_adapter@_W@__crt_stdio_output@@@__crt_stdio_output@@IEAA_NAEAPEAD@Z 00000001801cf7f8 f i libucrt:output.obj
 0001:001ce810       ??$extract_argument_from_va_list@PEADPEAD@?$standard_base@_WV?$string_output_adapter@_W@__crt_stdio_output@@@__crt_stdio_output@@IEAA_NAEAPEAD@Z 00000001801cf810 f i libucrt:output.obj
 0001:001ce828       ??$extract_argument_from_va_list@PEAUansi_string@?1??type_case_Z@?$output_processor@DV?$stream_output_adapter@D@__crt_stdio_output@@V?$format_validation_base@DV?$stream_output_adapter@D@__crt_stdio_output@@@2@@__crt_stdio_output@@AEAA_NXZ@PEAU1?1??234@AEAA_NXZ@@?$standard_base@DV?$stream_output_adapter@D@__crt_stdio_output@@@__crt_stdio_output@@IEAA_NAEAPEAUansi_string@?1??type_case_Z@?$output_processor@DV?$stream_output_adapter@D@__crt_stdio_output@@V?$format_validation_base@DV?$stream_output_adapter@D@__crt_stdio_output@@@2@@1@AEAA_NXZ@@Z 00000001801cf828 f i libucrt:output.obj
 0001:001ce840       ??$extract_argument_from_va_list@PEAUansi_string@?1??type_case_Z@?$output_processor@DV?$stream_output_adapter@D@__crt_stdio_output@@V?$positional_parameter_base@DV?$stream_output_adapter@D@__crt_stdio_output@@@2@@__crt_stdio_output@@AEAA_NXZ@PEAU1?1??234@AEAA_NXZ@@?$positional_parameter_base@DV?$stream_output_adapter@D@__crt_stdio_output@@@__crt_stdio_output@@IEAA_NAEAPEAUansi_string@?1??type_case_Z@?$output_processor@DV?$stream_output_adapter@D@__crt_stdio_output@@V?$positional_parameter_base@DV?$stream_output_adapter@D@__crt_stdio_output@@@2@@1@AEAA_NXZ@@Z 00000001801cf840 f i libucrt:output.obj
 0001:001ce934       ??$extract_argument_from_va_list@PEAUansi_string@?1??type_case_Z@?$output_processor@DV?$stream_output_adapter@D@__crt_stdio_output@@V?$positional_parameter_base@DV?$stream_output_adapter@D@__crt_stdio_output@@@2@@__crt_stdio_output@@AEAA_NXZ@PEAU1?1??234@AEAA_NXZ@@?$standard_base@DV?$stream_output_adapter@D@__crt_stdio_output@@@__crt_stdio_output@@IEAA_NAEAPEAUansi_string@?1??type_case_Z@?$output_processor@DV?$stream_output_adapter@D@__crt_stdio_output@@V?$positional_parameter_base@DV?$stream_output_adapter@D@__crt_stdio_output@@@2@@1@AEAA_NXZ@@Z 00000001801cf934 f i libucrt:output.obj
 0001:001ce94c       ??$extract_argument_from_va_list@PEAUansi_string@?1??type_case_Z@?$output_processor@DV?$stream_output_adapter@D@__crt_stdio_output@@V?$standard_base@DV?$stream_output_adapter@D@__crt_stdio_output@@@2@@__crt_stdio_output@@AEAA_NXZ@PEAU1?1??234@AEAA_NXZ@@?$standard_base@DV?$stream_output_adapter@D@__crt_stdio_output@@@__crt_stdio_output@@IEAA_NAEAPEAUansi_string@?1??type_case_Z@?$output_processor@DV?$stream_output_adapter@D@__crt_stdio_output@@V?$standard_base@DV?$stream_output_adapter@D@__crt_stdio_output@@@2@@1@AEAA_NXZ@@Z 00000001801cf94c f i libucrt:output.obj
 0001:001ce964       ??$extract_argument_from_va_list@PEAUansi_string@?1??type_case_Z@?$output_processor@DV?$string_output_adapter@D@__crt_stdio_output@@V?$format_validation_base@DV?$string_output_adapter@D@__crt_stdio_output@@@2@@__crt_stdio_output@@AEAA_NXZ@PEAU1?1??234@AEAA_NXZ@@?$standard_base@DV?$string_output_adapter@D@__crt_stdio_output@@@__crt_stdio_output@@IEAA_NAEAPEAUansi_string@?1??type_case_Z@?$output_processor@DV?$string_output_adapter@D@__crt_stdio_output@@V?$format_validation_base@DV?$string_output_adapter@D@__crt_stdio_output@@@2@@1@AEAA_NXZ@@Z 00000001801cf964 f i libucrt:output.obj
 0001:001ce97c       ??$extract_argument_from_va_list@PEAUansi_string@?1??type_case_Z@?$output_processor@DV?$string_output_adapter@D@__crt_stdio_output@@V?$positional_parameter_base@DV?$string_output_adapter@D@__crt_stdio_output@@@2@@__crt_stdio_output@@AEAA_NXZ@PEAU1?1??234@AEAA_NXZ@@?$positional_parameter_base@DV?$string_output_adapter@D@__crt_stdio_output@@@__crt_stdio_output@@IEAA_NAEAPEAUansi_string@?1??type_case_Z@?$output_processor@DV?$string_output_adapter@D@__crt_stdio_output@@V?$positional_parameter_base@DV?$string_output_adapter@D@__crt_stdio_output@@@2@@1@AEAA_NXZ@@Z 00000001801cf97c f i libucrt:output.obj
 0001:001cea70       ??$extract_argument_from_va_list@PEAUansi_string@?1??type_case_Z@?$output_processor@DV?$string_output_adapter@D@__crt_stdio_output@@V?$positional_parameter_base@DV?$string_output_adapter@D@__crt_stdio_output@@@2@@__crt_stdio_output@@AEAA_NXZ@PEAU1?1??234@AEAA_NXZ@@?$standard_base@DV?$string_output_adapter@D@__crt_stdio_output@@@__crt_stdio_output@@IEAA_NAEAPEAUansi_string@?1??type_case_Z@?$output_processor@DV?$string_output_adapter@D@__crt_stdio_output@@V?$positional_parameter_base@DV?$string_output_adapter@D@__crt_stdio_output@@@2@@1@AEAA_NXZ@@Z 00000001801cfa70 f i libucrt:output.obj
 0001:001cea88       ??$extract_argument_from_va_list@PEAUansi_string@?1??type_case_Z@?$output_processor@DV?$string_output_adapter@D@__crt_stdio_output@@V?$standard_base@DV?$string_output_adapter@D@__crt_stdio_output@@@2@@__crt_stdio_output@@AEAA_NXZ@PEAU1?1??234@AEAA_NXZ@@?$standard_base@DV?$string_output_adapter@D@__crt_stdio_output@@@__crt_stdio_output@@IEAA_NAEAPEAUansi_string@?1??type_case_Z@?$output_processor@DV?$string_output_adapter@D@__crt_stdio_output@@V?$standard_base@DV?$string_output_adapter@D@__crt_stdio_output@@@2@@1@AEAA_NXZ@@Z 00000001801cfa88 f i libucrt:output.obj
 0001:001ceaa0       ??$extract_argument_from_va_list@PEAUansi_string@?1??type_case_Z@?$output_processor@_WV?$stream_output_adapter@_W@__crt_stdio_output@@V?$format_validation_base@_WV?$stream_output_adapter@_W@__crt_stdio_output@@@2@@__crt_stdio_output@@AEAA_NXZ@PEAU1?1??234@AEAA_NXZ@@?$standard_base@_WV?$stream_output_adapter@_W@__crt_stdio_output@@@__crt_stdio_output@@IEAA_NAEAPEAUansi_string@?1??type_case_Z@?$output_processor@_WV?$stream_output_adapter@_W@__crt_stdio_output@@V?$format_validation_base@_WV?$stream_output_adapter@_W@__crt_stdio_output@@@2@@1@AEAA_NXZ@@Z 00000001801cfaa0 f i libucrt:output.obj
 0001:001ceab8       ??$extract_argument_from_va_list@PEAUansi_string@?1??type_case_Z@?$output_processor@_WV?$stream_output_adapter@_W@__crt_stdio_output@@V?$positional_parameter_base@_WV?$stream_output_adapter@_W@__crt_stdio_output@@@2@@__crt_stdio_output@@AEAA_NXZ@PEAU1?1??234@AEAA_NXZ@@?$positional_parameter_base@_WV?$stream_output_adapter@_W@__crt_stdio_output@@@__crt_stdio_output@@IEAA_NAEAPEAUansi_string@?1??type_case_Z@?$output_processor@_WV?$stream_output_adapter@_W@__crt_stdio_output@@V?$positional_parameter_base@_WV?$stream_output_adapter@_W@__crt_stdio_output@@@2@@1@AEAA_NXZ@@Z 00000001801cfab8 f i libucrt:output.obj
 0001:001cebac       ??$extract_argument_from_va_list@PEAUansi_string@?1??type_case_Z@?$output_processor@_WV?$stream_output_adapter@_W@__crt_stdio_output@@V?$positional_parameter_base@_WV?$stream_output_adapter@_W@__crt_stdio_output@@@2@@__crt_stdio_output@@AEAA_NXZ@PEAU1?1??234@AEAA_NXZ@@?$standard_base@_WV?$stream_output_adapter@_W@__crt_stdio_output@@@__crt_stdio_output@@IEAA_NAEAPEAUansi_string@?1??type_case_Z@?$output_processor@_WV?$stream_output_adapter@_W@__crt_stdio_output@@V?$positional_parameter_base@_WV?$stream_output_adapter@_W@__crt_stdio_output@@@2@@1@AEAA_NXZ@@Z 00000001801cfbac f i libucrt:output.obj
 0001:001cebc4       ??$extract_argument_from_va_list@PEAUansi_string@?1??type_case_Z@?$output_processor@_WV?$stream_output_adapter@_W@__crt_stdio_output@@V?$standard_base@_WV?$stream_output_adapter@_W@__crt_stdio_output@@@2@@__crt_stdio_output@@AEAA_NXZ@PEAU1?1??234@AEAA_NXZ@@?$standard_base@_WV?$stream_output_adapter@_W@__crt_stdio_output@@@__crt_stdio_output@@IEAA_NAEAPEAUansi_string@?1??type_case_Z@?$output_processor@_WV?$stream_output_adapter@_W@__crt_stdio_output@@V?$standard_base@_WV?$stream_output_adapter@_W@__crt_stdio_output@@@2@@1@AEAA_NXZ@@Z 00000001801cfbc4 f i libucrt:output.obj
 0001:001cebdc       ??$extract_argument_from_va_list@PEAUansi_string@?1??type_case_Z@?$output_processor@_WV?$string_output_adapter@_W@__crt_stdio_output@@V?$format_validation_base@_WV?$string_output_adapter@_W@__crt_stdio_output@@@2@@__crt_stdio_output@@AEAA_NXZ@PEAU1?1??234@AEAA_NXZ@@?$standard_base@_WV?$string_output_adapter@_W@__crt_stdio_output@@@__crt_stdio_output@@IEAA_NAEAPEAUansi_string@?1??type_case_Z@?$output_processor@_WV?$string_output_adapter@_W@__crt_stdio_output@@V?$format_validation_base@_WV?$string_output_adapter@_W@__crt_stdio_output@@@2@@1@AEAA_NXZ@@Z 00000001801cfbdc f i libucrt:output.obj
 0001:001cebf4       ??$extract_argument_from_va_list@PEAUansi_string@?1??type_case_Z@?$output_processor@_WV?$string_output_adapter@_W@__crt_stdio_output@@V?$positional_parameter_base@_WV?$string_output_adapter@_W@__crt_stdio_output@@@2@@__crt_stdio_output@@AEAA_NXZ@PEAU1?1??234@AEAA_NXZ@@?$positional_parameter_base@_WV?$string_output_adapter@_W@__crt_stdio_output@@@__crt_stdio_output@@IEAA_NAEAPEAUansi_string@?1??type_case_Z@?$output_processor@_WV?$string_output_adapter@_W@__crt_stdio_output@@V?$positional_parameter_base@_WV?$string_output_adapter@_W@__crt_stdio_output@@@2@@1@AEAA_NXZ@@Z 00000001801cfbf4 f i libucrt:output.obj
 0001:001cece8       ??$extract_argument_from_va_list@PEAUansi_string@?1??type_case_Z@?$output_processor@_WV?$string_output_adapter@_W@__crt_stdio_output@@V?$positional_parameter_base@_WV?$string_output_adapter@_W@__crt_stdio_output@@@2@@__crt_stdio_output@@AEAA_NXZ@PEAU1?1??234@AEAA_NXZ@@?$standard_base@_WV?$string_output_adapter@_W@__crt_stdio_output@@@__crt_stdio_output@@IEAA_NAEAPEAUansi_string@?1??type_case_Z@?$output_processor@_WV?$string_output_adapter@_W@__crt_stdio_output@@V?$positional_parameter_base@_WV?$string_output_adapter@_W@__crt_stdio_output@@@2@@1@AEAA_NXZ@@Z 00000001801cfce8 f i libucrt:output.obj
 0001:001ced00       ??$extract_argument_from_va_list@PEAUansi_string@?1??type_case_Z@?$output_processor@_WV?$string_output_adapter@_W@__crt_stdio_output@@V?$standard_base@_WV?$string_output_adapter@_W@__crt_stdio_output@@@2@@__crt_stdio_output@@AEAA_NXZ@PEAU1?1??234@AEAA_NXZ@@?$standard_base@_WV?$string_output_adapter@_W@__crt_stdio_output@@@__crt_stdio_output@@IEAA_NAEAPEAUansi_string@?1??type_case_Z@?$output_processor@_WV?$string_output_adapter@_W@__crt_stdio_output@@V?$standard_base@_WV?$string_output_adapter@_W@__crt_stdio_output@@@2@@1@AEAA_NXZ@@Z 00000001801cfd00 f i libucrt:output.obj
 0001:001ced18       ??$extract_argument_from_va_list@PEAXPEAX@?$positional_parameter_base@DV?$stream_output_adapter@D@__crt_stdio_output@@@__crt_stdio_output@@IEAA_NAEAPEAX@Z 00000001801cfd18 f i libucrt:output.obj
 0001:001cee0c       ??$extract_argument_from_va_list@PEAXPEAX@?$positional_parameter_base@DV?$string_output_adapter@D@__crt_stdio_output@@@__crt_stdio_output@@IEAA_NAEAPEAX@Z 00000001801cfe0c f i libucrt:output.obj
 0001:001cef00       ??$extract_argument_from_va_list@PEAXPEAX@?$positional_parameter_base@_WV?$stream_output_adapter@_W@__crt_stdio_output@@@__crt_stdio_output@@IEAA_NAEAPEAX@Z 00000001801cff00 f i libucrt:output.obj
 0001:001ceff4       ??$extract_argument_from_va_list@PEAXPEAX@?$positional_parameter_base@_WV?$string_output_adapter@_W@__crt_stdio_output@@@__crt_stdio_output@@IEAA_NAEAPEAX@Z 00000001801cfff4 f i libucrt:output.obj
 0001:001cf0e8       ??$extract_argument_from_va_list@PEAXPEAX@?$standard_base@DV?$stream_output_adapter@D@__crt_stdio_output@@@__crt_stdio_output@@IEAA_NAEAPEAX@Z 00000001801d00e8 f i libucrt:output.obj
 0001:001cf100       ??$extract_argument_from_va_list@PEAXPEAX@?$standard_base@DV?$string_output_adapter@D@__crt_stdio_output@@@__crt_stdio_output@@IEAA_NAEAPEAX@Z 00000001801d0100 f i libucrt:output.obj
 0001:001cf118       ??$extract_argument_from_va_list@PEAXPEAX@?$standard_base@_WV?$stream_output_adapter@_W@__crt_stdio_output@@@__crt_stdio_output@@IEAA_NAEAPEAX@Z 00000001801d0118 f i libucrt:output.obj
 0001:001cf130       ??$extract_argument_from_va_list@PEAXPEAX@?$standard_base@_WV?$string_output_adapter@_W@__crt_stdio_output@@@__crt_stdio_output@@IEAA_NAEAPEAX@Z 00000001801d0130 f i libucrt:output.obj
 0001:001cf148       ??$extract_argument_from_va_list@U_CRT_DOUBLE@@U1@@?$positional_parameter_base@DV?$stream_output_adapter@D@__crt_stdio_output@@@__crt_stdio_output@@IEAA_NAEAU_CRT_DOUBLE@@@Z 00000001801d0148 f i libucrt:output.obj
 0001:001cf240       ??$extract_argument_from_va_list@U_CRT_DOUBLE@@U1@@?$positional_parameter_base@DV?$string_output_adapter@D@__crt_stdio_output@@@__crt_stdio_output@@IEAA_NAEAU_CRT_DOUBLE@@@Z 00000001801d0240 f i libucrt:output.obj
 0001:001cf338       ??$extract_argument_from_va_list@U_CRT_DOUBLE@@U1@@?$positional_parameter_base@_WV?$stream_output_adapter@_W@__crt_stdio_output@@@__crt_stdio_output@@IEAA_NAEAU_CRT_DOUBLE@@@Z 00000001801d0338 f i libucrt:output.obj
 0001:001cf434       ??$extract_argument_from_va_list@U_CRT_DOUBLE@@U1@@?$positional_parameter_base@_WV?$string_output_adapter@_W@__crt_stdio_output@@@__crt_stdio_output@@IEAA_NAEAU_CRT_DOUBLE@@@Z 00000001801d0434 f i libucrt:output.obj
 0001:001cf530       ??$extract_argument_from_va_list@U_CRT_DOUBLE@@U1@@?$standard_base@DV?$stream_output_adapter@D@__crt_stdio_output@@@__crt_stdio_output@@IEAA_NAEAU_CRT_DOUBLE@@@Z 00000001801d0530 f i libucrt:output.obj
 0001:001cf54c       ??$extract_argument_from_va_list@U_CRT_DOUBLE@@U1@@?$standard_base@DV?$string_output_adapter@D@__crt_stdio_output@@@__crt_stdio_output@@IEAA_NAEAU_CRT_DOUBLE@@@Z 00000001801d054c f i libucrt:output.obj
 0001:001cf568       ??$extract_argument_from_va_list@U_CRT_DOUBLE@@U1@@?$standard_base@_WV?$stream_output_adapter@_W@__crt_stdio_output@@@__crt_stdio_output@@IEAA_NAEAU_CRT_DOUBLE@@@Z 00000001801d0568 f i libucrt:output.obj
 0001:001cf584       ??$extract_argument_from_va_list@U_CRT_DOUBLE@@U1@@?$standard_base@_WV?$string_output_adapter@_W@__crt_stdio_output@@@__crt_stdio_output@@IEAA_NAEAU_CRT_DOUBLE@@@Z 00000001801d0584 f i libucrt:output.obj
 0001:001cf5a0       ??$extract_argument_from_va_list@_J_J@?$positional_parameter_base@DV?$stream_output_adapter@D@__crt_stdio_output@@@__crt_stdio_output@@IEAA_NAEA_J@Z 00000001801d05a0 f i libucrt:output.obj
 0001:001cf694       ??$extract_argument_from_va_list@_J_J@?$positional_parameter_base@DV?$string_output_adapter@D@__crt_stdio_output@@@__crt_stdio_output@@IEAA_NAEA_J@Z 00000001801d0694 f i libucrt:output.obj
 0001:001cf788       ??$extract_argument_from_va_list@_J_J@?$positional_parameter_base@_WV?$stream_output_adapter@_W@__crt_stdio_output@@@__crt_stdio_output@@IEAA_NAEA_J@Z 00000001801d0788 f i libucrt:output.obj
 0001:001cf87c       ??$extract_argument_from_va_list@_J_J@?$positional_parameter_base@_WV?$string_output_adapter@_W@__crt_stdio_output@@@__crt_stdio_output@@IEAA_NAEA_J@Z 00000001801d087c f i libucrt:output.obj
 0001:001cf970       ??$extract_argument_from_va_list@_J_J@?$standard_base@DV?$stream_output_adapter@D@__crt_stdio_output@@@__crt_stdio_output@@IEAA_NAEA_J@Z 00000001801d0970 f i libucrt:output.obj
 0001:001cf988       ??$extract_argument_from_va_list@_J_J@?$standard_base@DV?$string_output_adapter@D@__crt_stdio_output@@@__crt_stdio_output@@IEAA_NAEA_J@Z 00000001801d0988 f i libucrt:output.obj
 0001:001cf9a0       ??$extract_argument_from_va_list@_J_J@?$standard_base@_WV?$stream_output_adapter@_W@__crt_stdio_output@@@__crt_stdio_output@@IEAA_NAEA_J@Z 00000001801d09a0 f i libucrt:output.obj
 0001:001cf9b8       ??$extract_argument_from_va_list@_J_J@?$standard_base@_WV?$string_output_adapter@_W@__crt_stdio_output@@@__crt_stdio_output@@IEAA_NAEA_J@Z 00000001801d09b8 f i libucrt:output.obj
 0001:001cf9d0       ??$extract_argument_from_va_list@_K_J@?$positional_parameter_base@DV?$stream_output_adapter@D@__crt_stdio_output@@@__crt_stdio_output@@IEAA_NAEA_J@Z 00000001801d09d0 f i libucrt:output.obj
 0001:001cfac4       ??$extract_argument_from_va_list@_K_J@?$positional_parameter_base@DV?$string_output_adapter@D@__crt_stdio_output@@@__crt_stdio_output@@IEAA_NAEA_J@Z 00000001801d0ac4 f i libucrt:output.obj
 0001:001cfbb8       ??$extract_argument_from_va_list@_K_J@?$positional_parameter_base@_WV?$stream_output_adapter@_W@__crt_stdio_output@@@__crt_stdio_output@@IEAA_NAEA_J@Z 00000001801d0bb8 f i libucrt:output.obj
 0001:001cfcac       ??$extract_argument_from_va_list@_K_J@?$positional_parameter_base@_WV?$string_output_adapter@_W@__crt_stdio_output@@@__crt_stdio_output@@IEAA_NAEA_J@Z 00000001801d0cac f i libucrt:output.obj
 0001:001cfda0       ??$extract_argument_from_va_list@_K_J@?$standard_base@DV?$stream_output_adapter@D@__crt_stdio_output@@@__crt_stdio_output@@IEAA_NAEA_J@Z 00000001801d0da0 f i libucrt:output.obj
 0001:001cfdb8       ??$extract_argument_from_va_list@_K_J@?$standard_base@DV?$string_output_adapter@D@__crt_stdio_output@@@__crt_stdio_output@@IEAA_NAEA_J@Z 00000001801d0db8 f i libucrt:output.obj
 0001:001cfdd0       ??$extract_argument_from_va_list@_K_J@?$standard_base@_WV?$stream_output_adapter@_W@__crt_stdio_output@@@__crt_stdio_output@@IEAA_NAEA_J@Z 00000001801d0dd0 f i libucrt:output.obj
 0001:001cfde8       ??$extract_argument_from_va_list@_K_J@?$standard_base@_WV?$string_output_adapter@_W@__crt_stdio_output@@@__crt_stdio_output@@IEAA_NAEA_J@Z 00000001801d0de8 f i libucrt:output.obj
 0001:001cfe00       ??$extract_argument_from_va_list@_W_W@?$positional_parameter_base@DV?$stream_output_adapter@D@__crt_stdio_output@@@__crt_stdio_output@@IEAA_NAEA_W@Z 00000001801d0e00 f i libucrt:output.obj
 0001:001cfef4       ??$extract_argument_from_va_list@_W_W@?$positional_parameter_base@DV?$string_output_adapter@D@__crt_stdio_output@@@__crt_stdio_output@@IEAA_NAEA_W@Z 00000001801d0ef4 f i libucrt:output.obj
 0001:001cffe8       ??$extract_argument_from_va_list@_W_W@?$positional_parameter_base@_WV?$stream_output_adapter@_W@__crt_stdio_output@@@__crt_stdio_output@@IEAA_NAEA_W@Z 00000001801d0fe8 f i libucrt:output.obj
 0001:001d00e0       ??$extract_argument_from_va_list@_W_W@?$positional_parameter_base@_WV?$string_output_adapter@_W@__crt_stdio_output@@@__crt_stdio_output@@IEAA_NAEA_W@Z 00000001801d10e0 f i libucrt:output.obj
 0001:001d01d8       ??$extract_argument_from_va_list@_W_W@?$standard_base@DV?$stream_output_adapter@D@__crt_stdio_output@@@__crt_stdio_output@@IEAA_NAEA_W@Z 00000001801d11d8 f i libucrt:output.obj
 0001:001d01f0       ??$extract_argument_from_va_list@_W_W@?$standard_base@DV?$string_output_adapter@D@__crt_stdio_output@@@__crt_stdio_output@@IEAA_NAEA_W@Z 00000001801d11f0 f i libucrt:output.obj
 0001:001d0208       ??$extract_argument_from_va_list@_W_W@?$standard_base@_WV?$stream_output_adapter@_W@__crt_stdio_output@@@__crt_stdio_output@@IEAA_NAEA_W@Z 00000001801d1208 f i libucrt:output.obj
 0001:001d0220       ??$extract_argument_from_va_list@_W_W@?$standard_base@_WV?$string_output_adapter@_W@__crt_stdio_output@@@__crt_stdio_output@@IEAA_NAEA_W@Z 00000001801d1220 f i libucrt:output.obj
 0001:001d0238       ??$get_parameter_type@D@?$positional_parameter_base@DV?$stream_output_adapter@D@__crt_stdio_output@@@__crt_stdio_output@@CA?AW4parameter_type@01@PEAD@Z 00000001801d1238 f i libucrt:output.obj
 0001:001d0240       ??$get_parameter_type@D@?$positional_parameter_base@DV?$string_output_adapter@D@__crt_stdio_output@@@__crt_stdio_output@@CA?AW4parameter_type@01@PEAD@Z 00000001801d1240 f i libucrt:output.obj
 0001:001d0248       ??$get_parameter_type@D@?$positional_parameter_base@_WV?$stream_output_adapter@_W@__crt_stdio_output@@@__crt_stdio_output@@CA?AW4parameter_type@01@PEAD@Z 00000001801d1248 f i libucrt:output.obj
 0001:001d0250       ??$get_parameter_type@D@?$positional_parameter_base@_WV?$string_output_adapter@_W@__crt_stdio_output@@@__crt_stdio_output@@CA?AW4parameter_type@01@PEAD@Z 00000001801d1250 f i libucrt:output.obj
 0001:001d0258       ??$get_parameter_type@Uansi_string@?1??type_case_Z@?$output_processor@DV?$stream_output_adapter@D@__crt_stdio_output@@V?$positional_parameter_base@DV?$stream_output_adapter@D@__crt_stdio_output@@@2@@__crt_stdio_output@@AEAA_NXZ@@?$positional_parameter_base@DV?$stream_output_adapter@D@__crt_stdio_output@@@__crt_stdio_output@@CA?AW4parameter_type@01@PEAUansi_string@?1??type_case_Z@?$output_processor@DV?$stream_output_adapter@D@__crt_stdio_output@@V?$positional_parameter_base@DV?$stream_output_adapter@D@__crt_stdio_output@@@2@@1@AEAA_NXZ@@Z 00000001801d1258 f i libucrt:output.obj
 0001:001d0260       ??$get_parameter_type@Uansi_string@?1??type_case_Z@?$output_processor@DV?$string_output_adapter@D@__crt_stdio_output@@V?$positional_parameter_base@DV?$string_output_adapter@D@__crt_stdio_output@@@2@@__crt_stdio_output@@AEAA_NXZ@@?$positional_parameter_base@DV?$string_output_adapter@D@__crt_stdio_output@@@__crt_stdio_output@@CA?AW4parameter_type@01@PEAUansi_string@?1??type_case_Z@?$output_processor@DV?$string_output_adapter@D@__crt_stdio_output@@V?$positional_parameter_base@DV?$string_output_adapter@D@__crt_stdio_output@@@2@@1@AEAA_NXZ@@Z 00000001801d1260 f i libucrt:output.obj
 0001:001d0268       ??$get_parameter_type@Uansi_string@?1??type_case_Z@?$output_processor@_WV?$stream_output_adapter@_W@__crt_stdio_output@@V?$positional_parameter_base@_WV?$stream_output_adapter@_W@__crt_stdio_output@@@2@@__crt_stdio_output@@AEAA_NXZ@@?$positional_parameter_base@_WV?$stream_output_adapter@_W@__crt_stdio_output@@@__crt_stdio_output@@CA?AW4parameter_type@01@PEAUansi_string@?1??type_case_Z@?$output_processor@_WV?$stream_output_adapter@_W@__crt_stdio_output@@V?$positional_parameter_base@_WV?$stream_output_adapter@_W@__crt_stdio_output@@@2@@1@AEAA_NXZ@@Z 00000001801d1268 f i libucrt:output.obj
 0001:001d0270       ??$get_parameter_type@Uansi_string@?1??type_case_Z@?$output_processor@_WV?$string_output_adapter@_W@__crt_stdio_output@@V?$positional_parameter_base@_WV?$string_output_adapter@_W@__crt_stdio_output@@@2@@__crt_stdio_output@@AEAA_NXZ@@?$positional_parameter_base@_WV?$string_output_adapter@_W@__crt_stdio_output@@@__crt_stdio_output@@CA?AW4parameter_type@01@PEAUansi_string@?1??type_case_Z@?$output_processor@_WV?$string_output_adapter@_W@__crt_stdio_output@@V?$positional_parameter_base@_WV?$string_output_adapter@_W@__crt_stdio_output@@@2@@1@AEAA_NXZ@@Z 00000001801d1270 f i libucrt:output.obj
 0001:001d0278       ??$get_parameter_type@X@?$positional_parameter_base@DV?$stream_output_adapter@D@__crt_stdio_output@@@__crt_stdio_output@@CA?AW4parameter_type@01@PEAX@Z 00000001801d1278 f i libucrt:output.obj
 0001:001d0280       ??$get_parameter_type@X@?$positional_parameter_base@DV?$string_output_adapter@D@__crt_stdio_output@@@__crt_stdio_output@@CA?AW4parameter_type@01@PEAX@Z 00000001801d1280 f i libucrt:output.obj
 0001:001d0288       ??$get_parameter_type@X@?$positional_parameter_base@_WV?$stream_output_adapter@_W@__crt_stdio_output@@@__crt_stdio_output@@CA?AW4parameter_type@01@PEAX@Z 00000001801d1288 f i libucrt:output.obj
 0001:001d0290       ??$get_parameter_type@X@?$positional_parameter_base@_WV?$string_output_adapter@_W@__crt_stdio_output@@@__crt_stdio_output@@CA?AW4parameter_type@01@PEAX@Z 00000001801d1290 f i libucrt:output.obj
 0001:001d0298       ??$is_character_specifier@D@?$positional_parameter_base@DV?$stream_output_adapter@D@__crt_stdio_output@@@__crt_stdio_output@@CA_ND@Z 00000001801d1298 f i libucrt:output.obj
 0001:001d02a4       ??$is_character_specifier@D@?$positional_parameter_base@DV?$string_output_adapter@D@__crt_stdio_output@@@__crt_stdio_output@@CA_ND@Z 00000001801d12a4 f i libucrt:output.obj
 0001:001d02b0       ??$is_character_specifier@_W@?$positional_parameter_base@_WV?$stream_output_adapter@_W@__crt_stdio_output@@@__crt_stdio_output@@CA_N_W@Z 00000001801d12b0 f i libucrt:output.obj
 0001:001d02c4       ??$is_character_specifier@_W@?$positional_parameter_base@_WV?$string_output_adapter@_W@__crt_stdio_output@@@__crt_stdio_output@@CA_N_W@Z 00000001801d12c4 f i libucrt:output.obj
 0001:001d02d8       ??$is_integral_specifier@D@?$positional_parameter_base@DV?$stream_output_adapter@D@__crt_stdio_output@@@__crt_stdio_output@@CA_ND@Z 00000001801d12d8 f i libucrt:output.obj
 0001:001d0308       ??$is_integral_specifier@D@?$positional_parameter_base@DV?$string_output_adapter@D@__crt_stdio_output@@@__crt_stdio_output@@CA_ND@Z 00000001801d1308 f i libucrt:output.obj
 0001:001d0338       ??$is_integral_specifier@_W@?$positional_parameter_base@_WV?$stream_output_adapter@_W@__crt_stdio_output@@@__crt_stdio_output@@CA_N_W@Z 00000001801d1338 f i libucrt:output.obj
 0001:001d036c       ??$is_integral_specifier@_W@?$positional_parameter_base@_WV?$string_output_adapter@_W@__crt_stdio_output@@@__crt_stdio_output@@CA_N_W@Z 00000001801d136c f i libucrt:output.obj
 0001:001d03a0       ??$is_pointer_specifier@D@?$positional_parameter_base@DV?$stream_output_adapter@D@__crt_stdio_output@@@__crt_stdio_output@@CA_ND@Z 00000001801d13a0 f i libucrt:output.obj
 0001:001d03a8       ??$is_pointer_specifier@D@?$positional_parameter_base@DV?$string_output_adapter@D@__crt_stdio_output@@@__crt_stdio_output@@CA_ND@Z 00000001801d13a8 f i libucrt:output.obj
 0001:001d03b0       ??$is_pointer_specifier@_W@?$positional_parameter_base@_WV?$stream_output_adapter@_W@__crt_stdio_output@@@__crt_stdio_output@@CA_N_W@Z 00000001801d13b0 f i libucrt:output.obj
 0001:001d03bc       ??$is_pointer_specifier@_W@?$positional_parameter_base@_WV?$string_output_adapter@_W@__crt_stdio_output@@@__crt_stdio_output@@CA_N_W@Z 00000001801d13bc f i libucrt:output.obj
 0001:001d03c8       ??$is_string_specifier@D@?$positional_parameter_base@DV?$stream_output_adapter@D@__crt_stdio_output@@@__crt_stdio_output@@CA_ND@Z 00000001801d13c8 f i libucrt:output.obj
 0001:001d03d4       ??$is_string_specifier@D@?$positional_parameter_base@DV?$string_output_adapter@D@__crt_stdio_output@@@__crt_stdio_output@@CA_ND@Z 00000001801d13d4 f i libucrt:output.obj
 0001:001d03e0       ??$is_string_specifier@_W@?$positional_parameter_base@_WV?$stream_output_adapter@_W@__crt_stdio_output@@@__crt_stdio_output@@CA_N_W@Z 00000001801d13e0 f i libucrt:output.obj
 0001:001d03f4       ??$is_string_specifier@_W@?$positional_parameter_base@_WV?$string_output_adapter@_W@__crt_stdio_output@@@__crt_stdio_output@@CA_N_W@Z 00000001801d13f4 f i libucrt:output.obj
 0001:001d0408       ??$is_wide_character_specifier@D@__crt_stdio_output@@YA_N_KDW4length_modifier@0@@Z 00000001801d1408 f i libucrt:output.obj
 0001:001d0444       ??$is_wide_character_specifier@_W@__crt_stdio_output@@YA_N_K_WW4length_modifier@0@@Z 00000001801d1444 f i libucrt:output.obj
 0001:001d049c       ??$peek_va_arg@C@__crt_stdio_output@@YACPEAD@Z 00000001801d149c f i libucrt:output.obj
 0001:001d04a0       ??$peek_va_arg@E@__crt_stdio_output@@YAEPEAD@Z 00000001801d14a0 f i libucrt:output.obj
 0001:001d04a4       ??$peek_va_arg@F@__crt_stdio_output@@YAFPEAD@Z 00000001801d14a4 f i libucrt:output.obj
 0001:001d04a8       ??$peek_va_arg@G@__crt_stdio_output@@YAGPEAD@Z 00000001801d14a8 f i libucrt:output.obj
 0001:001d04ac       ??$peek_va_arg@H@__crt_stdio_output@@YAHPEAD@Z 00000001801d14ac f i libucrt:output.obj
 0001:001d04b0       ??$peek_va_arg@I@__crt_stdio_output@@YAIPEAD@Z 00000001801d14b0 f i libucrt:output.obj
 0001:001d04b4       ??$peek_va_arg@PEAD@__crt_stdio_output@@YAPEADPEAD@Z 00000001801d14b4 f i libucrt:output.obj
 0001:001d04b8       ??$peek_va_arg@PEAUansi_string@?1??type_case_Z@?$output_processor@DV?$stream_output_adapter@D@__crt_stdio_output@@V?$positional_parameter_base@DV?$stream_output_adapter@D@__crt_stdio_output@@@2@@__crt_stdio_output@@AEAA_NXZ@@__crt_stdio_output@@YAPEAUansi_string@?1??type_case_Z@?$output_processor@DV?$stream_output_adapter@D@__crt_stdio_output@@V?$positional_parameter_base@DV?$stream_output_adapter@D@__crt_stdio_output@@@2@@0@AEAA_NXZ@PEAD@Z 00000001801d14b8 f i libucrt:output.obj
 0001:001d04bc       ??$peek_va_arg@PEAUansi_string@?1??type_case_Z@?$output_processor@DV?$string_output_adapter@D@__crt_stdio_output@@V?$positional_parameter_base@DV?$string_output_adapter@D@__crt_stdio_output@@@2@@__crt_stdio_output@@AEAA_NXZ@@__crt_stdio_output@@YAPEAUansi_string@?1??type_case_Z@?$output_processor@DV?$string_output_adapter@D@__crt_stdio_output@@V?$positional_parameter_base@DV?$string_output_adapter@D@__crt_stdio_output@@@2@@0@AEAA_NXZ@PEAD@Z 00000001801d14bc f i libucrt:output.obj
 0001:001d04c0       ??$peek_va_arg@PEAUansi_string@?1??type_case_Z@?$output_processor@_WV?$stream_output_adapter@_W@__crt_stdio_output@@V?$positional_parameter_base@_WV?$stream_output_adapter@_W@__crt_stdio_output@@@2@@__crt_stdio_output@@AEAA_NXZ@@__crt_stdio_output@@YAPEAUansi_string@?1??type_case_Z@?$output_processor@_WV?$stream_output_adapter@_W@__crt_stdio_output@@V?$positional_parameter_base@_WV?$stream_output_adapter@_W@__crt_stdio_output@@@2@@0@AEAA_NXZ@PEAD@Z 00000001801d14c0 f i libucrt:output.obj
 0001:001d04c4       ??$peek_va_arg@PEAUansi_string@?1??type_case_Z@?$output_processor@_WV?$string_output_adapter@_W@__crt_stdio_output@@V?$positional_parameter_base@_WV?$string_output_adapter@_W@__crt_stdio_output@@@2@@__crt_stdio_output@@AEAA_NXZ@@__crt_stdio_output@@YAPEAUansi_string@?1??type_case_Z@?$output_processor@_WV?$string_output_adapter@_W@__crt_stdio_output@@V?$positional_parameter_base@_WV?$string_output_adapter@_W@__crt_stdio_output@@@2@@0@AEAA_NXZ@PEAD@Z 00000001801d14c4 f i libucrt:output.obj
 0001:001d04c8       ??$peek_va_arg@PEAX@__crt_stdio_output@@YAPEAXPEAD@Z 00000001801d14c8 f i libucrt:output.obj
 0001:001d04cc       ??$peek_va_arg@U_CRT_DOUBLE@@@__crt_stdio_output@@YA?AU_CRT_DOUBLE@@PEAD@Z 00000001801d14cc f i libucrt:output.obj
 0001:001d04d0       ??$peek_va_arg@_J@__crt_stdio_output@@YA_JPEAD@Z 00000001801d14d0 f i libucrt:output.obj
 0001:001d04d4       ??$peek_va_arg@_K@__crt_stdio_output@@YA_KPEAD@Z 00000001801d14d4 f i libucrt:output.obj
 0001:001d04d8       ??$peek_va_arg@_W@__crt_stdio_output@@YA_WPEAD@Z 00000001801d14d8 f i libucrt:output.obj
 0001:001d04dc       ??$puttc_nolock@AEBDPEAU_iobuf@@@?$__crt_char_traits@D@@SAHAEBD$$QEAPEAU_iobuf@@@Z 00000001801d14dc f i libucrt:output.obj
 0001:001d04ec       ??$puttc_nolock@AEB_WPEAU_iobuf@@@?$__crt_char_traits@_W@@SAGAEB_W$$QEAPEAU_iobuf@@@Z 00000001801d14ec f i libucrt:output.obj
 0001:001d04fc       ??$read_va_arg@C@__crt_stdio_output@@YACAEAPEAD@Z 00000001801d14fc f i libucrt:output.obj
 0001:001d050c       ??$read_va_arg@E@__crt_stdio_output@@YAEAEAPEAD@Z 00000001801d150c f i libucrt:output.obj
 0001:001d051c       ??$read_va_arg@F@__crt_stdio_output@@YAFAEAPEAD@Z 00000001801d151c f i libucrt:output.obj
 0001:001d052c       ??$read_va_arg@G@__crt_stdio_output@@YAGAEAPEAD@Z 00000001801d152c f i libucrt:output.obj
 0001:001d053c       ??$read_va_arg@H@__crt_stdio_output@@YAHAEAPEAD@Z 00000001801d153c f i libucrt:output.obj
 0001:001d054c       ??$read_va_arg@I@__crt_stdio_output@@YAIAEAPEAD@Z 00000001801d154c f i libucrt:output.obj
 0001:001d055c       ??$read_va_arg@PEAD@__crt_stdio_output@@YAPEADAEAPEAD@Z 00000001801d155c f i libucrt:output.obj
 0001:001d056c       ??$read_va_arg@PEAUansi_string@?1??type_case_Z@?$output_processor@DV?$stream_output_adapter@D@__crt_stdio_output@@V?$format_validation_base@DV?$stream_output_adapter@D@__crt_stdio_output@@@2@@__crt_stdio_output@@AEAA_NXZ@@__crt_stdio_output@@YAPEAUansi_string@?1??type_case_Z@?$output_processor@DV?$stream_output_adapter@D@__crt_stdio_output@@V?$format_validation_base@DV?$stream_output_adapter@D@__crt_stdio_output@@@2@@0@AEAA_NXZ@AEAPEAD@Z 00000001801d156c f i libucrt:output.obj
 0001:001d057c       ??$read_va_arg@PEAUansi_string@?1??type_case_Z@?$output_processor@DV?$stream_output_adapter@D@__crt_stdio_output@@V?$positional_parameter_base@DV?$stream_output_adapter@D@__crt_stdio_output@@@2@@__crt_stdio_output@@AEAA_NXZ@@__crt_stdio_output@@YAPEAUansi_string@?1??type_case_Z@?$output_processor@DV?$stream_output_adapter@D@__crt_stdio_output@@V?$positional_parameter_base@DV?$stream_output_adapter@D@__crt_stdio_output@@@2@@0@AEAA_NXZ@AEAPEAD@Z 00000001801d157c f i libucrt:output.obj
 0001:001d058c       ??$read_va_arg@PEAUansi_string@?1??type_case_Z@?$output_processor@DV?$stream_output_adapter@D@__crt_stdio_output@@V?$standard_base@DV?$stream_output_adapter@D@__crt_stdio_output@@@2@@__crt_stdio_output@@AEAA_NXZ@@__crt_stdio_output@@YAPEAUansi_string@?1??type_case_Z@?$output_processor@DV?$stream_output_adapter@D@__crt_stdio_output@@V?$standard_base@DV?$stream_output_adapter@D@__crt_stdio_output@@@2@@0@AEAA_NXZ@AEAPEAD@Z 00000001801d158c f i libucrt:output.obj
 0001:001d059c       ??$read_va_arg@PEAUansi_string@?1??type_case_Z@?$output_processor@DV?$string_output_adapter@D@__crt_stdio_output@@V?$format_validation_base@DV?$string_output_adapter@D@__crt_stdio_output@@@2@@__crt_stdio_output@@AEAA_NXZ@@__crt_stdio_output@@YAPEAUansi_string@?1??type_case_Z@?$output_processor@DV?$string_output_adapter@D@__crt_stdio_output@@V?$format_validation_base@DV?$string_output_adapter@D@__crt_stdio_output@@@2@@0@AEAA_NXZ@AEAPEAD@Z 00000001801d159c f i libucrt:output.obj
 0001:001d05ac       ??$read_va_arg@PEAUansi_string@?1??type_case_Z@?$output_processor@DV?$string_output_adapter@D@__crt_stdio_output@@V?$positional_parameter_base@DV?$string_output_adapter@D@__crt_stdio_output@@@2@@__crt_stdio_output@@AEAA_NXZ@@__crt_stdio_output@@YAPEAUansi_string@?1??type_case_Z@?$output_processor@DV?$string_output_adapter@D@__crt_stdio_output@@V?$positional_parameter_base@DV?$string_output_adapter@D@__crt_stdio_output@@@2@@0@AEAA_NXZ@AEAPEAD@Z 00000001801d15ac f i libucrt:output.obj
 0001:001d05bc       ??$read_va_arg@PEAUansi_string@?1??type_case_Z@?$output_processor@DV?$string_output_adapter@D@__crt_stdio_output@@V?$standard_base@DV?$string_output_adapter@D@__crt_stdio_output@@@2@@__crt_stdio_output@@AEAA_NXZ@@__crt_stdio_output@@YAPEAUansi_string@?1??type_case_Z@?$output_processor@DV?$string_output_adapter@D@__crt_stdio_output@@V?$standard_base@DV?$string_output_adapter@D@__crt_stdio_output@@@2@@0@AEAA_NXZ@AEAPEAD@Z 00000001801d15bc f i libucrt:output.obj
 0001:001d05cc       ??$read_va_arg@PEAUansi_string@?1??type_case_Z@?$output_processor@_WV?$stream_output_adapter@_W@__crt_stdio_output@@V?$format_validation_base@_WV?$stream_output_adapter@_W@__crt_stdio_output@@@2@@__crt_stdio_output@@AEAA_NXZ@@__crt_stdio_output@@YAPEAUansi_string@?1??type_case_Z@?$output_processor@_WV?$stream_output_adapter@_W@__crt_stdio_output@@V?$format_validation_base@_WV?$stream_output_adapter@_W@__crt_stdio_output@@@2@@0@AEAA_NXZ@AEAPEAD@Z 00000001801d15cc f i libucrt:output.obj
 0001:001d05dc       ??$read_va_arg@PEAUansi_string@?1??type_case_Z@?$output_processor@_WV?$stream_output_adapter@_W@__crt_stdio_output@@V?$positional_parameter_base@_WV?$stream_output_adapter@_W@__crt_stdio_output@@@2@@__crt_stdio_output@@AEAA_NXZ@@__crt_stdio_output@@YAPEAUansi_string@?1??type_case_Z@?$output_processor@_WV?$stream_output_adapter@_W@__crt_stdio_output@@V?$positional_parameter_base@_WV?$stream_output_adapter@_W@__crt_stdio_output@@@2@@0@AEAA_NXZ@AEAPEAD@Z 00000001801d15dc f i libucrt:output.obj
 0001:001d05ec       ??$read_va_arg@PEAUansi_string@?1??type_case_Z@?$output_processor@_WV?$stream_output_adapter@_W@__crt_stdio_output@@V?$standard_base@_WV?$stream_output_adapter@_W@__crt_stdio_output@@@2@@__crt_stdio_output@@AEAA_NXZ@@__crt_stdio_output@@YAPEAUansi_string@?1??type_case_Z@?$output_processor@_WV?$stream_output_adapter@_W@__crt_stdio_output@@V?$standard_base@_WV?$stream_output_adapter@_W@__crt_stdio_output@@@2@@0@AEAA_NXZ@AEAPEAD@Z 00000001801d15ec f i libucrt:output.obj
 0001:001d05fc       ??$read_va_arg@PEAUansi_string@?1??type_case_Z@?$output_processor@_WV?$string_output_adapter@_W@__crt_stdio_output@@V?$format_validation_base@_WV?$string_output_adapter@_W@__crt_stdio_output@@@2@@__crt_stdio_output@@AEAA_NXZ@@__crt_stdio_output@@YAPEAUansi_string@?1??type_case_Z@?$output_processor@_WV?$string_output_adapter@_W@__crt_stdio_output@@V?$format_validation_base@_WV?$string_output_adapter@_W@__crt_stdio_output@@@2@@0@AEAA_NXZ@AEAPEAD@Z 00000001801d15fc f i libucrt:output.obj
 0001:001d060c       ??$read_va_arg@PEAUansi_string@?1??type_case_Z@?$output_processor@_WV?$string_output_adapter@_W@__crt_stdio_output@@V?$positional_parameter_base@_WV?$string_output_adapter@_W@__crt_stdio_output@@@2@@__crt_stdio_output@@AEAA_NXZ@@__crt_stdio_output@@YAPEAUansi_string@?1??type_case_Z@?$output_processor@_WV?$string_output_adapter@_W@__crt_stdio_output@@V?$positional_parameter_base@_WV?$string_output_adapter@_W@__crt_stdio_output@@@2@@0@AEAA_NXZ@AEAPEAD@Z 00000001801d160c f i libucrt:output.obj
 0001:001d061c       ??$read_va_arg@PEAUansi_string@?1??type_case_Z@?$output_processor@_WV?$string_output_adapter@_W@__crt_stdio_output@@V?$standard_base@_WV?$string_output_adapter@_W@__crt_stdio_output@@@2@@__crt_stdio_output@@AEAA_NXZ@@__crt_stdio_output@@YAPEAUansi_string@?1??type_case_Z@?$output_processor@_WV?$string_output_adapter@_W@__crt_stdio_output@@V?$standard_base@_WV?$string_output_adapter@_W@__crt_stdio_output@@@2@@0@AEAA_NXZ@AEAPEAD@Z 00000001801d161c f i libucrt:output.obj
 0001:001d062c       ??$read_va_arg@PEAX@__crt_stdio_output@@YAPEAXAEAPEAD@Z 00000001801d162c f i libucrt:output.obj
 0001:001d063c       ??$read_va_arg@U_CRT_DOUBLE@@@__crt_stdio_output@@YA?AU_CRT_DOUBLE@@AEAPEAD@Z 00000001801d163c f i libucrt:output.obj
 0001:001d064c       ??$read_va_arg@_J@__crt_stdio_output@@YA_JAEAPEAD@Z 00000001801d164c f i libucrt:output.obj
 0001:001d065c       ??$read_va_arg@_K@__crt_stdio_output@@YA_KAEAPEAD@Z 00000001801d165c f i libucrt:output.obj
 0001:001d066c       ??$read_va_arg@_W@__crt_stdio_output@@YA_WAEAPEAD@Z 00000001801d166c f i libucrt:output.obj
 0001:001d067c       ??$scratch_count@D@formatting_buffer@__crt_stdio_output@@QEBA_KXZ 00000001801d167c f i libucrt:output.obj
 0001:001d06a0       ??$scratch_data@D@formatting_buffer@__crt_stdio_output@@QEAAPEADXZ 00000001801d16a0 f i libucrt:output.obj
 0001:001d06cc       ??$tcstol@AEAPEBDPEAPEADH@?$__crt_char_traits@D@@SAJAEAPEBD$$QEAPEAPEAD$$QEAH@Z 00000001801d16cc f i libucrt:output.obj
 0001:001d06e0       ??$tcstol@AEAPEB_WPEAPEA_WH@?$__crt_char_traits@_W@@SAJAEAPEB_W$$QEAPEAPEA_W$$QEAH@Z 00000001801d16e0 f i libucrt:output.obj
 0001:001d06f4       ??$tcstol@PEBDPEAPEADH@?$__crt_char_traits@D@@SAJ$$QEAPEBD$$QEAPEAPEAD$$QEAH@Z 00000001801d16f4 f i libucrt:output.obj
 0001:001d0708       ??$tcstol@PEB_WPEAPEA_WH@?$__crt_char_traits@_W@@SAJ$$QEAPEB_W$$QEAPEAPEA_W$$QEAH@Z 00000001801d1708 f i libucrt:output.obj
 0001:001d071c       ??$type_case_integer_parse_into_buffer@I@?$output_processor@DV?$stream_output_adapter@D@__crt_stdio_output@@V?$format_validation_base@DV?$stream_output_adapter@D@__crt_stdio_output@@@2@@__crt_stdio_output@@AEAAXII_N@Z 00000001801d171c f i libucrt:output.obj
 0001:001d07e0       ??$type_case_integer_parse_into_buffer@I@?$output_processor@DV?$stream_output_adapter@D@__crt_stdio_output@@V?$positional_parameter_base@DV?$stream_output_adapter@D@__crt_stdio_output@@@2@@__crt_stdio_output@@AEAAXII_N@Z 00000001801d17e0 f i libucrt:output.obj
 0001:001d08a4       ??$type_case_integer_parse_into_buffer@I@?$output_processor@DV?$stream_output_adapter@D@__crt_stdio_output@@V?$standard_base@DV?$stream_output_adapter@D@__crt_stdio_output@@@2@@__crt_stdio_output@@AEAAXII_N@Z 00000001801d18a4 f i libucrt:output.obj
 0001:001d0968       ??$type_case_integer_parse_into_buffer@I@?$output_processor@DV?$string_output_adapter@D@__crt_stdio_output@@V?$format_validation_base@DV?$string_output_adapter@D@__crt_stdio_output@@@2@@__crt_stdio_output@@AEAAXII_N@Z 00000001801d1968 f i libucrt:output.obj
 0001:001d0a2c       ??$type_case_integer_parse_into_buffer@I@?$output_processor@DV?$string_output_adapter@D@__crt_stdio_output@@V?$positional_parameter_base@DV?$string_output_adapter@D@__crt_stdio_output@@@2@@__crt_stdio_output@@AEAAXII_N@Z 00000001801d1a2c f i libucrt:output.obj
 0001:001d0af0       ??$type_case_integer_parse_into_buffer@I@?$output_processor@DV?$string_output_adapter@D@__crt_stdio_output@@V?$standard_base@DV?$string_output_adapter@D@__crt_stdio_output@@@2@@__crt_stdio_output@@AEAAXII_N@Z 00000001801d1af0 f i libucrt:output.obj
 0001:001d0bb4       ??$type_case_integer_parse_into_buffer@I@?$output_processor@_WV?$stream_output_adapter@_W@__crt_stdio_output@@V?$format_validation_base@_WV?$stream_output_adapter@_W@__crt_stdio_output@@@2@@__crt_stdio_output@@AEAAXII_N@Z 00000001801d1bb4 f i libucrt:output.obj
 0001:001d0c78       ??$type_case_integer_parse_into_buffer@I@?$output_processor@_WV?$stream_output_adapter@_W@__crt_stdio_output@@V?$positional_parameter_base@_WV?$stream_output_adapter@_W@__crt_stdio_output@@@2@@__crt_stdio_output@@AEAAXII_N@Z 00000001801d1c78 f i libucrt:output.obj
 0001:001d0d3c       ??$type_case_integer_parse_into_buffer@I@?$output_processor@_WV?$stream_output_adapter@_W@__crt_stdio_output@@V?$standard_base@_WV?$stream_output_adapter@_W@__crt_stdio_output@@@2@@__crt_stdio_output@@AEAAXII_N@Z 00000001801d1d3c f i libucrt:output.obj
 0001:001d0e00       ??$type_case_integer_parse_into_buffer@I@?$output_processor@_WV?$string_output_adapter@_W@__crt_stdio_output@@V?$format_validation_base@_WV?$string_output_adapter@_W@__crt_stdio_output@@@2@@__crt_stdio_output@@AEAAXII_N@Z 00000001801d1e00 f i libucrt:output.obj
 0001:001d0ec4       ??$type_case_integer_parse_into_buffer@I@?$output_processor@_WV?$string_output_adapter@_W@__crt_stdio_output@@V?$positional_parameter_base@_WV?$string_output_adapter@_W@__crt_stdio_output@@@2@@__crt_stdio_output@@AEAAXII_N@Z 00000001801d1ec4 f i libucrt:output.obj
 0001:001d0f88       ??$type_case_integer_parse_into_buffer@I@?$output_processor@_WV?$string_output_adapter@_W@__crt_stdio_output@@V?$standard_base@_WV?$string_output_adapter@_W@__crt_stdio_output@@@2@@__crt_stdio_output@@AEAAXII_N@Z 00000001801d1f88 f i libucrt:output.obj
 0001:001d104c       ??$type_case_integer_parse_into_buffer@_K@?$output_processor@DV?$stream_output_adapter@D@__crt_stdio_output@@V?$format_validation_base@DV?$stream_output_adapter@D@__crt_stdio_output@@@2@@__crt_stdio_output@@AEAAX_KI_N@Z 00000001801d204c f i libucrt:output.obj
 0001:001d1110       ??$type_case_integer_parse_into_buffer@_K@?$output_processor@DV?$stream_output_adapter@D@__crt_stdio_output@@V?$positional_parameter_base@DV?$stream_output_adapter@D@__crt_stdio_output@@@2@@__crt_stdio_output@@AEAAX_KI_N@Z 00000001801d2110 f i libucrt:output.obj
 0001:001d11d4       ??$type_case_integer_parse_into_buffer@_K@?$output_processor@DV?$stream_output_adapter@D@__crt_stdio_output@@V?$standard_base@DV?$stream_output_adapter@D@__crt_stdio_output@@@2@@__crt_stdio_output@@AEAAX_KI_N@Z 00000001801d21d4 f i libucrt:output.obj
 0001:001d1298       ??$type_case_integer_parse_into_buffer@_K@?$output_processor@DV?$string_output_adapter@D@__crt_stdio_output@@V?$format_validation_base@DV?$string_output_adapter@D@__crt_stdio_output@@@2@@__crt_stdio_output@@AEAAX_KI_N@Z 00000001801d2298 f i libucrt:output.obj
 0001:001d135c       ??$type_case_integer_parse_into_buffer@_K@?$output_processor@DV?$string_output_adapter@D@__crt_stdio_output@@V?$positional_parameter_base@DV?$string_output_adapter@D@__crt_stdio_output@@@2@@__crt_stdio_output@@AEAAX_KI_N@Z 00000001801d235c f i libucrt:output.obj
 0001:001d1420       ??$type_case_integer_parse_into_buffer@_K@?$output_processor@DV?$string_output_adapter@D@__crt_stdio_output@@V?$standard_base@DV?$string_output_adapter@D@__crt_stdio_output@@@2@@__crt_stdio_output@@AEAAX_KI_N@Z 00000001801d2420 f i libucrt:output.obj
 0001:001d14e4       ??$type_case_integer_parse_into_buffer@_K@?$output_processor@_WV?$stream_output_adapter@_W@__crt_stdio_output@@V?$format_validation_base@_WV?$stream_output_adapter@_W@__crt_stdio_output@@@2@@__crt_stdio_output@@AEAAX_KI_N@Z 00000001801d24e4 f i libucrt:output.obj
 0001:001d15a8       ??$type_case_integer_parse_into_buffer@_K@?$output_processor@_WV?$stream_output_adapter@_W@__crt_stdio_output@@V?$positional_parameter_base@_WV?$stream_output_adapter@_W@__crt_stdio_output@@@2@@__crt_stdio_output@@AEAAX_KI_N@Z 00000001801d25a8 f i libucrt:output.obj
 0001:001d166c       ??$type_case_integer_parse_into_buffer@_K@?$output_processor@_WV?$stream_output_adapter@_W@__crt_stdio_output@@V?$standard_base@_WV?$stream_output_adapter@_W@__crt_stdio_output@@@2@@__crt_stdio_output@@AEAAX_KI_N@Z 00000001801d266c f i libucrt:output.obj
 0001:001d1730       ??$type_case_integer_parse_into_buffer@_K@?$output_processor@_WV?$string_output_adapter@_W@__crt_stdio_output@@V?$format_validation_base@_WV?$string_output_adapter@_W@__crt_stdio_output@@@2@@__crt_stdio_output@@AEAAX_KI_N@Z 00000001801d2730 f i libucrt:output.obj
 0001:001d17f4       ??$type_case_integer_parse_into_buffer@_K@?$output_processor@_WV?$string_output_adapter@_W@__crt_stdio_output@@V?$positional_parameter_base@_WV?$string_output_adapter@_W@__crt_stdio_output@@@2@@__crt_stdio_output@@AEAAX_KI_N@Z 00000001801d27f4 f i libucrt:output.obj
 0001:001d18b8       ??$type_case_integer_parse_into_buffer@_K@?$output_processor@_WV?$string_output_adapter@_W@__crt_stdio_output@@V?$standard_base@_WV?$string_output_adapter@_W@__crt_stdio_output@@@2@@__crt_stdio_output@@AEAAX_KI_N@Z 00000001801d28b8 f i libucrt:output.obj
 0001:001d197c       ??$write_multiple_characters@V?$stream_output_adapter@D@__crt_stdio_output@@D@__crt_stdio_output@@YAXAEBV?$stream_output_adapter@D@0@DHQEAH@Z 00000001801d297c f i libucrt:output.obj
 0001:001d1a24       ??$write_multiple_characters@V?$stream_output_adapter@_W@__crt_stdio_output@@D@__crt_stdio_output@@YAXAEBV?$stream_output_adapter@_W@0@DHQEAH@Z 00000001801d2a24 f i libucrt:output.obj
 0001:001d1ad8       ??$write_multiple_characters@V?$string_output_adapter@D@__crt_stdio_output@@D@__crt_stdio_output@@YAXAEBV?$string_output_adapter@D@0@DHQEAH@Z 00000001801d2ad8 f i libucrt:output.obj
 0001:001d1b4c       ??$write_multiple_characters@V?$string_output_adapter@_W@__crt_stdio_output@@D@__crt_stdio_output@@YAXAEBV?$string_output_adapter@_W@0@DHQEAH@Z 00000001801d2b4c f i libucrt:output.obj
 0001:001d1d70       ??0?$common_data@D@__crt_stdio_output@@IEAA@XZ 00000001801d2d70 f i libucrt:output.obj
 0001:001d1dbc       ??0?$common_data@_W@__crt_stdio_output@@IEAA@XZ 00000001801d2dbc f i libucrt:output.obj
 0001:001d1e0c       ??0?$output_adapter_data@DV?$stream_output_adapter@D@__crt_stdio_output@@@__crt_stdio_output@@IEAA@AEBV?$stream_output_adapter@D@1@_KQEBDQEAU__crt_locale_pointers@@QEAD@Z 00000001801d2e0c f i libucrt:output.obj
 0001:001d1e84       ??0?$output_adapter_data@DV?$string_output_adapter@D@__crt_stdio_output@@@__crt_stdio_output@@IEAA@AEBV?$string_output_adapter@D@1@_KQEBDQEAU__crt_locale_pointers@@QEAD@Z 00000001801d2e84 f i libucrt:output.obj
 0001:001d1efc       ??0?$output_adapter_data@_WV?$stream_output_adapter@_W@__crt_stdio_output@@@__crt_stdio_output@@IEAA@AEBV?$stream_output_adapter@_W@1@_KQEB_WQEAU__crt_locale_pointers@@QEAD@Z 00000001801d2efc f i libucrt:output.obj
 0001:001d1f78       ??0?$output_adapter_data@_WV?$string_output_adapter@_W@__crt_stdio_output@@@__crt_stdio_output@@IEAA@AEBV?$string_output_adapter@_W@1@_KQEB_WQEAU__crt_locale_pointers@@QEAD@Z 00000001801d2f78 f i libucrt:output.obj
 0001:001d1ff4       ??0?$output_processor@DV?$stream_output_adapter@D@__crt_stdio_output@@V?$format_validation_base@DV?$stream_output_adapter@D@__crt_stdio_output@@@2@@__crt_stdio_output@@QEAA@AEBV?$stream_output_adapter@D@1@_KQEBDQEAU__crt_locale_pointers@@QEAD@Z 00000001801d2ff4 f i libucrt:output.obj
 0001:001d2090       ??0?$output_processor@DV?$stream_output_adapter@D@__crt_stdio_output@@V?$positional_parameter_base@DV?$stream_output_adapter@D@__crt_stdio_output@@@2@@__crt_stdio_output@@QEAA@AEBV?$stream_output_adapter@D@1@_KQEBDQEAU__crt_locale_pointers@@QEAD@Z 00000001801d3090 f i libucrt:output.obj
 0001:001d2150       ??0?$output_processor@DV?$stream_output_adapter@D@__crt_stdio_output@@V?$standard_base@DV?$stream_output_adapter@D@__crt_stdio_output@@@2@@__crt_stdio_output@@QEAA@AEBV?$stream_output_adapter@D@1@_KQEBDQEAU__crt_locale_pointers@@QEAD@Z 00000001801d3150 f i libucrt:output.obj
 0001:001d21ec       ??0?$output_processor@DV?$string_output_adapter@D@__crt_stdio_output@@V?$format_validation_base@DV?$string_output_adapter@D@__crt_stdio_output@@@2@@__crt_stdio_output@@QEAA@AEBV?$string_output_adapter@D@1@_KQEBDQEAU__crt_locale_pointers@@QEAD@Z 00000001801d31ec f i libucrt:output.obj
 0001:001d2288       ??0?$output_processor@DV?$string_output_adapter@D@__crt_stdio_output@@V?$positional_parameter_base@DV?$string_output_adapter@D@__crt_stdio_output@@@2@@__crt_stdio_output@@QEAA@AEBV?$string_output_adapter@D@1@_KQEBDQEAU__crt_locale_pointers@@QEAD@Z 00000001801d3288 f i libucrt:output.obj
 0001:001d2348       ??0?$output_processor@DV?$string_output_adapter@D@__crt_stdio_output@@V?$standard_base@DV?$string_output_adapter@D@__crt_stdio_output@@@2@@__crt_stdio_output@@QEAA@AEBV?$string_output_adapter@D@1@_KQEBDQEAU__crt_locale_pointers@@QEAD@Z 00000001801d3348 f i libucrt:output.obj
 0001:001d23e4       ??0?$output_processor@_WV?$stream_output_adapter@_W@__crt_stdio_output@@V?$format_validation_base@_WV?$stream_output_adapter@_W@__crt_stdio_output@@@2@@__crt_stdio_output@@QEAA@AEBV?$stream_output_adapter@_W@1@_KQEB_WQEAU__crt_locale_pointers@@QEAD@Z 00000001801d33e4 f i libucrt:output.obj
 0001:001d2484       ??0?$output_processor@_WV?$stream_output_adapter@_W@__crt_stdio_output@@V?$positional_parameter_base@_WV?$stream_output_adapter@_W@__crt_stdio_output@@@2@@__crt_stdio_output@@QEAA@AEBV?$stream_output_adapter@_W@1@_KQEB_WQEAU__crt_locale_pointers@@QEAD@Z 00000001801d3484 f i libucrt:output.obj
 0001:001d2548       ??0?$output_processor@_WV?$stream_output_adapter@_W@__crt_stdio_output@@V?$standard_base@_WV?$stream_output_adapter@_W@__crt_stdio_output@@@2@@__crt_stdio_output@@QEAA@AEBV?$stream_output_adapter@_W@1@_KQEB_WQEAU__crt_locale_pointers@@QEAD@Z 00000001801d3548 f i libucrt:output.obj
 0001:001d25e8       ??0?$output_processor@_WV?$string_output_adapter@_W@__crt_stdio_output@@V?$format_validation_base@_WV?$string_output_adapter@_W@__crt_stdio_output@@@2@@__crt_stdio_output@@QEAA@AEBV?$string_output_adapter@_W@1@_KQEB_WQEAU__crt_locale_pointers@@QEAD@Z 00000001801d35e8 f i libucrt:output.obj
 0001:001d2688       ??0?$output_processor@_WV?$string_output_adapter@_W@__crt_stdio_output@@V?$positional_parameter_base@_WV?$string_output_adapter@_W@__crt_stdio_output@@@2@@__crt_stdio_output@@QEAA@AEBV?$string_output_adapter@_W@1@_KQEB_WQEAU__crt_locale_pointers@@QEAD@Z 00000001801d3688 f i libucrt:output.obj
 0001:001d274c       ??0?$output_processor@_WV?$string_output_adapter@_W@__crt_stdio_output@@V?$standard_base@_WV?$string_output_adapter@_W@__crt_stdio_output@@@2@@__crt_stdio_output@@QEAA@AEBV?$string_output_adapter@_W@1@_KQEB_WQEAU__crt_locale_pointers@@QEAD@Z 00000001801d374c f i libucrt:output.obj
 0001:001d27ec       ??0?$stream_output_adapter@D@__crt_stdio_output@@QEAA@QEAU_iobuf@@@Z 00000001801d37ec f i libucrt:output.obj
 0001:001d27f4       ??0?$stream_output_adapter@_W@__crt_stdio_output@@QEAA@QEAU_iobuf@@@Z 00000001801d37f4 f i libucrt:output.obj
 0001:001d27fc       ??0?$string_output_adapter@D@__crt_stdio_output@@QEAA@QEAU?$string_output_adapter_context@D@1@@Z 00000001801d37fc f i libucrt:output.obj
 0001:001d2804       ??0?$string_output_adapter@_W@__crt_stdio_output@@QEAA@QEAU?$string_output_adapter_context@_W@1@@Z 00000001801d3804 f i libucrt:output.obj
 0001:001d280c       ??0_LocaleUpdate@@QEAA@QEAU__crt_locale_pointers@@@Z 00000001801d380c f i libucrt:output.obj
 0001:001d28c0       ??0__acrt_stdio_temporary_buffering_guard@@QEAA@QEAU_iobuf@@@Z 00000001801d38c0 f i libucrt:output.obj
 0001:001d28e8       ??0__crt_errno_guard@@QEAA@QEAH@Z 00000001801d38e8 f i libucrt:output.obj
 0001:001d28fc       ??0__crt_stdio_stream@@QEAA@QEAU_iobuf@@@Z 00000001801d38fc f i libucrt:output.obj
 0001:001d2904       ??0formatting_buffer@__crt_stdio_output@@QEAA@XZ 00000001801d3904 f i libucrt:output.obj
 0001:001d2920       ??1?$common_data@D@__crt_stdio_output@@QEAA@XZ 00000001801d3920 f i libucrt:output.obj
 0001:001d294c       ??1?$common_data@_W@__crt_stdio_output@@QEAA@XZ 00000001801d394c f i libucrt:output.obj
 0001:001d2978       ??1?$format_validation_base@DV?$stream_output_adapter@D@__crt_stdio_output@@@__crt_stdio_output@@QEAA@XZ 00000001801d3978 f i libucrt:output.obj
 0001:001d29a4       ??1?$format_validation_base@DV?$string_output_adapter@D@__crt_stdio_output@@@__crt_stdio_output@@QEAA@XZ 00000001801d39a4 f i libucrt:output.obj
 0001:001d29d0       ??1?$format_validation_base@_WV?$stream_output_adapter@_W@__crt_stdio_output@@@__crt_stdio_output@@QEAA@XZ 00000001801d39d0 f i libucrt:output.obj
 0001:001d29fc       ??1?$format_validation_base@_WV?$string_output_adapter@_W@__crt_stdio_output@@@__crt_stdio_output@@QEAA@XZ 00000001801d39fc f i libucrt:output.obj
 0001:001d2a28       ??1?$output_adapter_data@DV?$stream_output_adapter@D@__crt_stdio_output@@@__crt_stdio_output@@QEAA@XZ 00000001801d3a28 f i libucrt:output.obj
 0001:001d2a54       ??1?$output_adapter_data@DV?$string_output_adapter@D@__crt_stdio_output@@@__crt_stdio_output@@QEAA@XZ 00000001801d3a54 f i libucrt:output.obj
 0001:001d2a80       ??1?$output_adapter_data@_WV?$stream_output_adapter@_W@__crt_stdio_output@@@__crt_stdio_output@@QEAA@XZ 00000001801d3a80 f i libucrt:output.obj
 0001:001d2aac       ??1?$output_adapter_data@_WV?$string_output_adapter@_W@__crt_stdio_output@@@__crt_stdio_output@@QEAA@XZ 00000001801d3aac f i libucrt:output.obj
 0001:001d2ad8       ??1?$output_processor@DV?$stream_output_adapter@D@__crt_stdio_output@@V?$format_validation_base@DV?$stream_output_adapter@D@__crt_stdio_output@@@2@@__crt_stdio_output@@QEAA@XZ 00000001801d3ad8 f i libucrt:output.obj
 0001:001d2b04       ??1?$output_processor@DV?$stream_output_adapter@D@__crt_stdio_output@@V?$positional_parameter_base@DV?$stream_output_adapter@D@__crt_stdio_output@@@2@@__crt_stdio_output@@QEAA@XZ 00000001801d3b04 f i libucrt:output.obj
 0001:001d2b30       ??1?$output_processor@DV?$stream_output_adapter@D@__crt_stdio_output@@V?$standard_base@DV?$stream_output_adapter@D@__crt_stdio_output@@@2@@__crt_stdio_output@@QEAA@XZ 00000001801d3b30 f i libucrt:output.obj
 0001:001d2b5c       ??1?$output_processor@DV?$string_output_adapter@D@__crt_stdio_output@@V?$format_validation_base@DV?$string_output_adapter@D@__crt_stdio_output@@@2@@__crt_stdio_output@@QEAA@XZ 00000001801d3b5c f i libucrt:output.obj
 0001:001d2b88       ??1?$output_processor@DV?$string_output_adapter@D@__crt_stdio_output@@V?$positional_parameter_base@DV?$string_output_adapter@D@__crt_stdio_output@@@2@@__crt_stdio_output@@QEAA@XZ 00000001801d3b88 f i libucrt:output.obj
 0001:001d2bb4       ??1?$output_processor@DV?$string_output_adapter@D@__crt_stdio_output@@V?$standard_base@DV?$string_output_adapter@D@__crt_stdio_output@@@2@@__crt_stdio_output@@QEAA@XZ 00000001801d3bb4 f i libucrt:output.obj
 0001:001d2be0       ??1?$output_processor@_WV?$stream_output_adapter@_W@__crt_stdio_output@@V?$format_validation_base@_WV?$stream_output_adapter@_W@__crt_stdio_output@@@2@@__crt_stdio_output@@QEAA@XZ 00000001801d3be0 f i libucrt:output.obj
 0001:001d2c0c       ??1?$output_processor@_WV?$stream_output_adapter@_W@__crt_stdio_output@@V?$positional_parameter_base@_WV?$stream_output_adapter@_W@__crt_stdio_output@@@2@@__crt_stdio_output@@QEAA@XZ 00000001801d3c0c f i libucrt:output.obj
 0001:001d2c38       ??1?$output_processor@_WV?$stream_output_adapter@_W@__crt_stdio_output@@V?$standard_base@_WV?$stream_output_adapter@_W@__crt_stdio_output@@@2@@__crt_stdio_output@@QEAA@XZ 00000001801d3c38 f i libucrt:output.obj
 0001:001d2c64       ??1?$output_processor@_WV?$string_output_adapter@_W@__crt_stdio_output@@V?$format_validation_base@_WV?$string_output_adapter@_W@__crt_stdio_output@@@2@@__crt_stdio_output@@QEAA@XZ 00000001801d3c64 f i libucrt:output.obj
 0001:001d2c90       ??1?$output_processor@_WV?$string_output_adapter@_W@__crt_stdio_output@@V?$positional_parameter_base@_WV?$string_output_adapter@_W@__crt_stdio_output@@@2@@__crt_stdio_output@@QEAA@XZ 00000001801d3c90 f i libucrt:output.obj
 0001:001d2cbc       ??1?$output_processor@_WV?$string_output_adapter@_W@__crt_stdio_output@@V?$standard_base@_WV?$string_output_adapter@_W@__crt_stdio_output@@@2@@__crt_stdio_output@@QEAA@XZ 00000001801d3cbc f i libucrt:output.obj
 0001:001d2ce8       ??1?$positional_parameter_base@DV?$stream_output_adapter@D@__crt_stdio_output@@@__crt_stdio_output@@QEAA@XZ 00000001801d3ce8 f i libucrt:output.obj
 0001:001d2d14       ??1?$positional_parameter_base@DV?$string_output_adapter@D@__crt_stdio_output@@@__crt_stdio_output@@QEAA@XZ 00000001801d3d14 f i libucrt:output.obj
 0001:001d2d40       ??1?$positional_parameter_base@_WV?$stream_output_adapter@_W@__crt_stdio_output@@@__crt_stdio_output@@QEAA@XZ 00000001801d3d40 f i libucrt:output.obj
 0001:001d2d6c       ??1?$positional_parameter_base@_WV?$string_output_adapter@_W@__crt_stdio_output@@@__crt_stdio_output@@QEAA@XZ 00000001801d3d6c f i libucrt:output.obj
 0001:001d2d98       ??1?$standard_base@DV?$stream_output_adapter@D@__crt_stdio_output@@@__crt_stdio_output@@QEAA@XZ 00000001801d3d98 f i libucrt:output.obj
 0001:001d2dc4       ??1?$standard_base@DV?$string_output_adapter@D@__crt_stdio_output@@@__crt_stdio_output@@QEAA@XZ 00000001801d3dc4 f i libucrt:output.obj
 0001:001d2df0       ??1?$standard_base@_WV?$stream_output_adapter@_W@__crt_stdio_output@@@__crt_stdio_output@@QEAA@XZ 00000001801d3df0 f i libucrt:output.obj
 0001:001d2e1c       ??1?$standard_base@_WV?$string_output_adapter@_W@__crt_stdio_output@@@__crt_stdio_output@@QEAA@XZ 00000001801d3e1c f i libucrt:output.obj
 0001:001d2e48       ??1_LocaleUpdate@@QEAA@XZ  00000001801d3e48 f i libucrt:output.obj
 0001:001d2e60       ??1__acrt_stdio_temporary_buffering_guard@@QEAA@XZ 00000001801d3e60 f i libucrt:output.obj
 0001:001d2e70       ??1__crt_errno_guard@@QEAA@XZ 00000001801d3e70 f i libucrt:output.obj
 0001:001d2e88       ??1formatting_buffer@__crt_stdio_output@@QEAA@XZ 00000001801d3e88 f i libucrt:output.obj
 0001:001d2eb4       ??4?$__crt_unique_heap_ptr@DU__crt_internal_free_policy@@@@QEAAAEAV0@$$QEAV0@@Z 00000001801d3eb4 f i libucrt:output.obj
 0001:001d2ef8       ??C__crt_stdio_stream@@QEBAPEAU__crt_stdio_stream_data@@XZ 00000001801d3ef8 f i libucrt:output.obj
 0001:001d3694       ?GetLocaleT@_LocaleUpdate@@QEAAPEAU__crt_locale_pointers@@XZ 00000001801d4694 f i libucrt:output.obj
 0001:001d369c       ?adjust_hexit@?$output_processor@DV?$stream_output_adapter@D@__crt_stdio_output@@V?$format_validation_base@DV?$stream_output_adapter@D@__crt_stdio_output@@@2@@__crt_stdio_output@@CADH_N@Z 00000001801d469c f i libucrt:output.obj
 0001:001d36ac       ?adjust_hexit@?$output_processor@DV?$stream_output_adapter@D@__crt_stdio_output@@V?$positional_parameter_base@DV?$stream_output_adapter@D@__crt_stdio_output@@@2@@__crt_stdio_output@@CADH_N@Z 00000001801d46ac f i libucrt:output.obj
 0001:001d36bc       ?adjust_hexit@?$output_processor@DV?$stream_output_adapter@D@__crt_stdio_output@@V?$standard_base@DV?$stream_output_adapter@D@__crt_stdio_output@@@2@@__crt_stdio_output@@CADH_N@Z 00000001801d46bc f i libucrt:output.obj
 0001:001d36cc       ?adjust_hexit@?$output_processor@DV?$string_output_adapter@D@__crt_stdio_output@@V?$format_validation_base@DV?$string_output_adapter@D@__crt_stdio_output@@@2@@__crt_stdio_output@@CADH_N@Z 00000001801d46cc f i libucrt:output.obj
 0001:001d36dc       ?adjust_hexit@?$output_processor@DV?$string_output_adapter@D@__crt_stdio_output@@V?$positional_parameter_base@DV?$string_output_adapter@D@__crt_stdio_output@@@2@@__crt_stdio_output@@CADH_N@Z 00000001801d46dc f i libucrt:output.obj
 0001:001d36ec       ?adjust_hexit@?$output_processor@DV?$string_output_adapter@D@__crt_stdio_output@@V?$standard_base@DV?$string_output_adapter@D@__crt_stdio_output@@@2@@__crt_stdio_output@@CADH_N@Z 00000001801d46ec f i libucrt:output.obj
 0001:001d36fc       ?adjust_hexit@?$output_processor@_WV?$stream_output_adapter@_W@__crt_stdio_output@@V?$format_validation_base@_WV?$stream_output_adapter@_W@__crt_stdio_output@@@2@@__crt_stdio_output@@CADH_N@Z 00000001801d46fc f i libucrt:output.obj
 0001:001d370c       ?adjust_hexit@?$output_processor@_WV?$stream_output_adapter@_W@__crt_stdio_output@@V?$positional_parameter_base@_WV?$stream_output_adapter@_W@__crt_stdio_output@@@2@@__crt_stdio_output@@CADH_N@Z 00000001801d470c f i libucrt:output.obj
 0001:001d371c       ?adjust_hexit@?$output_processor@_WV?$stream_output_adapter@_W@__crt_stdio_output@@V?$standard_base@_WV?$stream_output_adapter@_W@__crt_stdio_output@@@2@@__crt_stdio_output@@CADH_N@Z 00000001801d471c f i libucrt:output.obj
 0001:001d372c       ?adjust_hexit@?$output_processor@_WV?$string_output_adapter@_W@__crt_stdio_output@@V?$format_validation_base@_WV?$string_output_adapter@_W@__crt_stdio_output@@@2@@__crt_stdio_output@@CADH_N@Z 00000001801d472c f i libucrt:output.obj
 0001:001d373c       ?adjust_hexit@?$output_processor@_WV?$string_output_adapter@_W@__crt_stdio_output@@V?$positional_parameter_base@_WV?$string_output_adapter@_W@__crt_stdio_output@@@2@@__crt_stdio_output@@CADH_N@Z 00000001801d473c f i libucrt:output.obj
 0001:001d374c       ?adjust_hexit@?$output_processor@_WV?$string_output_adapter@_W@__crt_stdio_output@@V?$standard_base@_WV?$string_output_adapter@_W@__crt_stdio_output@@@2@@__crt_stdio_output@@CADH_N@Z 00000001801d474c f i libucrt:output.obj
 0001:001d375c       ?advance_to_next_pass@?$positional_parameter_base@DV?$stream_output_adapter@D@__crt_stdio_output@@@__crt_stdio_output@@IEAA_NXZ 00000001801d475c f i libucrt:output.obj
 0001:001d37c0       ?advance_to_next_pass@?$positional_parameter_base@DV?$string_output_adapter@D@__crt_stdio_output@@@__crt_stdio_output@@IEAA_NXZ 00000001801d47c0 f i libucrt:output.obj
 0001:001d3824       ?advance_to_next_pass@?$positional_parameter_base@_WV?$stream_output_adapter@_W@__crt_stdio_output@@@__crt_stdio_output@@IEAA_NXZ 00000001801d4824 f i libucrt:output.obj
 0001:001d3888       ?advance_to_next_pass@?$positional_parameter_base@_WV?$string_output_adapter@_W@__crt_stdio_output@@@__crt_stdio_output@@IEAA_NXZ 00000001801d4888 f i libucrt:output.obj
 0001:001d38ec       ?advance_to_next_pass@?$standard_base@DV?$stream_output_adapter@D@__crt_stdio_output@@@__crt_stdio_output@@IEAA_NXZ 00000001801d48ec f i libucrt:output.obj
 0001:001d3904       ?advance_to_next_pass@?$standard_base@DV?$string_output_adapter@D@__crt_stdio_output@@@__crt_stdio_output@@IEAA_NXZ 00000001801d4904 f i libucrt:output.obj
 0001:001d391c       ?advance_to_next_pass@?$standard_base@_WV?$stream_output_adapter@_W@__crt_stdio_output@@@__crt_stdio_output@@IEAA_NXZ 00000001801d491c f i libucrt:output.obj
 0001:001d3934       ?advance_to_next_pass@?$standard_base@_WV?$string_output_adapter@_W@__crt_stdio_output@@@__crt_stdio_output@@IEAA_NXZ 00000001801d4934 f i libucrt:output.obj
 0001:001d394c       ?crop_zeroes@__crt_stdio_output@@YAXPEADQEAU__crt_locale_pointers@@@Z 00000001801d494c f i libucrt:output.obj
 0001:001d39c0       ?find_next_state@?$output_processor@DV?$stream_output_adapter@D@__crt_stdio_output@@V?$format_validation_base@DV?$stream_output_adapter@D@__crt_stdio_output@@@2@@__crt_stdio_output@@AEBA?AW4state@2@DW432@@Z 00000001801d49c0 f i libucrt:output.obj
 0001:001d39fc       ?find_next_state@?$output_processor@DV?$stream_output_adapter@D@__crt_stdio_output@@V?$positional_parameter_base@DV?$stream_output_adapter@D@__crt_stdio_output@@@2@@__crt_stdio_output@@AEBA?AW4state@2@DW432@@Z 00000001801d49fc f i libucrt:output.obj
 0001:001d3a38       ?find_next_state@?$output_processor@DV?$stream_output_adapter@D@__crt_stdio_output@@V?$standard_base@DV?$stream_output_adapter@D@__crt_stdio_output@@@2@@__crt_stdio_output@@AEBA?AW4state@2@DW432@@Z 00000001801d4a38 f i libucrt:output.obj
 0001:001d3a70       ?find_next_state@?$output_processor@DV?$string_output_adapter@D@__crt_stdio_output@@V?$format_validation_base@DV?$string_output_adapter@D@__crt_stdio_output@@@2@@__crt_stdio_output@@AEBA?AW4state@2@DW432@@Z 00000001801d4a70 f i libucrt:output.obj
 0001:001d3aac       ?find_next_state@?$output_processor@DV?$string_output_adapter@D@__crt_stdio_output@@V?$positional_parameter_base@DV?$string_output_adapter@D@__crt_stdio_output@@@2@@__crt_stdio_output@@AEBA?AW4state@2@DW432@@Z 00000001801d4aac f i libucrt:output.obj
 0001:001d3ae8       ?find_next_state@?$output_processor@DV?$string_output_adapter@D@__crt_stdio_output@@V?$standard_base@DV?$string_output_adapter@D@__crt_stdio_output@@@2@@__crt_stdio_output@@AEBA?AW4state@2@DW432@@Z 00000001801d4ae8 f i libucrt:output.obj
 0001:001d3b20       ?find_next_state@?$output_processor@_WV?$stream_output_adapter@_W@__crt_stdio_output@@V?$format_validation_base@_WV?$stream_output_adapter@_W@__crt_stdio_output@@@2@@__crt_stdio_output@@AEBA?AW4state@2@_WW432@@Z 00000001801d4b20 f i libucrt:output.obj
 0001:001d3b5c       ?find_next_state@?$output_processor@_WV?$stream_output_adapter@_W@__crt_stdio_output@@V?$positional_parameter_base@_WV?$stream_output_adapter@_W@__crt_stdio_output@@@2@@__crt_stdio_output@@AEBA?AW4state@2@_WW432@@Z 00000001801d4b5c f i libucrt:output.obj
 0001:001d3b98       ?find_next_state@?$output_processor@_WV?$stream_output_adapter@_W@__crt_stdio_output@@V?$standard_base@_WV?$stream_output_adapter@_W@__crt_stdio_output@@@2@@__crt_stdio_output@@AEBA?AW4state@2@_WW432@@Z 00000001801d4b98 f i libucrt:output.obj
 0001:001d3bd0       ?find_next_state@?$output_processor@_WV?$string_output_adapter@_W@__crt_stdio_output@@V?$format_validation_base@_WV?$string_output_adapter@_W@__crt_stdio_output@@@2@@__crt_stdio_output@@AEBA?AW4state@2@_WW432@@Z 00000001801d4bd0 f i libucrt:output.obj
 0001:001d3c0c       ?find_next_state@?$output_processor@_WV?$string_output_adapter@_W@__crt_stdio_output@@V?$positional_parameter_base@_WV?$string_output_adapter@_W@__crt_stdio_output@@@2@@__crt_stdio_output@@AEBA?AW4state@2@_WW432@@Z 00000001801d4c0c f i libucrt:output.obj
 0001:001d3c48       ?find_next_state@?$output_processor@_WV?$string_output_adapter@_W@__crt_stdio_output@@V?$standard_base@_WV?$string_output_adapter@_W@__crt_stdio_output@@@2@@__crt_stdio_output@@AEBA?AW4state@2@_WW432@@Z 00000001801d4c48 f i libucrt:output.obj
 0001:001d3c80       ?force_decimal_point@__crt_stdio_output@@YAXPEADQEAU__crt_locale_pointers@@@Z 00000001801d4c80 f i libucrt:output.obj
 0001:001d3d08       ?get_flags@__crt_stdio_stream@@QEBAJXZ 00000001801d4d08 f i libucrt:output.obj
 0001:001d3d10       ?get_parameter_type@?$positional_parameter_base@DV?$stream_output_adapter@D@__crt_stdio_output@@@__crt_stdio_output@@CA?AW4parameter_type@12@F@Z 00000001801d4d10 f i libucrt:output.obj
 0001:001d3d18       ?get_parameter_type@?$positional_parameter_base@DV?$stream_output_adapter@D@__crt_stdio_output@@@__crt_stdio_output@@CA?AW4parameter_type@12@G@Z 00000001801d4d18 f i libucrt:output.obj
 0001:001d3d20       ?get_parameter_type@?$positional_parameter_base@DV?$stream_output_adapter@D@__crt_stdio_output@@@__crt_stdio_output@@CA?AW4parameter_type@12@H@Z 00000001801d4d20 f i libucrt:output.obj
 0001:001d3d28       ?get_parameter_type@?$positional_parameter_base@DV?$stream_output_adapter@D@__crt_stdio_output@@@__crt_stdio_output@@CA?AW4parameter_type@12@I@Z 00000001801d4d28 f i libucrt:output.obj
 0001:001d3d30       ?get_parameter_type@?$positional_parameter_base@DV?$stream_output_adapter@D@__crt_stdio_output@@@__crt_stdio_output@@CA?AW4parameter_type@12@U_CRT_DOUBLE@@@Z 00000001801d4d30 f i libucrt:output.obj
 0001:001d3d38       ?get_parameter_type@?$positional_parameter_base@DV?$stream_output_adapter@D@__crt_stdio_output@@@__crt_stdio_output@@CA?AW4parameter_type@12@_J@Z 00000001801d4d38 f i libucrt:output.obj
 0001:001d3d40       ?get_parameter_type@?$positional_parameter_base@DV?$stream_output_adapter@D@__crt_stdio_output@@@__crt_stdio_output@@CA?AW4parameter_type@12@_K@Z 00000001801d4d40 f i libucrt:output.obj
 0001:001d3d48       ?get_parameter_type@?$positional_parameter_base@DV?$stream_output_adapter@D@__crt_stdio_output@@@__crt_stdio_output@@CA?AW4parameter_type@12@_W@Z 00000001801d4d48 f i libucrt:output.obj
 0001:001d3d50       ?get_parameter_type@?$positional_parameter_base@DV?$string_output_adapter@D@__crt_stdio_output@@@__crt_stdio_output@@CA?AW4parameter_type@12@F@Z 00000001801d4d50 f i libucrt:output.obj
 0001:001d3d58       ?get_parameter_type@?$positional_parameter_base@DV?$string_output_adapter@D@__crt_stdio_output@@@__crt_stdio_output@@CA?AW4parameter_type@12@G@Z 00000001801d4d58 f i libucrt:output.obj
 0001:001d3d60       ?get_parameter_type@?$positional_parameter_base@DV?$string_output_adapter@D@__crt_stdio_output@@@__crt_stdio_output@@CA?AW4parameter_type@12@H@Z 00000001801d4d60 f i libucrt:output.obj
 0001:001d3d68       ?get_parameter_type@?$positional_parameter_base@DV?$string_output_adapter@D@__crt_stdio_output@@@__crt_stdio_output@@CA?AW4parameter_type@12@I@Z 00000001801d4d68 f i libucrt:output.obj
 0001:001d3d70       ?get_parameter_type@?$positional_parameter_base@DV?$string_output_adapter@D@__crt_stdio_output@@@__crt_stdio_output@@CA?AW4parameter_type@12@U_CRT_DOUBLE@@@Z 00000001801d4d70 f i libucrt:output.obj
 0001:001d3d78       ?get_parameter_type@?$positional_parameter_base@DV?$string_output_adapter@D@__crt_stdio_output@@@__crt_stdio_output@@CA?AW4parameter_type@12@_J@Z 00000001801d4d78 f i libucrt:output.obj
 0001:001d3d80       ?get_parameter_type@?$positional_parameter_base@DV?$string_output_adapter@D@__crt_stdio_output@@@__crt_stdio_output@@CA?AW4parameter_type@12@_K@Z 00000001801d4d80 f i libucrt:output.obj
 0001:001d3d88       ?get_parameter_type@?$positional_parameter_base@DV?$string_output_adapter@D@__crt_stdio_output@@@__crt_stdio_output@@CA?AW4parameter_type@12@_W@Z 00000001801d4d88 f i libucrt:output.obj
 0001:001d3d90       ?get_parameter_type@?$positional_parameter_base@_WV?$stream_output_adapter@_W@__crt_stdio_output@@@__crt_stdio_output@@CA?AW4parameter_type@12@F@Z 00000001801d4d90 f i libucrt:output.obj
 0001:001d3d98       ?get_parameter_type@?$positional_parameter_base@_WV?$stream_output_adapter@_W@__crt_stdio_output@@@__crt_stdio_output@@CA?AW4parameter_type@12@G@Z 00000001801d4d98 f i libucrt:output.obj
 0001:001d3da0       ?get_parameter_type@?$positional_parameter_base@_WV?$stream_output_adapter@_W@__crt_stdio_output@@@__crt_stdio_output@@CA?AW4parameter_type@12@H@Z 00000001801d4da0 f i libucrt:output.obj
 0001:001d3da8       ?get_parameter_type@?$positional_parameter_base@_WV?$stream_output_adapter@_W@__crt_stdio_output@@@__crt_stdio_output@@CA?AW4parameter_type@12@I@Z 00000001801d4da8 f i libucrt:output.obj
 0001:001d3db0       ?get_parameter_type@?$positional_parameter_base@_WV?$stream_output_adapter@_W@__crt_stdio_output@@@__crt_stdio_output@@CA?AW4parameter_type@12@U_CRT_DOUBLE@@@Z 00000001801d4db0 f i libucrt:output.obj
 0001:001d3db8       ?get_parameter_type@?$positional_parameter_base@_WV?$stream_output_adapter@_W@__crt_stdio_output@@@__crt_stdio_output@@CA?AW4parameter_type@12@_J@Z 00000001801d4db8 f i libucrt:output.obj
 0001:001d3dc0       ?get_parameter_type@?$positional_parameter_base@_WV?$stream_output_adapter@_W@__crt_stdio_output@@@__crt_stdio_output@@CA?AW4parameter_type@12@_K@Z 00000001801d4dc0 f i libucrt:output.obj
 0001:001d3dc8       ?get_parameter_type@?$positional_parameter_base@_WV?$stream_output_adapter@_W@__crt_stdio_output@@@__crt_stdio_output@@CA?AW4parameter_type@12@_W@Z 00000001801d4dc8 f i libucrt:output.obj
 0001:001d3dd0       ?get_parameter_type@?$positional_parameter_base@_WV?$string_output_adapter@_W@__crt_stdio_output@@@__crt_stdio_output@@CA?AW4parameter_type@12@F@Z 00000001801d4dd0 f i libucrt:output.obj
 0001:001d3dd8       ?get_parameter_type@?$positional_parameter_base@_WV?$string_output_adapter@_W@__crt_stdio_output@@@__crt_stdio_output@@CA?AW4parameter_type@12@G@Z 00000001801d4dd8 f i libucrt:output.obj
 0001:001d3de0       ?get_parameter_type@?$positional_parameter_base@_WV?$string_output_adapter@_W@__crt_stdio_output@@@__crt_stdio_output@@CA?AW4parameter_type@12@H@Z 00000001801d4de0 f i libucrt:output.obj
 0001:001d3de8       ?get_parameter_type@?$positional_parameter_base@_WV?$string_output_adapter@_W@__crt_stdio_output@@@__crt_stdio_output@@CA?AW4parameter_type@12@I@Z 00000001801d4de8 f i libucrt:output.obj
 0001:001d3df0       ?get_parameter_type@?$positional_parameter_base@_WV?$string_output_adapter@_W@__crt_stdio_output@@@__crt_stdio_output@@CA?AW4parameter_type@12@U_CRT_DOUBLE@@@Z 00000001801d4df0 f i libucrt:output.obj
 0001:001d3df8       ?get_parameter_type@?$positional_parameter_base@_WV?$string_output_adapter@_W@__crt_stdio_output@@@__crt_stdio_output@@CA?AW4parameter_type@12@_J@Z 00000001801d4df8 f i libucrt:output.obj
 0001:001d3e00       ?get_parameter_type@?$positional_parameter_base@_WV?$string_output_adapter@_W@__crt_stdio_output@@@__crt_stdio_output@@CA?AW4parameter_type@12@_K@Z 00000001801d4e00 f i libucrt:output.obj
 0001:001d3e08       ?get_parameter_type@?$positional_parameter_base@_WV?$string_output_adapter@_W@__crt_stdio_output@@@__crt_stdio_output@@CA?AW4parameter_type@12@_W@Z 00000001801d4e08 f i libucrt:output.obj
 0001:001d3e10       ?has_flag@?$output_processor@DV?$stream_output_adapter@D@__crt_stdio_output@@V?$format_validation_base@DV?$stream_output_adapter@D@__crt_stdio_output@@@2@@__crt_stdio_output@@AEBA_NI@Z 00000001801d4e10 f i libucrt:output.obj
 0001:001d3e18       ?has_flag@?$output_processor@DV?$stream_output_adapter@D@__crt_stdio_output@@V?$positional_parameter_base@DV?$stream_output_adapter@D@__crt_stdio_output@@@2@@__crt_stdio_output@@AEBA_NI@Z 00000001801d4e18 f i libucrt:output.obj
 0001:001d3e20       ?has_flag@?$output_processor@DV?$stream_output_adapter@D@__crt_stdio_output@@V?$standard_base@DV?$stream_output_adapter@D@__crt_stdio_output@@@2@@__crt_stdio_output@@AEBA_NI@Z 00000001801d4e20 f i libucrt:output.obj
 0001:001d3e28       ?has_flag@?$output_processor@DV?$string_output_adapter@D@__crt_stdio_output@@V?$format_validation_base@DV?$string_output_adapter@D@__crt_stdio_output@@@2@@__crt_stdio_output@@AEBA_NI@Z 00000001801d4e28 f i libucrt:output.obj
 0001:001d3e30       ?has_flag@?$output_processor@DV?$string_output_adapter@D@__crt_stdio_output@@V?$positional_parameter_base@DV?$string_output_adapter@D@__crt_stdio_output@@@2@@__crt_stdio_output@@AEBA_NI@Z 00000001801d4e30 f i libucrt:output.obj
 0001:001d3e38       ?has_flag@?$output_processor@DV?$string_output_adapter@D@__crt_stdio_output@@V?$standard_base@DV?$string_output_adapter@D@__crt_stdio_output@@@2@@__crt_stdio_output@@AEBA_NI@Z 00000001801d4e38 f i libucrt:output.obj
 0001:001d3e40       ?has_flag@?$output_processor@_WV?$stream_output_adapter@_W@__crt_stdio_output@@V?$format_validation_base@_WV?$stream_output_adapter@_W@__crt_stdio_output@@@2@@__crt_stdio_output@@AEBA_NI@Z 00000001801d4e40 f i libucrt:output.obj
 0001:001d3e48       ?has_flag@?$output_processor@_WV?$stream_output_adapter@_W@__crt_stdio_output@@V?$positional_parameter_base@_WV?$stream_output_adapter@_W@__crt_stdio_output@@@2@@__crt_stdio_output@@AEBA_NI@Z 00000001801d4e48 f i libucrt:output.obj
 0001:001d3e50       ?has_flag@?$output_processor@_WV?$stream_output_adapter@_W@__crt_stdio_output@@V?$standard_base@_WV?$stream_output_adapter@_W@__crt_stdio_output@@@2@@__crt_stdio_output@@AEBA_NI@Z 00000001801d4e50 f i libucrt:output.obj
 0001:001d3e58       ?has_flag@?$output_processor@_WV?$string_output_adapter@_W@__crt_stdio_output@@V?$format_validation_base@_WV?$string_output_adapter@_W@__crt_stdio_output@@@2@@__crt_stdio_output@@AEBA_NI@Z 00000001801d4e58 f i libucrt:output.obj
 0001:001d3e60       ?has_flag@?$output_processor@_WV?$string_output_adapter@_W@__crt_stdio_output@@V?$positional_parameter_base@_WV?$string_output_adapter@_W@__crt_stdio_output@@@2@@__crt_stdio_output@@AEBA_NI@Z 00000001801d4e60 f i libucrt:output.obj
 0001:001d3e68       ?has_flag@?$output_processor@_WV?$string_output_adapter@_W@__crt_stdio_output@@V?$standard_base@_WV?$string_output_adapter@_W@__crt_stdio_output@@@2@@__crt_stdio_output@@AEBA_NI@Z 00000001801d4e68 f i libucrt:output.obj
 0001:001d3e70       ?is_positional_parameter_reappearance_consistent@?$positional_parameter_base@DV?$stream_output_adapter@D@__crt_stdio_output@@@__crt_stdio_output@@AEAA_NAEBUparameter_data@12@W4parameter_type@12@DW4length_modifier@2@@Z 00000001801d4e70 f i libucrt:output.obj
 0001:001d40d8       ?is_positional_parameter_reappearance_consistent@?$positional_parameter_base@DV?$string_output_adapter@D@__crt_stdio_output@@@__crt_stdio_output@@AEAA_NAEBUparameter_data@12@W4parameter_type@12@DW4length_modifier@2@@Z 00000001801d50d8 f i libucrt:output.obj
 0001:001d4340       ?is_positional_parameter_reappearance_consistent@?$positional_parameter_base@_WV?$stream_output_adapter@_W@__crt_stdio_output@@@__crt_stdio_output@@AEAA_NAEBUparameter_data@12@W4parameter_type@12@_WW4length_modifier@2@@Z 00000001801d5340 f i libucrt:output.obj
 0001:001d45c8       ?is_positional_parameter_reappearance_consistent@?$positional_parameter_base@_WV?$string_output_adapter@_W@__crt_stdio_output@@@__crt_stdio_output@@AEAA_NAEBUparameter_data@12@W4parameter_type@12@_WW4length_modifier@2@@Z 00000001801d55c8 f i libucrt:output.obj
 0001:001d4850       ?is_string_backed@__crt_stdio_stream@@QEBA_NXZ 00000001801d5850 f i libucrt:output.obj
 0001:001d4860       ?narrow_null_string@?$output_processor@DV?$stream_output_adapter@D@__crt_stdio_output@@V?$format_validation_base@DV?$stream_output_adapter@D@__crt_stdio_output@@@2@@__crt_stdio_output@@CAPEADXZ 00000001801d5860 f i libucrt:output.obj
 0001:001d486c       ?narrow_null_string@?$output_processor@DV?$stream_output_adapter@D@__crt_stdio_output@@V?$positional_parameter_base@DV?$stream_output_adapter@D@__crt_stdio_output@@@2@@__crt_stdio_output@@CAPEADXZ 00000001801d586c f i libucrt:output.obj
 0001:001d4878       ?narrow_null_string@?$output_processor@DV?$stream_output_adapter@D@__crt_stdio_output@@V?$standard_base@DV?$stream_output_adapter@D@__crt_stdio_output@@@2@@__crt_stdio_output@@CAPEADXZ 00000001801d5878 f i libucrt:output.obj
 0001:001d4884       ?narrow_null_string@?$output_processor@DV?$string_output_adapter@D@__crt_stdio_output@@V?$format_validation_base@DV?$string_output_adapter@D@__crt_stdio_output@@@2@@__crt_stdio_output@@CAPEADXZ 00000001801d5884 f i libucrt:output.obj
 0001:001d4890       ?narrow_null_string@?$output_processor@DV?$string_output_adapter@D@__crt_stdio_output@@V?$positional_parameter_base@DV?$string_output_adapter@D@__crt_stdio_output@@@2@@__crt_stdio_output@@CAPEADXZ 00000001801d5890 f i libucrt:output.obj
 0001:001d489c       ?narrow_null_string@?$output_processor@DV?$string_output_adapter@D@__crt_stdio_output@@V?$standard_base@DV?$string_output_adapter@D@__crt_stdio_output@@@2@@__crt_stdio_output@@CAPEADXZ 00000001801d589c f i libucrt:output.obj
 0001:001d48a8       ?narrow_null_string@?$output_processor@_WV?$stream_output_adapter@_W@__crt_stdio_output@@V?$format_validation_base@_WV?$stream_output_adapter@_W@__crt_stdio_output@@@2@@__crt_stdio_output@@CAPEADXZ 00000001801d58a8 f i libucrt:output.obj
 0001:001d48b4       ?narrow_null_string@?$output_processor@_WV?$stream_output_adapter@_W@__crt_stdio_output@@V?$positional_parameter_base@_WV?$stream_output_adapter@_W@__crt_stdio_output@@@2@@__crt_stdio_output@@CAPEADXZ 00000001801d58b4 f i libucrt:output.obj
 0001:001d48c0       ?narrow_null_string@?$output_processor@_WV?$stream_output_adapter@_W@__crt_stdio_output@@V?$standard_base@_WV?$stream_output_adapter@_W@__crt_stdio_output@@@2@@__crt_stdio_output@@CAPEADXZ 00000001801d58c0 f i libucrt:output.obj
 0001:001d48cc       ?narrow_null_string@?$output_processor@_WV?$string_output_adapter@_W@__crt_stdio_output@@V?$format_validation_base@_WV?$string_output_adapter@_W@__crt_stdio_output@@@2@@__crt_stdio_output@@CAPEADXZ 00000001801d58cc f i libucrt:output.obj
 0001:001d48d8       ?narrow_null_string@?$output_processor@_WV?$string_output_adapter@_W@__crt_stdio_output@@V?$positional_parameter_base@_WV?$string_output_adapter@_W@__crt_stdio_output@@@2@@__crt_stdio_output@@CAPEADXZ 00000001801d58d8 f i libucrt:output.obj
 0001:001d48e4       ?narrow_null_string@?$output_processor@_WV?$string_output_adapter@_W@__crt_stdio_output@@V?$standard_base@_WV?$string_output_adapter@_W@__crt_stdio_output@@@2@@__crt_stdio_output@@CAPEADXZ 00000001801d58e4 f i libucrt:output.obj
 0001:001d48f0       ?parse_int_from_format_string@?$output_processor@DV?$stream_output_adapter@D@__crt_stdio_output@@V?$format_validation_base@DV?$stream_output_adapter@D@__crt_stdio_output@@@2@@__crt_stdio_output@@AEAA_NQEAH@Z 00000001801d58f0 f i libucrt:output.obj
 0001:001d4994       ?parse_int_from_format_string@?$output_processor@DV?$stream_output_adapter@D@__crt_stdio_output@@V?$positional_parameter_base@DV?$stream_output_adapter@D@__crt_stdio_output@@@2@@__crt_stdio_output@@AEAA_NQEAH@Z 00000001801d5994 f i libucrt:output.obj
 0001:001d4a38       ?parse_int_from_format_string@?$output_processor@DV?$stream_output_adapter@D@__crt_stdio_output@@V?$standard_base@DV?$stream_output_adapter@D@__crt_stdio_output@@@2@@__crt_stdio_output@@AEAA_NQEAH@Z 00000001801d5a38 f i libucrt:output.obj
 0001:001d4adc       ?parse_int_from_format_string@?$output_processor@DV?$string_output_adapter@D@__crt_stdio_output@@V?$format_validation_base@DV?$string_output_adapter@D@__crt_stdio_output@@@2@@__crt_stdio_output@@AEAA_NQEAH@Z 00000001801d5adc f i libucrt:output.obj
 0001:001d4b80       ?parse_int_from_format_string@?$output_processor@DV?$string_output_adapter@D@__crt_stdio_output@@V?$positional_parameter_base@DV?$string_output_adapter@D@__crt_stdio_output@@@2@@__crt_stdio_output@@AEAA_NQEAH@Z 00000001801d5b80 f i libucrt:output.obj
 0001:001d4c24       ?parse_int_from_format_string@?$output_processor@DV?$string_output_adapter@D@__crt_stdio_output@@V?$standard_base@DV?$string_output_adapter@D@__crt_stdio_output@@@2@@__crt_stdio_output@@AEAA_NQEAH@Z 00000001801d5c24 f i libucrt:output.obj
 0001:001d4cc8       ?parse_int_from_format_string@?$output_processor@_WV?$stream_output_adapter@_W@__crt_stdio_output@@V?$format_validation_base@_WV?$stream_output_adapter@_W@__crt_stdio_output@@@2@@__crt_stdio_output@@AEAA_NQEAH@Z 00000001801d5cc8 f i libucrt:output.obj
 0001:001d4d68       ?parse_int_from_format_string@?$output_processor@_WV?$stream_output_adapter@_W@__crt_stdio_output@@V?$positional_parameter_base@_WV?$stream_output_adapter@_W@__crt_stdio_output@@@2@@__crt_stdio_output@@AEAA_NQEAH@Z 00000001801d5d68 f i libucrt:output.obj
 0001:001d4e08       ?parse_int_from_format_string@?$output_processor@_WV?$stream_output_adapter@_W@__crt_stdio_output@@V?$standard_base@_WV?$stream_output_adapter@_W@__crt_stdio_output@@@2@@__crt_stdio_output@@AEAA_NQEAH@Z 00000001801d5e08 f i libucrt:output.obj
 0001:001d4ea8       ?parse_int_from_format_string@?$output_processor@_WV?$string_output_adapter@_W@__crt_stdio_output@@V?$format_validation_base@_WV?$string_output_adapter@_W@__crt_stdio_output@@@2@@__crt_stdio_output@@AEAA_NQEAH@Z 00000001801d5ea8 f i libucrt:output.obj
 0001:001d4f48       ?parse_int_from_format_string@?$output_processor@_WV?$string_output_adapter@_W@__crt_stdio_output@@V?$positional_parameter_base@_WV?$string_output_adapter@_W@__crt_stdio_output@@@2@@__crt_stdio_output@@AEAA_NQEAH@Z 00000001801d5f48 f i libucrt:output.obj
 0001:001d4fe8       ?parse_int_from_format_string@?$output_processor@_WV?$string_output_adapter@_W@__crt_stdio_output@@V?$standard_base@_WV?$string_output_adapter@_W@__crt_stdio_output@@@2@@__crt_stdio_output@@AEAA_NQEAH@Z 00000001801d5fe8 f i libucrt:output.obj
 0001:001d5088       ?process@?$output_processor@DV?$stream_output_adapter@D@__crt_stdio_output@@V?$format_validation_base@DV?$stream_output_adapter@D@__crt_stdio_output@@@2@@__crt_stdio_output@@QEAAHXZ 00000001801d6088 f i libucrt:output.obj
 0001:001d5330       ?process@?$output_processor@DV?$stream_output_adapter@D@__crt_stdio_output@@V?$positional_parameter_base@DV?$stream_output_adapter@D@__crt_stdio_output@@@2@@__crt_stdio_output@@QEAAHXZ 00000001801d6330 f i libucrt:output.obj
 0001:001d5674       ?process@?$output_processor@DV?$stream_output_adapter@D@__crt_stdio_output@@V?$standard_base@DV?$stream_output_adapter@D@__crt_stdio_output@@@2@@__crt_stdio_output@@QEAAHXZ 00000001801d6674 f i libucrt:output.obj
 0001:001d5908       ?process@?$output_processor@DV?$string_output_adapter@D@__crt_stdio_output@@V?$format_validation_base@DV?$string_output_adapter@D@__crt_stdio_output@@@2@@__crt_stdio_output@@QEAAHXZ 00000001801d6908 f i libucrt:output.obj
 0001:001d5ba0       ?process@?$output_processor@DV?$string_output_adapter@D@__crt_stdio_output@@V?$positional_parameter_base@DV?$string_output_adapter@D@__crt_stdio_output@@@2@@__crt_stdio_output@@QEAAHXZ 00000001801d6ba0 f i libucrt:output.obj
 0001:001d5ed4       ?process@?$output_processor@DV?$string_output_adapter@D@__crt_stdio_output@@V?$standard_base@DV?$string_output_adapter@D@__crt_stdio_output@@@2@@__crt_stdio_output@@QEAAHXZ 00000001801d6ed4 f i libucrt:output.obj
 0001:001d6158       ?process@?$output_processor@_WV?$stream_output_adapter@_W@__crt_stdio_output@@V?$format_validation_base@_WV?$stream_output_adapter@_W@__crt_stdio_output@@@2@@__crt_stdio_output@@QEAAHXZ 00000001801d7158 f i libucrt:output.obj
 0001:001d647c       ?process@?$output_processor@_WV?$stream_output_adapter@_W@__crt_stdio_output@@V?$positional_parameter_base@_WV?$stream_output_adapter@_W@__crt_stdio_output@@@2@@__crt_stdio_output@@QEAAHXZ 00000001801d747c f i libucrt:output.obj
 0001:001d67dc       ?process@?$output_processor@_WV?$stream_output_adapter@_W@__crt_stdio_output@@V?$standard_base@_WV?$stream_output_adapter@_W@__crt_stdio_output@@@2@@__crt_stdio_output@@QEAAHXZ 00000001801d77dc f i libucrt:output.obj
 0001:001d6af0       ?process@?$output_processor@_WV?$string_output_adapter@_W@__crt_stdio_output@@V?$format_validation_base@_WV?$string_output_adapter@_W@__crt_stdio_output@@@2@@__crt_stdio_output@@QEAAHXZ 00000001801d7af0 f i libucrt:output.obj
 0001:001d6e18       ?process@?$output_processor@_WV?$string_output_adapter@_W@__crt_stdio_output@@V?$positional_parameter_base@_WV?$string_output_adapter@_W@__crt_stdio_output@@@2@@__crt_stdio_output@@QEAAHXZ 00000001801d7e18 f i libucrt:output.obj
 0001:001d7178       ?process@?$output_processor@_WV?$string_output_adapter@_W@__crt_stdio_output@@V?$standard_base@_WV?$string_output_adapter@_W@__crt_stdio_output@@@2@@__crt_stdio_output@@QEAAHXZ 00000001801d8178 f i libucrt:output.obj
 0001:001d7490       ?public_stream@__crt_stdio_stream@@QEBAPEAU_iobuf@@XZ 00000001801d8490 f i libucrt:output.obj
 0001:001d7494       ?set_flag@?$output_processor@DV?$stream_output_adapter@D@__crt_stdio_output@@V?$format_validation_base@DV?$stream_output_adapter@D@__crt_stdio_output@@@2@@__crt_stdio_output@@AEAAXI@Z 00000001801d8494 f i libucrt:output.obj
 0001:001d7498       ?set_flag@?$output_processor@DV?$stream_output_adapter@D@__crt_stdio_output@@V?$positional_parameter_base@DV?$stream_output_adapter@D@__crt_stdio_output@@@2@@__crt_stdio_output@@AEAAXI@Z 00000001801d8498 f i libucrt:output.obj
 0001:001d749c       ?set_flag@?$output_processor@DV?$stream_output_adapter@D@__crt_stdio_output@@V?$standard_base@DV?$stream_output_adapter@D@__crt_stdio_output@@@2@@__crt_stdio_output@@AEAAXI@Z 00000001801d849c f i libucrt:output.obj
 0001:001d74a0       ?set_flag@?$output_processor@DV?$string_output_adapter@D@__crt_stdio_output@@V?$format_validation_base@DV?$string_output_adapter@D@__crt_stdio_output@@@2@@__crt_stdio_output@@AEAAXI@Z 00000001801d84a0 f i libucrt:output.obj
 0001:001d74a4       ?set_flag@?$output_processor@DV?$string_output_adapter@D@__crt_stdio_output@@V?$positional_parameter_base@DV?$string_output_adapter@D@__crt_stdio_output@@@2@@__crt_stdio_output@@AEAAXI@Z 00000001801d84a4 f i libucrt:output.obj
 0001:001d74a8       ?set_flag@?$output_processor@DV?$string_output_adapter@D@__crt_stdio_output@@V?$standard_base@DV?$string_output_adapter@D@__crt_stdio_output@@@2@@__crt_stdio_output@@AEAAXI@Z 00000001801d84a8 f i libucrt:output.obj
 0001:001d74ac       ?set_flag@?$output_processor@_WV?$stream_output_adapter@_W@__crt_stdio_output@@V?$format_validation_base@_WV?$stream_output_adapter@_W@__crt_stdio_output@@@2@@__crt_stdio_output@@AEAAXI@Z 00000001801d84ac f i libucrt:output.obj
 0001:001d74b0       ?set_flag@?$output_processor@_WV?$stream_output_adapter@_W@__crt_stdio_output@@V?$positional_parameter_base@_WV?$stream_output_adapter@_W@__crt_stdio_output@@@2@@__crt_stdio_output@@AEAAXI@Z 00000001801d84b0 f i libucrt:output.obj
 0001:001d74b4       ?set_flag@?$output_processor@_WV?$stream_output_adapter@_W@__crt_stdio_output@@V?$standard_base@_WV?$stream_output_adapter@_W@__crt_stdio_output@@@2@@__crt_stdio_output@@AEAAXI@Z 00000001801d84b4 f i libucrt:output.obj
 0001:001d74b8       ?set_flag@?$output_processor@_WV?$string_output_adapter@_W@__crt_stdio_output@@V?$format_validation_base@_WV?$string_output_adapter@_W@__crt_stdio_output@@@2@@__crt_stdio_output@@AEAAXI@Z 00000001801d84b8 f i libucrt:output.obj
 0001:001d74bc       ?set_flag@?$output_processor@_WV?$string_output_adapter@_W@__crt_stdio_output@@V?$positional_parameter_base@_WV?$string_output_adapter@_W@__crt_stdio_output@@@2@@__crt_stdio_output@@AEAAXI@Z 00000001801d84bc f i libucrt:output.obj
 0001:001d74c0       ?set_flag@?$output_processor@_WV?$string_output_adapter@_W@__crt_stdio_output@@V?$standard_base@_WV?$string_output_adapter@_W@__crt_stdio_output@@@2@@__crt_stdio_output@@AEAAXI@Z 00000001801d84c0 f i libucrt:output.obj
 0001:001d74c4       ?should_format@?$positional_parameter_base@DV?$stream_output_adapter@D@__crt_stdio_output@@@__crt_stdio_output@@IEAA_NXZ 00000001801d84c4 f i libucrt:output.obj
 0001:001d74e4       ?should_format@?$positional_parameter_base@DV?$string_output_adapter@D@__crt_stdio_output@@@__crt_stdio_output@@IEAA_NXZ 00000001801d84e4 f i libucrt:output.obj
 0001:001d7504       ?should_format@?$positional_parameter_base@_WV?$stream_output_adapter@_W@__crt_stdio_output@@@__crt_stdio_output@@IEAA_NXZ 00000001801d8504 f i libucrt:output.obj
 0001:001d7524       ?should_format@?$positional_parameter_base@_WV?$string_output_adapter@_W@__crt_stdio_output@@@__crt_stdio_output@@IEAA_NXZ 00000001801d8524 f i libucrt:output.obj
 0001:001d7544       ?should_format@?$standard_base@DV?$stream_output_adapter@D@__crt_stdio_output@@@__crt_stdio_output@@IEAA_NXZ 00000001801d8544 f i libucrt:output.obj
 0001:001d7548       ?should_format@?$standard_base@DV?$string_output_adapter@D@__crt_stdio_output@@@__crt_stdio_output@@IEAA_NXZ 00000001801d8548 f i libucrt:output.obj
 0001:001d754c       ?should_format@?$standard_base@_WV?$stream_output_adapter@_W@__crt_stdio_output@@@__crt_stdio_output@@IEAA_NXZ 00000001801d854c f i libucrt:output.obj
 0001:001d7550       ?should_format@?$standard_base@_WV?$string_output_adapter@_W@__crt_stdio_output@@@__crt_stdio_output@@IEAA_NXZ 00000001801d8550 f i libucrt:output.obj
 0001:001d7554       ?should_skip_normal_state_processing@?$positional_parameter_base@DV?$stream_output_adapter@D@__crt_stdio_output@@@__crt_stdio_output@@IEAA_NXZ 00000001801d8554 f i libucrt:output.obj
 0001:001d7588       ?should_skip_normal_state_processing@?$positional_parameter_base@DV?$string_output_adapter@D@__crt_stdio_output@@@__crt_stdio_output@@IEAA_NXZ 00000001801d8588 f i libucrt:output.obj
 0001:001d75bc       ?should_skip_normal_state_processing@?$positional_parameter_base@_WV?$stream_output_adapter@_W@__crt_stdio_output@@@__crt_stdio_output@@IEAA_NXZ 00000001801d85bc f i libucrt:output.obj
 0001:001d75f0       ?should_skip_normal_state_processing@?$positional_parameter_base@_WV?$string_output_adapter@_W@__crt_stdio_output@@@__crt_stdio_output@@IEAA_NXZ 00000001801d85f0 f i libucrt:output.obj
 0001:001d7624       ?should_skip_normal_state_processing@?$standard_base@DV?$stream_output_adapter@D@__crt_stdio_output@@@__crt_stdio_output@@IEAA_NXZ 00000001801d8624 f i libucrt:output.obj
 0001:001d7628       ?should_skip_normal_state_processing@?$standard_base@DV?$string_output_adapter@D@__crt_stdio_output@@@__crt_stdio_output@@IEAA_NXZ 00000001801d8628 f i libucrt:output.obj
 0001:001d762c       ?should_skip_normal_state_processing@?$standard_base@_WV?$stream_output_adapter@_W@__crt_stdio_output@@@__crt_stdio_output@@IEAA_NXZ 00000001801d862c f i libucrt:output.obj
 0001:001d7630       ?should_skip_normal_state_processing@?$standard_base@_WV?$string_output_adapter@_W@__crt_stdio_output@@@__crt_stdio_output@@IEAA_NXZ 00000001801d8630 f i libucrt:output.obj
 0001:001d7634       ?should_skip_type_state_output@?$positional_parameter_base@DV?$stream_output_adapter@D@__crt_stdio_output@@@__crt_stdio_output@@IEBA_NXZ 00000001801d8634 f i libucrt:output.obj
 0001:001d7654       ?should_skip_type_state_output@?$positional_parameter_base@DV?$string_output_adapter@D@__crt_stdio_output@@@__crt_stdio_output@@IEBA_NXZ 00000001801d8654 f i libucrt:output.obj
 0001:001d7674       ?should_skip_type_state_output@?$positional_parameter_base@_WV?$stream_output_adapter@_W@__crt_stdio_output@@@__crt_stdio_output@@IEBA_NXZ 00000001801d8674 f i libucrt:output.obj
 0001:001d7694       ?should_skip_type_state_output@?$positional_parameter_base@_WV?$string_output_adapter@_W@__crt_stdio_output@@@__crt_stdio_output@@IEBA_NXZ 00000001801d8694 f i libucrt:output.obj
 0001:001d76b4       ?should_skip_type_state_output@?$standard_base@DV?$stream_output_adapter@D@__crt_stdio_output@@@__crt_stdio_output@@IEBA_NXZ 00000001801d86b4 f i libucrt:output.obj
 0001:001d76b8       ?should_skip_type_state_output@?$standard_base@DV?$string_output_adapter@D@__crt_stdio_output@@@__crt_stdio_output@@IEBA_NXZ 00000001801d86b8 f i libucrt:output.obj
 0001:001d76bc       ?should_skip_type_state_output@?$standard_base@_WV?$stream_output_adapter@_W@__crt_stdio_output@@@__crt_stdio_output@@IEBA_NXZ 00000001801d86bc f i libucrt:output.obj
 0001:001d76c0       ?should_skip_type_state_output@?$standard_base@_WV?$string_output_adapter@_W@__crt_stdio_output@@@__crt_stdio_output@@IEBA_NXZ 00000001801d86c0 f i libucrt:output.obj
 0001:001d76c4       ?state_case_dot@?$output_processor@DV?$stream_output_adapter@D@__crt_stdio_output@@V?$format_validation_base@DV?$stream_output_adapter@D@__crt_stdio_output@@@2@@__crt_stdio_output@@AEAA_NXZ 00000001801d86c4 f i libucrt:output.obj
 0001:001d76cc       ?state_case_dot@?$output_processor@DV?$stream_output_adapter@D@__crt_stdio_output@@V?$positional_parameter_base@DV?$stream_output_adapter@D@__crt_stdio_output@@@2@@__crt_stdio_output@@AEAA_NXZ 00000001801d86cc f i libucrt:output.obj
 0001:001d76d4       ?state_case_dot@?$output_processor@DV?$stream_output_adapter@D@__crt_stdio_output@@V?$standard_base@DV?$stream_output_adapter@D@__crt_stdio_output@@@2@@__crt_stdio_output@@AEAA_NXZ 00000001801d86d4 f i libucrt:output.obj
 0001:001d76dc       ?state_case_dot@?$output_processor@DV?$string_output_adapter@D@__crt_stdio_output@@V?$format_validation_base@DV?$string_output_adapter@D@__crt_stdio_output@@@2@@__crt_stdio_output@@AEAA_NXZ 00000001801d86dc f i libucrt:output.obj
 0001:001d76e4       ?state_case_dot@?$output_processor@DV?$string_output_adapter@D@__crt_stdio_output@@V?$positional_parameter_base@DV?$string_output_adapter@D@__crt_stdio_output@@@2@@__crt_stdio_output@@AEAA_NXZ 00000001801d86e4 f i libucrt:output.obj
 0001:001d76ec       ?state_case_dot@?$output_processor@DV?$string_output_adapter@D@__crt_stdio_output@@V?$standard_base@DV?$string_output_adapter@D@__crt_stdio_output@@@2@@__crt_stdio_output@@AEAA_NXZ 00000001801d86ec f i libucrt:output.obj
 0001:001d76f4       ?state_case_dot@?$output_processor@_WV?$stream_output_adapter@_W@__crt_stdio_output@@V?$format_validation_base@_WV?$stream_output_adapter@_W@__crt_stdio_output@@@2@@__crt_stdio_output@@AEAA_NXZ 00000001801d86f4 f i libucrt:output.obj
 0001:001d76fc       ?state_case_dot@?$output_processor@_WV?$stream_output_adapter@_W@__crt_stdio_output@@V?$positional_parameter_base@_WV?$stream_output_adapter@_W@__crt_stdio_output@@@2@@__crt_stdio_output@@AEAA_NXZ 00000001801d86fc f i libucrt:output.obj
 0001:001d7704       ?state_case_dot@?$output_processor@_WV?$stream_output_adapter@_W@__crt_stdio_output@@V?$standard_base@_WV?$stream_output_adapter@_W@__crt_stdio_output@@@2@@__crt_stdio_output@@AEAA_NXZ 00000001801d8704 f i libucrt:output.obj
 0001:001d770c       ?state_case_dot@?$output_processor@_WV?$string_output_adapter@_W@__crt_stdio_output@@V?$format_validation_base@_WV?$string_output_adapter@_W@__crt_stdio_output@@@2@@__crt_stdio_output@@AEAA_NXZ 00000001801d870c f i libucrt:output.obj
 0001:001d7714       ?state_case_dot@?$output_processor@_WV?$string_output_adapter@_W@__crt_stdio_output@@V?$positional_parameter_base@_WV?$string_output_adapter@_W@__crt_stdio_output@@@2@@__crt_stdio_output@@AEAA_NXZ 00000001801d8714 f i libucrt:output.obj
 0001:001d771c       ?state_case_dot@?$output_processor@_WV?$string_output_adapter@_W@__crt_stdio_output@@V?$standard_base@_WV?$string_output_adapter@_W@__crt_stdio_output@@@2@@__crt_stdio_output@@AEAA_NXZ 00000001801d871c f i libucrt:output.obj
 0001:001d7724       ?state_case_flag@?$output_processor@DV?$stream_output_adapter@D@__crt_stdio_output@@V?$format_validation_base@DV?$stream_output_adapter@D@__crt_stdio_output@@@2@@__crt_stdio_output@@AEAA_NXZ 00000001801d8724 f i libucrt:output.obj
 0001:001d7768       ?state_case_flag@?$output_processor@DV?$stream_output_adapter@D@__crt_stdio_output@@V?$positional_parameter_base@DV?$stream_output_adapter@D@__crt_stdio_output@@@2@@__crt_stdio_output@@AEAA_NXZ 00000001801d8768 f i libucrt:output.obj
 0001:001d77ac       ?state_case_flag@?$output_processor@DV?$stream_output_adapter@D@__crt_stdio_output@@V?$standard_base@DV?$stream_output_adapter@D@__crt_stdio_output@@@2@@__crt_stdio_output@@AEAA_NXZ 00000001801d87ac f i libucrt:output.obj
 0001:001d77f0       ?state_case_flag@?$output_processor@DV?$string_output_adapter@D@__crt_stdio_output@@V?$format_validation_base@DV?$string_output_adapter@D@__crt_stdio_output@@@2@@__crt_stdio_output@@AEAA_NXZ 00000001801d87f0 f i libucrt:output.obj
 0001:001d7834       ?state_case_flag@?$output_processor@DV?$string_output_adapter@D@__crt_stdio_output@@V?$positional_parameter_base@DV?$string_output_adapter@D@__crt_stdio_output@@@2@@__crt_stdio_output@@AEAA_NXZ 00000001801d8834 f i libucrt:output.obj
 0001:001d7878       ?state_case_flag@?$output_processor@DV?$string_output_adapter@D@__crt_stdio_output@@V?$standard_base@DV?$string_output_adapter@D@__crt_stdio_output@@@2@@__crt_stdio_output@@AEAA_NXZ 00000001801d8878 f i libucrt:output.obj
 0001:001d78bc       ?state_case_flag@?$output_processor@_WV?$stream_output_adapter@_W@__crt_stdio_output@@V?$format_validation_base@_WV?$stream_output_adapter@_W@__crt_stdio_output@@@2@@__crt_stdio_output@@AEAA_NXZ 00000001801d88bc f i libucrt:output.obj
 0001:001d7908       ?state_case_flag@?$output_processor@_WV?$stream_output_adapter@_W@__crt_stdio_output@@V?$positional_parameter_base@_WV?$stream_output_adapter@_W@__crt_stdio_output@@@2@@__crt_stdio_output@@AEAA_NXZ 00000001801d8908 f i libucrt:output.obj
 0001:001d7954       ?state_case_flag@?$output_processor@_WV?$stream_output_adapter@_W@__crt_stdio_output@@V?$standard_base@_WV?$stream_output_adapter@_W@__crt_stdio_output@@@2@@__crt_stdio_output@@AEAA_NXZ 00000001801d8954 f i libucrt:output.obj
 0001:001d79a0       ?state_case_flag@?$output_processor@_WV?$string_output_adapter@_W@__crt_stdio_output@@V?$format_validation_base@_WV?$string_output_adapter@_W@__crt_stdio_output@@@2@@__crt_stdio_output@@AEAA_NXZ 00000001801d89a0 f i libucrt:output.obj
 0001:001d79ec       ?state_case_flag@?$output_processor@_WV?$string_output_adapter@_W@__crt_stdio_output@@V?$positional_parameter_base@_WV?$string_output_adapter@_W@__crt_stdio_output@@@2@@__crt_stdio_output@@AEAA_NXZ 00000001801d89ec f i libucrt:output.obj
 0001:001d7a38       ?state_case_flag@?$output_processor@_WV?$string_output_adapter@_W@__crt_stdio_output@@V?$standard_base@_WV?$string_output_adapter@_W@__crt_stdio_output@@@2@@__crt_stdio_output@@AEAA_NXZ 00000001801d8a38 f i libucrt:output.obj
 0001:001d7a84       ?state_case_normal@?$output_processor@DV?$stream_output_adapter@D@__crt_stdio_output@@V?$format_validation_base@DV?$stream_output_adapter@D@__crt_stdio_output@@@2@@__crt_stdio_output@@AEAA_NXZ 00000001801d8a84 f i libucrt:output.obj
 0001:001d7b10       ?state_case_normal@?$output_processor@DV?$stream_output_adapter@D@__crt_stdio_output@@V?$positional_parameter_base@DV?$stream_output_adapter@D@__crt_stdio_output@@@2@@__crt_stdio_output@@AEAA_NXZ 00000001801d8b10 f i libucrt:output.obj
 0001:001d7bcc       ?state_case_normal@?$output_processor@DV?$stream_output_adapter@D@__crt_stdio_output@@V?$standard_base@DV?$stream_output_adapter@D@__crt_stdio_output@@@2@@__crt_stdio_output@@AEAA_NXZ 00000001801d8bcc f i libucrt:output.obj
 0001:001d7c58       ?state_case_normal@?$output_processor@DV?$string_output_adapter@D@__crt_stdio_output@@V?$format_validation_base@DV?$string_output_adapter@D@__crt_stdio_output@@@2@@__crt_stdio_output@@AEAA_NXZ 00000001801d8c58 f i libucrt:output.obj
 0001:001d7cec       ?state_case_normal@?$output_processor@DV?$string_output_adapter@D@__crt_stdio_output@@V?$positional_parameter_base@DV?$string_output_adapter@D@__crt_stdio_output@@@2@@__crt_stdio_output@@AEAA_NXZ 00000001801d8cec f i libucrt:output.obj
 0001:001d7dac       ?state_case_normal@?$output_processor@DV?$string_output_adapter@D@__crt_stdio_output@@V?$standard_base@DV?$string_output_adapter@D@__crt_stdio_output@@@2@@__crt_stdio_output@@AEAA_NXZ 00000001801d8dac f i libucrt:output.obj
 0001:001d7e40       ?state_case_normal@?$output_processor@_WV?$stream_output_adapter@_W@__crt_stdio_output@@V?$format_validation_base@_WV?$stream_output_adapter@_W@__crt_stdio_output@@@2@@__crt_stdio_output@@AEAA_NXZ 00000001801d8e40 f i libucrt:output.obj
 0001:001d7eb0       ?state_case_normal@?$output_processor@_WV?$stream_output_adapter@_W@__crt_stdio_output@@V?$positional_parameter_base@_WV?$stream_output_adapter@_W@__crt_stdio_output@@@2@@__crt_stdio_output@@AEAA_NXZ 00000001801d8eb0 f i libucrt:output.obj
 0001:001d7f50       ?state_case_normal@?$output_processor@_WV?$stream_output_adapter@_W@__crt_stdio_output@@V?$standard_base@_WV?$stream_output_adapter@_W@__crt_stdio_output@@@2@@__crt_stdio_output@@AEAA_NXZ 00000001801d8f50 f i libucrt:output.obj
 0001:001d7fc0       ?state_case_normal@?$output_processor@_WV?$string_output_adapter@_W@__crt_stdio_output@@V?$format_validation_base@_WV?$string_output_adapter@_W@__crt_stdio_output@@@2@@__crt_stdio_output@@AEAA_NXZ 00000001801d8fc0 f i libucrt:output.obj
 0001:001d802c       ?state_case_normal@?$output_processor@_WV?$string_output_adapter@_W@__crt_stdio_output@@V?$positional_parameter_base@_WV?$string_output_adapter@_W@__crt_stdio_output@@@2@@__crt_stdio_output@@AEAA_NXZ 00000001801d902c f i libucrt:output.obj
 0001:001d80bc       ?state_case_normal@?$output_processor@_WV?$string_output_adapter@_W@__crt_stdio_output@@V?$standard_base@_WV?$string_output_adapter@_W@__crt_stdio_output@@@2@@__crt_stdio_output@@AEAA_NXZ 00000001801d90bc f i libucrt:output.obj
 0001:001d8128       ?state_case_normal_common@?$output_processor@DV?$stream_output_adapter@D@__crt_stdio_output@@V?$format_validation_base@DV?$stream_output_adapter@D@__crt_stdio_output@@@2@@__crt_stdio_output@@AEAA_NXZ 00000001801d9128 f i libucrt:output.obj
 0001:001d819c       ?state_case_normal_common@?$output_processor@DV?$stream_output_adapter@D@__crt_stdio_output@@V?$positional_parameter_base@DV?$stream_output_adapter@D@__crt_stdio_output@@@2@@__crt_stdio_output@@AEAA_NXZ 00000001801d919c f i libucrt:output.obj
 0001:001d8210       ?state_case_normal_common@?$output_processor@DV?$stream_output_adapter@D@__crt_stdio_output@@V?$standard_base@DV?$stream_output_adapter@D@__crt_stdio_output@@@2@@__crt_stdio_output@@AEAA_NXZ 00000001801d9210 f i libucrt:output.obj
 0001:001d8284       ?state_case_normal_common@?$output_processor@DV?$string_output_adapter@D@__crt_stdio_output@@V?$format_validation_base@DV?$string_output_adapter@D@__crt_stdio_output@@@2@@__crt_stdio_output@@AEAA_NXZ 00000001801d9284 f i libucrt:output.obj
 0001:001d82fc       ?state_case_normal_common@?$output_processor@DV?$string_output_adapter@D@__crt_stdio_output@@V?$positional_parameter_base@DV?$string_output_adapter@D@__crt_stdio_output@@@2@@__crt_stdio_output@@AEAA_NXZ 00000001801d92fc f i libucrt:output.obj
 0001:001d8374       ?state_case_normal_common@?$output_processor@DV?$string_output_adapter@D@__crt_stdio_output@@V?$standard_base@DV?$string_output_adapter@D@__crt_stdio_output@@@2@@__crt_stdio_output@@AEAA_NXZ 00000001801d9374 f i libucrt:output.obj
 0001:001d83ec       ?state_case_normal_common@?$output_processor@_WV?$stream_output_adapter@_W@__crt_stdio_output@@V?$format_validation_base@_WV?$stream_output_adapter@_W@__crt_stdio_output@@@2@@__crt_stdio_output@@AEAA_NXZ 00000001801d93ec f i libucrt:output.obj
 0001:001d845c       ?state_case_normal_common@?$output_processor@_WV?$stream_output_adapter@_W@__crt_stdio_output@@V?$positional_parameter_base@_WV?$stream_output_adapter@_W@__crt_stdio_output@@@2@@__crt_stdio_output@@AEAA_NXZ 00000001801d945c f i libucrt:output.obj
 0001:001d84cc       ?state_case_normal_common@?$output_processor@_WV?$stream_output_adapter@_W@__crt_stdio_output@@V?$standard_base@_WV?$stream_output_adapter@_W@__crt_stdio_output@@@2@@__crt_stdio_output@@AEAA_NXZ 00000001801d94cc f i libucrt:output.obj
 0001:001d853c       ?state_case_normal_common@?$output_processor@_WV?$string_output_adapter@_W@__crt_stdio_output@@V?$format_validation_base@_WV?$string_output_adapter@_W@__crt_stdio_output@@@2@@__crt_stdio_output@@AEAA_NXZ 00000001801d953c f i libucrt:output.obj
 0001:001d85a8       ?state_case_normal_common@?$output_processor@_WV?$string_output_adapter@_W@__crt_stdio_output@@V?$positional_parameter_base@_WV?$string_output_adapter@_W@__crt_stdio_output@@@2@@__crt_stdio_output@@AEAA_NXZ 00000001801d95a8 f i libucrt:output.obj
 0001:001d8614       ?state_case_normal_common@?$output_processor@_WV?$string_output_adapter@_W@__crt_stdio_output@@V?$standard_base@_WV?$string_output_adapter@_W@__crt_stdio_output@@@2@@__crt_stdio_output@@AEAA_NXZ 00000001801d9614 f i libucrt:output.obj
 0001:001d8680       ?state_case_normal_tchar@?$output_processor@DV?$stream_output_adapter@D@__crt_stdio_output@@V?$format_validation_base@DV?$stream_output_adapter@D@__crt_stdio_output@@@2@@__crt_stdio_output@@AEAA_ND@Z 00000001801d9680 f i libucrt:output.obj
 0001:001d8738       ?state_case_normal_tchar@?$output_processor@DV?$stream_output_adapter@D@__crt_stdio_output@@V?$positional_parameter_base@DV?$stream_output_adapter@D@__crt_stdio_output@@@2@@__crt_stdio_output@@AEAA_ND@Z 00000001801d9738 f i libucrt:output.obj
 0001:001d87f0       ?state_case_normal_tchar@?$output_processor@DV?$stream_output_adapter@D@__crt_stdio_output@@V?$standard_base@DV?$stream_output_adapter@D@__crt_stdio_output@@@2@@__crt_stdio_output@@AEAA_ND@Z 00000001801d97f0 f i libucrt:output.obj
 0001:001d88a8       ?state_case_normal_tchar@?$output_processor@DV?$string_output_adapter@D@__crt_stdio_output@@V?$format_validation_base@DV?$string_output_adapter@D@__crt_stdio_output@@@2@@__crt_stdio_output@@AEAA_ND@Z 00000001801d98a8 f i libucrt:output.obj
 0001:001d8964       ?state_case_normal_tchar@?$output_processor@DV?$string_output_adapter@D@__crt_stdio_output@@V?$positional_parameter_base@DV?$string_output_adapter@D@__crt_stdio_output@@@2@@__crt_stdio_output@@AEAA_ND@Z 00000001801d9964 f i libucrt:output.obj
 0001:001d8a20       ?state_case_normal_tchar@?$output_processor@DV?$string_output_adapter@D@__crt_stdio_output@@V?$standard_base@DV?$string_output_adapter@D@__crt_stdio_output@@@2@@__crt_stdio_output@@AEAA_ND@Z 00000001801d9a20 f i libucrt:output.obj
 0001:001d8adc       ?state_case_normal_tchar@?$output_processor@_WV?$stream_output_adapter@_W@__crt_stdio_output@@V?$format_validation_base@_WV?$stream_output_adapter@_W@__crt_stdio_output@@@2@@__crt_stdio_output@@AEAA_N_W@Z 00000001801d9adc f i libucrt:output.obj
 0001:001d8ae4       ?state_case_normal_tchar@?$output_processor@_WV?$stream_output_adapter@_W@__crt_stdio_output@@V?$positional_parameter_base@_WV?$stream_output_adapter@_W@__crt_stdio_output@@@2@@__crt_stdio_output@@AEAA_N_W@Z 00000001801d9ae4 f i libucrt:output.obj
 0001:001d8aec       ?state_case_normal_tchar@?$output_processor@_WV?$stream_output_adapter@_W@__crt_stdio_output@@V?$standard_base@_WV?$stream_output_adapter@_W@__crt_stdio_output@@@2@@__crt_stdio_output@@AEAA_N_W@Z 00000001801d9aec f i libucrt:output.obj
 0001:001d8af4       ?state_case_normal_tchar@?$output_processor@_WV?$string_output_adapter@_W@__crt_stdio_output@@V?$format_validation_base@_WV?$string_output_adapter@_W@__crt_stdio_output@@@2@@__crt_stdio_output@@AEAA_N_W@Z 00000001801d9af4 f i libucrt:output.obj
 0001:001d8afc       ?state_case_normal_tchar@?$output_processor@_WV?$string_output_adapter@_W@__crt_stdio_output@@V?$positional_parameter_base@_WV?$string_output_adapter@_W@__crt_stdio_output@@@2@@__crt_stdio_output@@AEAA_N_W@Z 00000001801d9afc f i libucrt:output.obj
 0001:001d8b04       ?state_case_normal_tchar@?$output_processor@_WV?$string_output_adapter@_W@__crt_stdio_output@@V?$standard_base@_WV?$string_output_adapter@_W@__crt_stdio_output@@@2@@__crt_stdio_output@@AEAA_N_W@Z 00000001801d9b04 f i libucrt:output.obj
 0001:001d8b0c       ?state_case_percent@?$output_processor@DV?$stream_output_adapter@D@__crt_stdio_output@@V?$format_validation_base@DV?$stream_output_adapter@D@__crt_stdio_output@@@2@@__crt_stdio_output@@AEAA_NXZ 00000001801d9b0c f i libucrt:output.obj
 0001:001d8b28       ?state_case_percent@?$output_processor@DV?$stream_output_adapter@D@__crt_stdio_output@@V?$positional_parameter_base@DV?$stream_output_adapter@D@__crt_stdio_output@@@2@@__crt_stdio_output@@AEAA_NXZ 00000001801d9b28 f i libucrt:output.obj
 0001:001d8b44       ?state_case_percent@?$output_processor@DV?$stream_output_adapter@D@__crt_stdio_output@@V?$standard_base@DV?$stream_output_adapter@D@__crt_stdio_output@@@2@@__crt_stdio_output@@AEAA_NXZ 00000001801d9b44 f i libucrt:output.obj
 0001:001d8b60       ?state_case_percent@?$output_processor@DV?$string_output_adapter@D@__crt_stdio_output@@V?$format_validation_base@DV?$string_output_adapter@D@__crt_stdio_output@@@2@@__crt_stdio_output@@AEAA_NXZ 00000001801d9b60 f i libucrt:output.obj
 0001:001d8b7c       ?state_case_percent@?$output_processor@DV?$string_output_adapter@D@__crt_stdio_output@@V?$positional_parameter_base@DV?$string_output_adapter@D@__crt_stdio_output@@@2@@__crt_stdio_output@@AEAA_NXZ 00000001801d9b7c f i libucrt:output.obj
 0001:001d8b98       ?state_case_percent@?$output_processor@DV?$string_output_adapter@D@__crt_stdio_output@@V?$standard_base@DV?$string_output_adapter@D@__crt_stdio_output@@@2@@__crt_stdio_output@@AEAA_NXZ 00000001801d9b98 f i libucrt:output.obj
 0001:001d8bb4       ?state_case_percent@?$output_processor@_WV?$stream_output_adapter@_W@__crt_stdio_output@@V?$format_validation_base@_WV?$stream_output_adapter@_W@__crt_stdio_output@@@2@@__crt_stdio_output@@AEAA_NXZ 00000001801d9bb4 f i libucrt:output.obj
 0001:001d8bd0       ?state_case_percent@?$output_processor@_WV?$stream_output_adapter@_W@__crt_stdio_output@@V?$positional_parameter_base@_WV?$stream_output_adapter@_W@__crt_stdio_output@@@2@@__crt_stdio_output@@AEAA_NXZ 00000001801d9bd0 f i libucrt:output.obj
 0001:001d8bec       ?state_case_percent@?$output_processor@_WV?$stream_output_adapter@_W@__crt_stdio_output@@V?$standard_base@_WV?$stream_output_adapter@_W@__crt_stdio_output@@@2@@__crt_stdio_output@@AEAA_NXZ 00000001801d9bec f i libucrt:output.obj
 0001:001d8c08       ?state_case_percent@?$output_processor@_WV?$string_output_adapter@_W@__crt_stdio_output@@V?$format_validation_base@_WV?$string_output_adapter@_W@__crt_stdio_output@@@2@@__crt_stdio_output@@AEAA_NXZ 00000001801d9c08 f i libucrt:output.obj
 0001:001d8c24       ?state_case_percent@?$output_processor@_WV?$string_output_adapter@_W@__crt_stdio_output@@V?$positional_parameter_base@_WV?$string_output_adapter@_W@__crt_stdio_output@@@2@@__crt_stdio_output@@AEAA_NXZ 00000001801d9c24 f i libucrt:output.obj
 0001:001d8c40       ?state_case_percent@?$output_processor@_WV?$string_output_adapter@_W@__crt_stdio_output@@V?$standard_base@_WV?$string_output_adapter@_W@__crt_stdio_output@@@2@@__crt_stdio_output@@AEAA_NXZ 00000001801d9c40 f i libucrt:output.obj
 0001:001d8c5c       ?state_case_precision@?$output_processor@DV?$stream_output_adapter@D@__crt_stdio_output@@V?$format_validation_base@DV?$stream_output_adapter@D@__crt_stdio_output@@@2@@__crt_stdio_output@@AEAA_NXZ 00000001801d9c5c f i libucrt:output.obj
 0001:001d8c94       ?state_case_precision@?$output_processor@DV?$stream_output_adapter@D@__crt_stdio_output@@V?$positional_parameter_base@DV?$stream_output_adapter@D@__crt_stdio_output@@@2@@__crt_stdio_output@@AEAA_NXZ 00000001801d9c94 f i libucrt:output.obj
 0001:001d8cf0       ?state_case_precision@?$output_processor@DV?$stream_output_adapter@D@__crt_stdio_output@@V?$standard_base@DV?$stream_output_adapter@D@__crt_stdio_output@@@2@@__crt_stdio_output@@AEAA_NXZ 00000001801d9cf0 f i libucrt:output.obj
 0001:001d8d28       ?state_case_precision@?$output_processor@DV?$string_output_adapter@D@__crt_stdio_output@@V?$format_validation_base@DV?$string_output_adapter@D@__crt_stdio_output@@@2@@__crt_stdio_output@@AEAA_NXZ 00000001801d9d28 f i libucrt:output.obj
 0001:001d8d60       ?state_case_precision@?$output_processor@DV?$string_output_adapter@D@__crt_stdio_output@@V?$positional_parameter_base@DV?$string_output_adapter@D@__crt_stdio_output@@@2@@__crt_stdio_output@@AEAA_NXZ 00000001801d9d60 f i libucrt:output.obj
 0001:001d8dbc       ?state_case_precision@?$output_processor@DV?$string_output_adapter@D@__crt_stdio_output@@V?$standard_base@DV?$string_output_adapter@D@__crt_stdio_output@@@2@@__crt_stdio_output@@AEAA_NXZ 00000001801d9dbc f i libucrt:output.obj
 0001:001d8df4       ?state_case_precision@?$output_processor@_WV?$stream_output_adapter@_W@__crt_stdio_output@@V?$format_validation_base@_WV?$stream_output_adapter@_W@__crt_stdio_output@@@2@@__crt_stdio_output@@AEAA_NXZ 00000001801d9df4 f i libucrt:output.obj
 0001:001d8e30       ?state_case_precision@?$output_processor@_WV?$stream_output_adapter@_W@__crt_stdio_output@@V?$positional_parameter_base@_WV?$stream_output_adapter@_W@__crt_stdio_output@@@2@@__crt_stdio_output@@AEAA_NXZ 00000001801d9e30 f i libucrt:output.obj
 0001:001d8e90       ?state_case_precision@?$output_processor@_WV?$stream_output_adapter@_W@__crt_stdio_output@@V?$standard_base@_WV?$stream_output_adapter@_W@__crt_stdio_output@@@2@@__crt_stdio_output@@AEAA_NXZ 00000001801d9e90 f i libucrt:output.obj
 0001:001d8ecc       ?state_case_precision@?$output_processor@_WV?$string_output_adapter@_W@__crt_stdio_output@@V?$format_validation_base@_WV?$string_output_adapter@_W@__crt_stdio_output@@@2@@__crt_stdio_output@@AEAA_NXZ 00000001801d9ecc f i libucrt:output.obj
 0001:001d8f08       ?state_case_precision@?$output_processor@_WV?$string_output_adapter@_W@__crt_stdio_output@@V?$positional_parameter_base@_WV?$string_output_adapter@_W@__crt_stdio_output@@@2@@__crt_stdio_output@@AEAA_NXZ 00000001801d9f08 f i libucrt:output.obj
 0001:001d8f68       ?state_case_precision@?$output_processor@_WV?$string_output_adapter@_W@__crt_stdio_output@@V?$standard_base@_WV?$string_output_adapter@_W@__crt_stdio_output@@@2@@__crt_stdio_output@@AEAA_NXZ 00000001801d9f68 f i libucrt:output.obj
 0001:001d8fa4       ?state_case_size@?$output_processor@DV?$stream_output_adapter@D@__crt_stdio_output@@V?$format_validation_base@DV?$stream_output_adapter@D@__crt_stdio_output@@@2@@__crt_stdio_output@@AEAA_NXZ 00000001801d9fa4 f i libucrt:output.obj
 0001:001d9180       ?state_case_size@?$output_processor@DV?$stream_output_adapter@D@__crt_stdio_output@@V?$positional_parameter_base@DV?$stream_output_adapter@D@__crt_stdio_output@@@2@@__crt_stdio_output@@AEAA_NXZ 00000001801da180 f i libucrt:output.obj
 0001:001d935c       ?state_case_size@?$output_processor@DV?$stream_output_adapter@D@__crt_stdio_output@@V?$standard_base@DV?$stream_output_adapter@D@__crt_stdio_output@@@2@@__crt_stdio_output@@AEAA_NXZ 00000001801da35c f i libucrt:output.obj
 0001:001d9538       ?state_case_size@?$output_processor@DV?$string_output_adapter@D@__crt_stdio_output@@V?$format_validation_base@DV?$string_output_adapter@D@__crt_stdio_output@@@2@@__crt_stdio_output@@AEAA_NXZ 00000001801da538 f i libucrt:output.obj
 0001:001d9714       ?state_case_size@?$output_processor@DV?$string_output_adapter@D@__crt_stdio_output@@V?$positional_parameter_base@DV?$string_output_adapter@D@__crt_stdio_output@@@2@@__crt_stdio_output@@AEAA_NXZ 00000001801da714 f i libucrt:output.obj
 0001:001d98f0       ?state_case_size@?$output_processor@DV?$string_output_adapter@D@__crt_stdio_output@@V?$standard_base@DV?$string_output_adapter@D@__crt_stdio_output@@@2@@__crt_stdio_output@@AEAA_NXZ 00000001801da8f0 f i libucrt:output.obj
 0001:001d9acc       ?state_case_size@?$output_processor@_WV?$stream_output_adapter@_W@__crt_stdio_output@@V?$format_validation_base@_WV?$stream_output_adapter@_W@__crt_stdio_output@@@2@@__crt_stdio_output@@AEAA_NXZ 00000001801daacc f i libucrt:output.obj
 0001:001d9cd8       ?state_case_size@?$output_processor@_WV?$stream_output_adapter@_W@__crt_stdio_output@@V?$positional_parameter_base@_WV?$stream_output_adapter@_W@__crt_stdio_output@@@2@@__crt_stdio_output@@AEAA_NXZ 00000001801dacd8 f i libucrt:output.obj
 0001:001d9ee4       ?state_case_size@?$output_processor@_WV?$stream_output_adapter@_W@__crt_stdio_output@@V?$standard_base@_WV?$stream_output_adapter@_W@__crt_stdio_output@@@2@@__crt_stdio_output@@AEAA_NXZ 00000001801daee4 f i libucrt:output.obj
 0001:001da0f0       ?state_case_size@?$output_processor@_WV?$string_output_adapter@_W@__crt_stdio_output@@V?$format_validation_base@_WV?$string_output_adapter@_W@__crt_stdio_output@@@2@@__crt_stdio_output@@AEAA_NXZ 00000001801db0f0 f i libucrt:output.obj
 0001:001da2fc       ?state_case_size@?$output_processor@_WV?$string_output_adapter@_W@__crt_stdio_output@@V?$positional_parameter_base@_WV?$string_output_adapter@_W@__crt_stdio_output@@@2@@__crt_stdio_output@@AEAA_NXZ 00000001801db2fc f i libucrt:output.obj
 0001:001da508       ?state_case_size@?$output_processor@_WV?$string_output_adapter@_W@__crt_stdio_output@@V?$standard_base@_WV?$string_output_adapter@_W@__crt_stdio_output@@@2@@__crt_stdio_output@@AEAA_NXZ 00000001801db508 f i libucrt:output.obj
 0001:001da714       ?state_case_type@?$output_processor@DV?$stream_output_adapter@D@__crt_stdio_output@@V?$format_validation_base@DV?$stream_output_adapter@D@__crt_stdio_output@@@2@@__crt_stdio_output@@AEAA_NXZ 00000001801db714 f i libucrt:output.obj
 0001:001daa2c       ?state_case_type@?$output_processor@DV?$stream_output_adapter@D@__crt_stdio_output@@V?$positional_parameter_base@DV?$stream_output_adapter@D@__crt_stdio_output@@@2@@__crt_stdio_output@@AEAA_NXZ 00000001801dba2c f i libucrt:output.obj
 0001:001dad60       ?state_case_type@?$output_processor@DV?$stream_output_adapter@D@__crt_stdio_output@@V?$standard_base@DV?$stream_output_adapter@D@__crt_stdio_output@@@2@@__crt_stdio_output@@AEAA_NXZ 00000001801dbd60 f i libucrt:output.obj
 0001:001db078       ?state_case_type@?$output_processor@DV?$string_output_adapter@D@__crt_stdio_output@@V?$format_validation_base@DV?$string_output_adapter@D@__crt_stdio_output@@@2@@__crt_stdio_output@@AEAA_NXZ 00000001801dc078 f i libucrt:output.obj
 0001:001db390       ?state_case_type@?$output_processor@DV?$string_output_adapter@D@__crt_stdio_output@@V?$positional_parameter_base@DV?$string_output_adapter@D@__crt_stdio_output@@@2@@__crt_stdio_output@@AEAA_NXZ 00000001801dc390 f i libucrt:output.obj
 0001:001db6c4       ?state_case_type@?$output_processor@DV?$string_output_adapter@D@__crt_stdio_output@@V?$standard_base@DV?$string_output_adapter@D@__crt_stdio_output@@@2@@__crt_stdio_output@@AEAA_NXZ 00000001801dc6c4 f i libucrt:output.obj
 0001:001db9dc       ?state_case_type@?$output_processor@_WV?$stream_output_adapter@_W@__crt_stdio_output@@V?$format_validation_base@_WV?$stream_output_adapter@_W@__crt_stdio_output@@@2@@__crt_stdio_output@@AEAA_NXZ 00000001801dc9dc f i libucrt:output.obj
 0001:001dbd58       ?state_case_type@?$output_processor@_WV?$stream_output_adapter@_W@__crt_stdio_output@@V?$positional_parameter_base@_WV?$stream_output_adapter@_W@__crt_stdio_output@@@2@@__crt_stdio_output@@AEAA_NXZ 00000001801dcd58 f i libucrt:output.obj
 0001:001dc0f0       ?state_case_type@?$output_processor@_WV?$stream_output_adapter@_W@__crt_stdio_output@@V?$standard_base@_WV?$stream_output_adapter@_W@__crt_stdio_output@@@2@@__crt_stdio_output@@AEAA_NXZ 00000001801dd0f0 f i libucrt:output.obj
 0001:001dc46c       ?state_case_type@?$output_processor@_WV?$string_output_adapter@_W@__crt_stdio_output@@V?$format_validation_base@_WV?$string_output_adapter@_W@__crt_stdio_output@@@2@@__crt_stdio_output@@AEAA_NXZ 00000001801dd46c f i libucrt:output.obj
 0001:001dc7e8       ?state_case_type@?$output_processor@_WV?$string_output_adapter@_W@__crt_stdio_output@@V?$positional_parameter_base@_WV?$string_output_adapter@_W@__crt_stdio_output@@@2@@__crt_stdio_output@@AEAA_NXZ 00000001801dd7e8 f i libucrt:output.obj
 0001:001dcb80       ?state_case_type@?$output_processor@_WV?$string_output_adapter@_W@__crt_stdio_output@@V?$standard_base@_WV?$string_output_adapter@_W@__crt_stdio_output@@@2@@__crt_stdio_output@@AEAA_NXZ 00000001801ddb80 f i libucrt:output.obj
 0001:001dcefc       ?state_case_width@?$output_processor@DV?$stream_output_adapter@D@__crt_stdio_output@@V?$format_validation_base@DV?$stream_output_adapter@D@__crt_stdio_output@@@2@@__crt_stdio_output@@AEAA_NXZ 00000001801ddefc f i libucrt:output.obj
 0001:001dcf38       ?state_case_width@?$output_processor@DV?$stream_output_adapter@D@__crt_stdio_output@@V?$positional_parameter_base@DV?$stream_output_adapter@D@__crt_stdio_output@@@2@@__crt_stdio_output@@AEAA_NXZ 00000001801ddf38 f i libucrt:output.obj
 0001:001dcf9c       ?state_case_width@?$output_processor@DV?$stream_output_adapter@D@__crt_stdio_output@@V?$standard_base@DV?$stream_output_adapter@D@__crt_stdio_output@@@2@@__crt_stdio_output@@AEAA_NXZ 00000001801ddf9c f i libucrt:output.obj
 0001:001dcfd8       ?state_case_width@?$output_processor@DV?$string_output_adapter@D@__crt_stdio_output@@V?$format_validation_base@DV?$string_output_adapter@D@__crt_stdio_output@@@2@@__crt_stdio_output@@AEAA_NXZ 00000001801ddfd8 f i libucrt:output.obj
 0001:001dd014       ?state_case_width@?$output_processor@DV?$string_output_adapter@D@__crt_stdio_output@@V?$positional_parameter_base@DV?$string_output_adapter@D@__crt_stdio_output@@@2@@__crt_stdio_output@@AEAA_NXZ 00000001801de014 f i libucrt:output.obj
 0001:001dd078       ?state_case_width@?$output_processor@DV?$string_output_adapter@D@__crt_stdio_output@@V?$standard_base@DV?$string_output_adapter@D@__crt_stdio_output@@@2@@__crt_stdio_output@@AEAA_NXZ 00000001801de078 f i libucrt:output.obj
 0001:001dd0b4       ?state_case_width@?$output_processor@_WV?$stream_output_adapter@_W@__crt_stdio_output@@V?$format_validation_base@_WV?$stream_output_adapter@_W@__crt_stdio_output@@@2@@__crt_stdio_output@@AEAA_NXZ 00000001801de0b4 f i libucrt:output.obj
 0001:001dd0f0       ?state_case_width@?$output_processor@_WV?$stream_output_adapter@_W@__crt_stdio_output@@V?$positional_parameter_base@_WV?$stream_output_adapter@_W@__crt_stdio_output@@@2@@__crt_stdio_output@@AEAA_NXZ 00000001801de0f0 f i libucrt:output.obj
 0001:001dd158       ?state_case_width@?$output_processor@_WV?$stream_output_adapter@_W@__crt_stdio_output@@V?$standard_base@_WV?$stream_output_adapter@_W@__crt_stdio_output@@@2@@__crt_stdio_output@@AEAA_NXZ 00000001801de158 f i libucrt:output.obj
 0001:001dd194       ?state_case_width@?$output_processor@_WV?$string_output_adapter@_W@__crt_stdio_output@@V?$format_validation_base@_WV?$string_output_adapter@_W@__crt_stdio_output@@@2@@__crt_stdio_output@@AEAA_NXZ 00000001801de194 f i libucrt:output.obj
 0001:001dd1d0       ?state_case_width@?$output_processor@_WV?$string_output_adapter@_W@__crt_stdio_output@@V?$positional_parameter_base@_WV?$string_output_adapter@_W@__crt_stdio_output@@@2@@__crt_stdio_output@@AEAA_NXZ 00000001801de1d0 f i libucrt:output.obj
 0001:001dd238       ?state_case_width@?$output_processor@_WV?$string_output_adapter@_W@__crt_stdio_output@@V?$standard_base@_WV?$string_output_adapter@_W@__crt_stdio_output@@@2@@__crt_stdio_output@@AEAA_NXZ 00000001801de238 f i libucrt:output.obj
 0001:001dd274       ?state_count@?$format_validation_base@DV?$stream_output_adapter@D@__crt_stdio_output@@@__crt_stdio_output@@KAIXZ 00000001801de274 f i libucrt:output.obj
 0001:001dd27c       ?state_count@?$format_validation_base@DV?$string_output_adapter@D@__crt_stdio_output@@@__crt_stdio_output@@KAIXZ 00000001801de27c f i libucrt:output.obj
 0001:001dd284       ?state_count@?$format_validation_base@_WV?$stream_output_adapter@_W@__crt_stdio_output@@@__crt_stdio_output@@KAIXZ 00000001801de284 f i libucrt:output.obj
 0001:001dd28c       ?state_count@?$format_validation_base@_WV?$string_output_adapter@_W@__crt_stdio_output@@@__crt_stdio_output@@KAIXZ 00000001801de28c f i libucrt:output.obj
 0001:001dd294       ?state_count@?$standard_base@DV?$stream_output_adapter@D@__crt_stdio_output@@@__crt_stdio_output@@KAIXZ 00000001801de294 f i libucrt:output.obj
 0001:001dd29c       ?state_count@?$standard_base@DV?$string_output_adapter@D@__crt_stdio_output@@@__crt_stdio_output@@KAIXZ 00000001801de29c f i libucrt:output.obj
 0001:001dd2a4       ?state_count@?$standard_base@_WV?$stream_output_adapter@_W@__crt_stdio_output@@@__crt_stdio_output@@KAIXZ 00000001801de2a4 f i libucrt:output.obj
 0001:001dd2ac       ?state_count@?$standard_base@_WV?$string_output_adapter@_W@__crt_stdio_output@@@__crt_stdio_output@@KAIXZ 00000001801de2ac f i libucrt:output.obj
 0001:001dd2b4       ?state_transition_table@?$format_validation_base@DV?$stream_output_adapter@D@__crt_stdio_output@@@__crt_stdio_output@@KAPEBEXZ 00000001801de2b4 f i libucrt:output.obj
 0001:001dd2c0       ?state_transition_table@?$format_validation_base@DV?$string_output_adapter@D@__crt_stdio_output@@@__crt_stdio_output@@KAPEBEXZ 00000001801de2c0 f i libucrt:output.obj
 0001:001dd2cc       ?state_transition_table@?$format_validation_base@_WV?$stream_output_adapter@_W@__crt_stdio_output@@@__crt_stdio_output@@KAPEBEXZ 00000001801de2cc f i libucrt:output.obj
 0001:001dd2d8       ?state_transition_table@?$format_validation_base@_WV?$string_output_adapter@_W@__crt_stdio_output@@@__crt_stdio_output@@KAPEBEXZ 00000001801de2d8 f i libucrt:output.obj
 0001:001dd2e4       ?state_transition_table@?$standard_base@DV?$stream_output_adapter@D@__crt_stdio_output@@@__crt_stdio_output@@KAPEBEXZ 00000001801de2e4 f i libucrt:output.obj
 0001:001dd2f0       ?state_transition_table@?$standard_base@DV?$string_output_adapter@D@__crt_stdio_output@@@__crt_stdio_output@@KAPEBEXZ 00000001801de2f0 f i libucrt:output.obj
 0001:001dd2fc       ?state_transition_table@?$standard_base@_WV?$stream_output_adapter@_W@__crt_stdio_output@@@__crt_stdio_output@@KAPEBEXZ 00000001801de2fc f i libucrt:output.obj
 0001:001dd308       ?state_transition_table@?$standard_base@_WV?$string_output_adapter@_W@__crt_stdio_output@@@__crt_stdio_output@@KAPEBEXZ 00000001801de308 f i libucrt:output.obj
 0001:001dd314       ?to_integer_size@__crt_stdio_output@@YA_KW4length_modifier@1@@Z 00000001801de314 f i libucrt:output.obj
 0001:001dd374       ?type_case_X@?$output_processor@DV?$stream_output_adapter@D@__crt_stdio_output@@V?$format_validation_base@DV?$stream_output_adapter@D@__crt_stdio_output@@@2@@__crt_stdio_output@@AEAA_NXZ 00000001801de374 f i libucrt:output.obj
 0001:001dd384       ?type_case_X@?$output_processor@DV?$stream_output_adapter@D@__crt_stdio_output@@V?$positional_parameter_base@DV?$stream_output_adapter@D@__crt_stdio_output@@@2@@__crt_stdio_output@@AEAA_NXZ 00000001801de384 f i libucrt:output.obj
 0001:001dd394       ?type_case_X@?$output_processor@DV?$stream_output_adapter@D@__crt_stdio_output@@V?$standard_base@DV?$stream_output_adapter@D@__crt_stdio_output@@@2@@__crt_stdio_output@@AEAA_NXZ 00000001801de394 f i libucrt:output.obj
 0001:001dd3a4       ?type_case_X@?$output_processor@DV?$string_output_adapter@D@__crt_stdio_output@@V?$format_validation_base@DV?$string_output_adapter@D@__crt_stdio_output@@@2@@__crt_stdio_output@@AEAA_NXZ 00000001801de3a4 f i libucrt:output.obj
 0001:001dd3b4       ?type_case_X@?$output_processor@DV?$string_output_adapter@D@__crt_stdio_output@@V?$positional_parameter_base@DV?$string_output_adapter@D@__crt_stdio_output@@@2@@__crt_stdio_output@@AEAA_NXZ 00000001801de3b4 f i libucrt:output.obj
 0001:001dd3c4       ?type_case_X@?$output_processor@DV?$string_output_adapter@D@__crt_stdio_output@@V?$standard_base@DV?$string_output_adapter@D@__crt_stdio_output@@@2@@__crt_stdio_output@@AEAA_NXZ 00000001801de3c4 f i libucrt:output.obj
 0001:001dd3d4       ?type_case_X@?$output_processor@_WV?$stream_output_adapter@_W@__crt_stdio_output@@V?$format_validation_base@_WV?$stream_output_adapter@_W@__crt_stdio_output@@@2@@__crt_stdio_output@@AEAA_NXZ 00000001801de3d4 f i libucrt:output.obj
 0001:001dd3e4       ?type_case_X@?$output_processor@_WV?$stream_output_adapter@_W@__crt_stdio_output@@V?$positional_parameter_base@_WV?$stream_output_adapter@_W@__crt_stdio_output@@@2@@__crt_stdio_output@@AEAA_NXZ 00000001801de3e4 f i libucrt:output.obj
 0001:001dd3f4       ?type_case_X@?$output_processor@_WV?$stream_output_adapter@_W@__crt_stdio_output@@V?$standard_base@_WV?$stream_output_adapter@_W@__crt_stdio_output@@@2@@__crt_stdio_output@@AEAA_NXZ 00000001801de3f4 f i libucrt:output.obj
 0001:001dd404       ?type_case_X@?$output_processor@_WV?$string_output_adapter@_W@__crt_stdio_output@@V?$format_validation_base@_WV?$string_output_adapter@_W@__crt_stdio_output@@@2@@__crt_stdio_output@@AEAA_NXZ 00000001801de404 f i libucrt:output.obj
 0001:001dd414       ?type_case_X@?$output_processor@_WV?$string_output_adapter@_W@__crt_stdio_output@@V?$positional_parameter_base@_WV?$string_output_adapter@_W@__crt_stdio_output@@@2@@__crt_stdio_output@@AEAA_NXZ 00000001801de414 f i libucrt:output.obj
 0001:001dd424       ?type_case_X@?$output_processor@_WV?$string_output_adapter@_W@__crt_stdio_output@@V?$standard_base@_WV?$string_output_adapter@_W@__crt_stdio_output@@@2@@__crt_stdio_output@@AEAA_NXZ 00000001801de424 f i libucrt:output.obj
 0001:001dd434       ?type_case_Z@?$output_processor@DV?$stream_output_adapter@D@__crt_stdio_output@@V?$format_validation_base@DV?$stream_output_adapter@D@__crt_stdio_output@@@2@@__crt_stdio_output@@AEAA_NXZ 00000001801de434 f i libucrt:output.obj
 0001:001dd4d4       ?type_case_Z@?$output_processor@DV?$stream_output_adapter@D@__crt_stdio_output@@V?$positional_parameter_base@DV?$stream_output_adapter@D@__crt_stdio_output@@@2@@__crt_stdio_output@@AEAA_NXZ 00000001801de4d4 f i libucrt:output.obj
 0001:001dd598       ?type_case_Z@?$output_processor@DV?$stream_output_adapter@D@__crt_stdio_output@@V?$standard_base@DV?$stream_output_adapter@D@__crt_stdio_output@@@2@@__crt_stdio_output@@AEAA_NXZ 00000001801de598 f i libucrt:output.obj
 0001:001dd638       ?type_case_Z@?$output_processor@DV?$string_output_adapter@D@__crt_stdio_output@@V?$format_validation_base@DV?$string_output_adapter@D@__crt_stdio_output@@@2@@__crt_stdio_output@@AEAA_NXZ 00000001801de638 f i libucrt:output.obj
 0001:001dd6d8       ?type_case_Z@?$output_processor@DV?$string_output_adapter@D@__crt_stdio_output@@V?$positional_parameter_base@DV?$string_output_adapter@D@__crt_stdio_output@@@2@@__crt_stdio_output@@AEAA_NXZ 00000001801de6d8 f i libucrt:output.obj
 0001:001dd79c       ?type_case_Z@?$output_processor@DV?$string_output_adapter@D@__crt_stdio_output@@V?$standard_base@DV?$string_output_adapter@D@__crt_stdio_output@@@2@@__crt_stdio_output@@AEAA_NXZ 00000001801de79c f i libucrt:output.obj
 0001:001dd83c       ?type_case_Z@?$output_processor@_WV?$stream_output_adapter@_W@__crt_stdio_output@@V?$format_validation_base@_WV?$stream_output_adapter@_W@__crt_stdio_output@@@2@@__crt_stdio_output@@AEAA_NXZ 00000001801de83c f i libucrt:output.obj
 0001:001dd8dc       ?type_case_Z@?$output_processor@_WV?$stream_output_adapter@_W@__crt_stdio_output@@V?$positional_parameter_base@_WV?$stream_output_adapter@_W@__crt_stdio_output@@@2@@__crt_stdio_output@@AEAA_NXZ 00000001801de8dc f i libucrt:output.obj
 0001:001dd9a0       ?type_case_Z@?$output_processor@_WV?$stream_output_adapter@_W@__crt_stdio_output@@V?$standard_base@_WV?$stream_output_adapter@_W@__crt_stdio_output@@@2@@__crt_stdio_output@@AEAA_NXZ 00000001801de9a0 f i libucrt:output.obj
 0001:001dda40       ?type_case_Z@?$output_processor@_WV?$string_output_adapter@_W@__crt_stdio_output@@V?$format_validation_base@_WV?$string_output_adapter@_W@__crt_stdio_output@@@2@@__crt_stdio_output@@AEAA_NXZ 00000001801dea40 f i libucrt:output.obj
 0001:001ddae0       ?type_case_Z@?$output_processor@_WV?$string_output_adapter@_W@__crt_stdio_output@@V?$positional_parameter_base@_WV?$string_output_adapter@_W@__crt_stdio_output@@@2@@__crt_stdio_output@@AEAA_NXZ 00000001801deae0 f i libucrt:output.obj
 0001:001ddba4       ?type_case_Z@?$output_processor@_WV?$string_output_adapter@_W@__crt_stdio_output@@V?$standard_base@_WV?$string_output_adapter@_W@__crt_stdio_output@@@2@@__crt_stdio_output@@AEAA_NXZ 00000001801deba4 f i libucrt:output.obj
 0001:001ddc44       ?type_case_a@?$output_processor@DV?$stream_output_adapter@D@__crt_stdio_output@@V?$format_validation_base@DV?$stream_output_adapter@D@__crt_stdio_output@@@2@@__crt_stdio_output@@AEAA_NXZ 00000001801dec44 f i libucrt:output.obj
 0001:001ddee4       ?type_case_a@?$output_processor@DV?$stream_output_adapter@D@__crt_stdio_output@@V?$positional_parameter_base@DV?$stream_output_adapter@D@__crt_stdio_output@@@2@@__crt_stdio_output@@AEAA_NXZ 00000001801deee4 f i libucrt:output.obj
 0001:001de1c0       ?type_case_a@?$output_processor@DV?$stream_output_adapter@D@__crt_stdio_output@@V?$standard_base@DV?$stream_output_adapter@D@__crt_stdio_output@@@2@@__crt_stdio_output@@AEAA_NXZ 00000001801df1c0 f i libucrt:output.obj
 0001:001de460       ?type_case_a@?$output_processor@DV?$string_output_adapter@D@__crt_stdio_output@@V?$format_validation_base@DV?$string_output_adapter@D@__crt_stdio_output@@@2@@__crt_stdio_output@@AEAA_NXZ 00000001801df460 f i libucrt:output.obj
 0001:001de700       ?type_case_a@?$output_processor@DV?$string_output_adapter@D@__crt_stdio_output@@V?$positional_parameter_base@DV?$string_output_adapter@D@__crt_stdio_output@@@2@@__crt_stdio_output@@AEAA_NXZ 00000001801df700 f i libucrt:output.obj
 0001:001de9dc       ?type_case_a@?$output_processor@DV?$string_output_adapter@D@__crt_stdio_output@@V?$standard_base@DV?$string_output_adapter@D@__crt_stdio_output@@@2@@__crt_stdio_output@@AEAA_NXZ 00000001801df9dc f i libucrt:output.obj
 0001:001dec7c       ?type_case_a@?$output_processor@_WV?$stream_output_adapter@_W@__crt_stdio_output@@V?$format_validation_base@_WV?$stream_output_adapter@_W@__crt_stdio_output@@@2@@__crt_stdio_output@@AEAA_NXZ 00000001801dfc7c f i libucrt:output.obj
 0001:001def50       ?type_case_a@?$output_processor@_WV?$stream_output_adapter@_W@__crt_stdio_output@@V?$positional_parameter_base@_WV?$stream_output_adapter@_W@__crt_stdio_output@@@2@@__crt_stdio_output@@AEAA_NXZ 00000001801dff50 f i libucrt:output.obj
 0001:001df25c       ?type_case_a@?$output_processor@_WV?$stream_output_adapter@_W@__crt_stdio_output@@V?$standard_base@_WV?$stream_output_adapter@_W@__crt_stdio_output@@@2@@__crt_stdio_output@@AEAA_NXZ 00000001801e025c f i libucrt:output.obj
 0001:001df530       ?type_case_a@?$output_processor@_WV?$string_output_adapter@_W@__crt_stdio_output@@V?$format_validation_base@_WV?$string_output_adapter@_W@__crt_stdio_output@@@2@@__crt_stdio_output@@AEAA_NXZ 00000001801e0530 f i libucrt:output.obj
 0001:001df804       ?type_case_a@?$output_processor@_WV?$string_output_adapter@_W@__crt_stdio_output@@V?$positional_parameter_base@_WV?$string_output_adapter@_W@__crt_stdio_output@@@2@@__crt_stdio_output@@AEAA_NXZ 00000001801e0804 f i libucrt:output.obj
 0001:001dfb10       ?type_case_a@?$output_processor@_WV?$string_output_adapter@_W@__crt_stdio_output@@V?$standard_base@_WV?$string_output_adapter@_W@__crt_stdio_output@@@2@@__crt_stdio_output@@AEAA_NXZ 00000001801e0b10 f i libucrt:output.obj
 0001:001dfde4       ?type_case_c@?$output_processor@DV?$stream_output_adapter@D@__crt_stdio_output@@V?$format_validation_base@DV?$stream_output_adapter@D@__crt_stdio_output@@@2@@__crt_stdio_output@@AEAA_NXZ 00000001801e0de4 f i libucrt:output.obj
 0001:001dfdec       ?type_case_c@?$output_processor@DV?$stream_output_adapter@D@__crt_stdio_output@@V?$positional_parameter_base@DV?$stream_output_adapter@D@__crt_stdio_output@@@2@@__crt_stdio_output@@AEAA_NXZ 00000001801e0dec f i libucrt:output.obj
 0001:001dfdf4       ?type_case_c@?$output_processor@DV?$stream_output_adapter@D@__crt_stdio_output@@V?$standard_base@DV?$stream_output_adapter@D@__crt_stdio_output@@@2@@__crt_stdio_output@@AEAA_NXZ 00000001801e0df4 f i libucrt:output.obj
 0001:001dfdfc       ?type_case_c@?$output_processor@DV?$string_output_adapter@D@__crt_stdio_output@@V?$format_validation_base@DV?$string_output_adapter@D@__crt_stdio_output@@@2@@__crt_stdio_output@@AEAA_NXZ 00000001801e0dfc f i libucrt:output.obj
 0001:001dfe04       ?type_case_c@?$output_processor@DV?$string_output_adapter@D@__crt_stdio_output@@V?$positional_parameter_base@DV?$string_output_adapter@D@__crt_stdio_output@@@2@@__crt_stdio_output@@AEAA_NXZ 00000001801e0e04 f i libucrt:output.obj
 0001:001dfe0c       ?type_case_c@?$output_processor@DV?$string_output_adapter@D@__crt_stdio_output@@V?$standard_base@DV?$string_output_adapter@D@__crt_stdio_output@@@2@@__crt_stdio_output@@AEAA_NXZ 00000001801e0e0c f i libucrt:output.obj
 0001:001dfe14       ?type_case_c@?$output_processor@_WV?$stream_output_adapter@_W@__crt_stdio_output@@V?$format_validation_base@_WV?$stream_output_adapter@_W@__crt_stdio_output@@@2@@__crt_stdio_output@@AEAA_NXZ 00000001801e0e14 f i libucrt:output.obj
 0001:001dfe1c       ?type_case_c@?$output_processor@_WV?$stream_output_adapter@_W@__crt_stdio_output@@V?$positional_parameter_base@_WV?$stream_output_adapter@_W@__crt_stdio_output@@@2@@__crt_stdio_output@@AEAA_NXZ 00000001801e0e1c f i libucrt:output.obj
 0001:001dfe24       ?type_case_c@?$output_processor@_WV?$stream_output_adapter@_W@__crt_stdio_output@@V?$standard_base@_WV?$stream_output_adapter@_W@__crt_stdio_output@@@2@@__crt_stdio_output@@AEAA_NXZ 00000001801e0e24 f i libucrt:output.obj
 0001:001dfe2c       ?type_case_c@?$output_processor@_WV?$string_output_adapter@_W@__crt_stdio_output@@V?$format_validation_base@_WV?$string_output_adapter@_W@__crt_stdio_output@@@2@@__crt_stdio_output@@AEAA_NXZ 00000001801e0e2c f i libucrt:output.obj
 0001:001dfe34       ?type_case_c@?$output_processor@_WV?$string_output_adapter@_W@__crt_stdio_output@@V?$positional_parameter_base@_WV?$string_output_adapter@_W@__crt_stdio_output@@@2@@__crt_stdio_output@@AEAA_NXZ 00000001801e0e34 f i libucrt:output.obj
 0001:001dfe3c       ?type_case_c@?$output_processor@_WV?$string_output_adapter@_W@__crt_stdio_output@@V?$standard_base@_WV?$string_output_adapter@_W@__crt_stdio_output@@@2@@__crt_stdio_output@@AEAA_NXZ 00000001801e0e3c f i libucrt:output.obj
 0001:001dfe44       ?type_case_c_tchar@?$output_processor@DV?$stream_output_adapter@D@__crt_stdio_output@@V?$format_validation_base@DV?$stream_output_adapter@D@__crt_stdio_output@@@2@@__crt_stdio_output@@AEAA_ND@Z 00000001801e0e44 f i libucrt:output.obj
 0001:001dff24       ?type_case_c_tchar@?$output_processor@DV?$stream_output_adapter@D@__crt_stdio_output@@V?$positional_parameter_base@DV?$stream_output_adapter@D@__crt_stdio_output@@@2@@__crt_stdio_output@@AEAA_ND@Z 00000001801e0f24 f i libucrt:output.obj
 0001:001e005c       ?type_case_c_tchar@?$output_processor@DV?$stream_output_adapter@D@__crt_stdio_output@@V?$standard_base@DV?$stream_output_adapter@D@__crt_stdio_output@@@2@@__crt_stdio_output@@AEAA_ND@Z 00000001801e105c f i libucrt:output.obj
 0001:001e013c       ?type_case_c_tchar@?$output_processor@DV?$string_output_adapter@D@__crt_stdio_output@@V?$format_validation_base@DV?$string_output_adapter@D@__crt_stdio_output@@@2@@__crt_stdio_output@@AEAA_ND@Z 00000001801e113c f i libucrt:output.obj
 0001:001e021c       ?type_case_c_tchar@?$output_processor@DV?$string_output_adapter@D@__crt_stdio_output@@V?$positional_parameter_base@DV?$string_output_adapter@D@__crt_stdio_output@@@2@@__crt_stdio_output@@AEAA_ND@Z 00000001801e121c f i libucrt:output.obj
 0001:001e0354       ?type_case_c_tchar@?$output_processor@DV?$string_output_adapter@D@__crt_stdio_output@@V?$standard_base@DV?$string_output_adapter@D@__crt_stdio_output@@@2@@__crt_stdio_output@@AEAA_ND@Z 00000001801e1354 f i libucrt:output.obj
 0001:001e0434       ?type_case_c_tchar@?$output_processor@_WV?$stream_output_adapter@_W@__crt_stdio_output@@V?$format_validation_base@_WV?$stream_output_adapter@_W@__crt_stdio_output@@@2@@__crt_stdio_output@@AEAA_N_W@Z 00000001801e1434 f i libucrt:output.obj
 0001:001e0504       ?type_case_c_tchar@?$output_processor@_WV?$stream_output_adapter@_W@__crt_stdio_output@@V?$positional_parameter_base@_WV?$stream_output_adapter@_W@__crt_stdio_output@@@2@@__crt_stdio_output@@AEAA_N_W@Z 00000001801e1504 f i libucrt:output.obj
 0001:001e0604       ?type_case_c_tchar@?$output_processor@_WV?$stream_output_adapter@_W@__crt_stdio_output@@V?$standard_base@_WV?$stream_output_adapter@_W@__crt_stdio_output@@@2@@__crt_stdio_output@@AEAA_N_W@Z 00000001801e1604 f i libucrt:output.obj
 0001:001e06d4       ?type_case_c_tchar@?$output_processor@_WV?$string_output_adapter@_W@__crt_stdio_output@@V?$format_validation_base@_WV?$string_output_adapter@_W@__crt_stdio_output@@@2@@__crt_stdio_output@@AEAA_N_W@Z 00000001801e16d4 f i libucrt:output.obj
 0001:001e07a4       ?type_case_c_tchar@?$output_processor@_WV?$string_output_adapter@_W@__crt_stdio_output@@V?$positional_parameter_base@_WV?$string_output_adapter@_W@__crt_stdio_output@@@2@@__crt_stdio_output@@AEAA_N_W@Z 00000001801e17a4 f i libucrt:output.obj
 0001:001e08a4       ?type_case_c_tchar@?$output_processor@_WV?$string_output_adapter@_W@__crt_stdio_output@@V?$standard_base@_WV?$string_output_adapter@_W@__crt_stdio_output@@@2@@__crt_stdio_output@@AEAA_N_W@Z 00000001801e18a4 f i libucrt:output.obj
 0001:001e0974       ?type_case_d@?$output_processor@DV?$stream_output_adapter@D@__crt_stdio_output@@V?$format_validation_base@DV?$stream_output_adapter@D@__crt_stdio_output@@@2@@__crt_stdio_output@@AEAA_NXZ 00000001801e1974 f i libucrt:output.obj
 0001:001e0988       ?type_case_d@?$output_processor@DV?$stream_output_adapter@D@__crt_stdio_output@@V?$positional_parameter_base@DV?$stream_output_adapter@D@__crt_stdio_output@@@2@@__crt_stdio_output@@AEAA_NXZ 00000001801e1988 f i libucrt:output.obj
 0001:001e099c       ?type_case_d@?$output_processor@DV?$stream_output_adapter@D@__crt_stdio_output@@V?$standard_base@DV?$stream_output_adapter@D@__crt_stdio_output@@@2@@__crt_stdio_output@@AEAA_NXZ 00000001801e199c f i libucrt:output.obj
 0001:001e09b0       ?type_case_d@?$output_processor@DV?$string_output_adapter@D@__crt_stdio_output@@V?$format_validation_base@DV?$string_output_adapter@D@__crt_stdio_output@@@2@@__crt_stdio_output@@AEAA_NXZ 00000001801e19b0 f i libucrt:output.obj
 0001:001e09c4       ?type_case_d@?$output_processor@DV?$string_output_adapter@D@__crt_stdio_output@@V?$positional_parameter_base@DV?$string_output_adapter@D@__crt_stdio_output@@@2@@__crt_stdio_output@@AEAA_NXZ 00000001801e19c4 f i libucrt:output.obj
 0001:001e09d8       ?type_case_d@?$output_processor@DV?$string_output_adapter@D@__crt_stdio_output@@V?$standard_base@DV?$string_output_adapter@D@__crt_stdio_output@@@2@@__crt_stdio_output@@AEAA_NXZ 00000001801e19d8 f i libucrt:output.obj
 0001:001e09ec       ?type_case_d@?$output_processor@_WV?$stream_output_adapter@_W@__crt_stdio_output@@V?$format_validation_base@_WV?$stream_output_adapter@_W@__crt_stdio_output@@@2@@__crt_stdio_output@@AEAA_NXZ 00000001801e19ec f i libucrt:output.obj
 0001:001e0a00       ?type_case_d@?$output_processor@_WV?$stream_output_adapter@_W@__crt_stdio_output@@V?$positional_parameter_base@_WV?$stream_output_adapter@_W@__crt_stdio_output@@@2@@__crt_stdio_output@@AEAA_NXZ 00000001801e1a00 f i libucrt:output.obj
 0001:001e0a14       ?type_case_d@?$output_processor@_WV?$stream_output_adapter@_W@__crt_stdio_output@@V?$standard_base@_WV?$stream_output_adapter@_W@__crt_stdio_output@@@2@@__crt_stdio_output@@AEAA_NXZ 00000001801e1a14 f i libucrt:output.obj
 0001:001e0a28       ?type_case_d@?$output_processor@_WV?$string_output_adapter@_W@__crt_stdio_output@@V?$format_validation_base@_WV?$string_output_adapter@_W@__crt_stdio_output@@@2@@__crt_stdio_output@@AEAA_NXZ 00000001801e1a28 f i libucrt:output.obj
 0001:001e0a3c       ?type_case_d@?$output_processor@_WV?$string_output_adapter@_W@__crt_stdio_output@@V?$positional_parameter_base@_WV?$string_output_adapter@_W@__crt_stdio_output@@@2@@__crt_stdio_output@@AEAA_NXZ 00000001801e1a3c f i libucrt:output.obj
 0001:001e0a50       ?type_case_d@?$output_processor@_WV?$string_output_adapter@_W@__crt_stdio_output@@V?$standard_base@_WV?$string_output_adapter@_W@__crt_stdio_output@@@2@@__crt_stdio_output@@AEAA_NXZ 00000001801e1a50 f i libucrt:output.obj
 0001:001e0a64       ?type_case_integer@?$output_processor@DV?$stream_output_adapter@D@__crt_stdio_output@@V?$format_validation_base@DV?$stream_output_adapter@D@__crt_stdio_output@@@2@@__crt_stdio_output@@AEAA_NI_N@Z 00000001801e1a64 f i libucrt:output.obj
 0001:001e0c6c       ?type_case_integer@?$output_processor@DV?$stream_output_adapter@D@__crt_stdio_output@@V?$positional_parameter_base@DV?$stream_output_adapter@D@__crt_stdio_output@@@2@@__crt_stdio_output@@AEAA_NI_N@Z 00000001801e1c6c f i libucrt:output.obj
 0001:001e0ef0       ?type_case_integer@?$output_processor@DV?$stream_output_adapter@D@__crt_stdio_output@@V?$standard_base@DV?$stream_output_adapter@D@__crt_stdio_output@@@2@@__crt_stdio_output@@AEAA_NI_N@Z 00000001801e1ef0 f i libucrt:output.obj
 0001:001e10f8       ?type_case_integer@?$output_processor@DV?$string_output_adapter@D@__crt_stdio_output@@V?$format_validation_base@DV?$string_output_adapter@D@__crt_stdio_output@@@2@@__crt_stdio_output@@AEAA_NI_N@Z 00000001801e20f8 f i libucrt:output.obj
 0001:001e1300       ?type_case_integer@?$output_processor@DV?$string_output_adapter@D@__crt_stdio_output@@V?$positional_parameter_base@DV?$string_output_adapter@D@__crt_stdio_output@@@2@@__crt_stdio_output@@AEAA_NI_N@Z 00000001801e2300 f i libucrt:output.obj
 0001:001e1584       ?type_case_integer@?$output_processor@DV?$string_output_adapter@D@__crt_stdio_output@@V?$standard_base@DV?$string_output_adapter@D@__crt_stdio_output@@@2@@__crt_stdio_output@@AEAA_NI_N@Z 00000001801e2584 f i libucrt:output.obj
 0001:001e178c       ?type_case_integer@?$output_processor@_WV?$stream_output_adapter@_W@__crt_stdio_output@@V?$format_validation_base@_WV?$stream_output_adapter@_W@__crt_stdio_output@@@2@@__crt_stdio_output@@AEAA_NI_N@Z 00000001801e278c f i libucrt:output.obj
 0001:001e1994       ?type_case_integer@?$output_processor@_WV?$stream_output_adapter@_W@__crt_stdio_output@@V?$positional_parameter_base@_WV?$stream_output_adapter@_W@__crt_stdio_output@@@2@@__crt_stdio_output@@AEAA_NI_N@Z 00000001801e2994 f i libucrt:output.obj
 0001:001e1c18       ?type_case_integer@?$output_processor@_WV?$stream_output_adapter@_W@__crt_stdio_output@@V?$standard_base@_WV?$stream_output_adapter@_W@__crt_stdio_output@@@2@@__crt_stdio_output@@AEAA_NI_N@Z 00000001801e2c18 f i libucrt:output.obj
 0001:001e1e20       ?type_case_integer@?$output_processor@_WV?$string_output_adapter@_W@__crt_stdio_output@@V?$format_validation_base@_WV?$string_output_adapter@_W@__crt_stdio_output@@@2@@__crt_stdio_output@@AEAA_NI_N@Z 00000001801e2e20 f i libucrt:output.obj
 0001:001e2028       ?type_case_integer@?$output_processor@_WV?$string_output_adapter@_W@__crt_stdio_output@@V?$positional_parameter_base@_WV?$string_output_adapter@_W@__crt_stdio_output@@@2@@__crt_stdio_output@@AEAA_NI_N@Z 00000001801e3028 f i libucrt:output.obj
 0001:001e22ac       ?type_case_integer@?$output_processor@_WV?$string_output_adapter@_W@__crt_stdio_output@@V?$standard_base@_WV?$string_output_adapter@_W@__crt_stdio_output@@@2@@__crt_stdio_output@@AEAA_NI_N@Z 00000001801e32ac f i libucrt:output.obj
 0001:001e24b4       ?type_case_n@?$output_processor@DV?$stream_output_adapter@D@__crt_stdio_output@@V?$format_validation_base@DV?$stream_output_adapter@D@__crt_stdio_output@@@2@@__crt_stdio_output@@AEAA_NXZ 00000001801e34b4 f i libucrt:output.obj
 0001:001e25c8       ?type_case_n@?$output_processor@DV?$stream_output_adapter@D@__crt_stdio_output@@V?$positional_parameter_base@DV?$stream_output_adapter@D@__crt_stdio_output@@@2@@__crt_stdio_output@@AEAA_NXZ 00000001801e35c8 f i libucrt:output.obj
 0001:001e2710       ?type_case_n@?$output_processor@DV?$stream_output_adapter@D@__crt_stdio_output@@V?$standard_base@DV?$stream_output_adapter@D@__crt_stdio_output@@@2@@__crt_stdio_output@@AEAA_NXZ 00000001801e3710 f i libucrt:output.obj
 0001:001e2824       ?type_case_n@?$output_processor@DV?$string_output_adapter@D@__crt_stdio_output@@V?$format_validation_base@DV?$string_output_adapter@D@__crt_stdio_output@@@2@@__crt_stdio_output@@AEAA_NXZ 00000001801e3824 f i libucrt:output.obj
 0001:001e2938       ?type_case_n@?$output_processor@DV?$string_output_adapter@D@__crt_stdio_output@@V?$positional_parameter_base@DV?$string_output_adapter@D@__crt_stdio_output@@@2@@__crt_stdio_output@@AEAA_NXZ 00000001801e3938 f i libucrt:output.obj
 0001:001e2a80       ?type_case_n@?$output_processor@DV?$string_output_adapter@D@__crt_stdio_output@@V?$standard_base@DV?$string_output_adapter@D@__crt_stdio_output@@@2@@__crt_stdio_output@@AEAA_NXZ 00000001801e3a80 f i libucrt:output.obj
 0001:001e2b94       ?type_case_n@?$output_processor@_WV?$stream_output_adapter@_W@__crt_stdio_output@@V?$format_validation_base@_WV?$stream_output_adapter@_W@__crt_stdio_output@@@2@@__crt_stdio_output@@AEAA_NXZ 00000001801e3b94 f i libucrt:output.obj
 0001:001e2ca8       ?type_case_n@?$output_processor@_WV?$stream_output_adapter@_W@__crt_stdio_output@@V?$positional_parameter_base@_WV?$stream_output_adapter@_W@__crt_stdio_output@@@2@@__crt_stdio_output@@AEAA_NXZ 00000001801e3ca8 f i libucrt:output.obj
 0001:001e2df0       ?type_case_n@?$output_processor@_WV?$stream_output_adapter@_W@__crt_stdio_output@@V?$standard_base@_WV?$stream_output_adapter@_W@__crt_stdio_output@@@2@@__crt_stdio_output@@AEAA_NXZ 00000001801e3df0 f i libucrt:output.obj
 0001:001e2f04       ?type_case_n@?$output_processor@_WV?$string_output_adapter@_W@__crt_stdio_output@@V?$format_validation_base@_WV?$string_output_adapter@_W@__crt_stdio_output@@@2@@__crt_stdio_output@@AEAA_NXZ 00000001801e3f04 f i libucrt:output.obj
 0001:001e3018       ?type_case_n@?$output_processor@_WV?$string_output_adapter@_W@__crt_stdio_output@@V?$positional_parameter_base@_WV?$string_output_adapter@_W@__crt_stdio_output@@@2@@__crt_stdio_output@@AEAA_NXZ 00000001801e4018 f i libucrt:output.obj
 0001:001e3160       ?type_case_n@?$output_processor@_WV?$string_output_adapter@_W@__crt_stdio_output@@V?$standard_base@_WV?$string_output_adapter@_W@__crt_stdio_output@@@2@@__crt_stdio_output@@AEAA_NXZ 00000001801e4160 f i libucrt:output.obj
 0001:001e3274       ?type_case_o@?$output_processor@DV?$stream_output_adapter@D@__crt_stdio_output@@V?$format_validation_base@DV?$stream_output_adapter@D@__crt_stdio_output@@@2@@__crt_stdio_output@@AEAA_NXZ 00000001801e4274 f i libucrt:output.obj
 0001:001e329c       ?type_case_o@?$output_processor@DV?$stream_output_adapter@D@__crt_stdio_output@@V?$positional_parameter_base@DV?$stream_output_adapter@D@__crt_stdio_output@@@2@@__crt_stdio_output@@AEAA_NXZ 00000001801e429c f i libucrt:output.obj
 0001:001e32c4       ?type_case_o@?$output_processor@DV?$stream_output_adapter@D@__crt_stdio_output@@V?$standard_base@DV?$stream_output_adapter@D@__crt_stdio_output@@@2@@__crt_stdio_output@@AEAA_NXZ 00000001801e42c4 f i libucrt:output.obj
 0001:001e32ec       ?type_case_o@?$output_processor@DV?$string_output_adapter@D@__crt_stdio_output@@V?$format_validation_base@DV?$string_output_adapter@D@__crt_stdio_output@@@2@@__crt_stdio_output@@AEAA_NXZ 00000001801e42ec f i libucrt:output.obj
 0001:001e3314       ?type_case_o@?$output_processor@DV?$string_output_adapter@D@__crt_stdio_output@@V?$positional_parameter_base@DV?$string_output_adapter@D@__crt_stdio_output@@@2@@__crt_stdio_output@@AEAA_NXZ 00000001801e4314 f i libucrt:output.obj
 0001:001e333c       ?type_case_o@?$output_processor@DV?$string_output_adapter@D@__crt_stdio_output@@V?$standard_base@DV?$string_output_adapter@D@__crt_stdio_output@@@2@@__crt_stdio_output@@AEAA_NXZ 00000001801e433c f i libucrt:output.obj
 0001:001e3364       ?type_case_o@?$output_processor@_WV?$stream_output_adapter@_W@__crt_stdio_output@@V?$format_validation_base@_WV?$stream_output_adapter@_W@__crt_stdio_output@@@2@@__crt_stdio_output@@AEAA_NXZ 00000001801e4364 f i libucrt:output.obj
 0001:001e338c       ?type_case_o@?$output_processor@_WV?$stream_output_adapter@_W@__crt_stdio_output@@V?$positional_parameter_base@_WV?$stream_output_adapter@_W@__crt_stdio_output@@@2@@__crt_stdio_output@@AEAA_NXZ 00000001801e438c f i libucrt:output.obj
 0001:001e33b4       ?type_case_o@?$output_processor@_WV?$stream_output_adapter@_W@__crt_stdio_output@@V?$standard_base@_WV?$stream_output_adapter@_W@__crt_stdio_output@@@2@@__crt_stdio_output@@AEAA_NXZ 00000001801e43b4 f i libucrt:output.obj
 0001:001e33dc       ?type_case_o@?$output_processor@_WV?$string_output_adapter@_W@__crt_stdio_output@@V?$format_validation_base@_WV?$string_output_adapter@_W@__crt_stdio_output@@@2@@__crt_stdio_output@@AEAA_NXZ 00000001801e43dc f i libucrt:output.obj
 0001:001e3404       ?type_case_o@?$output_processor@_WV?$string_output_adapter@_W@__crt_stdio_output@@V?$positional_parameter_base@_WV?$string_output_adapter@_W@__crt_stdio_output@@@2@@__crt_stdio_output@@AEAA_NXZ 00000001801e4404 f i libucrt:output.obj
 0001:001e342c       ?type_case_o@?$output_processor@_WV?$string_output_adapter@_W@__crt_stdio_output@@V?$standard_base@_WV?$string_output_adapter@_W@__crt_stdio_output@@@2@@__crt_stdio_output@@AEAA_NXZ 00000001801e442c f i libucrt:output.obj
 0001:001e3454       ?type_case_p@?$output_processor@DV?$stream_output_adapter@D@__crt_stdio_output@@V?$format_validation_base@DV?$stream_output_adapter@D@__crt_stdio_output@@@2@@__crt_stdio_output@@AEAA_NXZ 00000001801e4454 f i libucrt:output.obj
 0001:001e3470       ?type_case_p@?$output_processor@DV?$stream_output_adapter@D@__crt_stdio_output@@V?$positional_parameter_base@DV?$stream_output_adapter@D@__crt_stdio_output@@@2@@__crt_stdio_output@@AEAA_NXZ 00000001801e4470 f i libucrt:output.obj
 0001:001e348c       ?type_case_p@?$output_processor@DV?$stream_output_adapter@D@__crt_stdio_output@@V?$standard_base@DV?$stream_output_adapter@D@__crt_stdio_output@@@2@@__crt_stdio_output@@AEAA_NXZ 00000001801e448c f i libucrt:output.obj
 0001:001e34a8       ?type_case_p@?$output_processor@DV?$string_output_adapter@D@__crt_stdio_output@@V?$format_validation_base@DV?$string_output_adapter@D@__crt_stdio_output@@@2@@__crt_stdio_output@@AEAA_NXZ 00000001801e44a8 f i libucrt:output.obj
 0001:001e34c4       ?type_case_p@?$output_processor@DV?$string_output_adapter@D@__crt_stdio_output@@V?$positional_parameter_base@DV?$string_output_adapter@D@__crt_stdio_output@@@2@@__crt_stdio_output@@AEAA_NXZ 00000001801e44c4 f i libucrt:output.obj
 0001:001e34e0       ?type_case_p@?$output_processor@DV?$string_output_adapter@D@__crt_stdio_output@@V?$standard_base@DV?$string_output_adapter@D@__crt_stdio_output@@@2@@__crt_stdio_output@@AEAA_NXZ 00000001801e44e0 f i libucrt:output.obj
 0001:001e34fc       ?type_case_p@?$output_processor@_WV?$stream_output_adapter@_W@__crt_stdio_output@@V?$format_validation_base@_WV?$stream_output_adapter@_W@__crt_stdio_output@@@2@@__crt_stdio_output@@AEAA_NXZ 00000001801e44fc f i libucrt:output.obj
 0001:001e3518       ?type_case_p@?$output_processor@_WV?$stream_output_adapter@_W@__crt_stdio_output@@V?$positional_parameter_base@_WV?$stream_output_adapter@_W@__crt_stdio_output@@@2@@__crt_stdio_output@@AEAA_NXZ 00000001801e4518 f i libucrt:output.obj
 0001:001e3534       ?type_case_p@?$output_processor@_WV?$stream_output_adapter@_W@__crt_stdio_output@@V?$standard_base@_WV?$stream_output_adapter@_W@__crt_stdio_output@@@2@@__crt_stdio_output@@AEAA_NXZ 00000001801e4534 f i libucrt:output.obj
 0001:001e3550       ?type_case_p@?$output_processor@_WV?$string_output_adapter@_W@__crt_stdio_output@@V?$format_validation_base@_WV?$string_output_adapter@_W@__crt_stdio_output@@@2@@__crt_stdio_output@@AEAA_NXZ 00000001801e4550 f i libucrt:output.obj
 0001:001e356c       ?type_case_p@?$output_processor@_WV?$string_output_adapter@_W@__crt_stdio_output@@V?$positional_parameter_base@_WV?$string_output_adapter@_W@__crt_stdio_output@@@2@@__crt_stdio_output@@AEAA_NXZ 00000001801e456c f i libucrt:output.obj
 0001:001e3588       ?type_case_p@?$output_processor@_WV?$string_output_adapter@_W@__crt_stdio_output@@V?$standard_base@_WV?$string_output_adapter@_W@__crt_stdio_output@@@2@@__crt_stdio_output@@AEAA_NXZ 00000001801e4588 f i libucrt:output.obj
 0001:001e35a4       ?type_case_s@?$output_processor@DV?$stream_output_adapter@D@__crt_stdio_output@@V?$format_validation_base@DV?$stream_output_adapter@D@__crt_stdio_output@@@2@@__crt_stdio_output@@AEAA_NXZ 00000001801e45a4 f i libucrt:output.obj
 0001:001e3658       ?type_case_s@?$output_processor@DV?$stream_output_adapter@D@__crt_stdio_output@@V?$positional_parameter_base@DV?$stream_output_adapter@D@__crt_stdio_output@@@2@@__crt_stdio_output@@AEAA_NXZ 00000001801e4658 f i libucrt:output.obj
 0001:001e3728       ?type_case_s@?$output_processor@DV?$stream_output_adapter@D@__crt_stdio_output@@V?$standard_base@DV?$stream_output_adapter@D@__crt_stdio_output@@@2@@__crt_stdio_output@@AEAA_NXZ 00000001801e4728 f i libucrt:output.obj
 0001:001e37dc       ?type_case_s@?$output_processor@DV?$string_output_adapter@D@__crt_stdio_output@@V?$format_validation_base@DV?$string_output_adapter@D@__crt_stdio_output@@@2@@__crt_stdio_output@@AEAA_NXZ 00000001801e47dc f i libucrt:output.obj
 0001:001e3890       ?type_case_s@?$output_processor@DV?$string_output_adapter@D@__crt_stdio_output@@V?$positional_parameter_base@DV?$string_output_adapter@D@__crt_stdio_output@@@2@@__crt_stdio_output@@AEAA_NXZ 00000001801e4890 f i libucrt:output.obj
 0001:001e3960       ?type_case_s@?$output_processor@DV?$string_output_adapter@D@__crt_stdio_output@@V?$standard_base@DV?$string_output_adapter@D@__crt_stdio_output@@@2@@__crt_stdio_output@@AEAA_NXZ 00000001801e4960 f i libucrt:output.obj
 0001:001e3a14       ?type_case_s@?$output_processor@_WV?$stream_output_adapter@_W@__crt_stdio_output@@V?$format_validation_base@_WV?$stream_output_adapter@_W@__crt_stdio_output@@@2@@__crt_stdio_output@@AEAA_NXZ 00000001801e4a14 f i libucrt:output.obj
 0001:001e3b0c       ?type_case_s@?$output_processor@_WV?$stream_output_adapter@_W@__crt_stdio_output@@V?$positional_parameter_base@_WV?$stream_output_adapter@_W@__crt_stdio_output@@@2@@__crt_stdio_output@@AEAA_NXZ 00000001801e4b0c f i libucrt:output.obj
 0001:001e3c24       ?type_case_s@?$output_processor@_WV?$stream_output_adapter@_W@__crt_stdio_output@@V?$standard_base@_WV?$stream_output_adapter@_W@__crt_stdio_output@@@2@@__crt_stdio_output@@AEAA_NXZ 00000001801e4c24 f i libucrt:output.obj
 0001:001e3d1c       ?type_case_s@?$output_processor@_WV?$string_output_adapter@_W@__crt_stdio_output@@V?$format_validation_base@_WV?$string_output_adapter@_W@__crt_stdio_output@@@2@@__crt_stdio_output@@AEAA_NXZ 00000001801e4d1c f i libucrt:output.obj
 0001:001e3e14       ?type_case_s@?$output_processor@_WV?$string_output_adapter@_W@__crt_stdio_output@@V?$positional_parameter_base@_WV?$string_output_adapter@_W@__crt_stdio_output@@@2@@__crt_stdio_output@@AEAA_NXZ 00000001801e4e14 f i libucrt:output.obj
 0001:001e3f2c       ?type_case_s@?$output_processor@_WV?$string_output_adapter@_W@__crt_stdio_output@@V?$standard_base@_WV?$string_output_adapter@_W@__crt_stdio_output@@@2@@__crt_stdio_output@@AEAA_NXZ 00000001801e4f2c f i libucrt:output.obj
 0001:001e4024       ?type_case_s_compute_narrow_string_length@?$output_processor@DV?$stream_output_adapter@D@__crt_stdio_output@@V?$format_validation_base@DV?$stream_output_adapter@D@__crt_stdio_output@@@2@@__crt_stdio_output@@AEBAHHD@Z 00000001801e5024 f i libucrt:output.obj
 0001:001e4034       ?type_case_s_compute_narrow_string_length@?$output_processor@DV?$stream_output_adapter@D@__crt_stdio_output@@V?$positional_parameter_base@DV?$stream_output_adapter@D@__crt_stdio_output@@@2@@__crt_stdio_output@@AEBAHHD@Z 00000001801e5034 f i libucrt:output.obj
 0001:001e4044       ?type_case_s_compute_narrow_string_length@?$output_processor@DV?$stream_output_adapter@D@__crt_stdio_output@@V?$standard_base@DV?$stream_output_adapter@D@__crt_stdio_output@@@2@@__crt_stdio_output@@AEBAHHD@Z 00000001801e5044 f i libucrt:output.obj
 0001:001e4054       ?type_case_s_compute_narrow_string_length@?$output_processor@DV?$string_output_adapter@D@__crt_stdio_output@@V?$format_validation_base@DV?$string_output_adapter@D@__crt_stdio_output@@@2@@__crt_stdio_output@@AEBAHHD@Z 00000001801e5054 f i libucrt:output.obj
 0001:001e4064       ?type_case_s_compute_narrow_string_length@?$output_processor@DV?$string_output_adapter@D@__crt_stdio_output@@V?$positional_parameter_base@DV?$string_output_adapter@D@__crt_stdio_output@@@2@@__crt_stdio_output@@AEBAHHD@Z 00000001801e5064 f i libucrt:output.obj
 0001:001e4074       ?type_case_s_compute_narrow_string_length@?$output_processor@DV?$string_output_adapter@D@__crt_stdio_output@@V?$standard_base@DV?$string_output_adapter@D@__crt_stdio_output@@@2@@__crt_stdio_output@@AEBAHHD@Z 00000001801e5074 f i libucrt:output.obj
 0001:001e4084       ?type_case_s_compute_narrow_string_length@?$output_processor@_WV?$stream_output_adapter@_W@__crt_stdio_output@@V?$format_validation_base@_WV?$stream_output_adapter@_W@__crt_stdio_output@@@2@@__crt_stdio_output@@AEBAHH_W@Z 00000001801e5084 f i libucrt:output.obj
 0001:001e40d8       ?type_case_s_compute_narrow_string_length@?$output_processor@_WV?$stream_output_adapter@_W@__crt_stdio_output@@V?$positional_parameter_base@_WV?$stream_output_adapter@_W@__crt_stdio_output@@@2@@__crt_stdio_output@@AEBAHH_W@Z 00000001801e50d8 f i libucrt:output.obj
 0001:001e412c       ?type_case_s_compute_narrow_string_length@?$output_processor@_WV?$stream_output_adapter@_W@__crt_stdio_output@@V?$standard_base@_WV?$stream_output_adapter@_W@__crt_stdio_output@@@2@@__crt_stdio_output@@AEBAHH_W@Z 00000001801e512c f i libucrt:output.obj
 0001:001e4180       ?type_case_s_compute_narrow_string_length@?$output_processor@_WV?$string_output_adapter@_W@__crt_stdio_output@@V?$format_validation_base@_WV?$string_output_adapter@_W@__crt_stdio_output@@@2@@__crt_stdio_output@@AEBAHH_W@Z 00000001801e5180 f i libucrt:output.obj
 0001:001e41d4       ?type_case_s_compute_narrow_string_length@?$output_processor@_WV?$string_output_adapter@_W@__crt_stdio_output@@V?$positional_parameter_base@_WV?$string_output_adapter@_W@__crt_stdio_output@@@2@@__crt_stdio_output@@AEBAHH_W@Z 00000001801e51d4 f i libucrt:output.obj
 0001:001e4228       ?type_case_s_compute_narrow_string_length@?$output_processor@_WV?$string_output_adapter@_W@__crt_stdio_output@@V?$standard_base@_WV?$string_output_adapter@_W@__crt_stdio_output@@@2@@__crt_stdio_output@@AEBAHH_W@Z 00000001801e5228 f i libucrt:output.obj
 0001:001e427c       ?type_case_u@?$output_processor@DV?$stream_output_adapter@D@__crt_stdio_output@@V?$format_validation_base@DV?$stream_output_adapter@D@__crt_stdio_output@@@2@@__crt_stdio_output@@AEAA_NXZ 00000001801e527c f i libucrt:output.obj
 0001:001e428c       ?type_case_u@?$output_processor@DV?$stream_output_adapter@D@__crt_stdio_output@@V?$positional_parameter_base@DV?$stream_output_adapter@D@__crt_stdio_output@@@2@@__crt_stdio_output@@AEAA_NXZ 00000001801e528c f i libucrt:output.obj
 0001:001e429c       ?type_case_u@?$output_processor@DV?$stream_output_adapter@D@__crt_stdio_output@@V?$standard_base@DV?$stream_output_adapter@D@__crt_stdio_output@@@2@@__crt_stdio_output@@AEAA_NXZ 00000001801e529c f i libucrt:output.obj
 0001:001e42ac       ?type_case_u@?$output_processor@DV?$string_output_adapter@D@__crt_stdio_output@@V?$format_validation_base@DV?$string_output_adapter@D@__crt_stdio_output@@@2@@__crt_stdio_output@@AEAA_NXZ 00000001801e52ac f i libucrt:output.obj
 0001:001e42bc       ?type_case_u@?$output_processor@DV?$string_output_adapter@D@__crt_stdio_output@@V?$positional_parameter_base@DV?$string_output_adapter@D@__crt_stdio_output@@@2@@__crt_stdio_output@@AEAA_NXZ 00000001801e52bc f i libucrt:output.obj
 0001:001e42cc       ?type_case_u@?$output_processor@DV?$string_output_adapter@D@__crt_stdio_output@@V?$standard_base@DV?$string_output_adapter@D@__crt_stdio_output@@@2@@__crt_stdio_output@@AEAA_NXZ 00000001801e52cc f i libucrt:output.obj
 0001:001e42dc       ?type_case_u@?$output_processor@_WV?$stream_output_adapter@_W@__crt_stdio_output@@V?$format_validation_base@_WV?$stream_output_adapter@_W@__crt_stdio_output@@@2@@__crt_stdio_output@@AEAA_NXZ 00000001801e52dc f i libucrt:output.obj
 0001:001e42ec       ?type_case_u@?$output_processor@_WV?$stream_output_adapter@_W@__crt_stdio_output@@V?$positional_parameter_base@_WV?$stream_output_adapter@_W@__crt_stdio_output@@@2@@__crt_stdio_output@@AEAA_NXZ 00000001801e52ec f i libucrt:output.obj
 0001:001e42fc       ?type_case_u@?$output_processor@_WV?$stream_output_adapter@_W@__crt_stdio_output@@V?$standard_base@_WV?$stream_output_adapter@_W@__crt_stdio_output@@@2@@__crt_stdio_output@@AEAA_NXZ 00000001801e52fc f i libucrt:output.obj
 0001:001e430c       ?type_case_u@?$output_processor@_WV?$string_output_adapter@_W@__crt_stdio_output@@V?$format_validation_base@_WV?$string_output_adapter@_W@__crt_stdio_output@@@2@@__crt_stdio_output@@AEAA_NXZ 00000001801e530c f i libucrt:output.obj
 0001:001e431c       ?type_case_u@?$output_processor@_WV?$string_output_adapter@_W@__crt_stdio_output@@V?$positional_parameter_base@_WV?$string_output_adapter@_W@__crt_stdio_output@@@2@@__crt_stdio_output@@AEAA_NXZ 00000001801e531c f i libucrt:output.obj
 0001:001e432c       ?type_case_u@?$output_processor@_WV?$string_output_adapter@_W@__crt_stdio_output@@V?$standard_base@_WV?$string_output_adapter@_W@__crt_stdio_output@@@2@@__crt_stdio_output@@AEAA_NXZ 00000001801e532c f i libucrt:output.obj
 0001:001e433c       ?type_case_x@?$output_processor@DV?$stream_output_adapter@D@__crt_stdio_output@@V?$format_validation_base@DV?$stream_output_adapter@D@__crt_stdio_output@@@2@@__crt_stdio_output@@AEAA_NXZ 00000001801e533c f i libucrt:output.obj
 0001:001e434c       ?type_case_x@?$output_processor@DV?$stream_output_adapter@D@__crt_stdio_output@@V?$positional_parameter_base@DV?$stream_output_adapter@D@__crt_stdio_output@@@2@@__crt_stdio_output@@AEAA_NXZ 00000001801e534c f i libucrt:output.obj
 0001:001e435c       ?type_case_x@?$output_processor@DV?$stream_output_adapter@D@__crt_stdio_output@@V?$standard_base@DV?$stream_output_adapter@D@__crt_stdio_output@@@2@@__crt_stdio_output@@AEAA_NXZ 00000001801e535c f i libucrt:output.obj
 0001:001e436c       ?type_case_x@?$output_processor@DV?$string_output_adapter@D@__crt_stdio_output@@V?$format_validation_base@DV?$string_output_adapter@D@__crt_stdio_output@@@2@@__crt_stdio_output@@AEAA_NXZ 00000001801e536c f i libucrt:output.obj
 0001:001e437c       ?type_case_x@?$output_processor@DV?$string_output_adapter@D@__crt_stdio_output@@V?$positional_parameter_base@DV?$string_output_adapter@D@__crt_stdio_output@@@2@@__crt_stdio_output@@AEAA_NXZ 00000001801e537c f i libucrt:output.obj
 0001:001e438c       ?type_case_x@?$output_processor@DV?$string_output_adapter@D@__crt_stdio_output@@V?$standard_base@DV?$string_output_adapter@D@__crt_stdio_output@@@2@@__crt_stdio_output@@AEAA_NXZ 00000001801e538c f i libucrt:output.obj
 0001:001e439c       ?type_case_x@?$output_processor@_WV?$stream_output_adapter@_W@__crt_stdio_output@@V?$format_validation_base@_WV?$stream_output_adapter@_W@__crt_stdio_output@@@2@@__crt_stdio_output@@AEAA_NXZ 00000001801e539c f i libucrt:output.obj
 0001:001e43ac       ?type_case_x@?$output_processor@_WV?$stream_output_adapter@_W@__crt_stdio_output@@V?$positional_parameter_base@_WV?$stream_output_adapter@_W@__crt_stdio_output@@@2@@__crt_stdio_output@@AEAA_NXZ 00000001801e53ac f i libucrt:output.obj
 0001:001e43bc       ?type_case_x@?$output_processor@_WV?$stream_output_adapter@_W@__crt_stdio_output@@V?$standard_base@_WV?$stream_output_adapter@_W@__crt_stdio_output@@@2@@__crt_stdio_output@@AEAA_NXZ 00000001801e53bc f i libucrt:output.obj
 0001:001e43cc       ?type_case_x@?$output_processor@_WV?$string_output_adapter@_W@__crt_stdio_output@@V?$format_validation_base@_WV?$string_output_adapter@_W@__crt_stdio_output@@@2@@__crt_stdio_output@@AEAA_NXZ 00000001801e53cc f i libucrt:output.obj
 0001:001e43dc       ?type_case_x@?$output_processor@_WV?$string_output_adapter@_W@__crt_stdio_output@@V?$positional_parameter_base@_WV?$string_output_adapter@_W@__crt_stdio_output@@@2@@__crt_stdio_output@@AEAA_NXZ 00000001801e53dc f i libucrt:output.obj
 0001:001e43ec       ?type_case_x@?$output_processor@_WV?$string_output_adapter@_W@__crt_stdio_output@@V?$standard_base@_WV?$string_output_adapter@_W@__crt_stdio_output@@@2@@__crt_stdio_output@@AEAA_NXZ 00000001801e53ec f i libucrt:output.obj
 0001:001e43fc       ?unset_flag@?$output_processor@DV?$stream_output_adapter@D@__crt_stdio_output@@V?$format_validation_base@DV?$stream_output_adapter@D@__crt_stdio_output@@@2@@__crt_stdio_output@@AEAAXI@Z 00000001801e53fc f i libucrt:output.obj
 0001:001e4404       ?unset_flag@?$output_processor@DV?$stream_output_adapter@D@__crt_stdio_output@@V?$positional_parameter_base@DV?$stream_output_adapter@D@__crt_stdio_output@@@2@@__crt_stdio_output@@AEAAXI@Z 00000001801e5404 f i libucrt:output.obj
 0001:001e440c       ?unset_flag@?$output_processor@DV?$stream_output_adapter@D@__crt_stdio_output@@V?$standard_base@DV?$stream_output_adapter@D@__crt_stdio_output@@@2@@__crt_stdio_output@@AEAAXI@Z 00000001801e540c f i libucrt:output.obj
 0001:001e4414       ?unset_flag@?$output_processor@DV?$string_output_adapter@D@__crt_stdio_output@@V?$format_validation_base@DV?$string_output_adapter@D@__crt_stdio_output@@@2@@__crt_stdio_output@@AEAAXI@Z 00000001801e5414 f i libucrt:output.obj
 0001:001e441c       ?unset_flag@?$output_processor@DV?$string_output_adapter@D@__crt_stdio_output@@V?$positional_parameter_base@DV?$string_output_adapter@D@__crt_stdio_output@@@2@@__crt_stdio_output@@AEAAXI@Z 00000001801e541c f i libucrt:output.obj
 0001:001e4424       ?unset_flag@?$output_processor@DV?$string_output_adapter@D@__crt_stdio_output@@V?$standard_base@DV?$string_output_adapter@D@__crt_stdio_output@@@2@@__crt_stdio_output@@AEAAXI@Z 00000001801e5424 f i libucrt:output.obj
 0001:001e442c       ?unset_flag@?$output_processor@_WV?$stream_output_adapter@_W@__crt_stdio_output@@V?$format_validation_base@_WV?$stream_output_adapter@_W@__crt_stdio_output@@@2@@__crt_stdio_output@@AEAAXI@Z 00000001801e542c f i libucrt:output.obj
 0001:001e4434       ?unset_flag@?$output_processor@_WV?$stream_output_adapter@_W@__crt_stdio_output@@V?$positional_parameter_base@_WV?$stream_output_adapter@_W@__crt_stdio_output@@@2@@__crt_stdio_output@@AEAAXI@Z 00000001801e5434 f i libucrt:output.obj
 0001:001e443c       ?unset_flag@?$output_processor@_WV?$stream_output_adapter@_W@__crt_stdio_output@@V?$standard_base@_WV?$stream_output_adapter@_W@__crt_stdio_output@@@2@@__crt_stdio_output@@AEAAXI@Z 00000001801e543c f i libucrt:output.obj
 0001:001e4444       ?unset_flag@?$output_processor@_WV?$string_output_adapter@_W@__crt_stdio_output@@V?$format_validation_base@_WV?$string_output_adapter@_W@__crt_stdio_output@@@2@@__crt_stdio_output@@AEAAXI@Z 00000001801e5444 f i libucrt:output.obj
 0001:001e444c       ?unset_flag@?$output_processor@_WV?$string_output_adapter@_W@__crt_stdio_output@@V?$positional_parameter_base@_WV?$string_output_adapter@_W@__crt_stdio_output@@@2@@__crt_stdio_output@@AEAAXI@Z 00000001801e544c f i libucrt:output.obj
 0001:001e4454       ?unset_flag@?$output_processor@_WV?$string_output_adapter@_W@__crt_stdio_output@@V?$standard_base@_WV?$string_output_adapter@_W@__crt_stdio_output@@@2@@__crt_stdio_output@@AEAAXI@Z 00000001801e5454 f i libucrt:output.obj
 0001:001e445c       ?update_field_width@?$positional_parameter_base@DV?$stream_output_adapter@D@__crt_stdio_output@@@__crt_stdio_output@@IEAA_NXZ 00000001801e545c f i libucrt:output.obj
 0001:001e45b4       ?update_field_width@?$positional_parameter_base@DV?$string_output_adapter@D@__crt_stdio_output@@@__crt_stdio_output@@IEAA_NXZ 00000001801e55b4 f i libucrt:output.obj
 0001:001e470c       ?update_field_width@?$positional_parameter_base@_WV?$stream_output_adapter@_W@__crt_stdio_output@@@__crt_stdio_output@@IEAA_NXZ 00000001801e570c f i libucrt:output.obj
 0001:001e4868       ?update_field_width@?$positional_parameter_base@_WV?$string_output_adapter@_W@__crt_stdio_output@@@__crt_stdio_output@@IEAA_NXZ 00000001801e5868 f i libucrt:output.obj
 0001:001e49c4       ?update_field_width@?$standard_base@DV?$stream_output_adapter@D@__crt_stdio_output@@@__crt_stdio_output@@IEAA_NXZ 00000001801e59c4 f i libucrt:output.obj
 0001:001e49dc       ?update_field_width@?$standard_base@DV?$string_output_adapter@D@__crt_stdio_output@@@__crt_stdio_output@@IEAA_NXZ 00000001801e59dc f i libucrt:output.obj
 0001:001e49f4       ?update_field_width@?$standard_base@_WV?$stream_output_adapter@_W@__crt_stdio_output@@@__crt_stdio_output@@IEAA_NXZ 00000001801e59f4 f i libucrt:output.obj
 0001:001e4a0c       ?update_field_width@?$standard_base@_WV?$string_output_adapter@_W@__crt_stdio_output@@@__crt_stdio_output@@IEAA_NXZ 00000001801e5a0c f i libucrt:output.obj
 0001:001e4a24       ?update_precision@?$positional_parameter_base@DV?$stream_output_adapter@D@__crt_stdio_output@@@__crt_stdio_output@@IEAA_NXZ 00000001801e5a24 f i libucrt:output.obj
 0001:001e4b7c       ?update_precision@?$positional_parameter_base@DV?$string_output_adapter@D@__crt_stdio_output@@@__crt_stdio_output@@IEAA_NXZ 00000001801e5b7c f i libucrt:output.obj
 0001:001e4cd4       ?update_precision@?$positional_parameter_base@_WV?$stream_output_adapter@_W@__crt_stdio_output@@@__crt_stdio_output@@IEAA_NXZ 00000001801e5cd4 f i libucrt:output.obj
 0001:001e4e30       ?update_precision@?$positional_parameter_base@_WV?$string_output_adapter@_W@__crt_stdio_output@@@__crt_stdio_output@@IEAA_NXZ 00000001801e5e30 f i libucrt:output.obj
 0001:001e4f8c       ?update_precision@?$standard_base@DV?$stream_output_adapter@D@__crt_stdio_output@@@__crt_stdio_output@@IEAA_NXZ 00000001801e5f8c f i libucrt:output.obj
 0001:001e4fa4       ?update_precision@?$standard_base@DV?$string_output_adapter@D@__crt_stdio_output@@@__crt_stdio_output@@IEAA_NXZ 00000001801e5fa4 f i libucrt:output.obj
 0001:001e4fbc       ?update_precision@?$standard_base@_WV?$stream_output_adapter@_W@__crt_stdio_output@@@__crt_stdio_output@@IEAA_NXZ 00000001801e5fbc f i libucrt:output.obj
 0001:001e4fd4       ?update_precision@?$standard_base@_WV?$string_output_adapter@_W@__crt_stdio_output@@@__crt_stdio_output@@IEAA_NXZ 00000001801e5fd4 f i libucrt:output.obj
 0001:001e4fec       ?valid@__crt_stdio_stream@@QEBA_NXZ 00000001801e5fec f i libucrt:output.obj
 0001:001e4ff8       ?validate@?$stream_output_adapter@D@__crt_stdio_output@@QEBA_NXZ 00000001801e5ff8 f i libucrt:output.obj
 0001:001e5030       ?validate@?$stream_output_adapter@_W@__crt_stdio_output@@QEBA_NXZ 00000001801e6030 f i libucrt:output.obj
 0001:001e5060       ?validate@?$string_output_adapter@D@__crt_stdio_output@@QEBA_NXZ 00000001801e6060 f i libucrt:output.obj
 0001:001e5090       ?validate@?$string_output_adapter@_W@__crt_stdio_output@@QEBA_NXZ 00000001801e6090 f i libucrt:output.obj
 0001:001e50c0       ?validate_and_store_parameter_data@?$positional_parameter_base@DV?$stream_output_adapter@D@__crt_stdio_output@@@__crt_stdio_output@@AEAA_NAEAUparameter_data@12@W4parameter_type@12@DW4length_modifier@2@@Z 00000001801e60c0 f i libucrt:output.obj
 0001:001e5110       ?validate_and_store_parameter_data@?$positional_parameter_base@DV?$string_output_adapter@D@__crt_stdio_output@@@__crt_stdio_output@@AEAA_NAEAUparameter_data@12@W4parameter_type@12@DW4length_modifier@2@@Z 00000001801e6110 f i libucrt:output.obj
 0001:001e5160       ?validate_and_store_parameter_data@?$positional_parameter_base@_WV?$stream_output_adapter@_W@__crt_stdio_output@@@__crt_stdio_output@@AEAA_NAEAUparameter_data@12@W4parameter_type@12@_WW4length_modifier@2@@Z 00000001801e6160 f i libucrt:output.obj
 0001:001e51b0       ?validate_and_store_parameter_data@?$positional_parameter_base@_WV?$string_output_adapter@_W@__crt_stdio_output@@@__crt_stdio_output@@AEAA_NAEAUparameter_data@12@W4parameter_type@12@_WW4length_modifier@2@@Z 00000001801e61b0 f i libucrt:output.obj
 0001:001e5200       ?validate_and_update_state_at_beginning_of_format_character@?$positional_parameter_base@DV?$stream_output_adapter@D@__crt_stdio_output@@@__crt_stdio_output@@IEAA_NXZ 00000001801e6200 f i libucrt:output.obj
 0001:001e5348       ?validate_and_update_state_at_beginning_of_format_character@?$positional_parameter_base@DV?$string_output_adapter@D@__crt_stdio_output@@@__crt_stdio_output@@IEAA_NXZ 00000001801e6348 f i libucrt:output.obj
 0001:001e5490       ?validate_and_update_state_at_beginning_of_format_character@?$positional_parameter_base@_WV?$stream_output_adapter@_W@__crt_stdio_output@@@__crt_stdio_output@@IEAA_NXZ 00000001801e6490 f i libucrt:output.obj
 0001:001e55e0       ?validate_and_update_state_at_beginning_of_format_character@?$positional_parameter_base@_WV?$string_output_adapter@_W@__crt_stdio_output@@@__crt_stdio_output@@IEAA_NXZ 00000001801e65e0 f i libucrt:output.obj
 0001:001e5730       ?validate_and_update_state_at_beginning_of_format_character@?$standard_base@DV?$stream_output_adapter@D@__crt_stdio_output@@@__crt_stdio_output@@IEAA_NXZ 00000001801e6730 f i libucrt:output.obj
 0001:001e5734       ?validate_and_update_state_at_beginning_of_format_character@?$standard_base@DV?$string_output_adapter@D@__crt_stdio_output@@@__crt_stdio_output@@IEAA_NXZ 00000001801e6734 f i libucrt:output.obj
 0001:001e5738       ?validate_and_update_state_at_beginning_of_format_character@?$standard_base@_WV?$stream_output_adapter@_W@__crt_stdio_output@@@__crt_stdio_output@@IEAA_NXZ 00000001801e6738 f i libucrt:output.obj
 0001:001e573c       ?validate_and_update_state_at_beginning_of_format_character@?$standard_base@_WV?$string_output_adapter@_W@__crt_stdio_output@@@__crt_stdio_output@@IEAA_NXZ 00000001801e673c f i libucrt:output.obj
 0001:001e5740       ?validate_and_update_state_at_end_of_format_string@?$format_validation_base@DV?$stream_output_adapter@D@__crt_stdio_output@@@__crt_stdio_output@@IEBA_NXZ 00000001801e6740 f i libucrt:output.obj
 0001:001e5778       ?validate_and_update_state_at_end_of_format_string@?$format_validation_base@DV?$string_output_adapter@D@__crt_stdio_output@@@__crt_stdio_output@@IEBA_NXZ 00000001801e6778 f i libucrt:output.obj
 0001:001e57b0       ?validate_and_update_state_at_end_of_format_string@?$format_validation_base@_WV?$stream_output_adapter@_W@__crt_stdio_output@@@__crt_stdio_output@@IEBA_NXZ 00000001801e67b0 f i libucrt:output.obj
 0001:001e57e8       ?validate_and_update_state_at_end_of_format_string@?$format_validation_base@_WV?$string_output_adapter@_W@__crt_stdio_output@@@__crt_stdio_output@@IEBA_NXZ 00000001801e67e8 f i libucrt:output.obj
 0001:001e5820       ?validate_and_update_state_at_end_of_format_string@?$positional_parameter_base@DV?$stream_output_adapter@D@__crt_stdio_output@@@__crt_stdio_output@@IEAA_NXZ 00000001801e6820 f i libucrt:output.obj
 0001:001e58cc       ?validate_and_update_state_at_end_of_format_string@?$positional_parameter_base@DV?$string_output_adapter@D@__crt_stdio_output@@@__crt_stdio_output@@IEAA_NXZ 00000001801e68cc f i libucrt:output.obj
 0001:001e5978       ?validate_and_update_state_at_end_of_format_string@?$positional_parameter_base@_WV?$stream_output_adapter@_W@__crt_stdio_output@@@__crt_stdio_output@@IEAA_NXZ 00000001801e6978 f i libucrt:output.obj
 0001:001e5a24       ?validate_and_update_state_at_end_of_format_string@?$positional_parameter_base@_WV?$string_output_adapter@_W@__crt_stdio_output@@@__crt_stdio_output@@IEAA_NXZ 00000001801e6a24 f i libucrt:output.obj
 0001:001e5ad0       ?validate_and_update_state_at_end_of_format_string@?$standard_base@DV?$stream_output_adapter@D@__crt_stdio_output@@@__crt_stdio_output@@IEBA_NXZ 00000001801e6ad0 f i libucrt:output.obj
 0001:001e5ad4       ?validate_and_update_state_at_end_of_format_string@?$standard_base@DV?$string_output_adapter@D@__crt_stdio_output@@@__crt_stdio_output@@IEBA_NXZ 00000001801e6ad4 f i libucrt:output.obj
 0001:001e5ad8       ?validate_and_update_state_at_end_of_format_string@?$standard_base@_WV?$stream_output_adapter@_W@__crt_stdio_output@@@__crt_stdio_output@@IEBA_NXZ 00000001801e6ad8 f i libucrt:output.obj
 0001:001e5adc       ?validate_and_update_state_at_end_of_format_string@?$standard_base@_WV?$string_output_adapter@_W@__crt_stdio_output@@@__crt_stdio_output@@IEBA_NXZ 00000001801e6adc f i libucrt:output.obj
 0001:001e5ae0       ?validate_state_for_type_case_a@?$positional_parameter_base@DV?$stream_output_adapter@D@__crt_stdio_output@@@__crt_stdio_output@@IEAA_NXZ 00000001801e6ae0 f i libucrt:output.obj
 0001:001e5ba4       ?validate_state_for_type_case_a@?$positional_parameter_base@DV?$string_output_adapter@D@__crt_stdio_output@@@__crt_stdio_output@@IEAA_NXZ 00000001801e6ba4 f i libucrt:output.obj
 0001:001e5c68       ?validate_state_for_type_case_a@?$positional_parameter_base@_WV?$stream_output_adapter@_W@__crt_stdio_output@@@__crt_stdio_output@@IEAA_NXZ 00000001801e6c68 f i libucrt:output.obj
 0001:001e5d2c       ?validate_state_for_type_case_a@?$positional_parameter_base@_WV?$string_output_adapter@_W@__crt_stdio_output@@@__crt_stdio_output@@IEAA_NXZ 00000001801e6d2c f i libucrt:output.obj
 0001:001e5df0       ?validate_state_for_type_case_a@?$standard_base@DV?$stream_output_adapter@D@__crt_stdio_output@@@__crt_stdio_output@@IEBA_NXZ 00000001801e6df0 f i libucrt:output.obj
 0001:001e5df4       ?validate_state_for_type_case_a@?$standard_base@DV?$string_output_adapter@D@__crt_stdio_output@@@__crt_stdio_output@@IEBA_NXZ 00000001801e6df4 f i libucrt:output.obj
 0001:001e5df8       ?validate_state_for_type_case_a@?$standard_base@_WV?$stream_output_adapter@_W@__crt_stdio_output@@@__crt_stdio_output@@IEBA_NXZ 00000001801e6df8 f i libucrt:output.obj
 0001:001e5dfc       ?validate_state_for_type_case_a@?$standard_base@_WV?$string_output_adapter@_W@__crt_stdio_output@@@__crt_stdio_output@@IEBA_NXZ 00000001801e6dfc f i libucrt:output.obj
 0001:001e5e00       ?validate_stream_is_ansi_if_required@?$__acrt_stdio_char_traits@D@@SA_NQEAU_iobuf@@@Z 00000001801e6e00 f i libucrt:output.obj
 0001:001e5eb0       ?validate_stream_is_ansi_if_required@?$__acrt_stdio_char_traits@_W@@SA_NQEAU_iobuf@@@Z 00000001801e6eb0 f i libucrt:output.obj
 0001:001e5eb4       ?wide_null_string@?$output_processor@DV?$stream_output_adapter@D@__crt_stdio_output@@V?$format_validation_base@DV?$stream_output_adapter@D@__crt_stdio_output@@@2@@__crt_stdio_output@@CAPEA_WXZ 00000001801e6eb4 f i libucrt:output.obj
 0001:001e5ec0       ?wide_null_string@?$output_processor@DV?$stream_output_adapter@D@__crt_stdio_output@@V?$positional_parameter_base@DV?$stream_output_adapter@D@__crt_stdio_output@@@2@@__crt_stdio_output@@CAPEA_WXZ 00000001801e6ec0 f i libucrt:output.obj
 0001:001e5ecc       ?wide_null_string@?$output_processor@DV?$stream_output_adapter@D@__crt_stdio_output@@V?$standard_base@DV?$stream_output_adapter@D@__crt_stdio_output@@@2@@__crt_stdio_output@@CAPEA_WXZ 00000001801e6ecc f i libucrt:output.obj
 0001:001e5ed8       ?wide_null_string@?$output_processor@DV?$string_output_adapter@D@__crt_stdio_output@@V?$format_validation_base@DV?$string_output_adapter@D@__crt_stdio_output@@@2@@__crt_stdio_output@@CAPEA_WXZ 00000001801e6ed8 f i libucrt:output.obj
 0001:001e5ee4       ?wide_null_string@?$output_processor@DV?$string_output_adapter@D@__crt_stdio_output@@V?$positional_parameter_base@DV?$string_output_adapter@D@__crt_stdio_output@@@2@@__crt_stdio_output@@CAPEA_WXZ 00000001801e6ee4 f i libucrt:output.obj
 0001:001e5ef0       ?wide_null_string@?$output_processor@DV?$string_output_adapter@D@__crt_stdio_output@@V?$standard_base@DV?$string_output_adapter@D@__crt_stdio_output@@@2@@__crt_stdio_output@@CAPEA_WXZ 00000001801e6ef0 f i libucrt:output.obj
 0001:001e5efc       ?wide_null_string@?$output_processor@_WV?$stream_output_adapter@_W@__crt_stdio_output@@V?$format_validation_base@_WV?$stream_output_adapter@_W@__crt_stdio_output@@@2@@__crt_stdio_output@@CAPEA_WXZ 00000001801e6efc f i libucrt:output.obj
 0001:001e5f08       ?wide_null_string@?$output_processor@_WV?$stream_output_adapter@_W@__crt_stdio_output@@V?$positional_parameter_base@_WV?$stream_output_adapter@_W@__crt_stdio_output@@@2@@__crt_stdio_output@@CAPEA_WXZ 00000001801e6f08 f i libucrt:output.obj
 0001:001e5f14       ?wide_null_string@?$output_processor@_WV?$stream_output_adapter@_W@__crt_stdio_output@@V?$standard_base@_WV?$stream_output_adapter@_W@__crt_stdio_output@@@2@@__crt_stdio_output@@CAPEA_WXZ 00000001801e6f14 f i libucrt:output.obj
 0001:001e5f20       ?wide_null_string@?$output_processor@_WV?$string_output_adapter@_W@__crt_stdio_output@@V?$format_validation_base@_WV?$string_output_adapter@_W@__crt_stdio_output@@@2@@__crt_stdio_output@@CAPEA_WXZ 00000001801e6f20 f i libucrt:output.obj
 0001:001e5f2c       ?wide_null_string@?$output_processor@_WV?$string_output_adapter@_W@__crt_stdio_output@@V?$positional_parameter_base@_WV?$string_output_adapter@_W@__crt_stdio_output@@@2@@__crt_stdio_output@@CAPEA_WXZ 00000001801e6f2c f i libucrt:output.obj
 0001:001e5f38       ?wide_null_string@?$output_processor@_WV?$string_output_adapter@_W@__crt_stdio_output@@V?$standard_base@_WV?$string_output_adapter@_W@__crt_stdio_output@@@2@@__crt_stdio_output@@CAPEA_WXZ 00000001801e6f38 f i libucrt:output.obj
 0001:001e5f44       ?write_character@?$stream_output_adapter@D@__crt_stdio_output@@QEBAXDQEAH@Z 00000001801e6f44 f i libucrt:output.obj
 0001:001e5f9c       ?write_character@?$stream_output_adapter@_W@__crt_stdio_output@@QEBAX_WQEAH@Z 00000001801e6f9c f i libucrt:output.obj
 0001:001e5ffc       ?write_character@?$string_output_adapter@D@__crt_stdio_output@@QEBA_NDQEAH@Z 00000001801e6ffc f i libucrt:output.obj
 0001:001e6054       ?write_character@?$string_output_adapter@_W@__crt_stdio_output@@QEBA_N_WQEAH@Z 00000001801e7054 f i libucrt:output.obj
 0001:001e60b0       ?write_stored_string_tchar@?$output_processor@DV?$stream_output_adapter@D@__crt_stdio_output@@V?$format_validation_base@DV?$stream_output_adapter@D@__crt_stdio_output@@@2@@__crt_stdio_output@@AEAA_ND@Z 00000001801e70b0 f i libucrt:output.obj
 0001:001e61bc       ?write_stored_string_tchar@?$output_processor@DV?$stream_output_adapter@D@__crt_stdio_output@@V?$positional_parameter_base@DV?$stream_output_adapter@D@__crt_stdio_output@@@2@@__crt_stdio_output@@AEAA_ND@Z 00000001801e71bc f i libucrt:output.obj
 0001:001e62c8       ?write_stored_string_tchar@?$output_processor@DV?$stream_output_adapter@D@__crt_stdio_output@@V?$standard_base@DV?$stream_output_adapter@D@__crt_stdio_output@@@2@@__crt_stdio_output@@AEAA_ND@Z 00000001801e72c8 f i libucrt:output.obj
 0001:001e63d4       ?write_stored_string_tchar@?$output_processor@DV?$string_output_adapter@D@__crt_stdio_output@@V?$format_validation_base@DV?$string_output_adapter@D@__crt_stdio_output@@@2@@__crt_stdio_output@@AEAA_ND@Z 00000001801e73d4 f i libucrt:output.obj
 0001:001e64e0       ?write_stored_string_tchar@?$output_processor@DV?$string_output_adapter@D@__crt_stdio_output@@V?$positional_parameter_base@DV?$string_output_adapter@D@__crt_stdio_output@@@2@@__crt_stdio_output@@AEAA_ND@Z 00000001801e74e0 f i libucrt:output.obj
 0001:001e65ec       ?write_stored_string_tchar@?$output_processor@DV?$string_output_adapter@D@__crt_stdio_output@@V?$standard_base@DV?$string_output_adapter@D@__crt_stdio_output@@@2@@__crt_stdio_output@@AEAA_ND@Z 00000001801e75ec f i libucrt:output.obj
 0001:001e66f8       ?write_stored_string_tchar@?$output_processor@_WV?$stream_output_adapter@_W@__crt_stdio_output@@V?$format_validation_base@_WV?$stream_output_adapter@_W@__crt_stdio_output@@@2@@__crt_stdio_output@@AEAA_N_W@Z 00000001801e76f8 f i libucrt:output.obj
 0001:001e6820       ?write_stored_string_tchar@?$output_processor@_WV?$stream_output_adapter@_W@__crt_stdio_output@@V?$positional_parameter_base@_WV?$stream_output_adapter@_W@__crt_stdio_output@@@2@@__crt_stdio_output@@AEAA_N_W@Z 00000001801e7820 f i libucrt:output.obj
 0001:001e6948       ?write_stored_string_tchar@?$output_processor@_WV?$stream_output_adapter@_W@__crt_stdio_output@@V?$standard_base@_WV?$stream_output_adapter@_W@__crt_stdio_output@@@2@@__crt_stdio_output@@AEAA_N_W@Z 00000001801e7948 f i libucrt:output.obj
 0001:001e6a70       ?write_stored_string_tchar@?$output_processor@_WV?$string_output_adapter@_W@__crt_stdio_output@@V?$format_validation_base@_WV?$string_output_adapter@_W@__crt_stdio_output@@@2@@__crt_stdio_output@@AEAA_N_W@Z 00000001801e7a70 f i libucrt:output.obj
 0001:001e6b98       ?write_stored_string_tchar@?$output_processor@_WV?$string_output_adapter@_W@__crt_stdio_output@@V?$positional_parameter_base@_WV?$string_output_adapter@_W@__crt_stdio_output@@@2@@__crt_stdio_output@@AEAA_N_W@Z 00000001801e7b98 f i libucrt:output.obj
 0001:001e6cc0       ?write_stored_string_tchar@?$output_processor@_WV?$string_output_adapter@_W@__crt_stdio_output@@V?$standard_base@_WV?$string_output_adapter@_W@__crt_stdio_output@@@2@@__crt_stdio_output@@AEAA_N_W@Z 00000001801e7cc0 f i libucrt:output.obj
 0001:001e6de8       ?write_string@?$stream_output_adapter@D@__crt_stdio_output@@QEBAXQEBDHQEAH1@Z 00000001801e7de8 f i libucrt:output.obj
 0001:001e6f1c       ?write_string@?$stream_output_adapter@_W@__crt_stdio_output@@QEBAXQEB_WHQEAH1@Z 00000001801e7f1c f i libucrt:output.obj
 0001:001e7068       ?write_string@?$string_output_adapter@D@__crt_stdio_output@@QEBAXQEBDHQEAH1@Z 00000001801e8068 f i libucrt:output.obj
 0001:001e7150       ?write_string@?$string_output_adapter@_W@__crt_stdio_output@@QEBAXQEB_WHQEAH1@Z 00000001801e8150 f i libucrt:output.obj
 0001:001e7240       __acrt_isleadbyte_l_noupdate 00000001801e8240 f i libucrt:output.obj
 0001:001e725c       __acrt_locale_changed      00000001801e825c f i libucrt:output.obj
 0001:001e726c       __stdio_common_vfprintf    00000001801e826c f   libucrt:output.obj
 0001:001e731c       __stdio_common_vfprintf_p  00000001801e831c f   libucrt:output.obj
 0001:001e73cc       __stdio_common_vfprintf_s  00000001801e83cc f   libucrt:output.obj
 0001:001e747c       __stdio_common_vfwprintf   00000001801e847c f   libucrt:output.obj
 0001:001e752c       __stdio_common_vfwprintf_p 00000001801e852c f   libucrt:output.obj
 0001:001e75dc       __stdio_common_vfwprintf_s 00000001801e85dc f   libucrt:output.obj
 0001:001e768c       __stdio_common_vsnprintf_s 00000001801e868c f   libucrt:output.obj
 0001:001e7840       __stdio_common_vsnwprintf_s 00000001801e8840 f   libucrt:output.obj
 0001:001e7a08       __stdio_common_vsprintf    00000001801e8a08 f   libucrt:output.obj
 0001:001e7cc8       __stdio_common_vsprintf_p  00000001801e8cc8 f   libucrt:output.obj
 0001:001e7f88       __stdio_common_vsprintf_s  00000001801e8f88 f   libucrt:output.obj
 0001:001e8004       __stdio_common_vswprintf   00000001801e9004 f   libucrt:output.obj
 0001:001e82c8       __stdio_common_vswprintf_p 00000001801e92c8 f   libucrt:output.obj
 0001:001e858c       __stdio_common_vswprintf_s 00000001801e958c f   libucrt:output.obj
 0001:001e8618       ??$is_overflow_condition@K@__crt_strtox@@YA_NIK@Z 00000001801e9618 f i libucrt:atox.obj
 0001:001e864c       ??$is_overflow_condition@_K@__crt_strtox@@YA_NI_K@Z 00000001801e964c f i libucrt:atox.obj
 0001:001e8690       ??$make_c_string_character_source@D$$T@__crt_strtox@@YA?AV?$c_string_character_source@D@0@QEBD$$T@Z 00000001801e9690 f i libucrt:atox.obj
 0001:001e86a8       ??$make_c_string_character_source@_W$$T@__crt_strtox@@YA?AV?$c_string_character_source@_W@0@QEB_W$$T@Z 00000001801e96a8 f i libucrt:atox.obj
 0001:001e86c0       ??$parse_integer@KV?$c_string_character_source@D@__crt_strtox@@@__crt_strtox@@YAKQEAU__crt_locale_pointers@@V?$c_string_character_source@D@0@H_N@Z 00000001801e96c0 f i libucrt:atox.obj
 0001:001e8a98       ??$parse_integer@KV?$c_string_character_source@_W@__crt_strtox@@@__crt_strtox@@YAKQEAU__crt_locale_pointers@@V?$c_string_character_source@_W@0@H_N@Z 00000001801e9a98 f i libucrt:atox.obj
 0001:001e9324       ??$parse_integer@_KV?$c_string_character_source@D@__crt_strtox@@@__crt_strtox@@YA_KQEAU__crt_locale_pointers@@V?$c_string_character_source@D@0@H_N@Z 00000001801ea324 f i libucrt:atox.obj
 0001:001e9724       ??$parse_integer@_KV?$c_string_character_source@_W@__crt_strtox@@@__crt_strtox@@YA_KQEAU__crt_locale_pointers@@V?$c_string_character_source@_W@0@H_N@Z 00000001801ea724 f i libucrt:atox.obj
 0001:001ea0cc       ??$parse_integer_from_string@JD$$T@__crt_strtox@@YAJQEBD$$THQEAU__crt_locale_pointers@@@Z 00000001801eb0cc f i libucrt:atox.obj
 0001:001ea118       ??$parse_integer_from_string@J_W$$T@__crt_strtox@@YAJQEB_W$$THQEAU__crt_locale_pointers@@@Z 00000001801eb118 f i libucrt:atox.obj
 0001:001ea164       ??$parse_integer_from_string@_JD$$T@__crt_strtox@@YA_JQEBD$$THQEAU__crt_locale_pointers@@@Z 00000001801eb164 f i libucrt:atox.obj
 0001:001ea1b0       ??$parse_integer_from_string@_J_W$$T@__crt_strtox@@YA_JQEB_W$$THQEAU__crt_locale_pointers@@@Z 00000001801eb1b0 f i libucrt:atox.obj
 0001:001ea1fc       ??0?$c_string_character_source@D@__crt_strtox@@QEAA@QEBDQEAPEBD@Z 00000001801eb1fc f i libucrt:atox.obj
 0001:001ea214       ??0?$c_string_character_source@_W@__crt_strtox@@QEAA@QEB_WQEAPEB_W@Z 00000001801eb214 f i libucrt:atox.obj
 0001:001ea22c       ??1?$c_string_character_source@D@__crt_strtox@@QEAA@XZ 00000001801eb22c f i libucrt:atox.obj
 0001:001ea240       ??1?$c_string_character_source@_W@__crt_strtox@@QEAA@XZ 00000001801eb240 f i libucrt:atox.obj
 0001:001ea254       ?get@?$c_string_character_source@D@__crt_strtox@@QEAADXZ 00000001801eb254 f i libucrt:atox.obj
 0001:001ea264       ?get@?$c_string_character_source@_W@__crt_strtox@@QEAA_WXZ 00000001801eb264 f i libucrt:atox.obj
 0001:001ea278       ?is_space@__crt_strtox@@YA_NDQEAU__crt_locale_pointers@@@Z 00000001801eb278 f i libucrt:atox.obj
 0001:001ea2e4       ?is_space@__crt_strtox@@YA_N_WPEAU__crt_locale_pointers@@@Z 00000001801eb2e4 f i libucrt:atox.obj
 0001:001ea304       ?maximum_signed_value@__crt_strtox@@YAJK@Z 00000001801eb304 f i libucrt:atox.obj
 0001:001ea30c       ?maximum_signed_value@__crt_strtox@@YA_J_K@Z 00000001801eb30c f i libucrt:atox.obj
 0001:001ea31c       ?minimum_signed_value@__crt_strtox@@YAJK@Z 00000001801eb31c f i libucrt:atox.obj
 0001:001ea324       ?minimum_signed_value@__crt_strtox@@YA_J_K@Z 00000001801eb324 f i libucrt:atox.obj
 0001:001ea334       ?parse_digit@__crt_strtox@@YAID@Z 00000001801eb334 f i libucrt:atox.obj
 0001:001ea370       ?parse_digit@__crt_strtox@@YAI_W@Z 00000001801eb370 f i libucrt:atox.obj
 0001:001ea5bc       ?restore_state@?$c_string_character_source@D@__crt_strtox@@QEAA_NQEBD@Z 00000001801eb5bc f i libucrt:atox.obj
 0001:001ea5c4       ?restore_state@?$c_string_character_source@_W@__crt_strtox@@QEAA_NQEB_W@Z 00000001801eb5c4 f i libucrt:atox.obj
 0001:001ea5cc       ?save_state@?$c_string_character_source@D@__crt_strtox@@QEBAPEBDXZ 00000001801eb5cc f i libucrt:atox.obj
 0001:001ea5d0       ?save_state@?$c_string_character_source@_W@__crt_strtox@@QEBAPEB_WXZ 00000001801eb5d0 f i libucrt:atox.obj
 0001:001ea5d4       ?unget@?$c_string_character_source@D@__crt_strtox@@QEAAXD@Z 00000001801eb5d4 f i libucrt:atox.obj
 0001:001ea604       ?unget@?$c_string_character_source@_W@__crt_strtox@@QEAAX_W@Z 00000001801eb604 f i libucrt:atox.obj
 0001:001ea638       ?validate@?$c_string_character_source@D@__crt_strtox@@QEBA_NXZ 00000001801eb638 f i libucrt:atox.obj
 0001:001ea668       ?validate@?$c_string_character_source@_W@__crt_strtox@@QEBA_NXZ 00000001801eb668 f i libucrt:atox.obj
 0001:001ea698       ?wide_character_to_digit@__crt_strtox@@YAH_W@Z 00000001801eb698 f i libucrt:atox.obj
 0001:001ea894       __acrt_get_locale_data_prefix 00000001801eb894 f i libucrt:atox.obj
 0001:001ea898       _atoi64                    00000001801eb898 f   libucrt:atox.obj
 0001:001ea8cc       _atoi64_l                  00000001801eb8cc f   libucrt:atox.obj
 0001:001ea90c       _atoi_l                    00000001801eb90c f   libucrt:atox.obj
 0001:001ea94c       _atol_l                    00000001801eb94c f   libucrt:atox.obj
 0001:001ea98c       _atoll_l                   00000001801eb98c f   libucrt:atox.obj
 0001:001ea9cc       _chvalidchk_l              00000001801eb9cc f i libucrt:atox.obj
 0001:001eaa14       _ischartype_l              00000001801eba14 f i libucrt:atox.obj
 0001:001eaa6c       _wtoi                      00000001801eba6c f   libucrt:atox.obj
 0001:001eaaa0       _wtoi64                    00000001801ebaa0 f   libucrt:atox.obj
 0001:001eaad4       _wtoi64_l                  00000001801ebad4 f   libucrt:atox.obj
 0001:001eab14       _wtoi_l                    00000001801ebb14 f   libucrt:atox.obj
 0001:001eab54       _wtol                      00000001801ebb54 f   libucrt:atox.obj
 0001:001eab88       _wtol_l                    00000001801ebb88 f   libucrt:atox.obj
 0001:001eabc8       _wtoll                     00000001801ebbc8 f   libucrt:atox.obj
 0001:001eabfc       _wtoll_l                   00000001801ebbfc f   libucrt:atox.obj
