 PhysX3CommonCHECKED_x64

 Timestamp is 5917815b (Sat May 13 23:57:47 2017)

 Preferred load address is 0000000180000000

 Start         Length     Name                   Class
 0001:00000000 0000f9c0H .text$di                CODE
 0001:0000f9c0 00200ef0H .text$mn                CODE
 0001:002108b0 00001020H .text$mn$00             CODE
 0001:002118d0 000017ceH .text$x                 CODE
 0002:00000000 00000110H .CRT$XCA                DATA
 0002:00000110 00001cc8H .CRT$XCU                DATA
 0002:00001dd8 00000110H .CRT$XCZ                DATA
 0002:00001ee8 00000110H .CRT$XIA                DATA
 0002:00001ff8 00000130H .CRT$XIC                DATA
 0002:00002128 00000110H .CRT$XIZ                DATA
 0002:00002238 00000110H .CRT$XPA                DATA
 0002:00002348 00000120H .CRT$XPX                DATA
 0002:00002468 00000110H .CRT$XPXA               DATA
 0002:00002578 00000110H .CRT$XPZ                DATA
 0002:00002688 00000110H .CRT$XTA                DATA
 0002:00002798 00000118H .CRT$XTZ                DATA
 0002:000028b0 000122b8H .rdata                  DATA
 0002:00014b68 000004ecH .rdata$r                DATA
 0002:00015054 0000018cH .rdata$zzzdbg           DATA
 0002:000151e0 00000110H .rtc$IAA                DATA
 0002:000152f0 00000110H .rtc$IZZ                DATA
 0002:00015400 00000110H .rtc$TAA                DATA
 0002:00015510 00000110H .rtc$TZZ                DATA
 0002:00015620 000162b0H .xdata                  DATA
 0002:0002b8d0 0000c6efH .edata                  DATA
 0003:00000000 00001918H .data                   DATA
 0003:00001918 00000618H .data$r                 DATA
 0003:00001f30 000056e1H .bss                    DATA
 0004:00000000 0000bc88H .pdata                  DATA
 0005:00000000 000003b8H .idata$5                DATA
 0005:000003b8 00000014H .idata$2                DATA
 0005:000003cc 00000014H .idata$3                DATA
 0005:000003e0 000003b8H .idata$4                DATA
 0005:00000798 00000871H .idata$6                DATA
 0006:00000000 00000020H .didat$2                DATA
 0006:00000020 00000020H .didat$3                DATA
 0006:00000040 00000128H .didat$4                DATA
 0006:00000168 00000128H .didat$5                DATA
 0006:00000290 00000590H .didat$6                DATA
 0006:00000820 000001caH .didat$7                DATA
 0007:00000000 00000220H .gfids$x                DATA
 0007:00000220 000001a5H .gfids$y                DATA
 0008:00000000 0000011bH .00cfg                  DATA
 0009:00000000 000001c0H .rsrc$01                DATA
 0009:000001c0 000006a9H .rsrc$02                DATA

  Address         Publics by Value              Rva+Base               Lib:Object

 0000:00000000       __dynamic_value_reloc_table 0000000000000000     <absolute>
 0000:00000000       ___safe_se_handler_count   0000000000000000     <absolute>
 0000:00000000       __guard_fids_table         0000000000000000     <absolute>
 0000:00000000       __guard_iat_count          0000000000000000     <absolute>
 0000:00000000       __guard_iat_table          0000000000000000     <absolute>
 0000:00000000       __guard_longjmp_count      0000000000000000     <absolute>
 0000:00000000       __guard_fids_count         0000000000000000     <absolute>
 0000:00000000       __guard_longjmp_table      0000000000000000     <absolute>
 0000:00000000       ___safe_se_handler_table   0000000000000000     <absolute>
 0000:00000100       __guard_flags              0000000000000100     <absolute>
 0000:00000000       __ImageBase                0000000180000000     <linker-defined>
 0001:0000f9c0       PxSetPhysXCommonDelayLoadHook 00000001800109c0 f   CmWindowsDelayLoadHook.obj
 0001:0000f9d0       ?delayHook@@YAP6A_JXZIPEAUDelayLoadInfo@@@Z 00000001800109d0 f   CmWindowsDelayLoadHook.obj
 0001:0000fa30       ?foundationDliNotePreLoadLibrary@shdfnd@physx@@YAP6A_JXZPEBDPEBVPxFoundationDelayLoadHook@2@@Z 0000000180010a30 f i CmWindowsDelayLoadHook.obj
 0001:0000fb50       ?physXCommonDliNotePreLoadLibrary@Cm@physx@@YAP6A_JXZPEBDPEBVPxDelayLoadHook@2@@Z 0000000180010b50 f i CmWindowsDelayLoadHook.obj
 0001:0000fd90       ??0CmModuleUpdateLoader@Cm@physx@@QEAA@PEBD@Z 0000000180010d90 f   CmWindowsModuleUpdateLoader.obj
 0001:0000fde0       ??1CmModuleUpdateLoader@Cm@physx@@QEAA@XZ 0000000180010de0 f   CmWindowsModuleUpdateLoader.obj
 0001:0000fe10       ?LoadModule@CmModuleUpdateLoader@Cm@physx@@QEAAPEAUHINSTANCE__@@PEBD0@Z 0000000180010e10 f   CmWindowsModuleUpdateLoader.obj
 0001:0000fe60       ??0Allocator@shdfnd@physx@@QEAA@PEBD@Z 0000000180010e60 f i CmWindowsModuleUpdateLoader.obj
 0001:0000fe70       ??0PxFoundation@physx@@QEAA@AEBV01@@Z 0000000180010e70 f i CmWindowsModuleUpdateLoader.obj
 0001:0000fe90       ??0PxFoundation@physx@@QEAA@XZ 0000000180010e90 f i CmWindowsModuleUpdateLoader.obj
 0001:0000feb0       ??1PxFoundation@physx@@MEAA@XZ 0000000180010eb0 f i CmWindowsModuleUpdateLoader.obj
 0001:0000fec0       ??4Allocator@shdfnd@physx@@QEAAAEAV012@$$QEAV012@@Z 0000000180010ec0 f i CmWindowsModuleUpdateLoader.obj
 0001:0000fed0       ??4Allocator@shdfnd@physx@@QEAAAEAV012@AEBV012@@Z 0000000180010ed0 f i CmWindowsModuleUpdateLoader.obj
 0001:0000fee0       ??4CmModuleUpdateLoader@Cm@physx@@QEAAAEAV012@AEBV012@@Z 0000000180010ee0 f i CmWindowsModuleUpdateLoader.obj
 0001:0000fef0       ??4MutexImpl@shdfnd@physx@@QEAAAEAV012@AEBV012@@Z 0000000180010ef0 f i CmWindowsModuleUpdateLoader.obj
 0001:0000ff00       ??4PxFoundation@physx@@QEAAAEAV01@AEBV01@@Z 0000000180010f00 f i CmWindowsModuleUpdateLoader.obj
 0001:0000ff10       ??_EPxFoundation@physx@@MEAAPEAXI@Z 0000000180010f10 f i CmWindowsModuleUpdateLoader.obj
 0001:0000ffc0       ??_FAllocator@shdfnd@physx@@QEAAXXZ 0000000180010fc0 f i CmWindowsModuleUpdateLoader.obj
 0001:0000ffd0       ??_FNamedAllocator@shdfnd@physx@@QEAAXXZ 0000000180010fd0 f i CmWindowsModuleUpdateLoader.obj
 0001:0000ffe0       ??_GPxFoundation@physx@@MEAAPEAXI@Z 0000000180010fe0 f i CmWindowsModuleUpdateLoader.obj
 0001:00010020       ??_I@YAXPEAX_K1P6AX0@Z@Z   0000000180011020 f i CmWindowsModuleUpdateLoader.obj
 0001:00010090       ?__empty_global_delete@@YAXPEAX@Z 0000000180011090 f i CmWindowsModuleUpdateLoader.obj
 0001:000100a0       ?__empty_global_delete@@YAXPEAX_K@Z 00000001800110a0 f i CmWindowsModuleUpdateLoader.obj
 0001:000100b0       ?getAllocator@Foundation@shdfnd@physx@@QEAAAEAVPxAllocatorCallback@3@XZ 00000001800110b0 f i CmWindowsModuleUpdateLoader.obj
 0001:000100c0       ?getAllocatorCallback@Foundation@shdfnd@physx@@UEAAAEAVPxAllocatorCallback@3@XZ 00000001800110c0 f i CmWindowsModuleUpdateLoader.obj
 0001:000100d0       ?getErrorCallback@Foundation@shdfnd@physx@@UEAAAEAVPxErrorCallback@3@XZ 00000001800110d0 f i CmWindowsModuleUpdateLoader.obj
 0001:000100e0       ?getErrorLevel@Foundation@shdfnd@physx@@UEBA?AW4Enum@PxErrorCode@3@XZ 00000001800110e0 f i CmWindowsModuleUpdateLoader.obj
 0001:000100f0       ?getInternalErrorCallback@Foundation@shdfnd@physx@@QEAAAEAVPxErrorCallback@3@XZ 00000001800110f0 f i CmWindowsModuleUpdateLoader.obj
 0001:00010100       ?getNamedAllocMap@Foundation@shdfnd@physx@@QEAAAEAV?$HashMap@PEBVNamedAllocator@shdfnd@physx@@PEBDU?$Hash@PEBVNamedAllocator@shdfnd@physx@@@23@VNonTrackingAllocator@23@@23@XZ 0000000180011100 f i CmWindowsModuleUpdateLoader.obj
 0001:00010110       ?getNamedAllocMutex@Foundation@shdfnd@physx@@QEAAAEAV?$MutexT@VAllocator@shdfnd@physx@@@23@XZ 0000000180011110 f i CmWindowsModuleUpdateLoader.obj
 0001:00010120       ?getReportAllocationNames@Foundation@shdfnd@physx@@UEBA_NXZ 0000000180011120 f i CmWindowsModuleUpdateLoader.obj
 0001:00010130       ?getTempAllocFreeTable@Foundation@shdfnd@physx@@QEAAAEAV?$Array@PEATTempAllocatorChunk@shdfnd@physx@@VAllocator@23@@23@XZ 0000000180011130 f i CmWindowsModuleUpdateLoader.obj
 0001:00010140       ?getTempAllocMutex@Foundation@shdfnd@physx@@QEAAAEAV?$MutexT@VAllocator@shdfnd@physx@@@23@XZ 0000000180011140 f i CmWindowsModuleUpdateLoader.obj
 0001:00010150       ?setErrorLevel@Foundation@shdfnd@physx@@UEAAXW4Enum@PxErrorCode@3@@Z 0000000180011150 f i CmWindowsModuleUpdateLoader.obj
 0001:00010160       ?setReportAllocationNames@Foundation@shdfnd@physx@@UEAAX_N@Z 0000000180011160 f i CmWindowsModuleUpdateLoader.obj
 0001:00010170       ?CompleteBoxPruning@Cm@physx@@YA_NPEBVPxBounds3@2@IAEAV?$Array@IVNamedAllocator@shdfnd@physx@@@shdfnd@2@AEBVAxes@Gu@2@@Z 0000000180011170 f   CmBoxPruning.obj
 0001:00010480       ?BipartiteBoxPruning@Cm@physx@@YA_NPEBVPxBounds3@2@I0IAEAV?$Array@IVNamedAllocator@shdfnd@physx@@@shdfnd@2@AEBVAxes@Gu@2@@Z 0000000180011480 f   CmBoxPruning.obj
 0001:00010ce0       ?GetNbHits@RadixSort@Cm@physx@@QEBAIXZ 0000000180011ce0 f i CmBoxPruning.obj
 0001:00010cf0       ?GetNbTotalCalls@RadixSort@Cm@physx@@QEBAIXZ 0000000180011cf0 f i CmBoxPruning.obj
 0001:00010d00       ?GetRanks@RadixSort@Cm@physx@@QEBAPEBIXZ 0000000180011d00 f i CmBoxPruning.obj
 0001:00010d10       ?GetRecyclable@RadixSort@Cm@physx@@QEBAPEAIXZ 0000000180011d10 f i CmBoxPruning.obj
 0001:00010d20       ?growAndPushBack@?$Array@IVNamedAllocator@shdfnd@physx@@@shdfnd@physx@@IEAAAEAIAEBI@Z 0000000180011d20 f i CmBoxPruning.obj
 0001:00010e30       ?PxCreateCollection@@YAPEAVPxCollection@physx@@XZ 0000000180011e30 f   CmCollection.obj
 0001:00010eb0       ?add@Collection@Cm@physx@@UEAAXAEAVPxBase@3@_K@Z 0000000180011eb0 f   CmCollection.obj
 0001:00010fb0       ?remove@Collection@Cm@physx@@UEAAXAEAVPxBase@3@@Z 0000000180011fb0 f   CmCollection.obj
 0001:00011100       ?contains@Collection@Cm@physx@@UEBA_NAEAVPxBase@3@@Z 0000000180012100 f   CmCollection.obj
 0001:000111c0       ?addId@Collection@Cm@physx@@UEAAXAEAVPxBase@3@_K@Z 00000001800121c0 f   CmCollection.obj
 0001:000113b0       ?removeId@Collection@Cm@physx@@UEAAX_K@Z 00000001800123b0 f   CmCollection.obj
 0001:000114a0       ?find@Collection@Cm@physx@@UEBAPEAVPxBase@3@_K@Z 00000001800124a0 f   CmCollection.obj
 0001:00011510       ?add@Collection@Cm@physx@@UEAAXAEAVPxCollection@3@@Z 0000000180012510 f   CmCollection.obj
 0001:00011750       ?remove@Collection@Cm@physx@@UEAAXAEAVPxCollection@3@@Z 0000000180012750 f   CmCollection.obj
 0001:00011820       ?getNbObjects@Collection@Cm@physx@@UEBAIXZ 0000000180012820 f   CmCollection.obj
 0001:00011830       ?getObject@Collection@Cm@physx@@UEBAAEAVPxBase@3@I@Z 0000000180012830 f   CmCollection.obj
 0001:00011850       ?getObjects@Collection@Cm@physx@@UEBAIPEAPEAVPxBase@3@II@Z 0000000180012850 f   CmCollection.obj
 0001:000118f0       ?getNbIds@Collection@Cm@physx@@UEBAIXZ 00000001800128f0 f   CmCollection.obj
 0001:00011900       ?getId@Collection@Cm@physx@@UEBA_KAEBVPxBase@3@@Z 0000000180012900 f   CmCollection.obj
 0001:000119c0       ?getIds@Collection@Cm@physx@@UEBAIPEA_KII@Z 00000001800129c0 f   CmCollection.obj
 0001:00011e00       ??0Collection@Cm@physx@@QEAA@XZ 0000000180012e00 f i CmCollection.obj
 0001:00011eb0       ??1PxCollection@physx@@MEAA@XZ 0000000180012eb0 f i CmCollection.obj
 0001:00011ec0       ??_ECollection@Cm@physx@@UEAAPEAXI@Z 0000000180012ec0 f i CmCollection.obj
 0001:00011ec0       ??_GCollection@Cm@physx@@UEAAPEAXI@Z 0000000180012ec0 f i CmCollection.obj
 0001:00011f90       ??_EPxCollection@physx@@MEAAPEAXI@Z 0000000180012f90 f i CmCollection.obj
 0001:00011f90       ??_GPxCollection@physx@@MEAAPEAXI@Z 0000000180012f90 f i CmCollection.obj
 0001:00011fd0       ?create@?$HashBase@V?$Pair@$$CB_KPEAVPxBase@physx@@@shdfnd@physx@@_KU?$Hash@_K@23@UGetKey@?$HashMapBase@_KPEAVPxBase@physx@@U?$Hash@_K@shdfnd@2@VNonTrackingAllocator@42@@internal@23@VNonTrackingAllocator@23@$00@internal@shdfnd@physx@@QEAAPEAV?$Pair@$$CB_KPEAVPxBase@physx@@@34@AEB_KAEA_N@Z 0000000180012fd0 f i CmCollection.obj
 0001:000121d0       ?create@?$HashBase@V?$Pair@QEAVPxBase@physx@@_K@shdfnd@physx@@PEAVPxBase@3@U?$Hash@PEAVPxBase@physx@@@23@UGetKey@?$HashMapBase@PEAVPxBase@physx@@_KU?$Hash@PEAVPxBase@physx@@@shdfnd@2@VNonTrackingAllocator@42@@internal@23@VNonTrackingAllocator@23@$00@internal@shdfnd@physx@@QEAAPEAV?$Pair@QEAVPxBase@physx@@_K@34@AEBQEAVPxBase@4@AEA_N@Z 00000001800131d0 f i CmCollection.obj
 0001:000123d0       ?erase@?$HashBase@V?$Pair@$$CB_KPEAVPxBase@physx@@@shdfnd@physx@@_KU?$Hash@_K@23@UGetKey@?$HashMapBase@_KPEAVPxBase@physx@@U?$Hash@_K@shdfnd@2@VNonTrackingAllocator@42@@internal@23@VNonTrackingAllocator@23@$00@internal@shdfnd@physx@@QEAA_NAEB_K@Z 00000001800133d0 f i CmCollection.obj
 0001:000124f0       ?erase@?$HashBase@V?$Pair@QEAVPxBase@physx@@_K@shdfnd@physx@@PEAVPxBase@3@U?$Hash@PEAVPxBase@physx@@@23@UGetKey@?$HashMapBase@PEAVPxBase@physx@@_KU?$Hash@PEAVPxBase@physx@@@shdfnd@2@VNonTrackingAllocator@42@@internal@23@VNonTrackingAllocator@23@$00@internal@shdfnd@physx@@QEAA_NAEBQEAVPxBase@4@@Z 00000001800134f0 f i CmCollection.obj
 0001:00012610       ?find@?$HashBase@V?$Pair@$$CB_KPEAVPxBase@physx@@@shdfnd@physx@@_KU?$Hash@_K@23@UGetKey@?$HashMapBase@_KPEAVPxBase@physx@@U?$Hash@_K@shdfnd@2@VNonTrackingAllocator@42@@internal@23@VNonTrackingAllocator@23@$00@internal@shdfnd@physx@@QEBAPEBV?$Pair@$$CB_KPEAVPxBase@physx@@@34@AEB_K@Z 0000000180013610 f i CmCollection.obj
 0001:000126f0       ?find@?$HashBase@V?$Pair@QEAVPxBase@physx@@_K@shdfnd@physx@@PEAVPxBase@3@U?$Hash@PEAVPxBase@physx@@@23@UGetKey@?$HashMapBase@PEAVPxBase@physx@@_KU?$Hash@PEAVPxBase@physx@@@shdfnd@2@VNonTrackingAllocator@42@@internal@23@VNonTrackingAllocator@23@$00@internal@shdfnd@physx@@QEBAPEBV?$Pair@QEAVPxBase@physx@@_K@34@AEBQEAVPxBase@4@@Z 00000001800136f0 f i CmCollection.obj
 0001:000127d0       ?insert@?$HashMapBase@_KPEAVPxBase@physx@@U?$Hash@_K@shdfnd@2@VNonTrackingAllocator@42@@internal@shdfnd@physx@@QEAA_N_KQEAVPxBase@4@@Z 00000001800137d0 f i CmCollection.obj
 0001:00012830       ?release@Collection@Cm@physx@@UEAAXXZ 0000000180013830 f i CmCollection.obj
 0001:00012850       ?replaceWithLast@?$HashBase@V?$Pair@$$CB_KPEAVPxBase@physx@@@shdfnd@physx@@_KU?$Hash@_K@23@UGetKey@?$HashMapBase@_KPEAVPxBase@physx@@U?$Hash@_K@shdfnd@2@VNonTrackingAllocator@42@@internal@23@VNonTrackingAllocator@23@$00@internal@shdfnd@physx@@AEAAXI@Z 0000000180013850 f i CmCollection.obj
 0001:00012980       ?replaceWithLast@?$HashBase@V?$Pair@QEAVPxBase@physx@@_K@shdfnd@physx@@PEAVPxBase@3@U?$Hash@PEAVPxBase@physx@@@23@UGetKey@?$HashMapBase@PEAVPxBase@physx@@_KU?$Hash@PEAVPxBase@physx@@@shdfnd@2@VNonTrackingAllocator@42@@internal@23@VNonTrackingAllocator@23@$00@internal@shdfnd@physx@@AEAAXI@Z 0000000180013980 f i CmCollection.obj
 0001:00012ab0       ?reserveInternal@?$HashBase@V?$Pair@$$CB_KPEAVPxBase@physx@@@shdfnd@physx@@_KU?$Hash@_K@23@UGetKey@?$HashMapBase@_KPEAVPxBase@physx@@U?$Hash@_K@shdfnd@2@VNonTrackingAllocator@42@@internal@23@VNonTrackingAllocator@23@$00@internal@shdfnd@physx@@AEAAXI@Z 0000000180013ab0 f i CmCollection.obj
 0001:00012d20       ?reserveInternal@?$HashBase@V?$Pair@QEAVPxBase@physx@@_K@shdfnd@physx@@PEAVPxBase@3@U?$Hash@PEAVPxBase@physx@@@23@UGetKey@?$HashMapBase@PEAVPxBase@physx@@_KU?$Hash@PEAVPxBase@physx@@@shdfnd@2@VNonTrackingAllocator@42@@internal@23@VNonTrackingAllocator@23@$00@internal@shdfnd@physx@@AEAAXI@Z 0000000180013d20 f i CmCollection.obj
 0001:00012f90       ?PxTransformFromPlaneEquation@physx@@YA?AVPxTransform@1@AEBVPxPlane@1@@Z 0000000180013f90 f   CmMathUtils.obj
 0001:00013150       ?PxTransformFromSegment@physx@@YA?AVPxTransform@1@AEBVPxVec3@1@0PEAM@Z 0000000180014150 f   CmMathUtils.obj
 0001:00013380       ??0PtrTable@Cm@physx@@QEAA@XZ 0000000180014380 f   CmPtrTable.obj
 0001:000133a0       ??1PtrTable@Cm@physx@@QEAA@XZ 00000001800143a0 f   CmPtrTable.obj
 0001:000133b0       ?add@PtrTable@Cm@physx@@QEAAXPEAXAEAVPtrTableStorageManager@23@@Z 00000001800143b0 f   CmPtrTable.obj
 0001:00013490       ?replaceWithLast@PtrTable@Cm@physx@@QEAAXIAEAVPtrTableStorageManager@23@@Z 0000000180014490 f   CmPtrTable.obj
 0001:00013590       ?clear@PtrTable@Cm@physx@@QEAAXAEAVPtrTableStorageManager@23@@Z 0000000180014590 f   CmPtrTable.obj
 0001:00013610       ?find@PtrTable@Cm@physx@@QEBAIPEBX@Z 0000000180014610 f   CmPtrTable.obj
 0001:00013640       ?exportExtraData@PtrTable@Cm@physx@@QEAAXAEAVPxSerializationContext@3@@Z 0000000180014640 f   CmPtrTable.obj
 0001:00013690       ?importExtraData@PtrTable@Cm@physx@@QEAAXAEAVPxDeserializationContext@3@@Z 0000000180014690 f   CmPtrTable.obj
 0001:000136c0       ?getBinaryMetaData@PtrTable@Cm@physx@@SAXAEAVPxOutputStream@3@@Z 00000001800146c0 f   CmPtrTable.obj
 0001:00013880       ?realloc@PtrTable@Cm@physx@@AEAAXIIAEAVPtrTableStorageManager@23@@Z 0000000180014880 f   CmPtrTable.obj
 0001:00013a80       ??0PtrTable@Cm@physx@@QEAA@W4PxEMPTY@2@@Z 0000000180014a80 f i CmPtrTable.obj
 0001:00013ab0       ??4PtrTable@Cm@physx@@QEAAAEAU012@AEBU012@@Z 0000000180014ab0 f i CmPtrTable.obj
 0001:00013ac0       ?getCount@PtrTable@Cm@physx@@QEBAIXZ 0000000180014ac0 f i CmPtrTable.obj
 0001:00013ad0       ?getPtrs@PtrTable@Cm@physx@@QEAAPEAPEAXXZ 0000000180014ad0 f i CmPtrTable.obj
 0001:00013af0       ?getPtrs@PtrTable@Cm@physx@@QEBAPEBQEAXXZ 0000000180014af0 f i CmPtrTable.obj
 0001:00013b10       ??0RadixSort@Cm@physx@@QEAA@XZ 0000000180014b10 f   CmRadixSort.obj
 0001:00013b50       ??1RadixSort@Cm@physx@@UEAA@XZ 0000000180014b50 f   CmRadixSort.obj
 0001:00013b70       ?Sort@RadixSort@Cm@physx@@QEAAAEAV123@PEBIIW4RadixHint@23@@Z 0000000180014b70 f   CmRadixSort.obj
 0001:00014190       ?Sort@RadixSort@Cm@physx@@QEAAAEAV123@PEBMI@Z 0000000180015190 f   CmRadixSort.obj
 0001:00014850       ?SetBuffers@RadixSort@Cm@physx@@QEAA_NPEAI00PEAPEAI@Z 0000000180015850 f   CmRadixSort.obj
 0001:00014bf0       ??_ERadixSort@Cm@physx@@UEAAPEAXI@Z 0000000180015bf0 f i CmRadixSort.obj
 0001:00014ca0       ??_GRadixSort@Cm@physx@@UEAAPEAXI@Z 0000000180015ca0 f i CmRadixSort.obj
 0001:00014ce0       ??0RadixSortBuffered@Cm@physx@@QEAA@XZ 0000000180015ce0 f   CmRadixSortBuffered.obj
 0001:00014d10       ??1RadixSortBuffered@Cm@physx@@UEAA@XZ 0000000180015d10 f   CmRadixSortBuffered.obj
 0001:00014d90       ?Sort@RadixSortBuffered@Cm@physx@@QEAAAEAV123@PEBIIW4RadixHint@23@@Z 0000000180015d90 f   CmRadixSortBuffered.obj
 0001:00014e30       ?Sort@RadixSortBuffered@Cm@physx@@QEAAAEAV123@PEBMI@Z 0000000180015e30 f   CmRadixSortBuffered.obj
 0001:00014ec0       ?Resize@RadixSortBuffered@Cm@physx@@AEAA_NI@Z 0000000180015ec0 f   CmRadixSortBuffered.obj
 0001:00015060       ??_ERadixSortBuffered@Cm@physx@@UEAAPEAXI@Z 0000000180016060 f i CmRadixSortBuffered.obj
 0001:000151b0       ??_GRadixSortBuffered@Cm@physx@@UEAAPEAXI@Z 00000001800161b0 f i CmRadixSortBuffered.obj
 0001:00015200       ?CheckResize@RadixSortBuffered@Cm@physx@@AEAAXI@Z 0000000180016200 f i CmRadixSortBuffered.obj
 0001:00015250       ??6RenderOutput@Cm@physx@@QEAAAEAV012@W4Primitive@012@@Z 0000000180016250 f   CmRenderOutput.obj
 0001:00015270       ??6RenderOutput@Cm@physx@@QEAAAEAV012@I@Z 0000000180016270 f   CmRenderOutput.obj
 0001:00015280       ??6RenderOutput@Cm@physx@@QEAAAEAV012@AEBVPxMat44@2@@Z 0000000180016280 f   CmRenderOutput.obj
 0001:000152f0       ??6RenderOutput@Cm@physx@@QEAAAEAV012@AEBVPxTransform@2@@Z 00000001800162f0 f   CmRenderOutput.obj
 0001:00015380       ??6RenderOutput@Cm@physx@@QEAAAEAV012@VPxVec3@2@@Z 0000000180016380 f   CmRenderOutput.obj
 0001:00015850       ??6RenderOutput@Cm@physx@@QEAAAEAV012@AEBUDebugText@12@@Z 0000000180016850 f   CmRenderOutput.obj
 0001:00015a20       ?outputCapsule@RenderOutput@Cm@physx@@QEAAAEAV123@MMAEBVPxMat44@3@@Z 0000000180016a20 f   CmRenderOutput.obj
 0001:000165b0       ??0DebugText@Cm@physx@@QEAA@AEBVPxVec3@2@MPEBDZZ 00000001800175b0 f   CmRenderOutput.obj
 0001:00016610       ??6Cm@physx@@YAAEAVRenderOutput@01@AEAV201@AEBUDebugBox@01@@Z 0000000180017610 f   CmRenderOutput.obj
 0001:00016b10       ??6Cm@physx@@YAAEAVRenderOutput@01@AEAV201@AEBUDebugArrow@01@@Z 0000000180017b10 f   CmRenderOutput.obj
 0001:00016f00       ??6Cm@physx@@YAAEAVRenderOutput@01@AEAV201@AEBUDebugBasis@01@@Z 0000000180017f00 f   CmRenderOutput.obj
 0001:00017000       ??6Cm@physx@@YAAEAVRenderOutput@01@AEAV201@AEBUDebugCircle@01@@Z 0000000180018000 f   CmRenderOutput.obj
 0001:000170f0       ??6Cm@physx@@YAAEAVRenderOutput@01@AEAV201@AEBUDebugArc@01@@Z 00000001800180f0 f   CmRenderOutput.obj
 0001:000179e0       ??$__vcrt_va_start_verify_argument_type@PEBD@@YAXXZ 00000001800189e0 f i CmRenderOutput.obj
 0001:000179f0       ??0DebugText@Cm@physx@@QEAA@$$QEAU012@@Z 00000001800189f0 f i CmRenderOutput.obj
 0001:00017b10       ??0DebugText@Cm@physx@@QEAA@AEBU012@@Z 0000000180018b10 f i CmRenderOutput.obj
 0001:00017c30       ??0PxMat44@physx@@QEAA@AEBVPxTransform@1@@Z 0000000180018c30 f i CmRenderOutput.obj
 0001:00017e40       ??0RenderOutput@Cm@physx@@QEAA@AEAVRenderBuffer@12@@Z 0000000180018e40 f i CmRenderOutput.obj
 0001:00017eb0       ??0RenderOutput@Cm@physx@@QEAA@AEBV012@@Z 0000000180018eb0 f i CmRenderOutput.obj
 0001:00017f80       ??4DebugText@Cm@physx@@QEAAAEAU012@$$QEAU012@@Z 0000000180018f80 f i CmRenderOutput.obj
 0001:00018010       ??4DebugText@Cm@physx@@QEAAAEAU012@AEBU012@@Z 0000000180019010 f i CmRenderOutput.obj
 0001:000180a0       ?copy@?$Array@UPxDebugLine@physx@@VNamedAllocator@shdfnd@2@@shdfnd@physx@@KAXPEAUPxDebugLine@3@0PEBU43@@Z 00000001800190a0 f i CmRenderOutput.obj
 0001:000182b0       ?copy@?$Array@UPxDebugPoint@physx@@VNamedAllocator@shdfnd@2@@shdfnd@physx@@KAXPEAUPxDebugPoint@3@0PEBU43@@Z 00000001800192b0 f i CmRenderOutput.obj
 0001:00018420       ?copy@?$Array@UPxDebugText@physx@@VNamedAllocator@shdfnd@2@@shdfnd@physx@@KAXPEAUPxDebugText@3@0PEBU43@@Z 0000000180019420 f i CmRenderOutput.obj
 0001:000185f0       ?copy@?$Array@UPxDebugTriangle@physx@@VNamedAllocator@shdfnd@2@@shdfnd@physx@@KAXPEAUPxDebugTriangle@3@0PEBU43@@Z 00000001800195f0 f i CmRenderOutput.obj
 0001:000188c0       ?growAndPushBack@?$Array@DVNamedAllocator@shdfnd@physx@@@shdfnd@physx@@IEAAAEADAEBD@Z 00000001800198c0 f i CmRenderOutput.obj
 0001:000189d0       ?growAndPushBack@?$Array@UPxDebugLine@physx@@VNamedAllocator@shdfnd@2@@shdfnd@physx@@IEAAAEAUPxDebugLine@3@AEBU43@@Z 00000001800199d0 f i CmRenderOutput.obj
 0001:00018b10       ?growAndPushBack@?$Array@UPxDebugPoint@physx@@VNamedAllocator@shdfnd@2@@shdfnd@physx@@IEAAAEAUPxDebugPoint@3@AEBU43@@Z 0000000180019b10 f i CmRenderOutput.obj
 0001:00018c30       ?growAndPushBack@?$Array@UPxDebugText@physx@@VNamedAllocator@shdfnd@2@@shdfnd@physx@@IEAAAEAUPxDebugText@3@AEBU43@@Z 0000000180019c30 f i CmRenderOutput.obj
 0001:00018d60       ?growAndPushBack@?$Array@UPxDebugTriangle@physx@@VNamedAllocator@shdfnd@2@@shdfnd@physx@@IEAAAEAUPxDebugTriangle@3@AEBU43@@Z 0000000180019d60 f i CmRenderOutput.obj
 0001:00018ed0       ?outputSegment@RenderOutput@Cm@physx@@QEAAXAEBVPxVec3@3@0@Z 0000000180019ed0 f i CmRenderOutput.obj
 0001:00018fc0       ?recreate@?$Array@DVNamedAllocator@shdfnd@physx@@@shdfnd@physx@@IEAAXI@Z 0000000180019fc0 f i CmRenderOutput.obj
 0001:00019090       ?recreate@?$Array@UPxDebugLine@physx@@VNamedAllocator@shdfnd@2@@shdfnd@physx@@IEAAXI@Z 000000018001a090 f i CmRenderOutput.obj
 0001:00019150       ?reserveSegments@RenderOutput@Cm@physx@@QEAAPEAUPxDebugLine@3@I@Z 000000018001a150 f i CmRenderOutput.obj
 0001:000191c0       ?transform@PxMat44@physx@@QEBA?BVPxVec4@2@AEBV32@@Z 000000018001a1c0 f i CmRenderOutput.obj
 0001:00019380       ?visualizeJointFrames@Cm@physx@@YAXAEAVRenderOutput@12@MAEBVPxTransform@2@1@Z 000000018001a380 f   CmVisualization.obj
 0001:00019450       ?visualizeLinearLimit@Cm@physx@@YAXAEAVRenderOutput@12@MAEBVPxTransform@2@1M_N@Z 000000018001a450 f   CmVisualization.obj
 0001:000196a0       ?visualizeAngularLimit@Cm@physx@@YAXAEAVRenderOutput@12@MAEBVPxTransform@2@MM_N@Z 000000018001a6a0 f   CmVisualization.obj
 0001:00019890       ?visualizeLimitCone@Cm@physx@@YAXAEAVRenderOutput@12@MAEBVPxTransform@2@MM_N@Z 000000018001a890 f   CmVisualization.obj
 0001:00019bb0       ?visualizeDoubleCone@Cm@physx@@YAXAEAVRenderOutput@12@MAEBVPxTransform@2@M_N@Z 000000018001abb0 f   CmVisualization.obj
 0001:0001a0c0       ??DPxQuat@physx@@QEBA?AV01@AEBV01@@Z 000000018001b0c0 f i CmVisualization.obj
 0001:0001a240       ?contactBoxBox@Gu@physx@@YA_NAEBVGeometryUnion@12@0AEBVPxTransform@2@1AEBUNarrowPhaseParams@12@AEAUCache@12@AEAVContactBuffer@12@PEAVRenderOutput@Cm@2@@Z 000000018001b240 f   GuContactBoxBox.obj
 0001:0001a5f0       ??0Box@Gu@physx@@QEAA@AEBV012@@Z 000000018001b5f0 f i GuContactBoxBox.obj
 0001:0001a670       ??0Box@Gu@physx@@QEAA@AEBVPxVec3@2@0AEBVPxMat33@2@@Z 000000018001b670 f i GuContactBoxBox.obj
 0001:0001a6f0       ??0Box@Gu@physx@@QEAA@XZ   000000018001b6f0 f i GuContactBoxBox.obj
 0001:0001a700       ??0GeometryUnion@Gu@physx@@QEAA@AEBVPxGeometry@2@@Z 000000018001b700 f i GuContactBoxBox.obj
 0001:0001a720       ??0GeometryUnion@Gu@physx@@QEAA@W4PxEMPTY@2@@Z 000000018001b720 f i GuContactBoxBox.obj
 0001:0001a730       ??0GeometryUnion@Gu@physx@@QEAA@XZ 000000018001b730 f i GuContactBoxBox.obj
 0001:0001a740       ??0MaterialIndicesStruct@physx@@QEAA@W4PxEMPTY@1@@Z 000000018001b740 f i GuContactBoxBox.obj
 0001:0001a750       ??0MaterialIndicesStruct@physx@@QEAA@XZ 000000018001b750 f i GuContactBoxBox.obj
 0001:0001a760       ??0PxQuat@physx@@QEAA@AEBVPxMat33@1@@Z 000000018001b760 f i GuContactBoxBox.obj
 0001:0001a9e0       ??0PxVec3@physx@@QEAA@XZ   000000018001b9e0 f i GuContactBoxBox.obj
 0001:0001a9f0       ??0VertexInfo@@QEAA@XZ     000000018001b9f0 f i GuContactBoxBox.obj
 0001:0001aa00       ??1Box@Gu@physx@@QEAA@XZ   000000018001ba00 f i GuContactBoxBox.obj
 0001:0001aa10       ??1MaterialIndicesStruct@physx@@QEAA@XZ 000000018001ba10 f i GuContactBoxBox.obj
 0001:0001aa20       ??1PxBase@physx@@MEAA@XZ   000000018001ba20 f i GuContactBoxBox.obj
 0001:0001aa30       ??1PxConvexMesh@physx@@MEAA@XZ 000000018001ba30 f i GuContactBoxBox.obj
 0001:0001aa40       ??4Box@Gu@physx@@QEAAAEBV012@AEBV012@@Z 000000018001ba40 f i GuContactBoxBox.obj
 0001:0001aac0       ??4GeometryUnion@Gu@physx@@QEAAAEAV012@$$QEAV012@@Z 000000018001bac0 f i GuContactBoxBox.obj
 0001:0001ab00       ??4GeometryUnion@Gu@physx@@QEAAAEAV012@AEBV012@@Z 000000018001bb00 f i GuContactBoxBox.obj
 0001:0001ab40       ??4MaterialIndicesStruct@physx@@QEAAAEAU01@AEBU01@@Z 000000018001bb40 f i GuContactBoxBox.obj
 0001:0001ab50       ??_GPxBase@physx@@MEAAPEAXI@Z 000000018001bb50 f i GuContactBoxBox.obj
 0001:0001ab50       ??_EPxBase@physx@@MEAAPEAXI@Z 000000018001bb50 f i GuContactBoxBox.obj
 0001:0001ab90       ??_H@YAXPEAX_K1P6APEAX0@Z@Z 000000018001bb90 f i GuContactBoxBox.obj
 0001:0001abf0       ?allocate@MaterialIndicesStruct@physx@@QEAAXG@Z 000000018001bbf0 f i GuContactBoxBox.obj
 0001:0001ac70       ?computeAABBExtent@Box@Gu@physx@@QEBA?AVPxVec3@3@XZ 000000018001bc70 f i GuContactBoxBox.obj
 0001:0001ad60       ?computeBoxPoints@Box@Gu@physx@@QEBAXPEIAVPxVec3@3@@Z 000000018001bd60 f i GuContactBoxBox.obj
 0001:0001ada0       ?deallocate@MaterialIndicesStruct@physx@@QEAAXXZ 000000018001bda0 f i GuContactBoxBox.obj
 0001:0001e310       ?getConcreteTypeName@PxConvexMesh@physx@@UEBAPEBDXZ 000000018001f310 f i GuContactBoxBox.obj
 0001:0001e320       ?getGeometry@GeometryUnion@Gu@physx@@QEBAAEBVPxGeometry@3@XZ 000000018001f320 f i GuContactBoxBox.obj
 0001:0001e330       ?getTransform@Box@Gu@physx@@QEBA?AVPxTransform@3@XZ 000000018001f330 f i GuContactBoxBox.obj
 0001:0001e3a0       ?getType@GeometryUnion@Gu@physx@@QEBA?AW4Enum@PxGeometryType@3@XZ 000000018001f3a0 f i GuContactBoxBox.obj
 0001:0001e3b0       ?isKindOf@PxBase@physx@@MEBA_NPEBD@Z 000000018001f3b0 f i GuContactBoxBox.obj
 0001:0001e3f0       ?isKindOf@PxConvexMesh@physx@@MEBA_NPEBD@Z 000000018001f3f0 f i GuContactBoxBox.obj
 0001:0001e450       ?isReleasable@PxBase@physx@@UEBA_NXZ 000000018001f450 f i GuContactBoxBox.obj
 0001:0001e460       ?isValid@Box@Gu@physx@@QEBA_NXZ 000000018001f460 f i GuContactBoxBox.obj
 0001:0001e480       ?rotate@Box@Gu@physx@@QEBA?AVPxVec3@3@AEBV43@@Z 000000018001f480 f i GuContactBoxBox.obj
 0001:0001e550       ?rotateInv@Box@Gu@physx@@QEBA?AVPxVec3@3@AEBV43@@Z 000000018001f550 f i GuContactBoxBox.obj
 0001:0001e600       ?setAxes@Box@Gu@physx@@QEAAXAEBVPxVec3@3@00@Z 000000018001f600 f i GuContactBoxBox.obj
 0001:0001e650       ?setEmpty@Box@Gu@physx@@QEAAXXZ 000000018001f650 f i GuContactBoxBox.obj
 0001:0001e6a0       ?transform@Box@Gu@physx@@QEBA?AVPxVec3@3@AEBV43@@Z 000000018001f6a0 f i GuContactBoxBox.obj
 0001:0001e780       ?contactCapsuleBox@Gu@physx@@YA_NAEBVGeometryUnion@12@0AEBVPxTransform@2@1AEBUNarrowPhaseParams@12@AEAUCache@12@AEAVContactBuffer@12@PEAVRenderOutput@Cm@2@@Z 000000018001f780 f   GuContactCapsuleBox.obj
 0001:000208c0       ?contactCapsuleCapsule@Gu@physx@@YA_NAEBVGeometryUnion@12@0AEBVPxTransform@2@1AEBUNarrowPhaseParams@12@AEAUCache@12@AEAVContactBuffer@12@PEAVRenderOutput@Cm@2@@Z 00000001800218c0 f   GuContactCapsuleCapsule.obj
 0001:000214a0       ??0Segment@Gu@physx@@QEAA@XZ 00000001800224a0 f i GuContactCapsuleCapsule.obj
 0001:000214b0       ??1Segment@Gu@physx@@QEAA@XZ 00000001800224b0 f i GuContactCapsuleCapsule.obj
 0001:000214c0       ?contactCapsuleConvex@Gu@physx@@YA_NAEBVGeometryUnion@12@0AEBVPxTransform@2@1AEBUNarrowPhaseParams@12@AEAUCache@12@AEAVContactBuffer@12@PEAVRenderOutput@Cm@2@@Z 00000001800224c0 f   GuContactCapsuleConvex.obj
 0001:00022800       ??$gjk@U?$LocalConvex@VCapsuleV@Gu@physx@@@Gu@physx@@U?$LocalConvex@VConvexHullV@Gu@physx@@@23@@Gu@physx@@YA?AW4GjkStatus@01@AEBU?$LocalConvex@VCapsuleV@Gu@physx@@@01@AEBU?$LocalConvex@VConvexHullV@Gu@physx@@@01@AEBT__m128@@2AEAT5@333@Z 0000000180023800 f i GuContactCapsuleConvex.obj
 0001:000239a0       ??0ConvexEdge@Gu@physx@@QEAA@XZ 00000001800249a0 f i GuContactCapsuleConvex.obj
 0001:000239b0       ??0ConvexMesh@Gu@physx@@QEAA@V?$PxFlags@W4Enum@PxBaseFlag@physx@@G@2@@Z 00000001800249b0 f i GuContactCapsuleConvex.obj
 0001:00023a10       ??0HullPolygonData@Gu@physx@@QEAA@AEBU012@@Z 0000000180024a10 f i GuContactCapsuleConvex.obj
 0001:00023a50       ??0PolygonalBox@Gu@physx@@QEAA@AEBV012@@Z 0000000180024a50 f i GuContactCapsuleConvex.obj
 0001:00023b60       ??0PxVec3@physx@@QEAA@AEBV01@@Z 0000000180024b60 f i GuContactCapsuleConvex.obj
 0001:00023b80       ??1GjkConvexBase@Gu@physx@@UEAA@XZ 0000000180024b80 f i GuContactCapsuleConvex.obj
 0001:00023b90       ??1RefCountable@Cm@physx@@UEAA@XZ 0000000180024b90 f i GuContactCapsuleConvex.obj
 0001:00023ba0       ??4FPUGuard@shdfnd@physx@@QEAAAEAV012@AEBV012@@Z 0000000180024ba0 f i GuContactCapsuleConvex.obj
 0001:00023bc0       ??Dphysx@@YA?AVMatrix34@Cm@0@AEBVPxMeshScale@0@AEBVPxTransform@0@@Z 0000000180024bc0 f i GuContactCapsuleConvex.obj
 0001:000243a0       ??_EConvexMesh@Gu@physx@@UEAAPEAXI@Z 00000001800253a0 f i GuContactCapsuleConvex.obj
 0001:000244f0       ??_EConvexMesh@Gu@physx@@WBA@EAAPEAXI@Z 00000001800254f0 f i GuContactCapsuleConvex.obj
 0001:00024500       ??_EPxConvexMesh@physx@@MEAAPEAXI@Z 0000000180025500 f i GuContactCapsuleConvex.obj
 0001:000245b0       ??_E?$LocalConvex@VCapsuleV@Gu@physx@@@Gu@physx@@UEAAPEAXI@Z 00000001800255b0 f i GuContactCapsuleConvex.obj
 0001:000245b0       ??_G?$LocalConvex@VCapsuleV@Gu@physx@@@Gu@physx@@UEAAPEAXI@Z 00000001800255b0 f i GuContactCapsuleConvex.obj
 0001:000245f0       ??_E?$LocalConvex@VConvexHullV@Gu@physx@@@Gu@physx@@UEAAPEAXI@Z 00000001800255f0 f i GuContactCapsuleConvex.obj
 0001:000245f0       ??_G?$LocalConvex@VConvexHullV@Gu@physx@@@Gu@physx@@UEAAPEAXI@Z 00000001800255f0 f i GuContactCapsuleConvex.obj
 0001:00024630       ??_EGjkConvex@Gu@physx@@UEAAPEAXI@Z 0000000180025630 f i GuContactCapsuleConvex.obj
 0001:00024630       ??_GGjkConvex@Gu@physx@@UEAAPEAXI@Z 0000000180025630 f i GuContactCapsuleConvex.obj
 0001:00024670       ??_GGjkConvexBase@Gu@physx@@UEAAPEAXI@Z 0000000180025670 f i GuContactCapsuleConvex.obj
 0001:00024670       ??_EGjkConvexBase@Gu@physx@@UEAAPEAXI@Z 0000000180025670 f i GuContactCapsuleConvex.obj
 0001:000246b0       ??_ERefCountable@Cm@physx@@UEAAPEAXI@Z 00000001800256b0 f i GuContactCapsuleConvex.obj
 0001:000246b0       ??_GRefCountable@Cm@physx@@UEAAPEAXI@Z 00000001800256b0 f i GuContactCapsuleConvex.obj
 0001:000246f0       ??__G@YAXPEAX0_K1P6APEAX00@Z@Z 00000001800256f0 f i GuContactCapsuleConvex.obj
 0001:00024770       ?ComputeCubemapNearestOffset@physx@@YAIAEBVPxVec3@1@I@Z 0000000180025770 f i GuContactCapsuleConvex.obj
 0001:00026ed0       ?getIndexBuffer@ConvexMesh@Gu@physx@@UEBAPEBEXZ 0000000180027ed0 f i GuContactCapsuleConvex.obj
 0001:00026f20       ?getInverse@PxMat33@physx@@QEBA?BV12@XZ 0000000180027f20 f i GuContactCapsuleConvex.obj
 0001:00027250       ?getNbPolygons@ConvexMesh@Gu@physx@@UEBAIXZ 0000000180028250 f i GuContactCapsuleConvex.obj
 0001:00027260       ?getNbVertices@ConvexMesh@Gu@physx@@UEBAIXZ 0000000180028260 f i GuContactCapsuleConvex.obj
 0001:00027270       ?getSweepMargin@?$LocalConvex@VCapsuleV@Gu@physx@@@Gu@physx@@UEBA?AT__m128@@XZ 0000000180028270 f i GuContactCapsuleConvex.obj
 0001:00027280       ?getSweepMargin@?$LocalConvex@VConvexHullV@Gu@physx@@@Gu@physx@@UEBA?AT__m128@@XZ 0000000180028280 f i GuContactCapsuleConvex.obj
 0001:000272b0       ?getSweepMargin@GjkConvex@Gu@physx@@UEBA?AT__m128@@XZ 00000001800282b0 f i GuContactCapsuleConvex.obj
 0001:000272d0       ?getVertices@ConvexMesh@Gu@physx@@UEBAPEBVPxVec3@3@XZ 00000001800282d0 f i GuContactCapsuleConvex.obj
 0001:000272f0       ?hillClimbing@ConvexHullV@Gu@physx@@QEBAIAEBT__m128@@@Z 00000001800282f0 f i GuContactCapsuleConvex.obj
 0001:000274b0       ?init@FastVertex2ShapeScaling@Cm@physx@@QEAAXAEBVPxVec3@3@AEBVPxQuat@3@@Z 00000001800284b0 f i GuContactCapsuleConvex.obj
 0001:00027ba0       ?onRefCountZero@RefCountable@Cm@physx@@UEAAXXZ 0000000180028ba0 f i GuContactCapsuleConvex.obj
 0001:00027da0       ?requires@ConvexMesh@Gu@physx@@UEAAXAEAVPxProcessPxBaseCallback@3@@Z 0000000180028da0 f i GuContactCapsuleConvex.obj
 0001:00027db0       ?support@?$LocalConvex@VCapsuleV@Gu@physx@@@Gu@physx@@UEBA?AT__m128@@AEBT4@@Z 0000000180028db0 f i GuContactCapsuleConvex.obj
 0001:00027e20       ?support@?$LocalConvex@VCapsuleV@Gu@physx@@@Gu@physx@@UEBA?AT__m128@@AEBT4@AEAHPEAT4@@Z 0000000180028e20 f i GuContactCapsuleConvex.obj
 0001:00027eb0       ?support@?$LocalConvex@VConvexHullV@Gu@physx@@@Gu@physx@@UEBA?AT__m128@@AEBT4@@Z 0000000180028eb0 f i GuContactCapsuleConvex.obj
 0001:00027fa0       ?support@?$LocalConvex@VConvexHullV@Gu@physx@@@Gu@physx@@UEBA?AT__m128@@AEBT4@AEAHPEAT4@@Z 0000000180028fa0 f i GuContactCapsuleConvex.obj
 0001:000280a0       ?support@GjkConvex@Gu@physx@@UEBA?AT__m128@@AEBT4@@Z 00000001800290a0 f i GuContactCapsuleConvex.obj
 0001:000280c0       ?support@GjkConvex@Gu@physx@@UEBA?AT__m128@@AEBT4@AEAHPEAT4@@Z 00000001800290c0 f i GuContactCapsuleConvex.obj
 0001:000280f0       ?supportPoint@?$LocalConvex@VCapsuleV@Gu@physx@@@Gu@physx@@UEBA?AT__m128@@HPEAT4@@Z 00000001800290f0 f i GuContactCapsuleConvex.obj
 0001:00028120       ?supportPoint@?$LocalConvex@VConvexHullV@Gu@physx@@@Gu@physx@@UEBA?AT__m128@@HPEAT4@@Z 0000000180029120 f i GuContactCapsuleConvex.obj
 0001:00028180       ?supportPoint@GjkConvex@Gu@physx@@UEBA?AT__m128@@HPEAT4@@Z 0000000180029180 f i GuContactCapsuleConvex.obj
 0001:000281a0       ?supportVertexIndex@ConvexHullV@Gu@physx@@QEBAIAEBT__m128@@@Z 00000001800291a0 f i GuContactCapsuleConvex.obj
 0001:00028260       ?contactCapsuleMesh@Gu@physx@@YA_NAEBVGeometryUnion@12@0AEBVPxTransform@2@1AEBUNarrowPhaseParams@12@AEAUCache@12@AEAVContactBuffer@12@PEAVRenderOutput@Cm@2@@Z 0000000180029260 f   GuContactCapsuleMesh.obj
 0001:00028790       ?contactCapsuleHeightfield@Gu@physx@@YA_NAEBVGeometryUnion@12@0AEBVPxTransform@2@1AEBUNarrowPhaseParams@12@AEAUCache@12@AEAVContactBuffer@12@PEAVRenderOutput@Cm@2@@Z 0000000180029790 f   GuContactCapsuleMesh.obj
 0001:00029380       ??0HeightFieldData@Gu@physx@@QEAA@$$QEAU012@@Z 000000018002a380 f i GuContactCapsuleMesh.obj
 0001:00029400       ??0HeightFieldData@Gu@physx@@QEAA@AEBU012@@Z 000000018002a400 f i GuContactCapsuleMesh.obj
 0001:00029480       ??0HeightFieldData@Gu@physx@@QEAA@W4PxEMPTY@2@@Z 000000018002a480 f i GuContactCapsuleMesh.obj
 0001:00029490       ??0HeightFieldData@Gu@physx@@QEAA@XZ 000000018002a490 f i GuContactCapsuleMesh.obj
 0001:000294a0       ??0HeightFieldUtil@Gu@physx@@QEAA@AEBVPxHeightFieldGeometry@2@@Z 000000018002a4a0 f i GuContactCapsuleMesh.obj
 0001:000294f0       ??0HeightFieldUtil@Gu@physx@@QEAA@AEBVPxHeightFieldGeometry@2@AEBVHeightField@12@@Z 000000018002a4f0 f i GuContactCapsuleMesh.obj
 0001:00029540       ??0HeightFieldUtil@Gu@physx@@QEAA@XZ 000000018002a540 f i GuContactCapsuleMesh.obj
 0001:00029550       ??1?$EntityReport@I@Gu@physx@@UEAA@XZ 000000018002a550 f i GuContactCapsuleMesh.obj
 0001:00029560       ??1?$MeshHitCallback@UPxRaycastHit@physx@@@Gu@physx@@UEAA@XZ 000000018002a560 f i GuContactCapsuleMesh.obj
 0001:00029570       ??1HeightFieldData@Gu@physx@@QEAA@XZ 000000018002a570 f i GuContactCapsuleMesh.obj
 0001:00029580       ??1PxHeightField@physx@@MEAA@XZ 000000018002a580 f i GuContactCapsuleMesh.obj
 0001:00029590       ??4HeightFieldData@Gu@physx@@QEAAAEAU012@$$QEAU012@@Z 000000018002a590 f i GuContactCapsuleMesh.obj
 0001:00029610       ??4HeightFieldData@Gu@physx@@QEAAAEAU012@AEBU012@@Z 000000018002a610 f i GuContactCapsuleMesh.obj
 0001:00029690       ??4HeightFieldUtil@Gu@physx@@QEAAAEAV012@$$QEAV012@@Z 000000018002a690 f i GuContactCapsuleMesh.obj
 0001:000296c0       ??4HeightFieldUtil@Gu@physx@@QEAAAEAV012@AEBV012@@Z 000000018002a6c0 f i GuContactCapsuleMesh.obj
 0001:000296e0       ??_G?$EntityReport@I@Gu@physx@@UEAAPEAXI@Z 000000018002a6e0 f i GuContactCapsuleMesh.obj
 0001:000296e0       ??_E?$EntityReport@I@Gu@physx@@UEAAPEAXI@Z 000000018002a6e0 f i GuContactCapsuleMesh.obj
 0001:00029720       ??_G?$MeshHitCallback@UPxRaycastHit@physx@@@Gu@physx@@UEAAPEAXI@Z 000000018002a720 f i GuContactCapsuleMesh.obj
 0001:00029720       ??_E?$MeshHitCallback@UPxRaycastHit@physx@@@Gu@physx@@UEAAPEAXI@Z 000000018002a720 f i GuContactCapsuleMesh.obj
 0001:00029760       ??_GCapsuleHeightfieldContactGenerationCallback@?A0x29ffeee2@@UEAAPEAXI@Z 000000018002a760 f i GuContactCapsuleMesh.obj
 0001:00029760       ??_ECapsuleHeightfieldContactGenerationCallback@?A0x29ffeee2@@UEAAPEAXI@Z 000000018002a760 f i GuContactCapsuleMesh.obj
 0001:000297a0       ??_GCapsuleMeshContactGenerationCallback_NoScale@?A0x29ffeee2@@UEAAPEAXI@Z 000000018002a7a0 f i GuContactCapsuleMesh.obj
 0001:000297a0       ??_ECapsuleMeshContactGenerationCallback_NoScale@?A0x29ffeee2@@UEAAPEAXI@Z 000000018002a7a0 f i GuContactCapsuleMesh.obj
 0001:000297e0       ??_ECapsuleMeshContactGenerationCallback_Scale@?A0x29ffeee2@@UEAAPEAXI@Z 000000018002a7e0 f i GuContactCapsuleMesh.obj
 0001:000297e0       ??_GCapsuleMeshContactGenerationCallback_Scale@?A0x29ffeee2@@UEAAPEAXI@Z 000000018002a7e0 f i GuContactCapsuleMesh.obj
 0001:0002b010       ?ceilUp@HeightFieldUtil@Gu@physx@@SAMM@Z 000000018002c010 f i GuContactCapsuleMesh.obj
 0001:0002b060       ?clipShapeNormalToVertexVoronoi@HeightFieldUtil@Gu@physx@@QEBA_NAEAVPxVec3@3@III@Z 000000018002c060 f i GuContactCapsuleMesh.obj
 0001:0002b4f0       ?computePointNormal@HeightFieldUtil@Gu@physx@@QEBA?AVPxVec3@3@IAEBV43@AEBVPxTransform@3@MMMMAEAM@Z 000000018002c4f0 f i GuContactCapsuleMesh.obj
 0001:0002ba60       ?floorDown@HeightFieldUtil@Gu@physx@@SAMM@Z 000000018002ca60 f i GuContactCapsuleMesh.obj
 0001:0002bab0       ?getConcreteTypeName@PxHeightField@physx@@UEBAPEBDXZ 000000018002cab0 f i GuContactCapsuleMesh.obj
 0001:0002bac0       ?getConvexEdgeThreshold@HeightField@Gu@physx@@UEBAMXZ 000000018002cac0 f i GuContactCapsuleMesh.obj
 0001:0002bad0       ?getEdgeDirection@HeightFieldUtil@Gu@physx@@QEBA?AVPxVec3@3@II@Z 000000018002cad0 f i GuContactCapsuleMesh.obj
 0001:0002bc90       ?getFeatureIndex@HeightFieldUtil@Gu@physx@@SAII@Z 000000018002cc90 f i GuContactCapsuleMesh.obj
 0001:0002bca0       ?getFeatureType@HeightFieldUtil@Gu@physx@@SA?AW4Feature@123@I@Z 000000018002cca0 f i GuContactCapsuleMesh.obj
 0001:0002bcb0       ?getFlags@HeightField@Gu@physx@@UEBA?AV?$PxFlags@W4Enum@PxHeightFieldFlag@physx@@G@3@XZ 000000018002ccb0 f i GuContactCapsuleMesh.obj
 0001:0002bcc0       ?getFormat@HeightField@Gu@physx@@UEBA?AW4Enum@PxHeightFieldFormat@3@XZ 000000018002ccc0 f i GuContactCapsuleMesh.obj
 0001:0002bcd0       ?getHeight@HeightField@Gu@physx@@UEBAMMM@Z 000000018002ccd0 f i GuContactCapsuleMesh.obj
 0001:0002bd20       ?getHeightAtShapePoint2@HeightFieldUtil@Gu@physx@@QEBAMIMM@Z 000000018002cd20 f i GuContactCapsuleMesh.obj
 0001:0002bd50       ?getHeightAtShapePoint@HeightFieldUtil@Gu@physx@@QEBAMMM@Z 000000018002cd50 f i GuContactCapsuleMesh.obj
 0001:0002bdd0       ?getHeightField@HeightFieldUtil@Gu@physx@@QEBAAEBVHeightField@23@XZ 000000018002cdd0 f i GuContactCapsuleMesh.obj
 0001:0002bde0       ?getHeightFieldGeometry@HeightFieldUtil@Gu@physx@@QEBAAEBVPxHeightFieldGeometry@3@XZ 000000018002cde0 f i GuContactCapsuleMesh.obj
 0001:0002bdf0       ?getHeightInternal2@HeightField@Gu@physx@@QEBAMIMM@Z 000000018002cdf0 f i GuContactCapsuleMesh.obj
 0001:0002bfb0       ?getNbColumns@HeightField@Gu@physx@@UEBAIXZ 000000018002cfb0 f i GuContactCapsuleMesh.obj
 0001:0002bfc0       ?getNbRows@HeightField@Gu@physx@@UEBAIXZ 000000018002cfc0 f i GuContactCapsuleMesh.obj
 0001:0002bfd0       ?getNormalAtShapePoint2@HeightFieldUtil@Gu@physx@@QEBA?AVPxVec3@3@IMM@Z 000000018002cfd0 f i GuContactCapsuleMesh.obj
 0001:0002c030       ?getNormalAtShapePoint@HeightFieldUtil@Gu@physx@@QEBA?AVPxVec3@3@MM@Z 000000018002d030 f i GuContactCapsuleMesh.obj
 0001:0002c110       ?getNormal_2@HeightField@Gu@physx@@QEBA?AVPxVec3@3@IMMMMM@Z 000000018002d110 f i GuContactCapsuleMesh.obj
 0001:0002c280       ?getOneOverColumnScale@HeightFieldUtil@Gu@physx@@QEBAMXZ 000000018002d280 f i GuContactCapsuleMesh.obj
 0001:0002c290       ?getOneOverHeightScale@HeightFieldUtil@Gu@physx@@QEBAMXZ 000000018002d290 f i GuContactCapsuleMesh.obj
 0001:0002c2a0       ?getOneOverRowScale@HeightFieldUtil@Gu@physx@@QEBAMXZ 000000018002d2a0 f i GuContactCapsuleMesh.obj
 0001:0002c2b0       ?getPaddedBounds@HeightFieldData@Gu@physx@@QEBAAEBVCenterExtentsPadded@23@XZ 000000018002d2b0 f i GuContactCapsuleMesh.obj
 0001:0002c2c0       ?getSampleStride@HeightField@Gu@physx@@UEBAIXZ 000000018002d2c0 f i GuContactCapsuleMesh.obj
 0001:0002c2d0       ?getThickness@HeightField@Gu@physx@@UEBAMXZ 000000018002d2d0 f i GuContactCapsuleMesh.obj
 0001:0002c2e0       ?getTimestamp@HeightField@Gu@physx@@UEBAIXZ 000000018002d2e0 f i GuContactCapsuleMesh.obj
 0001:0002c2f0       ?getTriangleMaterialIndex@HeightField@Gu@physx@@UEBAGI@Z 000000018002d2f0 f i GuContactCapsuleMesh.obj
 0001:0002c340       ?getTriangleNormal@HeightField@Gu@physx@@UEBA?AVPxVec3@3@I@Z 000000018002d340 f i GuContactCapsuleMesh.obj
 0001:0002c360       ?getTriangleNormalInternal@HeightField@Gu@physx@@QEBA?AVPxVec3@3@I@Z 000000018002d360 f i GuContactCapsuleMesh.obj
 0001:0002c520       ?getVertexNormal@HeightFieldUtil@Gu@physx@@QEBA?AVPxVec3@3@I@Z 000000018002d520 f i GuContactCapsuleMesh.obj
 0001:0002c560       ?hf2shapen@HeightFieldUtil@Gu@physx@@QEBA?AVPxVec3@3@AEBV43@@Z 000000018002d560 f i GuContactCapsuleMesh.obj
 0001:0002c5a0       ?hf2shapep@HeightFieldUtil@Gu@physx@@QEBA?AVPxVec3@3@AEBV43@@Z 000000018002d5a0 f i GuContactCapsuleMesh.obj
 0001:0002c5f0       ?hf2worldn@HeightFieldUtil@Gu@physx@@QEBA?AVPxVec3@3@AEBVPxTransform@3@AEBV43@@Z 000000018002d5f0 f i GuContactCapsuleMesh.obj
 0001:0002c7c0       ?hf2worldp@HeightFieldUtil@Gu@physx@@QEBA?AVPxVec3@3@AEBVPxTransform@3@AEBV43@@Z 000000018002d7c0 f i GuContactCapsuleMesh.obj
 0001:0002c9b0       ?initialize@HeightFieldUtil@Gu@physx@@AEAAXXZ 000000018002d9b0 f i GuContactCapsuleMesh.obj
 0001:0002c9f0       ?initialize@HeightFieldUtil@Gu@physx@@QEAAXAEBVPxHeightFieldGeometry@3@AEBVHeightField@23@@Z 000000018002d9f0 f i GuContactCapsuleMesh.obj
 0001:0002ca40       ?isCollisionVertex@HeightFieldUtil@Gu@physx@@QEBA_NIII@Z 000000018002da40 f i GuContactCapsuleMesh.obj
 0001:0002ca60       ?isKindOf@PxHeightField@physx@@MEBA_NPEBD@Z 000000018002da60 f i GuContactCapsuleMesh.obj
 0001:0002cac0       ?isQueryVertex@HeightFieldUtil@Gu@physx@@QEBA_NIII@Z 000000018002dac0 f i GuContactCapsuleMesh.obj
 0001:0002cbb0       ?isShapePointOnHeightField@HeightFieldUtil@Gu@physx@@QEBA_NMM@Z 000000018002dbb0 f i GuContactCapsuleMesh.obj
 0001:0002cc10       ?makeFeatureCode@HeightFieldUtil@Gu@physx@@SAIIW4Feature@123@@Z 000000018002dc10 f i GuContactCapsuleMesh.obj
 0001:0002dad0       ?shape2hfp@HeightFieldUtil@Gu@physx@@QEBA?AVPxVec3@3@AEBV43@@Z 000000018002ead0 f i GuContactCapsuleMesh.obj
 0001:0002db10       ?transformFast@PxBounds3@physx@@SA?AV12@AEBVPxTransform@2@AEBV12@@Z 000000018002eb10 f i GuContactCapsuleMesh.obj
 0001:0002e040       ?transformQueryBounds@FastVertex2ShapeScaling@Cm@physx@@QEBAXAEAVPxVec3@3@0AEAVPxMat33@3@@Z 000000018002f040 f i GuContactCapsuleMesh.obj
 0001:0002e350       ?contactBoxConvex@Gu@physx@@YA_NAEBVGeometryUnion@12@0AEBVPxTransform@2@1AEBUNarrowPhaseParams@12@AEAUCache@12@AEAVContactBuffer@12@PEAVRenderOutput@Cm@2@@Z 000000018002f350 f   GuContactConvexConvex.obj
 0001:0002e4f0       ?contactConvexConvex@Gu@physx@@YA_NAEBVGeometryUnion@12@0AEBVPxTransform@2@1AEBUNarrowPhaseParams@12@AEAUCache@12@AEAVContactBuffer@12@PEAVRenderOutput@Cm@2@@Z 000000018002f4f0 f   GuContactConvexConvex.obj
 0001:0002e6f0       ??0SeparatingAxes@Gu@physx@@QEAA@$$QEAV012@@Z 000000018002f6f0 f i GuContactConvexConvex.obj
 0001:0002e750       ??0SeparatingAxes@Gu@physx@@QEAA@AEBV012@@Z 000000018002f750 f i GuContactConvexConvex.obj
 0001:0002e7b0       ??0SeparatingAxes@Gu@physx@@QEAA@XZ 000000018002f7b0 f i GuContactConvexConvex.obj
 0001:0002e7c0       ??4SeparatingAxes@Gu@physx@@QEAAAEAV012@$$QEAV012@@Z 000000018002f7c0 f i GuContactConvexConvex.obj
 0001:0002e910       ??4SeparatingAxes@Gu@physx@@QEAAAEAV012@AEBV012@@Z 000000018002f910 f i GuContactConvexConvex.obj
 0001:00033d90       ?getAxes@SeparatingAxes@Gu@physx@@QEBAPEBVPxVec3@3@XZ 0000000180034d90 f i GuContactConvexConvex.obj
 0001:00033da0       ?getNumAxes@SeparatingAxes@Gu@physx@@QEBAIXZ 0000000180034da0 f i GuContactConvexConvex.obj
 0001:00034190       ?reset@SeparatingAxes@Gu@physx@@QEAAXXZ 0000000180035190 f i GuContactConvexConvex.obj
 0001:000341a0       ?transformPlaneToShapeSpace@FastVertex2ShapeScaling@Cm@physx@@QEBAXAEBVPxVec3@3@MAEAV43@AEAM@Z 00000001800351a0 f i GuContactConvexConvex.obj
 0001:000342d0       ?contactBoxMesh@Gu@physx@@YA_NAEBVGeometryUnion@12@0AEBVPxTransform@2@1AEBUNarrowPhaseParams@12@AEAUCache@12@AEAVContactBuffer@12@PEAVRenderOutput@Cm@2@@Z 00000001800352d0 f   GuContactConvexMesh.obj
 0001:00034490       ?contactConvexMesh@Gu@physx@@YA_NAEBVGeometryUnion@12@0AEBVPxTransform@2@1AEBUNarrowPhaseParams@12@AEAUCache@12@AEAVContactBuffer@12@PEAVRenderOutput@Cm@2@@Z 0000000180035490 f   GuContactConvexMesh.obj
 0001:00034640       ?contactBoxHeightfield@Gu@physx@@YA_NAEBVGeometryUnion@12@0AEBVPxTransform@2@1AEBUNarrowPhaseParams@12@AEAUCache@12@AEAVContactBuffer@12@PEAVRenderOutput@Cm@2@@Z 0000000180035640 f   GuContactConvexMesh.obj
 0001:000347b0       ?contactConvexHeightfield@Gu@physx@@YA_NAEBVGeometryUnion@12@0AEBVPxTransform@2@1AEBUNarrowPhaseParams@12@AEAUCache@12@AEAVContactBuffer@12@PEAVRenderOutput@Cm@2@@Z 00000001800357b0 f   GuContactConvexMesh.obj
 0001:00034a70       ??0?$InlineArray@I$0EEA@VNamedAllocator@shdfnd@physx@@@shdfnd@physx@@QEAA@AEBVNamedAllocator@12@@Z 0000000180035a70 f i GuContactConvexMesh.obj
 0001:00034b90       ??0CachedEdge@Gu@physx@@QEAA@XZ 0000000180035b90 f i GuContactConvexMesh.obj
 0001:00034ba0       ??0CachedVertex@Gu@physx@@QEAA@XZ 0000000180035ba0 f i GuContactConvexMesh.obj
 0001:00035210       ??_EConvexMeshContactGenerationCallback@@UEAAPEAXI@Z 0000000180036210 f i GuContactConvexMesh.obj
 0001:00035210       ??_GConvexMeshContactGenerationCallback@@UEAAPEAXI@Z 0000000180036210 f i GuContactConvexMesh.obj
 0001:00035250       ??_GConvexVsHeightfieldContactGenerationCallback@?A0x4ec7b4c7@@UEAAPEAXI@Z 0000000180036250 f i GuContactConvexMesh.obj
 0001:00035250       ??_EConvexVsHeightfieldContactGenerationCallback@?A0x4ec7b4c7@@UEAAPEAXI@Z 0000000180036250 f i GuContactConvexMesh.obj
 0001:00035290       ?addData@?$CacheMap@UCachedEdge@Gu@physx@@$0IA@@Gu@physx@@QEAA_NAEBUCachedEdge@23@@Z 0000000180036290 f i GuContactConvexMesh.obj
 0001:000353c0       ?addData@?$CacheMap@UCachedVertex@Gu@physx@@$0IA@@Gu@physx@@QEAA_NAEBUCachedVertex@23@@Z 00000001800363c0 f i GuContactConvexMesh.obj
 0001:00035480       ?allocate@?$Array@IV?$InlineAllocator@$0BBAA@VNamedAllocator@shdfnd@physx@@@shdfnd@physx@@@shdfnd@physx@@IEAAPEAII@Z 0000000180036480 f i GuContactConvexMesh.obj
 0001:00039a40       ?processHit@ConvexMeshContactGenerationCallback@@UEAA_NAEBUPxRaycastHit@physx@@AEBVPxVec3@3@11AEAMPEBI@Z 000000018003aa40 f i GuContactConvexMesh.obj
 0001:0003a4d0       ?recreate@?$Array@IV?$InlineAllocator@$0BBAA@VNamedAllocator@shdfnd@physx@@@shdfnd@physx@@@shdfnd@physx@@IEAAXI@Z 000000018003b4d0 f i GuContactConvexMesh.obj
 0001:0003b950       ?contactPlaneBox@Gu@physx@@YA_NAEBVGeometryUnion@12@0AEBVPxTransform@2@1AEBUNarrowPhaseParams@12@AEAUCache@12@AEAVContactBuffer@12@PEAVRenderOutput@Cm@2@@Z 000000018003c950 f   GuContactPlaneBox.obj
 0001:0003c9c0       ?contactPlaneCapsule@Gu@physx@@YA_NAEBVGeometryUnion@12@0AEBVPxTransform@2@1AEBUNarrowPhaseParams@12@AEAUCache@12@AEAVContactBuffer@12@PEAVRenderOutput@Cm@2@@Z 000000018003d9c0 f   GuContactPlaneCapsule.obj
 0001:0003d170       ?contactPlaneConvex@Gu@physx@@YA_NAEBVGeometryUnion@12@0AEBVPxTransform@2@1AEBUNarrowPhaseParams@12@AEAUCache@12@AEAVContactBuffer@12@PEAVRenderOutput@Cm@2@@Z 000000018003e170 f   GuContactPlaneConvex.obj
 0001:0003dc40       ?findRotationMatrixFromZ@Gu@physx@@YA?AVPxMat33@2@AEBVPxVec3@2@@Z 000000018003ec40 f   GuContactPolygonPolygon.obj
 0001:0003df20       ?contactPolygonPolygonExt@Gu@physx@@YA_NIPEBVPxVec3@2@PEBEAEBVMatrix34@Cm@2@AEBVPxPlane@2@AEBVPxMat33@2@I01234AEBV32@22IIAEAVContactBuffer@12@_N5M@Z 000000018003ef20 f   GuContactPolygonPolygon.obj
 0001:00041d70       ?contactSphereBox@Gu@physx@@YA_NAEBVGeometryUnion@12@0AEBVPxTransform@2@1AEBUNarrowPhaseParams@12@AEAUCache@12@AEAVContactBuffer@12@PEAVRenderOutput@Cm@2@@Z 0000000180042d70 f   GuContactSphereBox.obj
 0001:00042480       ?contactSphereCapsule@Gu@physx@@YA_NAEBVGeometryUnion@12@0AEBVPxTransform@2@1AEBUNarrowPhaseParams@12@AEAUCache@12@AEAVContactBuffer@12@PEAVRenderOutput@Cm@2@@Z 0000000180043480 f   GuContactSphereCapsule.obj
 0001:00042820       ?distancePointSegmentSquared@Gu@physx@@YAMAEBVSegment@12@AEBVPxVec3@2@PEAM@Z 0000000180043820 f i GuContactSphereCapsule.obj
 0001:000429a0       ?contactSphereMesh@Gu@physx@@YA_NAEBVGeometryUnion@12@0AEBVPxTransform@2@1AEBUNarrowPhaseParams@12@AEAUCache@12@AEAVContactBuffer@12@PEAVRenderOutput@Cm@2@@Z 00000001800439a0 f   GuContactSphereMesh.obj
 0001:00042de0       ?contactSphereHeightfield@Gu@physx@@YA_NAEBVGeometryUnion@12@0AEBVPxTransform@2@1AEBUNarrowPhaseParams@12@AEAUCache@12@AEAVContactBuffer@12@PEAVRenderOutput@Cm@2@@Z 0000000180043de0 f   GuContactSphereMesh.obj
 0001:00043250       ??$smallSort@USortKey@@$$CBU?$Less@USortKey@@@shdfnd@physx@@@internal@shdfnd@physx@@YAXPEAUSortKey@@HHAEBU?$Less@USortKey@@@12@@Z 0000000180044250 f i GuContactSphereMesh.obj
 0001:000434a0       ??$sort@USortKey@@U?$Less@USortKey@@@shdfnd@physx@@VNullAllocator@?A0xb47d98d3@@@shdfnd@physx@@YAXPEAUSortKey@@IAEBU?$Less@USortKey@@@01@AEBVNullAllocator@?A0xb47d98d3@@I@Z 00000001800444a0 f i GuContactSphereMesh.obj
 0001:000437f0       ??0TriangleData@@QEAA@XZ   00000001800447f0 f i GuContactSphereMesh.obj
 0001:00043880       ??_ESphereHeightfieldContactGenerationCallback@?A0xb47d98d3@@UEAAPEAXI@Z 0000000180044880 f i GuContactSphereMesh.obj
 0001:00043880       ??_GSphereHeightfieldContactGenerationCallback@?A0xb47d98d3@@UEAAPEAXI@Z 0000000180044880 f i GuContactSphereMesh.obj
 0001:000438c0       ??_GSphereMeshContactGenerationCallback_NoScale@?A0xb47d98d3@@UEAAPEAXI@Z 00000001800448c0 f i GuContactSphereMesh.obj
 0001:000438c0       ??_ESphereMeshContactGenerationCallback_NoScale@?A0xb47d98d3@@UEAAPEAXI@Z 00000001800448c0 f i GuContactSphereMesh.obj
 0001:00043920       ??_ESphereMeshContactGenerationCallback_Scale@?A0xb47d98d3@@UEAAPEAXI@Z 0000000180044920 f i GuContactSphereMesh.obj
 0001:00043920       ??_GSphereMeshContactGenerationCallback_Scale@?A0xb47d98d3@@UEAAPEAXI@Z 0000000180044920 f i GuContactSphereMesh.obj
 0001:000456a0       ?contactSpherePlane@Gu@physx@@YA_NAEBVGeometryUnion@12@0AEBVPxTransform@2@1AEBUNarrowPhaseParams@12@AEAUCache@12@AEAVContactBuffer@12@PEAVRenderOutput@Cm@2@@Z 00000001800466a0 f   GuContactSpherePlane.obj
 0001:00045900       ?contactSphereSphere@Gu@physx@@YA_NAEBVGeometryUnion@12@0AEBVPxTransform@2@1AEBUNarrowPhaseParams@12@AEAUCache@12@AEAVContactBuffer@12@PEAVRenderOutput@Cm@2@@Z 0000000180046900 f   GuContactSphereSphere.obj
 0001:00045ac0       ?selectNormal@Gu@physx@@YA_NEMM@Z 0000000180046ac0 f   GuFeatureCode.obj
 0001:00045c00       ?legacyContactBoxHeightfield@Gu@physx@@YA_NAEBVGeometryUnion@12@0AEBVPxTransform@2@1AEBUNarrowPhaseParams@12@AEAUCache@12@AEAVContactBuffer@12@PEAVRenderOutput@Cm@2@@Z 0000000180046c00 f   GuLegacyContactBoxHeightField.obj
 0001:00047dd0       ??$traceSegment@UGuContactTraceSegmentCallback@Gu@physx@@$00$0A@@HeightFieldUtil@Gu@physx@@QEBAXAEBVPxVec3@2@0MPEAUGuContactTraceSegmentCallback@12@AEBVPxBounds3@2@_NPEBV32@@Z 0000000180048dd0 f i GuLegacyContactBoxHeightField.obj
 0001:00048e10       ?underFaceHit@GuContactTraceSegmentCallback@Gu@physx@@QEAA_NAEBVHeightFieldUtil@23@AEBVPxVec3@3@1MMMI@Z 0000000180049e10 f i GuLegacyContactBoxHeightField.obj
 0001:00049280       ?legacyContactCapsuleHeightfield@Gu@physx@@YA_NAEBVGeometryUnion@12@0AEBVPxTransform@2@1AEBUNarrowPhaseParams@12@AEAUCache@12@AEAVContactBuffer@12@PEAVRenderOutput@Cm@2@@Z 000000018004a280 f   GuLegacyContactCapsuleHeightField.obj
 0001:0004b940       ?getEdgeTriangleIndices@HeightField@Gu@physx@@QEBAIIQEAI@Z 000000018004c940 f i GuLegacyContactCapsuleHeightField.obj
 0001:0004bab0       ?legacyContactConvexHeightfield@Gu@physx@@YA_NAEBVGeometryUnion@12@0AEBVPxTransform@2@1AEBUNarrowPhaseParams@12@AEAUCache@12@AEAVContactBuffer@12@PEAVRenderOutput@Cm@2@@Z 000000018004cab0 f   GuLegacyContactConvexHeightField.obj
 0001:0004e550       ?legacyContactSphereHeightfield@Gu@physx@@YA_NAEBVGeometryUnion@12@0AEBVPxTransform@2@1AEBUNarrowPhaseParams@12@AEAUCache@12@AEAVContactBuffer@12@PEAVRenderOutput@Cm@2@@Z 000000018004f550 f   GuLegacyContactSphereHeightField.obj
 0001:0004e5a0       ?GuContactSphereHeightFieldShared@@YA_NAEBVGeometryUnion@Gu@physx@@0AEBVPxTransform@3@1AEBUNarrowPhaseParams@23@AEAUCache@23@AEAVContactBuffer@23@PEAVRenderOutput@Cm@3@_N@Z 000000018004f5a0 f   GuLegacyContactSphereHeightField.obj
 0001:000503b0       ?barycentricCoordinates@Gu@physx@@YAXAEBT__m128@@00AEAT3@@Z 00000001800513b0 f   GuBarycentricCoordinates.obj
 0001:00050410       ?barycentricCoordinates@Gu@physx@@YAXAEBT__m128@@000AEAT3@1@Z 0000000180051410 f   GuBarycentricCoordinates.obj
 0001:000505a0       ?barycentricCoordinates@Gu@physx@@YAXAEBT__m128@@00AEAT3@1@Z 00000001800515a0 f   GuBarycentricCoordinates.obj
 0001:00050760       ?addAxis@SeparatingAxes@Gu@physx@@QEAA_NAEBVPxVec3@3@@Z 0000000180051760 f   GuSeparatingAxes.obj
 0001:00050850       ??0BigConvexData@physx@@QEAA@XZ 0000000180051850 f   GuBigConvexData.obj
 0001:00050880       ??1BigConvexData@physx@@QEAA@XZ 0000000180051880 f   GuBigConvexData.obj
 0001:00050910       ?Load@BigConvexData@physx@@QEAA_NAEAVPxInputStream@2@@Z 0000000180051910 f   GuBigConvexData.obj
 0001:00050a20       ?ComputeOffset@BigConvexData@physx@@QEBAIAEBVPxVec3@2@@Z 0000000180051a20 f   GuBigConvexData.obj
 0001:00050a40       ?ComputeNearestOffset@BigConvexData@physx@@QEBAIAEBVPxVec3@2@@Z 0000000180051a40 f   GuBigConvexData.obj
 0001:00050a60       ?exportExtraData@BigConvexData@physx@@QEAAXAEAVPxSerializationContext@2@@Z 0000000180051a60 f   GuBigConvexData.obj
 0001:00050ae0       ?importExtraData@BigConvexData@physx@@QEAAXAEAVPxDeserializationContext@2@@Z 0000000180051ae0 f   GuBigConvexData.obj
 0001:00050b60       ?CreateOffsets@BigConvexData@physx@@IEAAXXZ 0000000180051b60 f   GuBigConvexData.obj
 0001:00050bb0       ?VLoad@BigConvexData@physx@@IEAA_NAEAVPxInputStream@2@@Z 0000000180051bb0 f   GuBigConvexData.obj
 0001:00050e90       ??0BigConvexData@physx@@QEAA@W4PxEMPTY@1@@Z 0000000180051e90 f i GuBigConvexData.obj
 0001:00050ea0       ??4BigConvexData@physx@@QEAAAEAV01@AEBV01@@Z 0000000180051ea0 f i GuBigConvexData.obj
 0001:00050ec0       ?ComputeCubemapOffset@physx@@YAIAEBVPxVec3@1@I@Z 0000000180051ec0 f i GuBigConvexData.obj
 0001:00050ff0       ?GetAdjacentVerts@BigConvexData@physx@@QEBAPEBEXZ 0000000180051ff0 f i GuBigConvexData.obj
 0001:00051000       ?GetNbNeighbors@BigConvexData@physx@@QEBAGI@Z 0000000180052000 f i GuBigConvexData.obj
 0001:00051010       ?GetNbSamples@BigConvexData@physx@@QEBAIXZ 0000000180052010 f i GuBigConvexData.obj
 0001:00051020       ?GetNbVerts@BigConvexData@physx@@QEBAIXZ 0000000180052020 f i GuBigConvexData.obj
 0001:00051030       ?GetNeighbors@BigConvexData@physx@@QEBAPEBEI@Z 0000000180052030 f i GuBigConvexData.obj
 0001:00051050       ?GetOffset@BigConvexData@physx@@QEBAGI@Z 0000000180052050 f i GuBigConvexData.obj
 0001:00051060       ?GetSubdiv@BigConvexData@physx@@QEBAIXZ 0000000180052060 f i GuBigConvexData.obj
 0001:00051070       ?GetValencies@BigConvexData@physx@@QEBAPEBUValency@Gu@2@XZ 0000000180052070 f i GuBigConvexData.obj
 0001:00051080       ?GetValency@BigConvexData@physx@@QEBAGI@Z 0000000180052080 f i GuBigConvexData.obj
 0001:00051090       ?__global_array_delete@@YAXPEAX@Z 0000000180052090 f i GuBigConvexData.obj
 0001:000510a0       ?__global_array_delete@@YAXPEAX_K@Z 00000001800520a0 f i GuBigConvexData.obj
 0001:000510b0       ?__global_delete@@YAXPEAX@Z 00000001800520b0 f i GuBigConvexData.obj
 0001:000510c0       ?__global_delete@@YAXPEAX_K@Z 00000001800520c0 f i GuBigConvexData.obj
 0001:000510d0       ?getScaledConvex@Gu@physx@@YAXAEAPEAVPxVec3@2@AEAPEAEPEAV32@PEAE_NPEBV32@PEBEIAEBVFastVertex2ShapeScaling@Cm@2@@Z 00000001800520d0 f   GuConvexHelper.obj
 0001:00051230       ?getConvexData@Gu@physx@@YA_NAEBVGeometryUnion@12@AEAVFastVertex2ShapeScaling@Cm@2@AEAVPxBounds3@2@AEAUPolygonalData@12@@Z 0000000180052230 f   GuConvexHelper.obj
 0001:00051470       ?findUniqueConvexEdges@Gu@physx@@YAIIPEIAUConvexEdge@12@IPEIBUHullPolygonData@12@PEIBE@Z 0000000180052470 f   GuConvexHelper.obj
 0001:000516e0       ?exportExtraData@ConvexMesh@Gu@physx@@UEAAXAEAVPxSerializationContext@3@@Z 00000001800526e0 f   GuConvexMesh.obj
 0001:000517b0       ?importExtraData@ConvexMesh@Gu@physx@@QEAAXAEAVPxDeserializationContext@3@@Z 00000001800527b0 f   GuConvexMesh.obj
 0001:00051870       ?onRefCountZero@ConvexMesh@Gu@physx@@UEAAXXZ 0000000180052870 f   GuConvexMesh.obj
 0001:00051970       ?createObject@ConvexMesh@Gu@physx@@SAPEAV123@AEAPEAEAEAVPxDeserializationContext@3@@Z 0000000180052970 f   GuConvexMesh.obj
 0001:000519f0       ??0ConvexMesh@Gu@physx@@QEAA@XZ 00000001800529f0 f   GuConvexMesh.obj
 0001:00051ab0       ??0ConvexMesh@Gu@physx@@QEAA@AEAVGuMeshFactory@2@AEAUConvexHullData@12@@Z 0000000180052ab0 f   GuConvexMesh.obj
 0001:00051bc0       ?load@ConvexMesh@Gu@physx@@QEAA_NAEAVPxInputStream@3@@Z 0000000180052bc0 f   GuConvexMesh.obj
 0001:00051f10       ?release@ConvexMesh@Gu@physx@@UEAAXXZ 0000000180052f10 f   GuConvexMesh.obj
 0001:00051f50       ?getPolygonData@ConvexMesh@Gu@physx@@UEBA_NIAEAUPxHullPolygon@3@@Z 0000000180052f50 f   GuConvexMesh.obj
 0001:00051fa0       ?isGpuCompatible@ConvexMesh@Gu@physx@@UEBA_NXZ 0000000180052fa0 f   GuConvexMesh.obj
 0001:00051fd0       ?getReferenceCount@ConvexMesh@Gu@physx@@UEBAIXZ 0000000180052fd0 f   GuConvexMesh.obj
 0001:00051fe0       ?acquireReference@ConvexMesh@Gu@physx@@UEAAXXZ 0000000180052fe0 f   GuConvexMesh.obj
 0001:00051ff0       ?getMassInformation@ConvexMesh@Gu@physx@@UEBAXAEAMAEAVPxMat33@3@AEAVPxVec3@3@@Z 0000000180052ff0 f   GuConvexMesh.obj
 0001:00052070       ?getLocalBounds@ConvexMesh@Gu@physx@@UEBA?AVPxBounds3@3@XZ 0000000180053070 f   GuConvexMesh.obj
 0001:00052100       ??1ConvexMesh@Gu@physx@@UEAA@XZ 0000000180053100 f   GuConvexMesh.obj
 0001:00052a20       ?notifyReleaseConvexMesh@GuMeshFactory@physx@@MEAAXAEBVPxConvexMesh@2@@Z 0000000180053a20 f i GuConvexMesh.obj
 0001:00052a30       ?notifyReleaseHeightField@GuMeshFactory@physx@@MEAAXAEBVPxHeightField@2@@Z 0000000180053a30 f i GuConvexMesh.obj
 0001:00052a40       ?notifyReleaseTriangleMesh@GuMeshFactory@physx@@MEAAXAEBVPxTriangleMesh@2@@Z 0000000180053a40 f i GuConvexMesh.obj
 0001:00052a50       ?computeHullOBB@Gu@physx@@YAXAEAVBox@12@AEBVPxBounds3@2@MAEBVMatrix34@Cm@2@2AEBVFastVertex2ShapeScaling@62@_N@Z 0000000180053a50 f   GuConvexUtilsInternal.obj
 0001:00052e80       ?computeVertexSpaceOBB@Gu@physx@@YAXAEAVBox@12@AEBV312@AEBVPxTransform@2@AEBVPxMeshScale@2@@Z 0000000180053e80 f   GuConvexUtilsInternal.obj
 0001:00053210       ?computeOBBAroundConvex@Gu@physx@@YAXAEAVBox@12@AEBVPxConvexMeshGeometry@2@PEBVPxConvexMesh@2@AEBVPxTransform@2@@Z 0000000180054210 f   GuConvexUtilsInternal.obj
 0001:00053f90       ??Dphysx@@YA?AVMatrix34@Cm@0@AEBVPxMeshScale@0@AEBV120@@Z 0000000180054f90 f i GuConvexUtilsInternal.obj
 0001:00054780       ?transform@physx@@YA?AVBox@Gu@1@AEBVMatrix34@Cm@1@AEBV231@@Z 0000000180055780 f i GuConvexUtilsInternal.obj
 0001:00054aa0       ?localSearch@physx@@YAXAEAIAEBVPxVec3@1@PEBV21@PEBUBigConvexRawData@Gu@1@@Z 0000000180055aa0 f   GuHillClimbing.obj
 0001:00054c20       ??0PolygonalBox@Gu@physx@@QEAA@AEBVPxVec3@2@@Z 0000000180055c20 f   GuShapeConvex.obj
 0001:00054e20       ?getPolygonalData@PolygonalBox@Gu@physx@@QEBAXPEIAUPolygonalData@23@@Z 0000000180055e20 f   GuShapeConvex.obj
 0001:00054e90       ?getPolygonalData_Convex@Gu@physx@@YAXPEIAUPolygonalData@12@PEIBUConvexHullData@12@AEBVFastVertex2ShapeScaling@Cm@2@@Z 0000000180055e90 f   GuShapeConvex.obj
 0001:00056380       ??0HullPolygonData@Gu@physx@@QEAA@XZ 0000000180057380 f i GuShapeConvex.obj
 0001:000564f0       ?distancePointBoxSquared@Gu@physx@@YAMAEBVPxVec3@2@00AEBVPxMat33@2@PEAV32@@Z 00000001800574f0 f   GuDistancePointBox.obj
 0001:00056690       ?closestPtPointTriangle@Gu@physx@@YA?AVPxVec3@2@AEBV32@000AEAM1@Z 0000000180057690 f   GuDistancePointTriangle.obj
 0001:00056ba0       ?distancePointTriangleSquared@Gu@physx@@YA?AT__m128@@AEBT3@000AEAT3@11@Z 0000000180057ba0 f   GuDistancePointTriangle.obj
 0001:00057210       ?distanceSegmentBoxSquared@Gu@physx@@YAMAEBVPxVec3@2@000AEBVPxMat33@2@PEAMPEAV32@@Z 0000000180058210 f   GuDistanceSegmentBox.obj
 0001:00058980       ?distanceSegmentSegmentSquared@Gu@physx@@YAMAEBVPxVec3@2@0M00MPEAM1@Z 0000000180059980 f   GuDistanceSegmentSegment.obj
 0001:00059180       ?distanceSegmentSegmentSquared@Gu@physx@@YAMAEBVPxVec3@2@000PEAM1@Z 000000018005a180 f   GuDistanceSegmentSegment.obj
 0001:00059420       ?distanceSegmentSegmentSquared@Gu@physx@@YA?AT__m128@@AEBT3@000AEAT3@1@Z 000000018005a420 f   GuDistanceSegmentSegment.obj
 0001:00059630       ?distanceSegmentSegmentSquared4@Gu@physx@@YA?AT__m128@@AEBT3@000000000AEAT3@1@Z 000000018005a630 f   GuDistanceSegmentSegment.obj
 0001:00059db0       ?distanceSegmentTriangleSquared@Gu@physx@@YAMAEBVPxVec3@2@0000PEAM11@Z 000000018005adb0 f   GuDistanceSegmentTriangle.obj
 0001:0005b420       ?distanceSegmentTriangleSquared@Gu@physx@@YA?AT__m128@@AEBT3@0000AEAT3@1@Z 000000018005c420 f   GuDistanceSegmentTriangle.obj
 0001:0005c380       ?sweepBoxBox@Gu@physx@@YA_NAEBVBox@12@0AEBVPxVec3@2@MV?$PxFlags@W4Enum@PxHitFlag@physx@@G@2@AEAUPxSweepHit@2@@Z 000000018005d380 f   GuSweepBoxBox.obj
 0001:0005dfd0       ?sweepBoxSphere@Gu@physx@@YA_NAEBVBox@12@MAEBVPxVec3@2@1MAEAMAEAV42@V?$PxFlags@W4Enum@PxHitFlag@physx@@G@2@@Z 000000018005efd0 f   GuSweepBoxSphere.obj
 0001:0005ec60       ?sweepBoxTriangle@Gu@physx@@YA_NAEBVPxTriangle@2@AEBVPxBounds3@2@AEBVPxVec3@2@2AEAV52@3AEAM_N@Z 000000018005fc60 f   GuSweepBoxTriangle_FeatureBased.obj
 0001:000608c0       ?triBoxSweepTestBoxSpace@Gu@physx@@YAHAEBVPxTriangle@2@AEBVPxVec3@2@11MAEAM_N@Z 00000001800618c0 f   GuSweepBoxTriangle_SAT.obj
 0001:00061580       ?sweepCapsuleBox@Gu@physx@@YA_NAEBVCapsule@12@AEBVPxTransform@2@AEBVPxVec3@2@2MAEAV52@AEAM3V?$PxFlags@W4Enum@PxHitFlag@physx@@G@2@@Z 0000000180062580 f   GuSweepCapsuleBox.obj
 0001:000619f0       ??0PxTriangle@physx@@QEAA@XZ 00000001800629f0 f i GuSweepCapsuleBox.obj
 0001:00061a00       ??1PxTriangle@physx@@QEAA@XZ 0000000180062a00 f i GuSweepCapsuleBox.obj
 0001:00062e30       ?sweepCapsuleCapsule@Gu@physx@@YA_NAEBVCapsule@12@0AEBVPxVec3@2@MAEAMAEAV42@3IAEAG@Z 0000000180063e30 f   GuSweepCapsuleCapsule.obj
 0001:00063fa0       ??0Capsule@Gu@physx@@QEAA@XZ 0000000180064fa0 f i GuSweepCapsuleCapsule.obj
 0001:00063fb0       ??1Capsule@Gu@physx@@QEAA@XZ 0000000180064fb0 f i GuSweepCapsuleCapsule.obj
 0001:00064310       ?sweepCapsuleTriangles_Precise@Gu@physx@@YA_NIPEIBVPxTriangle@2@AEBVCapsule@12@AEBVPxVec3@2@MPEIBIAEAUPxSweepHit@2@AEAV52@V?$PxFlags@W4Enum@PxHitFlag@physx@@G@2@_NPEBVBoxPadded@12@@Z 0000000180065310 f   GuSweepCapsuleTriangle.obj
 0001:00066ae0       ?sweepSphereCapsule@Gu@physx@@YA_NAEBVSphere@12@AEBVCapsule@12@AEBVPxVec3@2@MAEAMAEAV52@4V?$PxFlags@W4Enum@PxHitFlag@physx@@G@2@@Z 0000000180067ae0 f   GuSweepSphereCapsule.obj
 0001:00067300       ?sweepSphereSphere@Gu@physx@@YA_NAEBVPxVec3@2@M0M0AEAMAEAV32@@Z 0000000180068300 f   GuSweepSphereSphere.obj
 0001:000677a0       ?sweepSphereVSTri@Gu@physx@@YA_NPEIBVPxVec3@2@AEBV32@1M1AEAMAEA_N_N@Z 00000001800687a0 f   GuSweepSphereTriangle.obj
 0001:00068610       ?sweepSphereVSQuad@Gu@physx@@YA_NPEIBVPxVec3@2@AEBV32@1M1AEAM@Z 0000000180069610 f   GuSweepSphereTriangle.obj
 0001:00069a20       ?sweepSphereTriangles@Gu@physx@@YA_NIPEIBVPxTriangle@2@AEBVPxVec3@2@M1MPEIBIAEAUPxSweepHit@2@AEAV42@_N555@Z 000000018006aa20 f   GuSweepSphereTriangle.obj
 0001:0006ad10       ?computeSphereTriImpactData@Gu@physx@@YAXAEAVPxVec3@2@0AEBV32@1MAEBVPxTriangle@2@@Z 000000018006bd10 f   GuSweepTriangleUtils.obj
 0001:0006afa0       ?computeBoxTriImpactData@Gu@physx@@YAXAEAVPxVec3@2@0AEBV32@1AEBVPxTriangle@2@M@Z 000000018006bfa0 f   GuSweepTriangleUtils.obj
 0001:0006b2c0       ?computeEdgeEdgeNormal@Gu@physx@@YAXAEAVPxVec3@2@AEBV32@1111M@Z 000000018006c2c0 f   GuSweepTriangleUtils.obj
 0001:0006b7b0       ??$gjk@U?$LocalConvex@VTriangleV@Gu@physx@@@Gu@physx@@U?$LocalConvex@VBoxV@Gu@physx@@@23@@Gu@physx@@YA?AW4GjkStatus@01@AEBU?$LocalConvex@VTriangleV@Gu@physx@@@01@AEBU?$LocalConvex@VBoxV@Gu@physx@@@01@AEBT__m128@@2AEAT5@333@Z 000000018006c7b0 f i GuSweepTriangleUtils.obj
 0001:0006c930       ??_E?$LocalConvex@VBoxV@Gu@physx@@@Gu@physx@@UEAAPEAXI@Z 000000018006d930 f i GuSweepTriangleUtils.obj
 0001:0006c930       ??_G?$LocalConvex@VBoxV@Gu@physx@@@Gu@physx@@UEAAPEAXI@Z 000000018006d930 f i GuSweepTriangleUtils.obj
 0001:0006c970       ??_E?$LocalConvex@VTriangleV@Gu@physx@@@Gu@physx@@UEAAPEAXI@Z 000000018006d970 f i GuSweepTriangleUtils.obj
 0001:0006c970       ??_G?$LocalConvex@VTriangleV@Gu@physx@@@Gu@physx@@UEAAPEAXI@Z 000000018006d970 f i GuSweepTriangleUtils.obj
 0001:0006c9b0       ?getSweepMargin@?$LocalConvex@VBoxV@Gu@physx@@@Gu@physx@@UEBA?AT__m128@@XZ 000000018006d9b0 f i GuSweepTriangleUtils.obj
 0001:0006c9e0       ?getSweepMargin@?$LocalConvex@VTriangleV@Gu@physx@@@Gu@physx@@UEBA?AT__m128@@XZ 000000018006d9e0 f i GuSweepTriangleUtils.obj
 0001:0006cd90       ?support@?$LocalConvex@VBoxV@Gu@physx@@@Gu@physx@@UEBA?AT__m128@@AEBT4@@Z 000000018006dd90 f i GuSweepTriangleUtils.obj
 0001:0006cdd0       ?support@?$LocalConvex@VBoxV@Gu@physx@@@Gu@physx@@UEBA?AT__m128@@AEBT4@AEAHPEAT4@@Z 000000018006ddd0 f i GuSweepTriangleUtils.obj
 0001:0006ce10       ?support@?$LocalConvex@VTriangleV@Gu@physx@@@Gu@physx@@UEBA?AT__m128@@AEBT4@@Z 000000018006de10 f i GuSweepTriangleUtils.obj
 0001:0006cec0       ?support@?$LocalConvex@VTriangleV@Gu@physx@@@Gu@physx@@UEBA?AT__m128@@AEBT4@AEAHPEAT4@@Z 000000018006dec0 f i GuSweepTriangleUtils.obj
 0001:0006d010       ?supportPoint@?$LocalConvex@VBoxV@Gu@physx@@@Gu@physx@@UEBA?AT__m128@@HPEAT4@@Z 000000018006e010 f i GuSweepTriangleUtils.obj
 0001:0006d050       ?supportPoint@?$LocalConvex@VTriangleV@Gu@physx@@@Gu@physx@@UEBA?AT__m128@@HPEAT4@@Z 000000018006e050 f i GuSweepTriangleUtils.obj
 0001:0006d070       ?epaPenetration@Gu@physx@@YA?AW4GjkStatus@12@AEBUGjkConvex@12@0PEIAE1EAEAT__m128@@222_N@Z 000000018006e070 f   GuEPA.obj
 0001:0006e0e0       ?silhouette@Facet@Gu@physx@@QEAAXAEBT__m128@@PEIBT4@1AEAVEdgeBuffer@23@AEAV?$InlineDeferredIDPool@$0EA@@Cm@3@@Z 000000018006f0e0 f   GuEPA.obj
 0001:0006e2b0       ?PenetrationDepth@EPA@Gu@physx@@QEAA?AW4GjkStatus@23@AEBUGjkConvex@23@0PEIBT__m128@@11HAEAT6@222_N@Z 000000018006f2b0 f   GuEPA.obj
 0001:0006ee70       ?expandPoint@EPA@Gu@physx@@QEAA_NAEBUGjkConvex@23@0AEAHAEBT__m128@@2@Z 000000018006fe70 f   GuEPA.obj
 0001:0006ef70       ?expandSegment@EPA@Gu@physx@@QEAA_NAEBUGjkConvex@23@0AEAHAEBT__m128@@2@Z 000000018006ff70 f   GuEPA.obj
 0001:0006f0d0       ?expandTriangle@EPA@Gu@physx@@QEAA_NAEAHAEBT__m128@@1@Z 00000001800700d0 f   GuEPA.obj
 0001:0006f190       ?addFacet@EPA@Gu@physx@@QEAAPEAVFacet@23@IIIAEBT__m128@@0@Z 0000000180070190 f   GuEPA.obj
 0001:0006fcf0       ??0Edge@Gu@physx@@QEAA@XZ  0000000180070cf0 f i GuEPA.obj
 0001:0006fd00       ??0Facet@Gu@physx@@QEAA@XZ 0000000180070d00 f i GuEPA.obj
 0001:00070210       ?closestPtPointTetrahedron@Gu@physx@@YA?AT__m128@@PEIAT3@00AEAI@Z 0000000180071210 f   GuGJKSimplex.obj
 0001:00070ad0       ?closestPtPointTetrahedron@Gu@physx@@YA?AT__m128@@PEIAT3@00PEIAH1AEAI@Z 0000000180071ad0 f   GuGJKSimplex.obj
 0001:00073030       ?testGjk@Gu@physx@@YA?AW4GjkStatus@12@AEAUGjkConvex@12@0AEBT__m128@@1AEAT5@222@Z 0000000180074030 f   GuGJKTest.obj
 0001:00073040       ?testGjkPenetration@Gu@physx@@YA?AW4GjkStatus@12@AEAUGjkConvex@12@0AEBT__m128@@1AEAT5@222@Z 0000000180074040 f   GuGJKTest.obj
 0001:000730d0       ?testGjkPenetration@Gu@physx@@YA?AW4GjkStatus@12@AEAUGjkConvex@12@0AEBT__m128@@1AEAT5@222PEAE3E@Z 00000001800740d0 f   GuGJKTest.obj
 0001:00073160       ?testEpaPenetration@Gu@physx@@YA?AW4GjkStatus@12@AEAUGjkConvex@12@0AEAT__m128@@111@Z 0000000180074160 f   GuGJKTest.obj
 0001:000731d0       ?testEpaPenetration@Gu@physx@@YA?AW4GjkStatus@12@AEAUGjkConvex@12@0AEAT__m128@@111PEAE2E@Z 00000001800741d0 f   GuGJKTest.obj
 0001:00073250       ?testGjkRaycast@Gu@physx@@YA_NAEAUGjkConvex@12@0AEBT__m128@@111AEAT4@22M@Z 0000000180074250 f   GuGJKTest.obj
 0001:000732e0       ??$gjk@UGjkConvex@Gu@physx@@U123@@Gu@physx@@YA?AW4GjkStatus@01@AEBUGjkConvex@01@0AEBT__m128@@1AEAT4@222@Z 00000001800742e0 f i GuGJKTest.obj
 0001:000743a0       ??$gjkPenetration@UGjkConvex@Gu@physx@@U123@@Gu@physx@@YA?AW4GjkStatus@01@AEBUGjkConvex@01@0AEBT__m128@@1AEAT4@222PEIAE3AEAE_N@Z 00000001800753a0 f i GuGJKTest.obj
 0001:00076230       ??$gjkRaycast@UGjkConvex@Gu@physx@@U123@@Gu@physx@@YA_NAEBUGjkConvex@01@0AEBT__m128@@111AEAT3@22M@Z 0000000180077230 f i GuGJKTest.obj
 0001:00077270       ?intersectOBBOBB@Gu@physx@@YA_NAEBVPxVec3@2@0AEBVPxMat33@2@001_N@Z 0000000180078270 f   GuIntersectionBoxBox.obj
 0001:00077ab0       ?intersectCapsuleTriangle@Gu@physx@@YA_NAEBVPxVec3@2@000AEBVCapsule@12@AEBUCapsuleTriangleOverlapData@12@@Z 0000000180078ab0 f   GuIntersectionCapsuleTriangle.obj
 0001:00078950       ?intersectEdgeEdge@Gu@physx@@YA_NAEBVPxVec3@2@0000AEAMAEAV32@@Z 0000000180079950 f   GuIntersectionEdgeEdge.obj
 0001:00078d50       ?rayAABBIntersect@Gu@physx@@YA_NAEBVPxVec3@2@000AEAV32@@Z 0000000180079d50 f   GuIntersectionRayBox.obj
 0001:00078f50       ?rayAABBIntersect2@Gu@physx@@YAIAEBVPxVec3@2@000AEAV32@AEAM@Z 0000000180079f50 f   GuIntersectionRayBox.obj
 0001:00079160       ?intersectRayAABB@Gu@physx@@YAHAEBVPxVec3@2@000AEAM1@Z 000000018007a160 f   GuIntersectionRayBox.obj
 0001:00079280       ?intersectRayAABB@Gu@physx@@YAHAEBVPxVec3@2@0000AEAM1@Z 000000018007a280 f   GuIntersectionRayBox.obj
 0001:00079440       ?intersectRayAABB2@Gu@physx@@YA_NAEBVPxVec3@2@000MAEAM1@Z 000000018007a440 f   GuIntersectionRayBox.obj
 0001:00079600       ?intersectRayAABB2@Gu@physx@@YA_NAEBT__m128@@0000AEAT3@1@Z 000000018007a600 f   GuIntersectionRayBox.obj
 0001:00079930       ?intersectRayCapsuleInternal@Gu@physx@@YAIAEBVPxVec3@2@000MQEAM@Z 000000018007a930 f   GuIntersectionRayCapsule.obj
 0001:0007a3d0       ?intersectRaySphereBasic@Gu@physx@@YA_NAEBVPxVec3@2@0M0MAEAMPEAV32@@Z 000000018007b3d0 f   GuIntersectionRaySphere.obj
 0001:0007a530       ?intersectRaySphere@Gu@physx@@YA_NAEBVPxVec3@2@0M0MAEAMPEAV32@@Z 000000018007b530 f   GuIntersectionRaySphere.obj
 0001:0007a6e0       ?intersectSphereBox@Gu@physx@@YA_NAEBVSphere@12@AEBVBox@12@@Z 000000018007b6e0 f   GuIntersectionSphereBox.obj
 0001:0007a950       ?intersectTriangleBox_ReferenceCode@Gu@physx@@YAHAEBVPxVec3@2@0000@Z 000000018007b950 f   GuIntersectionTriangleBox.obj
 0001:0007b170       ?intersectTriangleBox_Unsafe@Gu@physx@@YAHAEBVPxVec3@2@0000@Z 000000018007c170 f   GuIntersectionTriangleBox.obj
 0001:0007b530       ?intersectTriangleBox@Gu@physx@@YAHAEBVBoxPadded@12@AEBVPxVec3@2@11@Z 000000018007c530 f   GuIntersectionTriangleBox.obj
 0001:0007ba80       ?intersectTriangleBoxBV4@@YAHAEBVPxVec3@physx@@00AEBVPxMat33@2@00@Z 000000018007ca80 f   GuIntersectionTriangleBox.obj
 0001:0007c420       ??0BV32Tree@Gu@physx@@QEAA@W4PxEMPTY@2@@Z 000000018007d420 f   GuBV32.obj
 0001:0007c440       ?exportExtraData@BV32Tree@Gu@physx@@QEAAXAEAVPxSerializationContext@3@@Z 000000018007d440 f   GuBV32.obj
 0001:0007c490       ?importExtraData@BV32Tree@Gu@physx@@QEAAXAEAVPxDeserializationContext@3@@Z 000000018007d490 f   GuBV32.obj
 0001:0007c4c0       ??0BV32Tree@Gu@physx@@QEAA@XZ 000000018007d4c0 f   GuBV32.obj
 0001:0007c4f0       ??0BV32Tree@Gu@physx@@QEAA@PEAVSourceMesh@12@AEBVPxBounds3@2@@Z 000000018007d4f0 f   GuBV32.obj
 0001:0007c5b0       ??1BV32Tree@Gu@physx@@QEAA@XZ 000000018007d5b0 f   GuBV32.obj
 0001:0007c5c0       ?load@BV32Tree@Gu@physx@@QEAA_NAEAVPxInputStream@3@I@Z 000000018007d5c0 f   GuBV32.obj
 0001:0007c7a0       ?calculateLeafNode@BV32Tree@Gu@physx@@QEAAXAEAUBV32Data@23@@Z 000000018007d7a0 f   GuBV32.obj
 0001:0007c9d0       ?createSOAformatNode@BV32Tree@Gu@physx@@QEAAXAEAUBV32DataPacked@23@AEBUBV32Data@23@IAEAI2@Z 000000018007d9d0 f   GuBV32.obj
 0001:0007ce40       ?reset@BV32Tree@Gu@physx@@QEAAXXZ 000000018007de40 f   GuBV32.obj
 0001:0007ce60       ??4BV32Tree@Gu@physx@@QEAAXAEAV012@@Z 000000018007de60 f   GuBV32.obj
 0001:0007cec0       ?init@BV32Tree@Gu@physx@@QEAA_NPEAVSourceMesh@23@AEBVPxBounds3@3@@Z 000000018007dec0 f   GuBV32.obj
 0001:0007cf70       ?release@BV32Tree@Gu@physx@@QEAAXXZ 000000018007df70 f   GuBV32.obj
 0001:0007d2f0       ?BuildBV32Ex@Gu@physx@@YA_NAEAVBV32Tree@12@AEAVSourceMesh@12@MI@Z 000000018007e2f0 f   GuBV32Build.obj
 0001:0007d4f0       ??0BV32Data@Gu@physx@@QEAA@XZ 000000018007e4f0 f i GuBV32Build.obj
 0001:0007d530       ??0BV32Node@@QEAA@XZ       000000018007e530 f i GuBV32Build.obj
 0001:0007e6a0       ??0SourceMesh@Gu@physx@@QEAA@XZ 000000018007f6a0 f   GuBV4.obj
 0001:0007e6d0       ??1SourceMesh@Gu@physx@@QEAA@XZ 000000018007f6d0 f   GuBV4.obj
 0001:0007e730       ?reset@SourceMesh@Gu@physx@@QEAAXXZ 000000018007f730 f   GuBV4.obj
 0001:0007e750       ??4SourceMesh@Gu@physx@@QEAAXAEAV012@@Z 000000018007f750 f   GuBV4.obj
 0001:0007e7a0       ?remapTopology@SourceMesh@Gu@physx@@QEAAXPEBI@Z 000000018007f7a0 f   GuBV4.obj
 0001:0007eaa0       ?isValid@SourceMesh@Gu@physx@@QEBA_NXZ 000000018007faa0 f   GuBV4.obj
 0001:0007ead0       ??0BV4Tree@Gu@physx@@QEAA@W4PxEMPTY@2@@Z 000000018007fad0 f   GuBV4.obj
 0001:0007eaf0       ?exportExtraData@BV4Tree@Gu@physx@@QEAAXAEAVPxSerializationContext@3@@Z 000000018007faf0 f   GuBV4.obj
 0001:0007eb40       ?importExtraData@BV4Tree@Gu@physx@@QEAAXAEAVPxDeserializationContext@3@@Z 000000018007fb40 f   GuBV4.obj
 0001:0007eb70       ??0BV4Tree@Gu@physx@@QEAA@XZ 000000018007fb70 f   GuBV4.obj
 0001:0007eba0       ??0BV4Tree@Gu@physx@@QEAA@PEAVSourceMesh@12@AEBVPxBounds3@2@@Z 000000018007fba0 f   GuBV4.obj
 0001:0007ec70       ??1BV4Tree@Gu@physx@@QEAA@XZ 000000018007fc70 f   GuBV4.obj
 0001:0007ecd0       ?load@BV4Tree@Gu@physx@@QEAA_NAEAVPxInputStream@3@I@Z 000000018007fcd0 f   GuBV4.obj
 0001:0007ef10       ?reset@BV4Tree@Gu@physx@@QEAAXXZ 000000018007ff10 f   GuBV4.obj
 0001:0007ef40       ??4BV4Tree@Gu@physx@@QEAAXAEAV012@@Z 000000018007ff40 f   GuBV4.obj
 0001:0007efd0       ?init@BV4Tree@Gu@physx@@QEAA_NPEAVSourceMesh@23@AEBVPxBounds3@3@@Z 000000018007ffd0 f   GuBV4.obj
 0001:0007f080       ?release@BV4Tree@Gu@physx@@QEAAXXZ 0000000180080080 f   GuBV4.obj
 0001:0007f360       ??0IndTri16@Gu@physx@@QEAA@XZ 0000000180080360 f i GuBV4.obj
 0001:0007f370       ??0IndTri32@Gu@physx@@QEAA@XZ 0000000180080370 f i GuBV4.obj
 0001:0007f380       ??1IndTri16@Gu@physx@@QEAA@XZ 0000000180080380 f i GuBV4.obj
 0001:0007f390       ??1IndTri32@Gu@physx@@QEAA@XZ 0000000180080390 f i GuBV4.obj
 0001:0007f3a0       ??_EIndTri16@Gu@physx@@QEAAPEAXI@Z 00000001800803a0 f i GuBV4.obj
 0001:0007f440       ??_EIndTri32@Gu@physx@@QEAAPEAXI@Z 0000000180080440 f i GuBV4.obj
 0001:0007f4e0       ??0AABBTree@Gu@physx@@QEAA@XZ 00000001800804e0 f   GuBV4Build.obj
 0001:0007f500       ??1AABBTree@Gu@physx@@QEAA@XZ 0000000180080500 f   GuBV4Build.obj
 0001:0007f510       ?buildFromMesh@AABBTree@Gu@physx@@QEAA_NAEAVSourceMesh@23@I@Z 0000000180080510 f   GuBV4Build.obj
 0001:0007f910       ?release@AABBTree@Gu@physx@@QEAAXXZ 0000000180080910 f   GuBV4Build.obj
 0001:0007f9c0       ?walk@AABBTree@Gu@physx@@QEBAIP6A_NPEBVAABBTreeNode@23@IPEAX@Z1@Z 00000001800809c0 f   GuBV4Build.obj
 0001:0007fa90       ?BuildBV4Ex@Gu@physx@@YA_NAEAVBV4Tree@12@AEAVSourceMesh@12@MI@Z 0000000180080a90 f   GuBV4Build.obj
 0001:0007fd40       ??0BVData@@QEAA@XZ         0000000180080d40 f   GuBV4Build.obj
 0001:0007fd80       ??1BV4BuildParams@@QEAA@XZ 0000000180080d80 f   GuBV4Build.obj
 0001:0007fd90       ?allocateNode@BV4BuildParams@@QEAAPEAUBV4Node@@XZ 0000000180080d90 f   GuBV4Build.obj
 0001:0007fe70       ?releaseNodes@BV4BuildParams@@QEAAXXZ 0000000180080e70 f   GuBV4Build.obj
 0001:00080220       ??0AABBTreeNode@Gu@physx@@QEAA@XZ 0000000180081220 f i GuBV4Build.obj
 0001:00080240       ??0BV4Node@@QEAA@XZ        0000000180081240 f i GuBV4Build.obj
 0001:000802a0       ??0Slab@BV4BuildParams@@QEAA@XZ 00000001800812a0 f i GuBV4Build.obj
 0001:00080310       ??1AABBTreeNode@Gu@physx@@QEAA@XZ 0000000180081310 f i GuBV4Build.obj
 0001:00080330       ??1BV4Node@@QEAA@XZ        0000000180081330 f i GuBV4Build.obj
 0001:00080340       ??1BVData@@QEAA@XZ         0000000180081340 f i GuBV4Build.obj
 0001:00080350       ??_EAABBTreeNode@Gu@physx@@QEAAPEAXI@Z 0000000180081350 f i GuBV4Build.obj
 0001:000827a0       ?Sweep_AABB_BV4@@YAHAEBVBox@Gu@physx@@AEBVPxVec3@3@MAEBVBV4Tree@23@PEIAVSweepHit@23@I@Z 00000001800837a0 f   GuBV4_AABBSweep.obj
 0001:00082cd0       ?Sweep_AABB_BV4_CB@@YAXAEBVBox@Gu@physx@@AEBVPxVec3@3@MAEBVBV4Tree@23@PEIBVPxMat44@3@P6A_NPEAXAEBVSweepHit@23@@Z4I_N@Z 0000000180083cd0 f   GuBV4_AABBSweep.obj
 0001:00082e80       ?GenericSweep_AABB_CB@@YAXAEBVBox@Gu@physx@@AEBVPxVec3@3@MAEBVBV4Tree@23@P6A_NPEAX111IAEAM@Z3I@Z 0000000180083e80 f   GuBV4_AABBSweep.obj
 0001:0008aad0       ??DPxMat33@physx@@QEBA?BVPxVec3@1@AEBV21@@Z 000000018008bad0 f i GuBV4_AABBSweep.obj
 0001:0008b4b0       ?rotate@PxMat44@physx@@QEBA?BVPxVec3@2@AEBV32@@Z 000000018008c4b0 f i GuBV4_AABBSweep.obj
 0001:0008b580       ?rotate@PxMat44@physx@@QEBA?BVPxVec4@2@AEBV32@@Z 000000018008c580 f i GuBV4_AABBSweep.obj
 0001:0008c790       ?BV4_OverlapBoxAny@@YAHAEBVBox@Gu@physx@@AEBVBV4Tree@23@PEIBVPxMat44@3@@Z 000000018008d790 f   GuBV4_BoxOverlap.obj
 0001:0008cf80       ?BV4_OverlapBoxAll@@YAIAEBVBox@Gu@physx@@AEBVBV4Tree@23@PEIBVPxMat44@3@PEAIIAEA_N@Z 000000018008df80 f   GuBV4_BoxOverlap.obj
 0001:0008d7c0       ?BV4_OverlapBoxCB@@YAXAEBVBox@Gu@physx@@AEBVBV4Tree@23@P6A_NPEAXAEBVPxVec3@3@33IPEBI@Z2@Z 000000018008e7c0 f   GuBV4_BoxOverlap.obj
 0001:0008dc70       ?BV4_OverlapCapsuleAny@@YAHAEBVCapsule@Gu@physx@@AEBVBV4Tree@23@PEIBVPxMat44@3@@Z 000000018008ec70 f   GuBV4_BoxOverlap.obj
 0001:0008e390       ?BV4_OverlapCapsuleAll@@YAIAEBVCapsule@Gu@physx@@AEBVBV4Tree@23@PEIBVPxMat44@3@PEAIIAEA_N@Z 000000018008f390 f   GuBV4_BoxOverlap.obj
 0001:0008eb10       ?BV4_OverlapCapsuleCB@@YAXAEBVCapsule@Gu@physx@@AEBVBV4Tree@23@PEIBVPxMat44@3@P6A_NPEAXAEBVPxVec3@3@44IPEBI@Z3@Z 000000018008fb10 f   GuBV4_BoxOverlap.obj
 0001:00095200       ?BV4_CapsuleSweepSingle@@YAHAEBVCapsule@Gu@physx@@AEBVPxVec3@3@MAEBVBV4Tree@23@PEIAVSweepHit@23@I@Z 0000000180096200 f   GuBV4_CapsuleSweep.obj
 0001:000957b0       ?BV4_CapsuleSweepCB@@YAXAEBVCapsule@Gu@physx@@AEBVPxVec3@3@MAEBVBV4Tree@23@PEIBVPxMat44@3@P6A_NPEAXAEBVSweepHit@23@@Z4I_N@Z 00000001800967b0 f   GuBV4_CapsuleSweep.obj
 0001:0009c9b0       ?computeBasis@shdfnd@physx@@YAXAEBVPxVec3@2@AEAV32@1@Z 000000018009d9b0 f i GuBV4_CapsuleSweep.obj
 0001:0009e6d0       ?transform@PxMat44@physx@@QEBA?BVPxVec3@2@AEBV32@@Z 000000018009f6d0 f i GuBV4_CapsuleSweep.obj
 0001:0009f7b0       ?BV4_CapsuleSweepSingleAA@@YAHAEBVCapsule@Gu@physx@@AEBVPxVec3@3@MAEBVBV4Tree@23@PEIAVSweepHit@23@I@Z 00000001800a07b0 f   GuBV4_CapsuleSweepAA.obj
 0001:000a34f0       ?Sweep_OBB_BV4@@YAHAEBVBox@Gu@physx@@AEBVPxVec3@3@MAEBVBV4Tree@23@PEIAVSweepHit@23@I@Z 00000001800a44f0 f   GuBV4_OBBSweep.obj
 0001:000a3a20       ?Sweep_OBB_BV4_CB@@YAXAEBVBox@Gu@physx@@AEBVPxVec3@3@MAEBVBV4Tree@23@PEIBVPxMat44@3@P6A_NPEAXAEBVSweepHit@23@@Z4I_N@Z 00000001800a4a20 f   GuBV4_OBBSweep.obj
 0001:000a3bb0       ?GenericSweep_OBB_CB@@YAXAEBVBox@Gu@physx@@AEBVPxVec3@3@MAEBVBV4Tree@23@P6A_NPEAX111IAEAM@Z3I@Z 00000001800a4bb0 f   GuBV4_OBBSweep.obj
 0001:000a3cc0       ?BV4_BoxSweepSingle@@YAHAEBVBox@Gu@physx@@AEBVPxVec3@3@MAEBVBV4Tree@23@PEIBVPxMat44@3@PEIAVSweepHit@23@I@Z 00000001800a4cc0 f   GuBV4_OBBSweep.obj
 0001:000a43f0       ?BV4_BoxSweepCB@@YAXAEBVBox@Gu@physx@@AEBVPxVec3@3@MAEBVBV4Tree@23@PEIBVPxMat44@3@P6A_NPEAXAEBVSweepHit@23@@Z4I_N@Z 00000001800a53f0 f   GuBV4_OBBSweep.obj
 0001:000a4a50       ?BV4_GenericSweepCB@@YAXAEBVBox@Gu@physx@@AEBVPxVec3@3@MAEBVBV4Tree@23@P6A_NPEAX111IAEAM@Z3_N@Z 00000001800a5a50 f   GuBV4_OBBSweep.obj
 0001:000afe60       ?BV4_RaycastSingle@@YAHAEBVPxVec3@physx@@0AEBVBV4Tree@Gu@2@PEIBVPxMat44@2@PEIAUPxRaycastHit@2@MMIV?$PxFlags@W4Enum@PxHitFlag@physx@@G@2@@Z 00000001800b0e60 f   GuBV4_Raycast.obj
 0001:000b0400       ?BV4_RaycastCB@@YAXAEBVPxVec3@physx@@0AEBVBV4Tree@Gu@2@PEIBVPxMat44@2@MMIP6A?AW4HitCode@42@PEAX000IMMM@Z3@Z 00000001800b1400 f   GuBV4_Raycast.obj
 0001:000b0840       ?BV4_RaycastAll@@YAIAEBVPxVec3@physx@@0AEBVBV4Tree@Gu@2@PEIBVPxMat44@2@PEIAUPxRaycastHit@2@IMMIV?$PxFlags@W4Enum@PxHitFlag@physx@@G@2@@Z 00000001800b1840 f   GuBV4_Raycast.obj
 0001:000b3f30       ?BV4_OverlapSphereAny@@YAHAEBVSphere@Gu@physx@@AEBVBV4Tree@23@PEIBVPxMat44@3@@Z 00000001800b4f30 f   GuBV4_SphereOverlap.obj
 0001:000b41e0       ?BV4_OverlapSphereAll@@YAIAEBVSphere@Gu@physx@@AEBVBV4Tree@23@PEIBVPxMat44@3@PEAIIAEA_N@Z 00000001800b51e0 f   GuBV4_SphereOverlap.obj
 0001:000b44f0       ?BV4_OverlapSphereCB@@YAXAEBVSphere@Gu@physx@@AEBVBV4Tree@23@PEIBVPxMat44@3@P6A_NPEAXAEBVPxVec3@3@44IPEBI@Z3@Z 00000001800b54f0 f   GuBV4_SphereOverlap.obj
 0001:000b8290       ?BV4_SphereSweepSingle@@YAHAEBVSphere@Gu@physx@@AEBVPxVec3@3@MAEBVBV4Tree@23@PEIBVPxMat44@3@PEIAVSweepHit@23@I@Z 00000001800b9290 f   GuBV4_SphereSweep.obj
 0001:000b88a0       ?BV4_SphereSweepCB@@YAXAEBVSphere@Gu@physx@@AEBVPxVec3@3@MAEBVBV4Tree@23@PEIBVPxMat44@3@P6A_NPEAXAEBVSweepHit@23@@Z4I_N@Z 00000001800b98a0 f   GuBV4_SphereSweep.obj
 0001:000b8c90       ?BV4_GenericSweepCB_Old@@YAXAEBVPxVec3@physx@@00MAEBVBV4Tree@Gu@2@PEIBVPxMat44@2@P6A_NPEAX000IAEAM@Z3@Z 00000001800b9c90 f   GuBV4_SphereSweep.obj
 0001:000bebc0       ?getTriangle@PxMeshQuery@physx@@SAXAEBVPxTriangleMeshGeometry@2@AEBVPxTransform@2@IAEAVPxTriangle@2@PEAI3@Z 00000001800bfbc0 f   GuMeshQuery.obj
 0001:000bf060       ?getTriangle@PxMeshQuery@physx@@SAXAEBVPxHeightFieldGeometry@2@AEBVPxTransform@2@IAEAVPxTriangle@2@PEAI3@Z 00000001800c0060 f   GuMeshQuery.obj
 0001:000bf0e0       ?findOverlapTriangleMesh@PxMeshQuery@physx@@SAIAEBVPxGeometry@2@AEBVPxTransform@2@AEBVPxTriangleMeshGeometry@2@1PEAIIIAEA_N@Z 00000001800c00e0 f   GuMeshQuery.obj
 0001:000bf440       ?findOverlapHeightField@PxMeshQuery@physx@@SAIAEBVPxGeometry@2@AEBVPxTransform@2@AEBVPxHeightFieldGeometry@2@1PEAIIIAEA_N@Z 00000001800c0440 f   GuMeshQuery.obj
 0001:000bf9c0       ?sweep@PxMeshQuery@physx@@SA_NAEBVPxVec3@2@MAEBVPxGeometry@2@AEBVPxTransform@2@IPEBVPxTriangle@2@AEAUPxSweepHit@2@V?$PxFlags@W4Enum@PxHitFlag@physx@@G@2@PEBIM_N@Z 00000001800c09c0 f   GuMeshQuery.obj
 0001:000bfd90       ?intersectOBB_Particles@Gu@physx@@YAXPEBVTriangleMesh@12@AEBVBox@12@AEAU?$MeshHitCallback@UPxRaycastHit@physx@@@12@_N3@Z 00000001800c0d90 f   GuMeshQuery.obj
 0001:000c0230       ??Dphysx@@YA?AVMatrix34@Cm@0@AEBVPxTransform@0@AEBVPxMeshScale@0@@Z 00000001800c1230 f i GuMeshQuery.obj
 0001:000c0a40       ??_EHfTrianglesEntityReport2@?A0x1b4ba57a@@UEAAPEAXI@Z 00000001800c1a40 f i GuMeshQuery.obj
 0001:000c0a40       ??_GHfTrianglesEntityReport2@?A0x1b4ba57a@@UEAAPEAXI@Z 00000001800c1a40 f i GuMeshQuery.obj
 0001:000c0a80       ?basisExtent@PxBounds3@physx@@SA?AV12@AEBVPxVec3@2@AEBVPxMat33@2@0@Z 00000001800c1a80 f i GuMeshQuery.obj
 0001:000c0bf0       ?isFinite@PxQuat@physx@@QEBA_NXZ 00000001800c1bf0 f i GuMeshQuery.obj
 0001:000c0c80       ?isFinite@PxVec3@physx@@QEBA_NXZ 00000001800c1c80 f i GuMeshQuery.obj
 0001:000c0cf0       ?isUnit@PxQuat@physx@@QEBA_NXZ 00000001800c1cf0 f i GuMeshQuery.obj
 0001:000c0d80       ?isValid@PxTransform@physx@@QEBA_NXZ 00000001800c1d80 f i GuMeshQuery.obj
 0001:000c0fb0       ?poseExtent@PxBounds3@physx@@SA?AV12@AEBVPxTransform@2@AEBVPxVec3@2@@Z 00000001800c1fb0 f i GuMeshQuery.obj
 0001:000c1180       ?raycast_triangleMesh_BV4@Gu@physx@@YAIPEBVTriangleMesh@12@AEBVPxTriangleMeshGeometry@2@AEBVPxTransform@2@AEBVPxVec3@2@3MV?$PxFlags@W4Enum@PxHitFlag@physx@@G@2@IPEIAUPxRaycastHit@2@@Z 00000001800c2180 f   GuMidphaseBV4.obj
 0001:000c2050       ?intersectSphereVsMesh_BV4@Gu@physx@@YA_NAEBVSphere@12@AEBVTriangleMesh@12@AEBVPxTransform@2@AEBVPxMeshScale@2@PEAULimitedResults@12@@Z 00000001800c3050 f   GuMidphaseBV4.obj
 0001:000c2810       ?intersectBoxVsMesh_BV4@Gu@physx@@YA_NAEBVBox@12@AEBVTriangleMesh@12@AEBVPxTransform@2@AEBVPxMeshScale@2@PEAULimitedResults@12@@Z 00000001800c3810 f   GuMidphaseBV4.obj
 0001:000c3400       ?intersectCapsuleVsMesh_BV4@Gu@physx@@YA_NAEBVCapsule@12@AEBVTriangleMesh@12@AEBVPxTransform@2@AEBVPxMeshScale@2@PEAULimitedResults@12@@Z 00000001800c4400 f   GuMidphaseBV4.obj
 0001:000c3cd0       ?intersectOBB_BV4@Gu@physx@@YAXPEBVTriangleMesh@12@AEBVBox@12@AEAU?$MeshHitCallback@UPxRaycastHit@physx@@@12@_N3@Z 00000001800c4cd0 f   GuMidphaseBV4.obj
 0001:000c3d00       ?sweepCapsule_MeshGeom_BV4@Gu@physx@@YA_NPEBVTriangleMesh@12@AEBVPxTriangleMeshGeometry@2@AEBVPxTransform@2@AEBVCapsule@12@AEBVPxVec3@2@MAEAUPxSweepHit@2@V?$PxFlags@W4Enum@PxHitFlag@physx@@G@2@M@Z 00000001800c4d00 f   GuMidphaseBV4.obj
 0001:000c48b0       ?sweepBox_MeshGeom_BV4@Gu@physx@@YA_NPEBVTriangleMesh@12@AEBVPxTriangleMeshGeometry@2@AEBVPxTransform@2@AEBVBox@12@AEBVPxVec3@2@MAEAUPxSweepHit@2@V?$PxFlags@W4Enum@PxHitFlag@physx@@G@2@M@Z 00000001800c58b0 f   GuMidphaseBV4.obj
 0001:000c60d0       ?sweepConvex_MeshGeom_BV4@Gu@physx@@YAXPEBVTriangleMesh@12@AEBVBox@12@AEBVPxVec3@2@MAEAUSweepConvexMeshHitCallback@12@_N@Z 00000001800c70d0 f   GuMidphaseBV4.obj
 0001:000c8970       ??0PxVec4@physx@@QEAA@XZ   00000001800c9970 f i GuMidphaseBV4.obj
 0001:000c8980       ??1SweepBoxMeshHitCallback@Gu@physx@@UEAA@XZ 00000001800c9980 f i GuMidphaseBV4.obj
 0001:000c93e0       ?computeSweepData@physx@@YAMAEBVPxTriangleMeshGeometry@1@AEAVPxVec3@1@11M@Z 00000001800ca3e0 f i GuMidphaseBV4.obj
 0001:000c9860       ?transform@PxMeshScale@physx@@QEBA?AVPxVec3@2@AEBV32@@Z 00000001800ca860 f i GuMidphaseBV4.obj
 0001:000c9b40       ?raycast_triangleMesh_RTREE@Gu@physx@@YAIPEBVTriangleMesh@12@AEBVPxTriangleMeshGeometry@2@AEBVPxTransform@2@AEBVPxVec3@2@3MV?$PxFlags@W4Enum@PxHitFlag@physx@@G@2@IPEIAUPxRaycastHit@2@@Z 00000001800cab40 f   GuMidphaseRTree.obj
 0001:000ca300       ?intersectSphereVsMesh_RTREE@Gu@physx@@YA_NAEBVSphere@12@AEBVTriangleMesh@12@AEBVPxTransform@2@AEBVPxMeshScale@2@PEAULimitedResults@12@@Z 00000001800cb300 f   GuMidphaseRTree.obj
 0001:000ca380       ?intersectBoxVsMesh_RTREE@Gu@physx@@YA_NAEBVBox@12@AEBVTriangleMesh@12@AEBVPxTransform@2@AEBVPxMeshScale@2@PEAULimitedResults@12@@Z 00000001800cb380 f   GuMidphaseRTree.obj
 0001:000ca400       ?intersectCapsuleVsMesh_RTREE@Gu@physx@@YA_NAEBVCapsule@12@AEBVTriangleMesh@12@AEBVPxTransform@2@AEBVPxMeshScale@2@PEAULimitedResults@12@@Z 00000001800cb400 f   GuMidphaseRTree.obj
 0001:000ca480       ?intersectOBB_RTREE@Gu@physx@@YAXPEBVTriangleMesh@12@AEBVBox@12@AEAU?$MeshHitCallback@UPxRaycastHit@physx@@@12@_N3@Z 00000001800cb480 f   GuMidphaseRTree.obj
 0001:000ca4b0       ?sweepCapsule_MeshGeom_RTREE@Gu@physx@@YA_NPEBVTriangleMesh@12@AEBVPxTriangleMeshGeometry@2@AEBVPxTransform@2@AEBVCapsule@12@AEBVPxVec3@2@MAEAUPxSweepHit@2@V?$PxFlags@W4Enum@PxHitFlag@physx@@G@2@M@Z 00000001800cb4b0 f   GuMidphaseRTree.obj
 0001:000cac80       ?sweepBox_MeshGeom_RTREE@Gu@physx@@YA_NPEBVTriangleMesh@12@AEBVPxTriangleMeshGeometry@2@AEBVPxTransform@2@AEBVBox@12@AEBVPxVec3@2@MAEAUPxSweepHit@2@V?$PxFlags@W4Enum@PxHitFlag@physx@@G@2@M@Z 00000001800cbc80 f   GuMidphaseRTree.obj
 0001:000cc210       ?sweepConvex_MeshGeom_RTREE@Gu@physx@@YAXPEBVTriangleMesh@12@AEBVBox@12@AEBVPxVec3@2@MAEAUSweepConvexMeshHitCallback@12@_N@Z 00000001800cd210 f   GuMidphaseRTree.obj
 0001:000cc270       ?collideOBB@MeshRayCollider@@SAXAEBVBox@Gu@physx@@_NPEBVRTreeTriangleMesh@34@AEAU?$MeshHitCallback@UPxRaycastHit@physx@@@34@1@Z 00000001800cd270 f   GuMidphaseRTree.obj
 0001:000ccfd0       ??$collide@$00$00@MeshRayCollider@@SAXAEBVPxVec3@physx@@0M_NPEBVRTreeTriangleMesh@Gu@2@AEAU?$MeshHitCallback@UPxRaycastHit@physx@@@42@PEBV12@@Z 00000001800cdfd0 f i GuMidphaseRTree.obj
 0001:000cd2a0       ??$collide@$00$0A@@MeshRayCollider@@SAXAEBVPxVec3@physx@@0M_NPEBVRTreeTriangleMesh@Gu@2@AEAU?$MeshHitCallback@UPxRaycastHit@physx@@@42@PEBV12@@Z 00000001800ce2a0 f i GuMidphaseRTree.obj
 0001:000cd570       ??$collide@$0A@$00@MeshRayCollider@@SAXAEBVPxVec3@physx@@0M_NPEBVRTreeTriangleMesh@Gu@2@AEAU?$MeshHitCallback@UPxRaycastHit@physx@@@42@PEBV12@@Z 00000001800ce570 f i GuMidphaseRTree.obj
 0001:000cda90       ??$collide@$0A@$0A@@MeshRayCollider@@SAXAEBVPxVec3@physx@@0M_NPEBVRTreeTriangleMesh@Gu@2@AEAU?$MeshHitCallback@UPxRaycastHit@physx@@@42@PEBV12@@Z 00000001800cea90 f i GuMidphaseRTree.obj
 0001:000d0ac0       ??0?$RayRTreeCallback@$00$00@@QEAA@MAEAU?$MeshHitCallback@UPxRaycastHit@physx@@@Gu@physx@@HPEBXPEBVPxVec3@3@AEBV43@3M_N2@Z 00000001800d1ac0 f i GuMidphaseRTree.obj
 0001:000d0c40       ??0?$RayRTreeCallback@$00$0A@@@QEAA@MAEAU?$MeshHitCallback@UPxRaycastHit@physx@@@Gu@physx@@HPEBXPEBVPxVec3@3@AEBV43@3M_N2@Z 00000001800d1c40 f i GuMidphaseRTree.obj
 0001:000d0e20       ??1?$RayRTreeCallback@$00$00@@UEAA@XZ 00000001800d1e20 f i GuMidphaseRTree.obj
 0001:000d0ed0       ??1?$RayRTreeCallback@$00$0A@@@UEAA@XZ 00000001800d1ed0 f i GuMidphaseRTree.obj
 0001:000d0f80       ??1?$RayRTreeCallback@$0A@$00@@UEAA@XZ 00000001800d1f80 f i GuMidphaseRTree.obj
 0001:000d1030       ??1?$RayRTreeCallback@$0A@$0A@@@UEAA@XZ 00000001800d2030 f i GuMidphaseRTree.obj
 0001:000d10e0       ??1Callback@RTree@Gu@physx@@UEAA@XZ 00000001800d20e0 f i GuMidphaseRTree.obj
 0001:000d10f0       ??1CallbackRaycast@RTree@Gu@physx@@UEAA@XZ 00000001800d20f0 f i GuMidphaseRTree.obj
 0001:000d1110       ??_E?$RayRTreeCallback@$00$00@@W7EAAPEAXI@Z 00000001800d2110 f i GuMidphaseRTree.obj
 0001:000d111c       ??_E?$RayRTreeCallback@$00$0A@@@W7EAAPEAXI@Z 00000001800d211c f i GuMidphaseRTree.obj
 0001:000d1128       ??_E?$RayRTreeCallback@$0A@$00@@W7EAAPEAXI@Z 00000001800d2128 f i GuMidphaseRTree.obj
 0001:000d1134       ??_E?$RayRTreeCallback@$0A@$0A@@@W7EAAPEAXI@Z 00000001800d2134 f i GuMidphaseRTree.obj
 0001:000d1140       ??_E?$IntersectBoxVsMeshCallback@$00@?A0x7a9a12d2@@UEAAPEAXI@Z 00000001800d2140 f i GuMidphaseRTree.obj
 0001:000d1140       ??_G?$IntersectBoxVsMeshCallback@$00@?A0x7a9a12d2@@UEAAPEAXI@Z 00000001800d2140 f i GuMidphaseRTree.obj
 0001:000d1180       ??_G?$IntersectBoxVsMeshCallback@$0A@@?A0x7a9a12d2@@UEAAPEAXI@Z 00000001800d2180 f i GuMidphaseRTree.obj
 0001:000d1180       ??_E?$IntersectBoxVsMeshCallback@$0A@@?A0x7a9a12d2@@UEAAPEAXI@Z 00000001800d2180 f i GuMidphaseRTree.obj
 0001:000d11c0       ??_G?$IntersectCapsuleVsMeshCallback@$00@?A0x7a9a12d2@@UEAAPEAXI@Z 00000001800d21c0 f i GuMidphaseRTree.obj
 0001:000d11c0       ??_E?$IntersectCapsuleVsMeshCallback@$00@?A0x7a9a12d2@@UEAAPEAXI@Z 00000001800d21c0 f i GuMidphaseRTree.obj
 0001:000d1200       ??_G?$IntersectCapsuleVsMeshCallback@$0A@@?A0x7a9a12d2@@UEAAPEAXI@Z 00000001800d2200 f i GuMidphaseRTree.obj
 0001:000d1200       ??_E?$IntersectCapsuleVsMeshCallback@$0A@@?A0x7a9a12d2@@UEAAPEAXI@Z 00000001800d2200 f i GuMidphaseRTree.obj
 0001:000d1240       ??_G?$IntersectSphereVsMeshCallback@$00@?A0x7a9a12d2@@UEAAPEAXI@Z 00000001800d2240 f i GuMidphaseRTree.obj
 0001:000d1240       ??_E?$IntersectSphereVsMeshCallback@$00@?A0x7a9a12d2@@UEAAPEAXI@Z 00000001800d2240 f i GuMidphaseRTree.obj
 0001:000d1280       ??_E?$IntersectSphereVsMeshCallback@$0A@@?A0x7a9a12d2@@UEAAPEAXI@Z 00000001800d2280 f i GuMidphaseRTree.obj
 0001:000d1280       ??_G?$IntersectSphereVsMeshCallback@$0A@@?A0x7a9a12d2@@UEAAPEAXI@Z 00000001800d2280 f i GuMidphaseRTree.obj
 0001:000d12c0       ??_E?$RayRTreeCallback@$00$00@@UEAAPEAXI@Z 00000001800d22c0 f i GuMidphaseRTree.obj
 0001:000d12c0       ??_G?$RayRTreeCallback@$00$00@@UEAAPEAXI@Z 00000001800d22c0 f i GuMidphaseRTree.obj
 0001:000d1310       ??_G?$RayRTreeCallback@$00$0A@@@UEAAPEAXI@Z 00000001800d2310 f i GuMidphaseRTree.obj
 0001:000d1310       ??_E?$RayRTreeCallback@$00$0A@@@UEAAPEAXI@Z 00000001800d2310 f i GuMidphaseRTree.obj
 0001:000d1360       ??_G?$RayRTreeCallback@$0A@$00@@UEAAPEAXI@Z 00000001800d2360 f i GuMidphaseRTree.obj
 0001:000d1360       ??_E?$RayRTreeCallback@$0A@$00@@UEAAPEAXI@Z 00000001800d2360 f i GuMidphaseRTree.obj
 0001:000d13b0       ??_E?$RayRTreeCallback@$0A@$0A@@@UEAAPEAXI@Z 00000001800d23b0 f i GuMidphaseRTree.obj
 0001:000d13b0       ??_G?$RayRTreeCallback@$0A@$0A@@@UEAAPEAXI@Z 00000001800d23b0 f i GuMidphaseRTree.obj
 0001:000d1400       ??_GCallback@RTree@Gu@physx@@UEAAPEAXI@Z 00000001800d2400 f i GuMidphaseRTree.obj
 0001:000d1400       ??_ECallback@RTree@Gu@physx@@UEAAPEAXI@Z 00000001800d2400 f i GuMidphaseRTree.obj
 0001:000d1440       ??_ECallbackRaycast@RTree@Gu@physx@@UEAAPEAXI@Z 00000001800d2440 f i GuMidphaseRTree.obj
 0001:000d1440       ??_GCallbackRaycast@RTree@Gu@physx@@UEAAPEAXI@Z 00000001800d2440 f i GuMidphaseRTree.obj
 0001:000d1480       ??_EIntersectShapeVsMeshCallback@?A0x7a9a12d2@@UEAAPEAXI@Z 00000001800d2480 f i GuMidphaseRTree.obj
 0001:000d1480       ??_GIntersectShapeVsMeshCallback@?A0x7a9a12d2@@UEAAPEAXI@Z 00000001800d2480 f i GuMidphaseRTree.obj
 0001:000d14c0       ??_ERayMeshColliderCallback@@UEAAPEAXI@Z 00000001800d24c0 f i GuMidphaseRTree.obj
 0001:000d14c0       ??_GRayMeshColliderCallback@@UEAAPEAXI@Z 00000001800d24c0 f i GuMidphaseRTree.obj
 0001:000d2770       ?processHit@RayMeshColliderCallback@@UEAA_NAEBUPxRaycastHit@physx@@AEBVPxVec3@3@11AEAMPEBI@Z 00000001800d3770 f i GuMidphaseRTree.obj
 0001:000d2f70       ?processResults@?$RayRTreeCallback@$00$00@@UEAA_NIPEAI@Z 00000001800d3f70 f i GuMidphaseRTree.obj
 0001:000d3440       ?processResults@?$RayRTreeCallback@$00$00@@UEAA_NIPEAIAEAM@Z 00000001800d4440 f i GuMidphaseRTree.obj
 0001:000d3910       ?processResults@?$RayRTreeCallback@$00$0A@@@UEAA_NIPEAI@Z 00000001800d4910 f i GuMidphaseRTree.obj
 0001:000d3c60       ?processResults@?$RayRTreeCallback@$00$0A@@@UEAA_NIPEAIAEAM@Z 00000001800d4c60 f i GuMidphaseRTree.obj
 0001:000d3fc0       ?processResults@?$RayRTreeCallback@$0A@$00@@UEAA_NIPEAI@Z 00000001800d4fc0 f i GuMidphaseRTree.obj
 0001:000d4810       ?processResults@?$RayRTreeCallback@$0A@$00@@UEAA_NIPEAIAEAM@Z 00000001800d5810 f i GuMidphaseRTree.obj
 0001:000d5050       ?processResults@?$RayRTreeCallback@$0A@$0A@@@UEAA_NIPEAI@Z 00000001800d6050 f i GuMidphaseRTree.obj
 0001:000d53a0       ?processResults@?$RayRTreeCallback@$0A@$0A@@@UEAA_NIPEAIAEAM@Z 00000001800d63a0 f i GuMidphaseRTree.obj
 0001:000d5700       ?profile@Callback@RTree@Gu@physx@@UEAAXXZ 00000001800d6700 f i GuMidphaseRTree.obj
 0001:000d5710       ?transformBoxOrthonormal@physx@@YA?AVBox@Gu@1@AEBV231@AEBVPxTransform@1@@Z 00000001800d6710 f i GuMidphaseRTree.obj
 0001:000d5cd0       ?checkOverlapAABB_triangleGeom@Gu@physx@@YA_NAEBVPxGeometry@2@AEBVPxTransform@2@AEBVPxBounds3@2@@Z 00000001800d6cd0 f   GuOverlapTestsMesh.obj
 0001:000d5dd0       ?GeomOverlapCallback_SphereMesh@@YA_NAEBVPxGeometry@physx@@AEBVPxTransform@2@01PEAUTriggerCache@Gu@2@@Z 00000001800d6dd0 f   GuOverlapTestsMesh.obj
 0001:000d5e40       ?GeomOverlapCallback_CapsuleMesh@@YA_NAEBVPxGeometry@physx@@AEBVPxTransform@2@01PEAUTriggerCache@Gu@2@@Z 00000001800d6e40 f   GuOverlapTestsMesh.obj
 0001:000d5f70       ?GeomOverlapCallback_BoxMesh@@YA_NAEBVPxGeometry@physx@@AEBVPxTransform@2@01PEAUTriggerCache@Gu@2@@Z 00000001800d6f70 f   GuOverlapTestsMesh.obj
 0001:000d6080       ?GeomOverlapCallback_ConvexMesh@@YA_NAEBVPxGeometry@physx@@AEBVPxTransform@2@01PEAUTriggerCache@Gu@2@@Z 00000001800d7080 f   GuOverlapTestsMesh.obj
 0001:000d68d0       ??$gjk@U?$RelativeConvex@VTriangleV@Gu@physx@@@Gu@physx@@U?$LocalConvex@VConvexHullV@Gu@physx@@@23@@Gu@physx@@YA?AW4GjkStatus@01@AEBU?$RelativeConvex@VTriangleV@Gu@physx@@@01@AEBU?$LocalConvex@VConvexHullV@Gu@physx@@@01@AEBT__m128@@2AEAT5@333@Z 00000001800d78d0 f i GuOverlapTestsMesh.obj
 0001:000d7b50       ??0ConvexVsMeshOverlapCallback@@QEAA@AEBVConvexMesh@Gu@physx@@AEBVPxMeshScale@3@AEBVFastVertex2ShapeScaling@Cm@3@AEBVPxTransform@3@3_NAEBVBox@23@@Z 00000001800d8b50 f i GuOverlapTestsMesh.obj
 0001:000d86f0       ??1ConvexVsMeshOverlapCallback@@UEAA@XZ 00000001800d96f0 f i GuOverlapTestsMesh.obj
 0001:000d8700       ??_G?$RelativeConvex@VTriangleV@Gu@physx@@@Gu@physx@@UEAAPEAXI@Z 00000001800d9700 f i GuOverlapTestsMesh.obj
 0001:000d8700       ??_E?$RelativeConvex@VTriangleV@Gu@physx@@@Gu@physx@@UEAAPEAXI@Z 00000001800d9700 f i GuOverlapTestsMesh.obj
 0001:000d8740       ??_GConvexVsMeshOverlapCallback@@UEAAPEAXI@Z 00000001800d9740 f i GuOverlapTestsMesh.obj
 0001:000d8740       ??_EConvexVsMeshOverlapCallback@@UEAAPEAXI@Z 00000001800d9740 f i GuOverlapTestsMesh.obj
 0001:000d8780       ?getSweepMargin@?$RelativeConvex@VTriangleV@Gu@physx@@@Gu@physx@@UEBA?AT__m128@@XZ 00000001800d9780 f i GuOverlapTestsMesh.obj
 0001:000d87b0       ?processHit@ConvexVsMeshOverlapCallback@@UEAA_NAEBUPxRaycastHit@physx@@AEBVPxVec3@3@11AEAMPEBI@Z 00000001800d97b0 f i GuOverlapTestsMesh.obj
 0001:000d8c50       ?support@?$RelativeConvex@VTriangleV@Gu@physx@@@Gu@physx@@UEBA?AT__m128@@AEBT4@@Z 00000001800d9c50 f i GuOverlapTestsMesh.obj
 0001:000d8d90       ?support@?$RelativeConvex@VTriangleV@Gu@physx@@@Gu@physx@@UEBA?AT__m128@@AEBT4@AEAHPEAT4@@Z 00000001800d9d90 f i GuOverlapTestsMesh.obj
 0001:000d8f30       ?supportPoint@?$RelativeConvex@VTriangleV@Gu@physx@@@Gu@physx@@UEBA?AT__m128@@HPEAT4@@Z 00000001800d9f30 f i GuOverlapTestsMesh.obj
 0001:000d8f90       ??0RTree@Gu@physx@@QEAA@W4PxEMPTY@2@@Z 00000001800d9f90 f   GuRTree.obj
 0001:000d8fa0       ?exportExtraData@RTree@Gu@physx@@QEAAXAEAVPxSerializationContext@3@@Z 00000001800d9fa0 f   GuRTree.obj
 0001:000d8ff0       ?importExtraData@RTree@Gu@physx@@QEAAXAEAVPxDeserializationContext@3@@Z 00000001800d9ff0 f   GuRTree.obj
 0001:000d9020       ?save@RTree@Gu@physx@@QEBA_NAEAVPxOutputStream@3@@Z 00000001800da020 f   GuRTree.obj
 0001:000d9230       ?load@RTree@Gu@physx@@QEAA_NAEAVPxInputStream@3@I@Z 00000001800da230 f   GuRTree.obj
 0001:000d94d0       ?refitAllStaticTree@RTree@Gu@physx@@QEAAXAEAUCallbackRefit@123@PEAVPxBounds3@3@@Z 00000001800da4d0 f   GuRTree.obj
 0001:000d9930       ?validate@RTree@Gu@physx@@QEAAXPEAUCallbackRefit@123@@Z 00000001800da930 f   GuRTree.obj
 0001:000d9b70       ?computeBottomLevelCount@RTree@Gu@physx@@QEBAII@Z 00000001800dab70 f   GuRTree.obj
 0001:000d9c60       ?validateRecursive@RTree@Gu@physx@@IEAAXIURTreeNodeQ@23@PEAURTreePage@23@PEAUCallbackRefit@123@@Z 00000001800dac60 f   GuRTree.obj
 0001:000da140       ?traverseAABB@RTree@Gu@physx@@QEBAXAEBVPxVec3@3@0IPEAIPEAUCallback@123@@Z 00000001800db140 f   GuRTreeQueries.obj
 0001:000da320       ?traverseOBB@RTree@Gu@physx@@QEBAXAEBVBox@23@IPEAIPEAUCallback@123@@Z 00000001800db320 f   GuRTreeQueries.obj
 0001:000daf70       ??$traverseRay@$00@RTree@Gu@physx@@QEBAXAEBVPxVec3@2@0IPEAIPEAUCallbackRaycast@012@PEBV32@M@Z 00000001800dbf70 f i GuRTreeQueries.obj
 0001:000db430       ??$traverseRay@$0A@@RTree@Gu@physx@@QEBAXAEBVPxVec3@2@0IPEAIPEAUCallbackRaycast@012@PEBV32@M@Z 00000001800dc430 f i GuRTreeQueries.obj
 0001:000db860       ??0SweepShapeMeshHitCallback@Gu@physx@@QEAA@W4Enum@CallbackMode@12@AEBV?$PxFlags@W4Enum@PxHitFlag@physx@@G@2@_NM@Z 00000001800dc860 f   GuSweepsMesh.obj
 0001:000db8a0       ??0SweepCapsuleMeshHitCallback@Gu@physx@@QEAA@AEAUPxSweepHit@2@AEBVMatrix34@Cm@2@M_NAEBVCapsule@12@AEBVPxVec3@2@AEBV?$PxFlags@W4Enum@PxHitFlag@physx@@G@2@2M@Z 00000001800dc8a0 f   GuSweepsMesh.obj
 0001:000db970       ?processHit@SweepCapsuleMeshHitCallback@Gu@physx@@UEAA_NAEBUPxRaycastHit@3@AEBVPxVec3@3@11AEAMPEBI@Z 00000001800dc970 f   GuSweepsMesh.obj
 0001:000dbe30       ?finalizeHit@SweepCapsuleMeshHitCallback@Gu@physx@@QEBA_NAEAUPxSweepHit@3@AEBVCapsule@23@AEBVPxTriangleMeshGeometry@3@AEBVPxTransform@3@_N@Z 00000001800dce30 f   GuSweepsMesh.obj
 0001:000dc020       ??0SweepBoxMeshHitCallback@Gu@physx@@QEAA@W4Enum@CallbackMode@12@AEBVMatrix34Padded@12@M_NAEBVBox@12@AEBVPxVec3@2@44AEBV?$PxFlags@W4Enum@PxHitFlag@physx@@G@2@M2M@Z 00000001800dd020 f   GuSweepsMesh.obj
 0001:000dc140       ?processHit@SweepBoxMeshHitCallback@Gu@physx@@UEAA_NAEBUPxRaycastHit@3@AEBVPxVec3@3@11AEAMPEBI@Z 00000001800dd140 f   GuSweepsMesh.obj
 0001:000dc940       ?finalizeHit@SweepBoxMeshHitCallback@Gu@physx@@QEBA_NAEAUPxSweepHit@3@AEBVPxTriangleMeshGeometry@3@AEBVPxTransform@3@2AEBVPxVec3@3@_N4@Z 00000001800dd940 f   GuSweepsMesh.obj
 0001:000dd090       ??0SweepConvexMeshHitCallback@Gu@physx@@QEAA@AEBUConvexHullData@12@AEBVPxMeshScale@2@AEBVFastVertex2ShapeScaling@Cm@2@AEBVPxTransform@2@3AEBVPxVec3@2@MV?$PxFlags@W4Enum@PxHitFlag@physx@@G@2@_NM6M@Z 00000001800de090 f   GuSweepsMesh.obj
 0001:000dda80       ?processHit@SweepConvexMeshHitCallback@Gu@physx@@UEAA_NAEBUPxRaycastHit@3@AEBVPxVec3@3@11AEAMPEBI@Z 00000001800dea80 f   GuSweepsMesh.obj
 0001:000de240       ?finalizeHit@SweepConvexMeshHitCallback@Gu@physx@@QEAA_NAEAUPxSweepHit@3@AEBVPxTriangleMeshGeometry@3@AEBVPxTransform@3@AEBVPxConvexMeshGeometry@3@2AEBVPxVec3@3@M_N555@Z 00000001800df240 f   GuSweepsMesh.obj
 0001:000de730       ?sweepCapsule_MeshGeom@@YA_NAEBVPxGeometry@physx@@AEBVPxTransform@2@AEBVPxCapsuleGeometry@2@1AEBVCapsule@Gu@2@AEBVPxVec3@2@MAEAUPxSweepHit@2@V?$PxFlags@W4Enum@PxHitFlag@physx@@G@2@M@Z 00000001800df730 f   GuSweepsMesh.obj
 0001:000de7d0       ?sweepBox_MeshGeom@@YA_NAEBVPxGeometry@physx@@AEBVPxTransform@2@AEBVPxBoxGeometry@2@1AEBVBox@Gu@2@AEBVPxVec3@2@MAEAUPxSweepHit@2@V?$PxFlags@W4Enum@PxHitFlag@physx@@G@2@M@Z 00000001800df7d0 f   GuSweepsMesh.obj
 0001:000de870       ?sweepConvex_MeshGeom@@YA_NAEBVPxGeometry@physx@@AEBVPxTransform@2@AEBVPxConvexMeshGeometry@2@1AEBVPxVec3@2@MAEAUPxSweepHit@2@V?$PxFlags@W4Enum@PxHitFlag@physx@@G@2@M@Z 00000001800df870 f   GuSweepsMesh.obj
 0001:000e0020       ??$gjkPenetration@U?$LocalConvex@VTriangleV@Gu@physx@@@Gu@physx@@U?$LocalConvex@VShrunkBoxV@Gu@physx@@@23@@Gu@physx@@YA?AW4GjkStatus@01@AEBU?$LocalConvex@VTriangleV@Gu@physx@@@01@AEBU?$LocalConvex@VShrunkBoxV@Gu@physx@@@01@AEBT__m128@@2AEAT5@333PEIAE4AEAE_N@Z 00000001800e1020 f i GuSweepsMesh.obj
 0001:000e1f80       ??$gjkPenetration@U?$LocalConvex@VTriangleV@Gu@physx@@@Gu@physx@@U?$LocalConvex@VShrunkConvexHullV@Gu@physx@@@23@@Gu@physx@@YA?AW4GjkStatus@01@AEBU?$LocalConvex@VTriangleV@Gu@physx@@@01@AEBU?$LocalConvex@VShrunkConvexHullV@Gu@physx@@@01@AEBT__m128@@2AEAT5@333PEIAE4AEAE_N@Z 00000001800e2f80 f i GuSweepsMesh.obj
 0001:000e4150       ??$gjkRaycast@U?$LocalConvex@VTriangleV@Gu@physx@@@Gu@physx@@U?$LocalConvex@VBoxV@Gu@physx@@@23@@Gu@physx@@YA_NAEBU?$LocalConvex@VTriangleV@Gu@physx@@@01@AEBU?$LocalConvex@VBoxV@Gu@physx@@@01@AEBT__m128@@222AEAT4@33M@Z 00000001800e5150 f i GuSweepsMesh.obj
 0001:000e52b0       ??$gjkRaycast@U?$LocalConvex@VTriangleV@Gu@physx@@@Gu@physx@@U?$LocalConvex@VConvexHullV@Gu@physx@@@23@@Gu@physx@@YA_NAEBU?$LocalConvex@VTriangleV@Gu@physx@@@01@AEBU?$LocalConvex@VConvexHullV@Gu@physx@@@01@AEBT__m128@@222AEAT4@33M@Z 00000001800e62b0 f i GuSweepsMesh.obj
 0001:000e65b0       ??$gjkRaycastPenetration@U?$LocalConvex@VTriangleV@Gu@physx@@@Gu@physx@@U?$LocalConvex@VBoxV@Gu@physx@@@23@@Gu@physx@@YA_NAEBU?$LocalConvex@VTriangleV@Gu@physx@@@01@AEBU?$LocalConvex@VBoxV@Gu@physx@@@01@AEBT__m128@@222AEAT4@33M_N@Z 00000001800e75b0 f i GuSweepsMesh.obj
 0001:000e68b0       ??$gjkRaycastPenetration@U?$LocalConvex@VTriangleV@Gu@physx@@@Gu@physx@@U?$LocalConvex@VConvexHullV@Gu@physx@@@23@@Gu@physx@@YA_NAEBU?$LocalConvex@VTriangleV@Gu@physx@@@01@AEBU?$LocalConvex@VConvexHullV@Gu@physx@@@01@AEBT__m128@@222AEAT4@33M_N@Z 00000001800e78b0 f i GuSweepsMesh.obj
 0001:000e6bb0       ??1SweepConvexMeshHitCallback@Gu@physx@@UEAA@XZ 00000001800e7bb0 f i GuSweepsMesh.obj
 0001:000e6bc0       ??_G?$LocalConvex@VShrunkBoxV@Gu@physx@@@Gu@physx@@UEAAPEAXI@Z 00000001800e7bc0 f i GuSweepsMesh.obj
 0001:000e6bc0       ??_E?$LocalConvex@VShrunkBoxV@Gu@physx@@@Gu@physx@@UEAAPEAXI@Z 00000001800e7bc0 f i GuSweepsMesh.obj
 0001:000e6c00       ??_E?$LocalConvex@VShrunkConvexHullV@Gu@physx@@@Gu@physx@@UEAAPEAXI@Z 00000001800e7c00 f i GuSweepsMesh.obj
 0001:000e6c00       ??_G?$LocalConvex@VShrunkConvexHullV@Gu@physx@@@Gu@physx@@UEAAPEAXI@Z 00000001800e7c00 f i GuSweepsMesh.obj
 0001:000e6c40       ??_GSweepBoxMeshHitCallback@Gu@physx@@UEAAPEAXI@Z 00000001800e7c40 f i GuSweepsMesh.obj
 0001:000e6c40       ??_ESweepBoxMeshHitCallback@Gu@physx@@UEAAPEAXI@Z 00000001800e7c40 f i GuSweepsMesh.obj
 0001:000e6c80       ??_GSweepCapsuleMeshHitCallback@Gu@physx@@UEAAPEAXI@Z 00000001800e7c80 f i GuSweepsMesh.obj
 0001:000e6c80       ??_ESweepCapsuleMeshHitCallback@Gu@physx@@UEAAPEAXI@Z 00000001800e7c80 f i GuSweepsMesh.obj
 0001:000e6cc0       ??_GSweepConvexMeshHitCallback@Gu@physx@@UEAAPEAXI@Z 00000001800e7cc0 f i GuSweepsMesh.obj
 0001:000e6cc0       ??_ESweepConvexMeshHitCallback@Gu@physx@@UEAAPEAXI@Z 00000001800e7cc0 f i GuSweepsMesh.obj
 0001:000e6d00       ??_ESweepShapeMeshHitCallback@Gu@physx@@UEAAPEAXI@Z 00000001800e7d00 f i GuSweepsMesh.obj
 0001:000e6d00       ??_GSweepShapeMeshHitCallback@Gu@physx@@UEAAPEAXI@Z 00000001800e7d00 f i GuSweepsMesh.obj
 0001:000e6d40       ?getSweepMargin@?$LocalConvex@VShrunkBoxV@Gu@physx@@@Gu@physx@@UEBA?AT__m128@@XZ 00000001800e7d40 f i GuSweepsMesh.obj
 0001:000e6d70       ?getSweepMargin@?$LocalConvex@VShrunkConvexHullV@Gu@physx@@@Gu@physx@@UEBA?AT__m128@@XZ 00000001800e7d70 f i GuSweepsMesh.obj
 0001:000e6da0       ?support@?$LocalConvex@VShrunkBoxV@Gu@physx@@@Gu@physx@@UEBA?AT__m128@@AEBT4@@Z 00000001800e7da0 f i GuSweepsMesh.obj
 0001:000e6e00       ?support@?$LocalConvex@VShrunkBoxV@Gu@physx@@@Gu@physx@@UEBA?AT__m128@@AEBT4@AEAHPEAT4@@Z 00000001800e7e00 f i GuSweepsMesh.obj
 0001:000e6e80       ?support@?$LocalConvex@VShrunkConvexHullV@Gu@physx@@@Gu@physx@@UEBA?AT__m128@@AEBT4@@Z 00000001800e7e80 f i GuSweepsMesh.obj
 0001:000e7300       ?support@?$LocalConvex@VShrunkConvexHullV@Gu@physx@@@Gu@physx@@UEBA?AT__m128@@AEBT4@AEAHPEAT4@@Z 00000001800e8300 f i GuSweepsMesh.obj
 0001:000e77d0       ?supportPoint@?$LocalConvex@VShrunkBoxV@Gu@physx@@@Gu@physx@@UEBA?AT__m128@@HPEAT4@@Z 00000001800e87d0 f i GuSweepsMesh.obj
 0001:000e7850       ?supportPoint@?$LocalConvex@VShrunkConvexHullV@Gu@physx@@@Gu@physx@@UEBA?AT__m128@@HPEAT4@@Z 00000001800e8850 f i GuSweepsMesh.obj
 0001:000e80a0       ?exportExtraData@TriangleMesh@Gu@physx@@UEAAXAEAVPxSerializationContext@3@@Z 00000001800e90a0 f   GuTriangleMesh.obj
 0001:000e81e0       ?importExtraData@TriangleMesh@Gu@physx@@QEAAXAEAVPxDeserializationContext@3@@Z 00000001800e91e0 f   GuTriangleMesh.obj
 0001:000e8310       ?release@TriangleMesh@Gu@physx@@UEAAXXZ 00000001800e9310 f   GuTriangleMesh.obj
 0001:000e8350       ?onRefCountZero@TriangleMesh@Gu@physx@@UEAAXXZ 00000001800e9350 f   GuTriangleMesh.obj
 0001:000e83f0       ??0TriangleMesh@Gu@physx@@QEAA@AEAVGuMeshFactory@2@AEAVTriangleMeshData@12@@Z 00000001800e93f0 f   GuTriangleMesh.obj
 0001:000e85e0       ??1TriangleMesh@Gu@physx@@UEAA@XZ 00000001800e95e0 f   GuTriangleMesh.obj
 0001:000e8800       ?getVerticesForModification@TriangleMesh@Gu@physx@@UEAAPEAVPxVec3@3@XZ 00000001800e9800 f   GuTriangleMesh.obj
 0001:000e8840       ?refitBVH@TriangleMesh@Gu@physx@@UEAA?AVPxBounds3@3@XZ 00000001800e9840 f   GuTriangleMesh.obj
 0001:000e8b00       ??1PxTriangleMesh@physx@@MEAA@XZ 00000001800e9b00 f i GuTriangleMesh.obj
 0001:000e8b10       ??_ETriangleMesh@Gu@physx@@WBA@EAAPEAXI@Z 00000001800e9b10 f i GuTriangleMesh.obj
 0001:000e8b20       ??_EPxTriangleMesh@physx@@MEAAPEAXI@Z 00000001800e9b20 f i GuTriangleMesh.obj
 0001:000e8b20       ??_GPxTriangleMesh@physx@@MEAAPEAXI@Z 00000001800e9b20 f i GuTriangleMesh.obj
 0001:000e8b60       ??_ETriangleMesh@Gu@physx@@UEAAPEAXI@Z 00000001800e9b60 f i GuTriangleMesh.obj
 0001:000e8b60       ??_GTriangleMesh@Gu@physx@@UEAAPEAXI@Z 00000001800e9b60 f i GuTriangleMesh.obj
 0001:000e8be0       ?acquireReference@TriangleMesh@Gu@physx@@UEAAXXZ 00000001800e9be0 f i GuTriangleMesh.obj
 0001:000e8bf0       ?getLocalBounds@TriangleMesh@Gu@physx@@UEBA?AVPxBounds3@3@XZ 00000001800e9bf0 f i GuTriangleMesh.obj
 0001:000e8ca0       ?getNbTriangles@TriangleMesh@Gu@physx@@UEBAIXZ 00000001800e9ca0 f i GuTriangleMesh.obj
 0001:000e8cb0       ?getNbVertices@TriangleMesh@Gu@physx@@UEBAIXZ 00000001800e9cb0 f i GuTriangleMesh.obj
 0001:000e8cc0       ?getReferenceCount@TriangleMesh@Gu@physx@@UEBAIXZ 00000001800e9cc0 f i GuTriangleMesh.obj
 0001:000e8cd0       ?getTriangleMaterialIndex@TriangleMesh@Gu@physx@@UEBAGI@Z 00000001800e9cd0 f i GuTriangleMesh.obj
 0001:000e8cf0       ?getTriangleMeshFlags@TriangleMesh@Gu@physx@@UEBA?AV?$PxFlags@W4Enum@PxTriangleMeshFlag@physx@@E@3@XZ 00000001800e9cf0 f i GuTriangleMesh.obj
 0001:000e8d00       ?getTriangles@TriangleMesh@Gu@physx@@UEBAPEBXXZ 00000001800e9d00 f i GuTriangleMesh.obj
 0001:000e8d10       ?getTrianglesRemap@TriangleMesh@Gu@physx@@UEBAPEBIXZ 00000001800e9d10 f i GuTriangleMesh.obj
 0001:000e8d20       ?getVertices@TriangleMesh@Gu@physx@@UEBAPEBVPxVec3@3@XZ 00000001800e9d20 f i GuTriangleMesh.obj
 0001:000e8d30       ?isKindOf@PxTriangleMesh@physx@@MEBA_NPEBD@Z 00000001800e9d30 f i GuTriangleMesh.obj
 0001:000e8d90       ?requires@TriangleMesh@Gu@physx@@UEAAXAEAVPxProcessPxBaseCallback@3@@Z 00000001800e9d90 f i GuTriangleMesh.obj
 0001:000e8da0       ?exportExtraData@BV4TriangleMesh@Gu@physx@@UEAAXAEAVPxSerializationContext@3@@Z 00000001800e9da0 f   GuTriangleMeshBV4.obj
 0001:000e8de0       ?importExtraData@BV4TriangleMesh@Gu@physx@@QEAAXAEAVPxDeserializationContext@3@@Z 00000001800e9de0 f   GuTriangleMeshBV4.obj
 0001:000e8e80       ?createObject@BV4TriangleMesh@Gu@physx@@SAPEAVTriangleMesh@23@AEAPEAEAEAVPxDeserializationContext@3@@Z 00000001800e9e80 f   GuTriangleMeshBV4.obj
 0001:000e8ef0       ??0BV4TriangleMesh@Gu@physx@@QEAA@AEAVGuMeshFactory@2@AEAVTriangleMeshData@12@@Z 00000001800e9ef0 f   GuTriangleMeshBV4.obj
 0001:000e9000       ??0BV4TriangleMesh@Gu@physx@@QEAA@V?$PxFlags@W4Enum@PxBaseFlag@physx@@G@2@@Z 00000001800ea000 f i GuTriangleMeshBV4.obj
 0001:000e9080       ??1BV4TriangleMesh@Gu@physx@@UEAA@XZ 00000001800ea080 f i GuTriangleMeshBV4.obj
 0001:000e90d4       ??_EBV4TriangleMesh@Gu@physx@@WBA@EAAPEAXI@Z 00000001800ea0d4 f i GuTriangleMeshBV4.obj
 0001:000e90e0       ??_GBV4TriangleMesh@Gu@physx@@UEAAPEAXI@Z 00000001800ea0e0 f i GuTriangleMeshBV4.obj
 0001:000e90e0       ??_EBV4TriangleMesh@Gu@physx@@UEAAPEAXI@Z 00000001800ea0e0 f i GuTriangleMeshBV4.obj
 0001:000e9190       ?getConcreteTypeName@BV4TriangleMesh@Gu@physx@@UEBAPEBDXZ 00000001800ea190 f i GuTriangleMeshBV4.obj
 0001:000e91a0       ?getMidphaseID@BV4TriangleMesh@Gu@physx@@UEBA?AW4Enum@PxMeshMidPhase@3@XZ 00000001800ea1a0 f i GuTriangleMeshBV4.obj
 0001:000e91b0       ?exportExtraData@RTreeTriangleMesh@Gu@physx@@UEAAXAEAVPxSerializationContext@3@@Z 00000001800ea1b0 f   GuTriangleMeshRTree.obj
 0001:000e91f0       ?importExtraData@RTreeTriangleMesh@Gu@physx@@QEAAXAEAVPxDeserializationContext@3@@Z 00000001800ea1f0 f   GuTriangleMeshRTree.obj
 0001:000e9230       ?createObject@RTreeTriangleMesh@Gu@physx@@SAPEAVTriangleMesh@23@AEAPEAEAEAVPxDeserializationContext@3@@Z 00000001800ea230 f   GuTriangleMeshRTree.obj
 0001:000e92b0       ??0RTreeTriangleMesh@Gu@physx@@QEAA@AEAVGuMeshFactory@2@AEAVTriangleMeshData@12@@Z 00000001800ea2b0 f   GuTriangleMeshRTree.obj
 0001:000e9430       ?getVerticesForModification@RTreeTriangleMesh@Gu@physx@@UEAAPEAVPxVec3@3@XZ 00000001800ea430 f   GuTriangleMeshRTree.obj
 0001:000e9440       ?refitBVH@RTreeTriangleMesh@Gu@physx@@UEAA?AVPxBounds3@3@XZ 00000001800ea440 f   GuTriangleMeshRTree.obj
 0001:000e9700       ??0RTreeTriangleMesh@Gu@physx@@QEAA@V?$PxFlags@W4Enum@PxBaseFlag@physx@@G@2@@Z 00000001800ea700 f i GuTriangleMeshRTree.obj
 0001:000e9780       ??1CallbackRefit@RTree@Gu@physx@@UEAA@XZ 00000001800ea780 f i GuTriangleMeshRTree.obj
 0001:000e9790       ??1RTreeTriangleMesh@Gu@physx@@UEAA@XZ 00000001800ea790 f i GuTriangleMeshRTree.obj
 0001:000e9818       ??_ERTreeTriangleMesh@Gu@physx@@WBA@EAAPEAXI@Z 00000001800ea818 f i GuTriangleMeshRTree.obj
 0001:000e9830       ??_G?$RefitCallback@G@physx@@UEAAPEAXI@Z 00000001800ea830 f i GuTriangleMeshRTree.obj
 0001:000e9830       ??_E?$RefitCallback@G@physx@@UEAAPEAXI@Z 00000001800ea830 f i GuTriangleMeshRTree.obj
 0001:000e9870       ??_E?$RefitCallback@I@physx@@UEAAPEAXI@Z 00000001800ea870 f i GuTriangleMeshRTree.obj
 0001:000e9870       ??_G?$RefitCallback@I@physx@@UEAAPEAXI@Z 00000001800ea870 f i GuTriangleMeshRTree.obj
 0001:000e98b0       ??_ECallbackRefit@RTree@Gu@physx@@UEAAPEAXI@Z 00000001800ea8b0 f i GuTriangleMeshRTree.obj
 0001:000e98b0       ??_GCallbackRefit@RTree@Gu@physx@@UEAAPEAXI@Z 00000001800ea8b0 f i GuTriangleMeshRTree.obj
 0001:000e98f0       ??_ERTreeTriangleMesh@Gu@physx@@UEAAPEAXI@Z 00000001800ea8f0 f i GuTriangleMeshRTree.obj
 0001:000e98f0       ??_GRTreeTriangleMesh@Gu@physx@@UEAAPEAXI@Z 00000001800ea8f0 f i GuTriangleMeshRTree.obj
 0001:000e9970       ?getConcreteTypeName@RTreeTriangleMesh@Gu@physx@@UEBAPEBDXZ 00000001800ea970 f i GuTriangleMeshRTree.obj
 0001:000e9980       ?getMidphaseID@RTreeTriangleMesh@Gu@physx@@UEBA?AW4Enum@PxMeshMidPhase@3@XZ 00000001800ea980 f i GuTriangleMeshRTree.obj
 0001:000e9990       ?recomputeBounds@?$RefitCallback@G@physx@@UEAAXIAEAT__m128@@0@Z 00000001800ea990 f i GuTriangleMeshRTree.obj
 0001:000e9b70       ?recomputeBounds@?$RefitCallback@I@physx@@UEAAXIAEAT__m128@@0@Z 00000001800eab70 f i GuTriangleMeshRTree.obj
 0001:000e9d50       ?exportExtraData@HeightField@Gu@physx@@UEAAXAEAVPxSerializationContext@3@@Z 00000001800ead50 f   GuHeightField.obj
 0001:000e9db0       ?importExtraData@HeightField@Gu@physx@@QEAAXAEAVPxDeserializationContext@3@@Z 00000001800eadb0 f   GuHeightField.obj
 0001:000e9de0       ?createObject@HeightField@Gu@physx@@SAPEAV123@AEAPEAEAEAVPxDeserializationContext@3@@Z 00000001800eade0 f   GuHeightField.obj
 0001:000e9e70       ??0HeightField@Gu@physx@@QEAA@PEAVGuMeshFactory@2@@Z 00000001800eae70 f   GuHeightField.obj
 0001:000e9ef0       ??0HeightField@Gu@physx@@QEAA@AEAVGuMeshFactory@2@AEAUHeightFieldData@12@@Z 00000001800eaef0 f   GuHeightField.obj
 0001:000e9fe0       ?release@HeightField@Gu@physx@@UEAAXXZ 00000001800eafe0 f   GuHeightField.obj
 0001:000ea020       ?saveCells@HeightField@Gu@physx@@UEBAIPEAXI@Z 00000001800eb020 f   GuHeightField.obj
 0001:000ea060       ?modifySamples@HeightField@Gu@physx@@UEAA_NHHAEBVPxHeightFieldDesc@3@_N@Z 00000001800eb060 f   GuHeightField.obj
 0001:000ea420       ?acquireReference@HeightField@Gu@physx@@UEAAXXZ 00000001800eb420 f   GuHeightField.obj
 0001:000ea430       ?getReferenceCount@HeightField@Gu@physx@@UEBAIXZ 00000001800eb430 f   GuHeightField.obj
 0001:000ea440       ?onRefCountZero@HeightField@Gu@physx@@UEAAXXZ 00000001800eb440 f   GuHeightField.obj
 0001:000ea4e0       ?loadFromDesc@HeightField@Gu@physx@@QEAA_NAEBVPxHeightFieldDesc@3@@Z 00000001800eb4e0 f   GuHeightField.obj
 0001:000ea820       ?load@HeightField@Gu@physx@@QEAA_NAEAVPxInputStream@3@@Z 00000001800eb820 f   GuHeightField.obj
 0001:000eab50       ?computeCellCoordinates@HeightField@Gu@physx@@QEBAIMMAEAM0@Z 00000001800ebb50 f   GuHeightField.obj
 0001:000eac60       ?isSolidVertex@HeightField@Gu@physx@@QEBA_NIIIGAEA_N@Z 00000001800ebc60 f   GuHeightField.obj
 0001:000eade0       ?isCollisionVertexPreca@HeightField@Gu@physx@@QEBA_NIIIG@Z 00000001800ebde0 f   GuHeightField.obj
 0001:000eae90       ?parseTrianglesForCollisionVertices@HeightField@Gu@physx@@QEAAXG@Z 00000001800ebe90 f   GuHeightField.obj
 0001:000eb330       ?computeExtreme@HeightField@Gu@physx@@QEBAMIIII@Z 00000001800ec330 f   GuHeightField.obj
 0001:000eb420       ?releaseMemory@HeightField@Gu@physx@@QEAAXXZ 00000001800ec420 f   GuHeightField.obj
 0001:000eb470       ??1HeightField@Gu@physx@@UEAA@XZ 00000001800ec470 f   GuHeightField.obj
 0001:000eb4f0       ?getVertexEdgeIndices@physx@@YAIAEBVHeightField@Gu@1@IIIQEAUEdgeData@1@@Z 00000001800ec4f0 f   GuHeightField.obj
 0001:000eb6d0       ?getEdgeTriangleIndices@physx@@YAIAEBVHeightField@Gu@1@AEBUEdgeData@1@PEIAI@Z 00000001800ec6d0 f   GuHeightField.obj
 0001:000ebea0       ??0?$BitMapBase@VNonTrackingAllocator@shdfnd@physx@@@Cm@physx@@QEAA@XZ 00000001800ecea0 f i GuHeightField.obj
 0001:000ebeb0       ??1?$BitMapBase@VNonTrackingAllocator@shdfnd@physx@@@Cm@physx@@QEAA@XZ 00000001800eceb0 f i GuHeightField.obj
 0001:000ebf20       ??_EHeightField@Gu@physx@@UEAAPEAXI@Z 00000001800ecf20 f i GuHeightField.obj
 0001:000ec0f4       ??_EHeightField@Gu@physx@@WBA@EAAPEAXI@Z 00000001800ed0f4 f i GuHeightField.obj
 0001:000ec100       ??_EPxHeightField@physx@@MEAAPEAXI@Z 00000001800ed100 f i GuHeightField.obj
 0001:000ec1b0       ?extendUninitialized@?$BitMapBase@VNonTrackingAllocator@shdfnd@physx@@@Cm@physx@@IEAAXI@Z 00000001800ed1b0 f i GuHeightField.obj
 0001:000ec270       ?isConvexVertex@HeightField@Gu@physx@@QEBA_NIII@Z 00000001800ed270 f i GuHeightField.obj
 0001:000ec3c0       ?requires@HeightField@Gu@physx@@UEAAXAEAVPxProcessPxBaseCallback@3@@Z 00000001800ed3c0 f i GuHeightField.obj
 0001:000ec3d0       ?computeLocalBounds@HeightFieldUtil@Gu@physx@@QEBAXAEAVPxBounds3@3@@Z 00000001800ed3d0 f   GuHeightFieldUtil.obj
 0001:000ec700       ?isCollisionEdge@HeightFieldUtil@Gu@physx@@QEBA_NI@Z 00000001800ed700 f   GuHeightFieldUtil.obj
 0001:000ec830       ?isCollisionEdge@HeightFieldUtil@Gu@physx@@QEBA_NIIPEIBIIII@Z 00000001800ed830 f   GuHeightFieldUtil.obj
 0001:000ec910       ?isBoundaryEdge@HeightFieldUtil@Gu@physx@@QEBA_NI@Z 00000001800ed910 f   GuHeightFieldUtil.obj
 0001:000ec9e0       ?getFaceIndexAtShapePoint@HeightFieldUtil@Gu@physx@@QEBAIMM@Z 00000001800ed9e0 f   GuHeightFieldUtil.obj
 0001:000ecb00       ?getFaceIndexAtShapePointNoTest@HeightFieldUtil@Gu@physx@@QEBAIMM@Z 00000001800edb00 f   GuHeightFieldUtil.obj
 0001:000ecbb0       ?getFaceIndexAtShapePointNoTest2@HeightFieldUtil@Gu@physx@@QEBAIIMM@Z 00000001800edbb0 f   GuHeightFieldUtil.obj
 0001:000ecc20       ?getFaceIndexAtTriangleIndex@HeightFieldUtil@Gu@physx@@QEBAII@Z 00000001800edc20 f   GuHeightFieldUtil.obj
 0001:000ecc70       ?getSmoothNormalAtShapePoint@HeightFieldUtil@Gu@physx@@QEBA?AVPxVec3@3@MM@Z 00000001800edc70 f   GuHeightFieldUtil.obj
 0001:000ed100       ?getVertexNormal@HeightFieldUtil@Gu@physx@@QEBA?AVPxVec3@3@III@Z 00000001800ee100 f   GuHeightFieldUtil.obj
 0001:000ed3d0       ?getVertexFaceIndex@HeightFieldUtil@Gu@physx@@QEBAIIII@Z 00000001800ee3d0 f   GuHeightFieldUtil.obj
 0001:000ed500       ?getEdge@HeightFieldUtil@Gu@physx@@QEBAXIIIIAEAVPxVec3@3@0@Z 00000001800ee500 f   GuHeightFieldUtil.obj
 0001:000ed750       ?getEdgeFaceIndex@HeightFieldUtil@Gu@physx@@QEBAII@Z 00000001800ee750 f   GuHeightFieldUtil.obj
 0001:000ed810       ?getEdgeFaceIndex@HeightFieldUtil@Gu@physx@@QEBAIIIII@Z 00000001800ee810 f   GuHeightFieldUtil.obj
 0001:000ed8e0       ?getEdgeFaceIndex@HeightFieldUtil@Gu@physx@@QEBAIIIPEIBI@Z 00000001800ee8e0 f   GuHeightFieldUtil.obj
 0001:000ed990       ?findClosestPointsOnCell@HeightFieldUtil@Gu@physx@@QEBAIIIVPxVec3@3@PEIAV43@PEIAI_N33@Z 00000001800ee990 f   GuHeightFieldUtil.obj
 0001:000ee150       ?findProjectionOnTriangle@HeightFieldUtil@Gu@physx@@QEBA_NIIIAEBVPxVec3@3@AEAV43@@Z 00000001800ef150 f   GuHeightFieldUtil.obj
 0001:000ee410       ?findClosestPointOnEdge@HeightFieldUtil@Gu@physx@@QEBAMIIIIAEBVPxVec3@3@AEAV43@@Z 00000001800ef410 f   GuHeightFieldUtil.obj
 0001:000ee710       ?getTriangle@HeightFieldUtil@Gu@physx@@QEBAIAEBVPxTransform@3@AEAVPxTriangle@3@PEAI2I_N3@Z 00000001800ef710 f   GuHeightFieldUtil.obj
 0001:000eed20       ?overlapAABBTriangles@HeightFieldUtil@Gu@physx@@QEBA_NAEBVPxTransform@3@AEBVPxBounds3@3@IPEAV?$EntityReport@I@23@@Z 00000001800efd20 f   GuHeightFieldUtil.obj
 0001:000effd0       ?getEdgeTriangleIndices@HeightField@Gu@physx@@QEBAIIQEAIIII@Z 00000001800f0fd0 f i GuHeightFieldUtil.obj
 0001:000f0130       ?getTriangleAdjacencyIndices@HeightField@Gu@physx@@QEBAXIIIIAEAI00@Z 00000001800f1130 f i GuHeightFieldUtil.obj
 0001:000f0310       ?getTriangleVertexIndices@HeightField@Gu@physx@@QEBAXIAEAI00@Z 00000001800f1310 f i GuHeightFieldUtil.obj
 0001:000f03f0       ?isConvexEdge@HeightField@Gu@physx@@QEBA_NIIII@Z 00000001800f13f0 f i GuHeightFieldUtil.obj
 0001:000f0600       ?checkOverlapAABB_heightFieldGeom@Gu@physx@@YA_NAEBVPxGeometry@2@AEBVPxTransform@2@AEBVPxBounds3@2@@Z 00000001800f1600 f   GuOverlapTestsHF.obj
 0001:000f0a50       ?GeomOverlapCallback_SphereHeightfield@@YA_NAEBVPxGeometry@physx@@AEBVPxTransform@2@01PEAUTriggerCache@Gu@2@@Z 00000001800f1a50 f   GuOverlapTestsHF.obj
 0001:000f0c30       ?GeomOverlapCallback_CapsuleHeightfield@@YA_NAEBVPxGeometry@physx@@AEBVPxTransform@2@01PEAUTriggerCache@Gu@2@@Z 00000001800f1c30 f   GuOverlapTestsHF.obj
 0001:000f0e60       ?GeomOverlapCallback_BoxHeightfield@@YA_NAEBVPxGeometry@physx@@AEBVPxTransform@2@01PEAUTriggerCache@Gu@2@@Z 00000001800f1e60 f   GuOverlapTestsHF.obj
 0001:000f1130       ?GeomOverlapCallback_ConvexHeightfield@@YA_NAEBVPxGeometry@physx@@AEBVPxTransform@2@01PEAUTriggerCache@Gu@2@@Z 00000001800f2130 f   GuOverlapTestsHF.obj
 0001:000f1480       ??$traceSegment@UTriggerTraceSegmentCallback@Gu@physx@@$0A@$0A@@HeightFieldUtil@Gu@physx@@QEBAXAEBVPxVec3@2@0MPEAUTriggerTraceSegmentCallback@12@AEBVPxBounds3@2@_NPEBV32@@Z 00000001800f2480 f i GuOverlapTestsHF.obj
 0001:000f68a0       ?sweepCapsule_HeightFieldGeom@@YA_NAEBVPxGeometry@physx@@AEBVPxTransform@2@AEBVPxCapsuleGeometry@2@1AEBVCapsule@Gu@2@AEBVPxVec3@2@MAEAUPxSweepHit@2@V?$PxFlags@W4Enum@PxHitFlag@physx@@G@2@M@Z 00000001800f78a0 f   GuSweepsHF.obj
 0001:000f70e0       ?sweepConvex_HeightFieldGeom@@YA_NAEBVPxGeometry@physx@@AEBVPxTransform@2@AEBVPxConvexMeshGeometry@2@1AEBVPxVec3@2@MAEAUPxSweepHit@2@V?$PxFlags@W4Enum@PxHitFlag@physx@@G@2@M@Z 00000001800f80e0 f   GuSweepsHF.obj
 0001:000f7b90       ?sweepBox_HeightFieldGeom@@YA_NAEBVPxGeometry@physx@@AEBVPxTransform@2@AEBVPxBoxGeometry@2@1AEBVBox@Gu@2@AEBVPxVec3@2@MAEAUPxSweepHit@2@V?$PxFlags@W4Enum@PxHitFlag@physx@@G@2@M@Z 00000001800f8b90 f   GuSweepsHF.obj
 0001:000f8e80       ??$traceSegment@VBoxTraceSegmentReport@@$0A@$00@HeightFieldUtil@Gu@physx@@QEBAXAEBVPxVec3@2@0MPEAVBoxTraceSegmentReport@@AEBVPxBounds3@2@_NPEBV32@@Z 00000001800f9e80 f i GuSweepsHF.obj
 0001:000f9690       ??$traceSegment@VCapsuleTraceSegmentReport@@$0A@$00@HeightFieldUtil@Gu@physx@@QEBAXAEBVPxVec3@2@0MPEAVCapsuleTraceSegmentReport@@AEBVPxBounds3@2@_NPEBV32@@Z 00000001800fa690 f i GuSweepsHF.obj
 0001:000f9ea0       ??$traceSegment@VConvexTraceSegmentReport@@$0A@$00@HeightFieldUtil@Gu@physx@@QEBAXAEBVPxVec3@2@0MPEAVConvexTraceSegmentReport@@AEBVPxBounds3@2@_NPEBV32@@Z 00000001800faea0 f i GuSweepsHF.obj
 0001:000fa6b0       ??0ConvexTraceSegmentReport@@QEAA@AEBVHeightFieldUtil@Gu@physx@@AEBUConvexHullData@23@AEBVPxMeshScale@3@AEBVPxTransform@3@3AEBVPxVec3@3@MV?$PxFlags@W4Enum@PxHitFlag@physx@@G@3@M@Z 00000001800fb6b0 f i GuSweepsHF.obj
 0001:000fb310       ??_EBoxTraceSegmentReport@@UEAAPEAXI@Z 00000001800fc310 f i GuSweepsHF.obj
 0001:000fb310       ??_GBoxTraceSegmentReport@@UEAAPEAXI@Z 00000001800fc310 f i GuSweepsHF.obj
 0001:000fb350       ??_ECapsuleTraceSegmentReport@@UEAAPEAXI@Z 00000001800fc350 f i GuSweepsHF.obj
 0001:000fb350       ??_GCapsuleTraceSegmentReport@@UEAAPEAXI@Z 00000001800fc350 f i GuSweepsHF.obj
 0001:000fb390       ??_EConvexTraceSegmentReport@@UEAAPEAXI@Z 00000001800fc390 f i GuSweepsHF.obj
 0001:000fb390       ??_GConvexTraceSegmentReport@@UEAAPEAXI@Z 00000001800fc390 f i GuSweepsHF.obj
 0001:000fb3d0       ??_GHeightFieldTraceSegmentReport@@UEAAPEAXI@Z 00000001800fc3d0 f i GuSweepsHF.obj
 0001:000fb3d0       ??_EHeightFieldTraceSegmentReport@@UEAAPEAXI@Z 00000001800fc3d0 f i GuSweepsHF.obj
 0001:000fb410       ?addIndex@?$OverlapTraceSegment@VBoxTraceSegmentReport@@@HeightFieldUtil@Gu@physx@@QEAA_NI@Z 00000001800fc410 f i GuSweepsHF.obj
 0001:000fb490       ?addIndex@?$OverlapTraceSegment@VCapsuleTraceSegmentReport@@@HeightFieldUtil@Gu@physx@@QEAA_NI@Z 00000001800fc490 f i GuSweepsHF.obj
 0001:000fb510       ?addIndex@?$OverlapTraceSegment@VConvexTraceSegmentReport@@@HeightFieldUtil@Gu@physx@@QEAA_NI@Z 00000001800fc510 f i GuSweepsHF.obj
 0001:000fb590       ?finalizeHit@BoxTraceSegmentReport@@QEAA_NAEAUPxSweepHit@physx@@AEBVPxHeightFieldGeometry@3@AEBVPxTransform@3@2AEBVBox@Gu@3@AEBVPxVec3@3@MM@Z 00000001800fc590 f i GuSweepsHF.obj
 0001:000fbb50       ?finalizeHit@CapsuleTraceSegmentReport@@QEAA_NAEAUPxSweepHit@physx@@AEBVPxHeightFieldGeometry@3@AEBVPxTransform@3@AEBVCapsule@Gu@3@3AEBVPxVec3@3@@Z 00000001800fcb50 f i GuSweepsHF.obj
 0001:000fbdc0       ?finalizeHit@ConvexTraceSegmentReport@@QEAA_NAEAUPxSweepHit@physx@@AEBVPxHeightFieldGeometry@3@AEBVPxTransform@3@AEBVPxConvexMeshGeometry@3@2AEBVPxVec3@3@M@Z 00000001800fcdc0 f i GuSweepsHF.obj
 0001:000fc070       ?onEvent@BoxTraceSegmentReport@@UEAA_NIPEAI@Z 00000001800fd070 f i GuSweepsHF.obj
 0001:000fc720       ?onEvent@CapsuleTraceSegmentReport@@UEAA_NIPEAI@Z 00000001800fd720 f i GuSweepsHF.obj
 0001:000fc9e0       ?onEvent@ConvexTraceSegmentReport@@UEAA_NIPEAI@Z 00000001800fd9e0 f i GuSweepsHF.obj
 0001:000fd1c0       ?prepare@?$OverlapTraceSegment@VBoxTraceSegmentReport@@@HeightFieldUtil@Gu@physx@@QEAAXAEBVPxVec3@4@00AEAM1@Z 00000001800fe1c0 f i GuSweepsHF.obj
 0001:000fd500       ?prepare@?$OverlapTraceSegment@VCapsuleTraceSegmentReport@@@HeightFieldUtil@Gu@physx@@QEAAXAEBVPxVec3@4@00AEAM1@Z 00000001800fe500 f i GuSweepsHF.obj
 0001:000fd840       ?prepare@?$OverlapTraceSegment@VConvexTraceSegmentReport@@@HeightFieldUtil@Gu@physx@@QEAAXAEBVPxVec3@4@00AEAM1@Z 00000001800fe840 f i GuSweepsHF.obj
 0001:000fdb80       ?step@?$OverlapTraceSegment@VBoxTraceSegmentReport@@@HeightFieldUtil@Gu@physx@@QEAA_NHH@Z 00000001800feb80 f i GuSweepsHF.obj
 0001:000fdc90       ?step@?$OverlapTraceSegment@VCapsuleTraceSegmentReport@@@HeightFieldUtil@Gu@physx@@QEAA_NHH@Z 00000001800fec90 f i GuSweepsHF.obj
 0001:000fdda0       ?step@?$OverlapTraceSegment@VConvexTraceSegmentReport@@@HeightFieldUtil@Gu@physx@@QEAA_NHH@Z 00000001800feda0 f i GuSweepsHF.obj
 0001:000fdeb0       ?testVertexIndex@?$OverlapTraceSegment@VBoxTraceSegmentReport@@@HeightFieldUtil@Gu@physx@@QEAA_NI@Z 00000001800feeb0 f i GuSweepsHF.obj
 0001:000fdfe0       ?testVertexIndex@?$OverlapTraceSegment@VCapsuleTraceSegmentReport@@@HeightFieldUtil@Gu@physx@@QEAA_NI@Z 00000001800fefe0 f i GuSweepsHF.obj
 0001:000fe110       ?testVertexIndex@?$OverlapTraceSegment@VConvexTraceSegmentReport@@@HeightFieldUtil@Gu@physx@@QEAA_NI@Z 00000001800ff110 f i GuSweepsHF.obj
 0001:000fe240       ?visitCells@?$OverlapTraceSegment@VBoxTraceSegmentReport@@@HeightFieldUtil@Gu@physx@@QEAA_NAEBUOverlapLine@1234@@Z 00000001800ff240 f i GuSweepsHF.obj
 0001:000fe360       ?visitCells@?$OverlapTraceSegment@VBoxTraceSegmentReport@@@HeightFieldUtil@Gu@physx@@QEAA_NAEBUOverlapRectangle@1234@@Z 00000001800ff360 f i GuSweepsHF.obj
 0001:000fe5d0       ?visitCells@?$OverlapTraceSegment@VCapsuleTraceSegmentReport@@@HeightFieldUtil@Gu@physx@@QEAA_NAEBUOverlapLine@1234@@Z 00000001800ff5d0 f i GuSweepsHF.obj
 0001:000fe6f0       ?visitCells@?$OverlapTraceSegment@VCapsuleTraceSegmentReport@@@HeightFieldUtil@Gu@physx@@QEAA_NAEBUOverlapRectangle@1234@@Z 00000001800ff6f0 f i GuSweepsHF.obj
 0001:000fe960       ?visitCells@?$OverlapTraceSegment@VConvexTraceSegmentReport@@@HeightFieldUtil@Gu@physx@@QEAA_NAEBUOverlapLine@1234@@Z 00000001800ff960 f i GuSweepsHF.obj
 0001:000fea80       ?visitCells@?$OverlapTraceSegment@VConvexTraceSegmentReport@@@HeightFieldUtil@Gu@physx@@QEAA_NAEBUOverlapRectangle@1234@@Z 00000001800ffa80 f i GuSweepsHF.obj
 0001:000fecf0       ?pcmContactBoxBox@Gu@physx@@YA_NAEBVGeometryUnion@12@0AEBVPxTransform@2@1AEBUNarrowPhaseParams@12@AEAUCache@12@AEAVContactBuffer@12@PEAVRenderOutput@Cm@2@@Z 00000001800ffcf0 f   GuPCMContactBoxBox.obj
 0001:000ffed0       ??$gjkPenetration@U?$RelativeConvex@VShrunkBoxV@Gu@physx@@@Gu@physx@@U?$LocalConvex@VShrunkBoxV@Gu@physx@@@23@@Gu@physx@@YA?AW4GjkStatus@01@AEBU?$RelativeConvex@VShrunkBoxV@Gu@physx@@@01@AEBU?$LocalConvex@VShrunkBoxV@Gu@physx@@@01@AEBT__m128@@2AEAT5@333PEIAE4AEAE_N@Z 0000000180100ed0 f i GuPCMContactBoxBox.obj
 0001:00101ed0       ??0MeshPersistentContact@Gu@physx@@QEAA@XZ 0000000180102ed0 f i GuPCMContactBoxBox.obj
 0001:00101ee0       ??0MultiplePersistentContactManifold@Gu@physx@@QEAA@XZ 0000000180102ee0 f i GuPCMContactBoxBox.obj
 0001:00101fc0       ??0PersistentContact@Gu@physx@@QEAA@XZ 0000000180102fc0 f i GuPCMContactBoxBox.obj
 0001:00101fd0       ??0SinglePersistentContactManifold@Gu@physx@@QEAA@XZ 0000000180102fd0 f i GuPCMContactBoxBox.obj
 0001:00101ff0       ??4MultiplePersistentContactManifold@Gu@physx@@QEAAAEAV012@$$QEAV012@@Z 0000000180102ff0 f i GuPCMContactBoxBox.obj
 0001:001023c0       ??4MultiplePersistentContactManifold@Gu@physx@@QEAAAEAV012@AEBV012@@Z 00000001801033c0 f i GuPCMContactBoxBox.obj
 0001:00102460       ??_G?$RelativeConvex@VBoxV@Gu@physx@@@Gu@physx@@UEAAPEAXI@Z 0000000180103460 f i GuPCMContactBoxBox.obj
 0001:00102460       ??_E?$RelativeConvex@VBoxV@Gu@physx@@@Gu@physx@@UEAAPEAXI@Z 0000000180103460 f i GuPCMContactBoxBox.obj
 0001:001024a0       ??_E?$RelativeConvex@VShrunkBoxV@Gu@physx@@@Gu@physx@@UEAAPEAXI@Z 00000001801034a0 f i GuPCMContactBoxBox.obj
 0001:001024a0       ??_G?$RelativeConvex@VShrunkBoxV@Gu@physx@@@Gu@physx@@UEAAPEAXI@Z 00000001801034a0 f i GuPCMContactBoxBox.obj
 0001:00103520       ?clearManifold@MultiplePersistentContactManifold@Gu@physx@@QEAAXXZ 0000000180104520 f i GuPCMContactBoxBox.obj
 0001:00105670       ?getEmptyManifold@MultiplePersistentContactManifold@Gu@physx@@QEAAPEAVSinglePersistentContactManifold@23@XZ 0000000180106670 f i GuPCMContactBoxBox.obj
 0001:00105920       ?getManifold@MultiplePersistentContactManifold@Gu@physx@@QEAAPEAVSinglePersistentContactManifold@23@I@Z 0000000180106920 f i GuPCMContactBoxBox.obj
 0001:00105940       ?getSweepMargin@?$RelativeConvex@VBoxV@Gu@physx@@@Gu@physx@@UEBA?AT__m128@@XZ 0000000180106940 f i GuPCMContactBoxBox.obj
 0001:00105970       ?getSweepMargin@?$RelativeConvex@VShrunkBoxV@Gu@physx@@@Gu@physx@@UEBA?AT__m128@@XZ 0000000180106970 f i GuPCMContactBoxBox.obj
 0001:001059a0       ?initialize@MultiplePersistentContactManifold@Gu@physx@@QEAAXXZ 00000001801069a0 f i GuPCMContactBoxBox.obj
 0001:00105a50       ?invalidate@MultiplePersistentContactManifold@Gu@physx@@QEAAIAEBVPsTransformV@aos@shdfnd@3@AEBT__m128@@1@Z 0000000180106a50 f i GuPCMContactBoxBox.obj
 0001:00105b00       ?invalidate@MultiplePersistentContactManifold@Gu@physx@@QEAAIAEBVPsTransformV@aos@shdfnd@3@AEBT__m128@@@Z 0000000180106b00 f i GuPCMContactBoxBox.obj
 0001:00105bd0       ?maxTransformPositionDelta@MultiplePersistentContactManifold@Gu@physx@@QEAA?AT__m128@@AEBT4@@Z 0000000180106bd0 f i GuPCMContactBoxBox.obj
 0001:00105c20       ?maxTransformQuatDelta@MultiplePersistentContactManifold@Gu@physx@@QEAA?AT__m128@@AEBT4@@Z 0000000180106c20 f i GuPCMContactBoxBox.obj
 0001:00105c70       ?reduceManifoldContactsInDifferentPatches@MultiplePersistentContactManifold@Gu@physx@@QEAAIPEAPEAUPCMContactPatch@23@IPEAVMeshPersistentContact@23@IAEBT__m128@@@Z 0000000180106c70 f i GuPCMContactBoxBox.obj
 0001:00105e20       ?refineContactPatchConnective@MultiplePersistentContactManifold@Gu@physx@@QEAAXPEAPEAUPCMContactPatch@23@IPEAVMeshPersistentContact@23@AEBT__m128@@@Z 0000000180106e20 f i GuPCMContactBoxBox.obj
 0001:00105f30       ?refreshManifold@MultiplePersistentContactManifold@Gu@physx@@QEAAXAEBVPsMatTransformV@aos@shdfnd@3@AEBT__m128@@1@Z 0000000180106f30 f i GuPCMContactBoxBox.obj
 0001:00106080       ?setRelativeTransform@MultiplePersistentContactManifold@Gu@physx@@QEAAXAEBVPsTransformV@aos@shdfnd@3@@Z 0000000180107080 f i GuPCMContactBoxBox.obj
 0001:001060a0       ?support@?$RelativeConvex@VBoxV@Gu@physx@@@Gu@physx@@UEBA?AT__m128@@AEBT4@@Z 00000001801070a0 f i GuPCMContactBoxBox.obj
 0001:00106140       ?support@?$RelativeConvex@VBoxV@Gu@physx@@@Gu@physx@@UEBA?AT__m128@@AEBT4@AEAHPEAT4@@Z 0000000180107140 f i GuPCMContactBoxBox.obj
 0001:001061f0       ?support@?$RelativeConvex@VShrunkBoxV@Gu@physx@@@Gu@physx@@UEBA?AT__m128@@AEBT4@@Z 00000001801071f0 f i GuPCMContactBoxBox.obj
 0001:001062c0       ?support@?$RelativeConvex@VShrunkBoxV@Gu@physx@@@Gu@physx@@UEBA?AT__m128@@AEBT4@AEAHPEAT4@@Z 00000001801072c0 f i GuPCMContactBoxBox.obj
 0001:001063b0       ?supportPoint@?$RelativeConvex@VBoxV@Gu@physx@@@Gu@physx@@UEBA?AT__m128@@HPEAT4@@Z 00000001801073b0 f i GuPCMContactBoxBox.obj
 0001:00106430       ?supportPoint@?$RelativeConvex@VShrunkBoxV@Gu@physx@@@Gu@physx@@UEBA?AT__m128@@HPEAT4@@Z 0000000180107430 f i GuPCMContactBoxBox.obj
 0001:001064e0       ?toBuffer@MultiplePersistentContactManifold@Gu@physx@@QEAAXPEIAE@Z 00000001801074e0 f i GuPCMContactBoxBox.obj
 0001:001065f0       ?pcmContactBoxConvex@Gu@physx@@YA_NAEBVGeometryUnion@12@0AEBVPxTransform@2@1AEBUNarrowPhaseParams@12@AEAUCache@12@AEAVContactBuffer@12@PEAVRenderOutput@Cm@2@@Z 00000001801075f0 f   GuPCMContactBoxConvex.obj
 0001:00107ac0       ??$gjkPenetration@U?$RelativeConvex@VShrunkBoxV@Gu@physx@@@Gu@physx@@U?$LocalConvex@VShrunkConvexHullNoScaleV@Gu@physx@@@23@@Gu@physx@@YA?AW4GjkStatus@01@AEBU?$RelativeConvex@VShrunkBoxV@Gu@physx@@@01@AEBU?$LocalConvex@VShrunkConvexHullNoScaleV@Gu@physx@@@01@AEBT__m128@@2AEAT5@333PEIAE4AEAE_N@Z 0000000180108ac0 f i GuPCMContactBoxConvex.obj
 0001:00109be0       ??$gjkPenetration@U?$RelativeConvex@VShrunkBoxV@Gu@physx@@@Gu@physx@@U?$LocalConvex@VShrunkConvexHullV@Gu@physx@@@23@@Gu@physx@@YA?AW4GjkStatus@01@AEBU?$RelativeConvex@VShrunkBoxV@Gu@physx@@@01@AEBU?$LocalConvex@VShrunkConvexHullV@Gu@physx@@@01@AEBT__m128@@2AEAT5@333PEIAE4AEAE_N@Z 000000018010abe0 f i GuPCMContactBoxConvex.obj
 0001:0010bf00       ??1SupportLocal@Gu@physx@@UEAA@XZ 000000018010cf00 f i GuPCMContactBoxConvex.obj
 0001:0010bf10       ??_G?$LocalConvex@VShrunkConvexHullNoScaleV@Gu@physx@@@Gu@physx@@UEAAPEAXI@Z 000000018010cf10 f i GuPCMContactBoxConvex.obj
 0001:0010bf10       ??_E?$LocalConvex@VShrunkConvexHullNoScaleV@Gu@physx@@@Gu@physx@@UEAAPEAXI@Z 000000018010cf10 f i GuPCMContactBoxConvex.obj
 0001:0010bf50       ??_G?$SupportLocalImpl@VBoxV@Gu@physx@@@Gu@physx@@UEAAPEAXI@Z 000000018010cf50 f i GuPCMContactBoxConvex.obj
 0001:0010bf50       ??_E?$SupportLocalImpl@VBoxV@Gu@physx@@@Gu@physx@@UEAAPEAXI@Z 000000018010cf50 f i GuPCMContactBoxConvex.obj
 0001:0010bf90       ??_E?$SupportLocalImpl@VConvexHullNoScaleV@Gu@physx@@@Gu@physx@@UEAAPEAXI@Z 000000018010cf90 f i GuPCMContactBoxConvex.obj
 0001:0010bf90       ??_G?$SupportLocalImpl@VConvexHullNoScaleV@Gu@physx@@@Gu@physx@@UEAAPEAXI@Z 000000018010cf90 f i GuPCMContactBoxConvex.obj
 0001:0010bfd0       ??_G?$SupportLocalImpl@VConvexHullV@Gu@physx@@@Gu@physx@@UEAAPEAXI@Z 000000018010cfd0 f i GuPCMContactBoxConvex.obj
 0001:0010bfd0       ??_E?$SupportLocalImpl@VConvexHullV@Gu@physx@@@Gu@physx@@UEAAPEAXI@Z 000000018010cfd0 f i GuPCMContactBoxConvex.obj
 0001:0010c010       ??_GSupportLocal@Gu@physx@@UEAAPEAXI@Z 000000018010d010 f i GuPCMContactBoxConvex.obj
 0001:0010c010       ??_ESupportLocal@Gu@physx@@UEAAPEAXI@Z 000000018010d010 f i GuPCMContactBoxConvex.obj
 0001:0010c460       ?doSupport@?$SupportLocalImpl@VBoxV@Gu@physx@@@Gu@physx@@UEBA?AT__m128@@AEBT4@@Z 000000018010d460 f i GuPCMContactBoxConvex.obj
 0001:0010c4a0       ?doSupport@?$SupportLocalImpl@VBoxV@Gu@physx@@@Gu@physx@@UEBAXAEBT__m128@@AEAT4@1@Z 000000018010d4a0 f i GuPCMContactBoxConvex.obj
 0001:0010c500       ?doSupport@?$SupportLocalImpl@VConvexHullNoScaleV@Gu@physx@@@Gu@physx@@UEBA?AT__m128@@AEBT4@@Z 000000018010d500 f i GuPCMContactBoxConvex.obj
 0001:0010c560       ?doSupport@?$SupportLocalImpl@VConvexHullNoScaleV@Gu@physx@@@Gu@physx@@UEBAXAEBT__m128@@AEAT4@1@Z 000000018010d560 f i GuPCMContactBoxConvex.obj
 0001:0010c740       ?doSupport@?$SupportLocalImpl@VConvexHullV@Gu@physx@@@Gu@physx@@UEBA?AT__m128@@AEBT4@@Z 000000018010d740 f i GuPCMContactBoxConvex.obj
 0001:0010c830       ?doSupport@?$SupportLocalImpl@VConvexHullV@Gu@physx@@@Gu@physx@@UEBAXAEBT__m128@@AEAT4@1@Z 000000018010d830 f i GuPCMContactBoxConvex.obj
 0001:0010cfa0       ?getSweepMargin@?$LocalConvex@VShrunkConvexHullNoScaleV@Gu@physx@@@Gu@physx@@UEBA?AT__m128@@XZ 000000018010dfa0 f i GuPCMContactBoxConvex.obj
 0001:0010cfd0       ?populateVerts@?$SupportLocalImpl@VBoxV@Gu@physx@@@Gu@physx@@UEBAXPEBEIPEBVPxVec3@3@PEAT__m128@@@Z 000000018010dfd0 f i GuPCMContactBoxConvex.obj
 0001:0010d020       ?populateVerts@?$SupportLocalImpl@VConvexHullNoScaleV@Gu@physx@@@Gu@physx@@UEBAXPEBEIPEBVPxVec3@3@PEAT__m128@@@Z 000000018010e020 f i GuPCMContactBoxConvex.obj
 0001:0010d070       ?populateVerts@?$SupportLocalImpl@VConvexHullV@Gu@physx@@@Gu@physx@@UEBAXPEBEIPEBVPxVec3@3@PEAT__m128@@@Z 000000018010e070 f i GuPCMContactBoxConvex.obj
 0001:0010d0f0       ?support@?$LocalConvex@VShrunkConvexHullNoScaleV@Gu@physx@@@Gu@physx@@UEBA?AT__m128@@AEBT4@@Z 000000018010e0f0 f i GuPCMContactBoxConvex.obj
 0001:0010d370       ?support@?$LocalConvex@VShrunkConvexHullNoScaleV@Gu@physx@@@Gu@physx@@UEBA?AT__m128@@AEBT4@AEAHPEAT4@@Z 000000018010e370 f i GuPCMContactBoxConvex.obj
 0001:0010d640       ?supportPoint@?$LocalConvex@VShrunkConvexHullNoScaleV@Gu@physx@@@Gu@physx@@UEBA?AT__m128@@HPEAT4@@Z 000000018010e640 f i GuPCMContactBoxConvex.obj
 0001:0010d8f0       ?pcmContactCapsuleBox@Gu@physx@@YA_NAEBVGeometryUnion@12@0AEBVPxTransform@2@1AEBUNarrowPhaseParams@12@AEAUCache@12@AEAVContactBuffer@12@PEAVRenderOutput@Cm@2@@Z 000000018010e8f0 f   GuPCMContactCapsuleBox.obj
 0001:0010ed30       ??$gjkPenetration@U?$LocalConvex@VCapsuleV@Gu@physx@@@Gu@physx@@U?$LocalConvex@VBoxV@Gu@physx@@@23@@Gu@physx@@YA?AW4GjkStatus@01@AEBU?$LocalConvex@VCapsuleV@Gu@physx@@@01@AEBU?$LocalConvex@VBoxV@Gu@physx@@@01@AEBT__m128@@2AEAT5@333PEIAE4AEAE_N@Z 000000018010fd30 f i GuPCMContactCapsuleBox.obj
 0001:00110bf0       ?pcmContactCapsuleCapsule@Gu@physx@@YA_NAEBVGeometryUnion@12@0AEBVPxTransform@2@1AEBUNarrowPhaseParams@12@AEAUCache@12@AEAVContactBuffer@12@PEAVRenderOutput@Cm@2@@Z 0000000180111bf0 f   GuPCMContactCapsuleCapsule.obj
 0001:001117d0       ?pcmContactCapsuleConvex@Gu@physx@@YA_NAEBVGeometryUnion@12@0AEBVPxTransform@2@1AEBUNarrowPhaseParams@12@AEAUCache@12@AEAVContactBuffer@12@PEAVRenderOutput@Cm@2@@Z 00000001801127d0 f   GuPCMContactCapsuleConvex.obj
 0001:001130f0       ??$gjkPenetration@U?$LocalConvex@VCapsuleV@Gu@physx@@@Gu@physx@@U?$LocalConvex@VConvexHullNoScaleV@Gu@physx@@@23@@Gu@physx@@YA?AW4GjkStatus@01@AEBU?$LocalConvex@VCapsuleV@Gu@physx@@@01@AEBU?$LocalConvex@VConvexHullNoScaleV@Gu@physx@@@01@AEBT__m128@@2AEAT5@333PEIAE4AEAE_N@Z 00000001801140f0 f i GuPCMContactCapsuleConvex.obj
 0001:00115010       ??$gjkPenetration@U?$LocalConvex@VCapsuleV@Gu@physx@@@Gu@physx@@U?$LocalConvex@VConvexHullV@Gu@physx@@@23@@Gu@physx@@YA?AW4GjkStatus@01@AEBU?$LocalConvex@VCapsuleV@Gu@physx@@@01@AEBU?$LocalConvex@VConvexHullV@Gu@physx@@@01@AEBT__m128@@2AEAT5@333PEIAE4AEAE_N@Z 0000000180116010 f i GuPCMContactCapsuleConvex.obj
 0001:00117010       ??_G?$LocalConvex@VConvexHullNoScaleV@Gu@physx@@@Gu@physx@@UEAAPEAXI@Z 0000000180118010 f i GuPCMContactCapsuleConvex.obj
 0001:00117010       ??_E?$LocalConvex@VConvexHullNoScaleV@Gu@physx@@@Gu@physx@@UEAAPEAXI@Z 0000000180118010 f i GuPCMContactCapsuleConvex.obj
 0001:001173e0       ?getSweepMargin@?$LocalConvex@VConvexHullNoScaleV@Gu@physx@@@Gu@physx@@UEBA?AT__m128@@XZ 00000001801183e0 f i GuPCMContactCapsuleConvex.obj
 0001:00117410       ?support@?$LocalConvex@VConvexHullNoScaleV@Gu@physx@@@Gu@physx@@UEBA?AT__m128@@AEBT4@@Z 0000000180118410 f i GuPCMContactCapsuleConvex.obj
 0001:00117470       ?support@?$LocalConvex@VConvexHullNoScaleV@Gu@physx@@@Gu@physx@@UEBA?AT__m128@@AEBT4@AEAHPEAT4@@Z 0000000180118470 f i GuPCMContactCapsuleConvex.obj
 0001:001174e0       ?supportPoint@?$LocalConvex@VConvexHullNoScaleV@Gu@physx@@@Gu@physx@@UEBA?AT__m128@@HPEAT4@@Z 00000001801184e0 f i GuPCMContactCapsuleConvex.obj
 0001:00117510       ?pcmContactCapsuleHeightField@Gu@physx@@YA_NAEBVGeometryUnion@12@0AEBVPxTransform@2@1AEBUNarrowPhaseParams@12@AEAUCache@12@AEAVContactBuffer@12@PEAVRenderOutput@Cm@2@@Z 0000000180118510 f   GuPCMContactCapsuleHeightField.obj
 0001:00118600       ??0PCMContactPatch@Gu@physx@@QEAA@XZ 0000000180119600 f i GuPCMContactCapsuleHeightField.obj
 0001:00118640       ??0PCMMeshContactGeneration@Gu@physx@@QEAA@AEBT__m128@@0AEBVPsTransformV@aos@shdfnd@2@1AEAVMultiplePersistentContactManifold@12@AEAVContactBuffer@12@PEAVRenderOutput@Cm@2@@Z 0000000180119640 f i GuPCMContactCapsuleHeightField.obj
 0001:00118ad0       ??_E?$PCMHeightfieldContactGenerationCallback@UPCMCapsuleVsHeightfieldContactGenerationCallback@physx@@@Gu@physx@@UEAAPEAXI@Z 0000000180119ad0 f i GuPCMContactCapsuleHeightField.obj
 0001:00118ad0       ??_G?$PCMHeightfieldContactGenerationCallback@UPCMCapsuleVsHeightfieldContactGenerationCallback@physx@@@Gu@physx@@UEAAPEAXI@Z 0000000180119ad0 f i GuPCMContactCapsuleHeightField.obj
 0001:00118b10       ??_GPCMCapsuleVsHeightfieldContactGenerationCallback@physx@@UEAAPEAXI@Z 0000000180119b10 f i GuPCMContactCapsuleHeightField.obj
 0001:00118b10       ??_EPCMCapsuleVsHeightfieldContactGenerationCallback@physx@@UEAAPEAXI@Z 0000000180119b10 f i GuPCMContactCapsuleHeightField.obj
 0001:00118b50       ?onEvent@?$PCMHeightfieldContactGenerationCallback@UPCMCapsuleVsHeightfieldContactGenerationCallback@physx@@@Gu@physx@@UEAA_NIPEAI@Z 0000000180119b50 f i GuPCMContactCapsuleHeightField.obj
 0001:00119220       ?pcmContactCapsuleMesh@Gu@physx@@YA_NAEBVGeometryUnion@12@0AEBVPxTransform@2@1AEBUNarrowPhaseParams@12@AEAUCache@12@AEAVContactBuffer@12@PEAVRenderOutput@Cm@2@@Z 000000018011a220 f   GuPCMContactCapsuleMesh.obj
 0001:0011a530       ??$processTriangleCache@$0BA@VPCMCapsuleVsMeshContactGeneration@Gu@physx@@@PCMMeshContactGeneration@Gu@physx@@QEAA_NAEAU?$TriangleCache@$0BA@@12@@Z 000000018011b530 f i GuPCMContactCapsuleMesh.obj
 0001:0011a5e0       ??_G?$PCMMeshContactGenerationCallback@UPCMCapsuleVsMeshContactGenerationCallback@physx@@@Gu@physx@@UEAAPEAXI@Z 000000018011b5e0 f i GuPCMContactCapsuleMesh.obj
 0001:0011a5e0       ??_E?$PCMMeshContactGenerationCallback@UPCMCapsuleVsMeshContactGenerationCallback@physx@@@Gu@physx@@UEAAPEAXI@Z 000000018011b5e0 f i GuPCMContactCapsuleMesh.obj
 0001:0011a620       ??_EPCMCapsuleVsMeshContactGenerationCallback@physx@@UEAAPEAXI@Z 000000018011b620 f i GuPCMContactCapsuleMesh.obj
 0001:0011a620       ??_GPCMCapsuleVsMeshContactGenerationCallback@physx@@UEAAPEAXI@Z 000000018011b620 f i GuPCMContactCapsuleMesh.obj
 0001:0011a660       ?processHit@?$PCMMeshContactGenerationCallback@UPCMCapsuleVsMeshContactGenerationCallback@physx@@@Gu@physx@@UEAA_NAEBUPxRaycastHit@3@AEBVPxVec3@3@11AEAMPEBI@Z 000000018011b660 f i GuPCMContactCapsuleMesh.obj
 0001:0011aad0       ?generateLastContacts@PCMConvexVsMeshContactGeneration@Gu@physx@@QEAAXXZ 000000018011bad0 f   GuPCMContactConvexCommon.obj
 0001:0011b080       ?addContactsToPatch@PCMConvexVsMeshContactGeneration@Gu@physx@@QEAAXAEBT__m128@@I@Z 000000018011c080 f   GuPCMContactConvexCommon.obj
 0001:0011b820       ?processTriangle@PCMConvexVsMeshContactGeneration@Gu@physx@@QEAA_NPEBVPxVec3@3@IEPEBI@Z 000000018011c820 f   GuPCMContactConvexCommon.obj
 0001:0011bc70       ?processTriangle@PCMConvexVsMeshContactGeneration@Gu@physx@@SA_NAEBUPolygonalData@23@PEAVSupportLocal@23@PEBVPxVec3@3@IEAEBT__m128@@_NAEBVPsTransformV@aos@shdfnd@3@AEBVPsMatTransformV@9shdfnd@3@PEAVMeshPersistentContact@23@AEAI@Z 000000018011cc70 f   GuPCMContactConvexCommon.obj
 0001:0011bf60       ?processTriangle@PCMSphereVsMeshContactGeneration@Gu@physx@@QEAA_NPEBVPxVec3@3@IEPEBI@Z 000000018011cf60 f   GuPCMContactConvexCommon.obj
 0001:0011c670       ?generateEEContacts@PCMCapsuleVsMeshContactGeneration@Gu@physx@@QEAAXAEBT__m128@@000I000PEAVMeshPersistentContact@23@AEAI@Z 000000018011d670 f   GuPCMContactConvexCommon.obj
 0001:0011c7a0       ?generateEE@PCMCapsuleVsMeshContactGeneration@Gu@physx@@QEAAXAEBT__m128@@000I00PEAVMeshPersistentContact@23@AEAI@Z 000000018011d7a0 f   GuPCMContactConvexCommon.obj
 0001:0011ca30       ?generateContacts@PCMCapsuleVsMeshContactGeneration@Gu@physx@@SA_NAEBT__m128@@0000I000PEAVMeshPersistentContact@23@AEAI@Z 000000018011da30 f   GuPCMContactConvexCommon.obj
 0001:0011cf10       ?generateEEContactsMTD@PCMCapsuleVsMeshContactGeneration@Gu@physx@@SAXAEBT__m128@@000I000PEAVMeshPersistentContact@23@AEAI@Z 000000018011df10 f   GuPCMContactConvexCommon.obj
 0001:0011d030       ?generateEEMTD@PCMCapsuleVsMeshContactGeneration@Gu@physx@@SAXAEBT__m128@@000I00PEAVMeshPersistentContact@23@AEAI@Z 000000018011e030 f   GuPCMContactConvexCommon.obj
 0001:0011d290       ?processTriangle@PCMCapsuleVsMeshContactGeneration@Gu@physx@@QEAA_NPEBVPxVec3@3@IEPEBI@Z 000000018011e290 f   GuPCMContactConvexCommon.obj
 0001:0011dce0       ?processTriangle@PCMCapsuleVsMeshContactGeneration@Gu@physx@@SA_NAEBVTriangleV@23@IAEBVCapsuleV@23@AEBT__m128@@EPEAVMeshPersistentContact@23@AEAI@Z 000000018011ece0 f   GuPCMContactConvexCommon.obj
 0001:0011e040       ?pcmDistanceSegmentTriangleSquared@Gu@physx@@YA?AT__m128@@AEBT3@0000AEAT3@11@Z 000000018011f040 f   GuPCMContactConvexCommon.obj
 0001:0011fa10       ??_E?$SupportLocalImpl@VTriangleV@Gu@physx@@@Gu@physx@@UEAAPEAXI@Z 0000000180120a10 f i GuPCMContactConvexCommon.obj
 0001:0011fa10       ??_G?$SupportLocalImpl@VTriangleV@Gu@physx@@@Gu@physx@@UEAAPEAXI@Z 0000000180120a10 f i GuPCMContactConvexCommon.obj
 0001:0011fa50       ?doSupport@?$SupportLocalImpl@VTriangleV@Gu@physx@@@Gu@physx@@UEBA?AT__m128@@AEBT4@@Z 0000000180120a50 f i GuPCMContactConvexCommon.obj
 0001:0011fb00       ?doSupport@?$SupportLocalImpl@VTriangleV@Gu@physx@@@Gu@physx@@UEBAXAEBT__m128@@AEAT4@1@Z 0000000180120b00 f i GuPCMContactConvexCommon.obj
 0001:00120250       ?populateVerts@?$SupportLocalImpl@VTriangleV@Gu@physx@@@Gu@physx@@UEBAXPEBEIPEBVPxVec3@3@PEAT__m128@@@Z 0000000180121250 f i GuPCMContactConvexCommon.obj
 0001:001202b0       ?pcmContactConvexConvex@Gu@physx@@YA_NAEBVGeometryUnion@12@0AEBVPxTransform@2@1AEBUNarrowPhaseParams@12@AEAUCache@12@AEAVContactBuffer@12@PEAVRenderOutput@Cm@2@@Z 00000001801212b0 f   GuPCMContactConvexConvex.obj
 0001:00121b50       ??$gjkPenetration@U?$RelativeConvex@VShrunkConvexHullNoScaleV@Gu@physx@@@Gu@physx@@U?$LocalConvex@VShrunkConvexHullNoScaleV@Gu@physx@@@23@@Gu@physx@@YA?AW4GjkStatus@01@AEBU?$RelativeConvex@VShrunkConvexHullNoScaleV@Gu@physx@@@01@AEBU?$LocalConvex@VShrunkConvexHullNoScaleV@Gu@physx@@@01@AEBT__m128@@2AEAT5@333PEIAE4AEAE_N@Z 0000000180122b50 f i GuPCMContactConvexConvex.obj
 0001:00123dc0       ??$gjkPenetration@U?$RelativeConvex@VShrunkConvexHullNoScaleV@Gu@physx@@@Gu@physx@@U?$LocalConvex@VShrunkConvexHullV@Gu@physx@@@23@@Gu@physx@@YA?AW4GjkStatus@01@AEBU?$RelativeConvex@VShrunkConvexHullNoScaleV@Gu@physx@@@01@AEBU?$LocalConvex@VShrunkConvexHullV@Gu@physx@@@01@AEBT__m128@@2AEAT5@333PEIAE4AEAE_N@Z 0000000180124dc0 f i GuPCMContactConvexConvex.obj
 0001:001261f0       ??$gjkPenetration@U?$RelativeConvex@VShrunkConvexHullV@Gu@physx@@@Gu@physx@@U?$LocalConvex@VShrunkConvexHullNoScaleV@Gu@physx@@@23@@Gu@physx@@YA?AW4GjkStatus@01@AEBU?$RelativeConvex@VShrunkConvexHullV@Gu@physx@@@01@AEBU?$LocalConvex@VShrunkConvexHullNoScaleV@Gu@physx@@@01@AEBT__m128@@2AEAT5@333PEIAE4AEAE_N@Z 00000001801271f0 f i GuPCMContactConvexConvex.obj
 0001:00128670       ??$gjkPenetration@U?$RelativeConvex@VShrunkConvexHullV@Gu@physx@@@Gu@physx@@U?$LocalConvex@VShrunkConvexHullV@Gu@physx@@@23@@Gu@physx@@YA?AW4GjkStatus@01@AEBU?$RelativeConvex@VShrunkConvexHullV@Gu@physx@@@01@AEBU?$LocalConvex@VShrunkConvexHullV@Gu@physx@@@01@AEBT__m128@@2AEAT5@333PEIAE4AEAE_N@Z 0000000180129670 f i GuPCMContactConvexConvex.obj
 0001:0012ac90       ??_G?$RelativeConvex@VConvexHullV@Gu@physx@@@Gu@physx@@UEAAPEAXI@Z 000000018012bc90 f i GuPCMContactConvexConvex.obj
 0001:0012ac90       ??_E?$RelativeConvex@VConvexHullV@Gu@physx@@@Gu@physx@@UEAAPEAXI@Z 000000018012bc90 f i GuPCMContactConvexConvex.obj
 0001:0012acd0       ??_G?$RelativeConvex@VShrunkConvexHullNoScaleV@Gu@physx@@@Gu@physx@@UEAAPEAXI@Z 000000018012bcd0 f i GuPCMContactConvexConvex.obj
 0001:0012acd0       ??_E?$RelativeConvex@VShrunkConvexHullNoScaleV@Gu@physx@@@Gu@physx@@UEAAPEAXI@Z 000000018012bcd0 f i GuPCMContactConvexConvex.obj
 0001:0012ad10       ??_E?$RelativeConvex@VShrunkConvexHullV@Gu@physx@@@Gu@physx@@UEAAPEAXI@Z 000000018012bd10 f i GuPCMContactConvexConvex.obj
 0001:0012ad10       ??_G?$RelativeConvex@VShrunkConvexHullV@Gu@physx@@@Gu@physx@@UEAAPEAXI@Z 000000018012bd10 f i GuPCMContactConvexConvex.obj
 0001:0012b960       ?getSweepMargin@?$RelativeConvex@VConvexHullV@Gu@physx@@@Gu@physx@@UEBA?AT__m128@@XZ 000000018012c960 f i GuPCMContactConvexConvex.obj
 0001:0012b990       ?getSweepMargin@?$RelativeConvex@VShrunkConvexHullNoScaleV@Gu@physx@@@Gu@physx@@UEBA?AT__m128@@XZ 000000018012c990 f i GuPCMContactConvexConvex.obj
 0001:0012b9c0       ?getSweepMargin@?$RelativeConvex@VShrunkConvexHullV@Gu@physx@@@Gu@physx@@UEBA?AT__m128@@XZ 000000018012c9c0 f i GuPCMContactConvexConvex.obj
 0001:0012b9f0       ?support@?$RelativeConvex@VConvexHullV@Gu@physx@@@Gu@physx@@UEBA?AT__m128@@AEBT4@@Z 000000018012c9f0 f i GuPCMContactConvexConvex.obj
 0001:0012bb50       ?support@?$RelativeConvex@VConvexHullV@Gu@physx@@@Gu@physx@@UEBA?AT__m128@@AEBT4@AEAHPEAT4@@Z 000000018012cb50 f i GuPCMContactConvexConvex.obj
 0001:0012bcc0       ?support@?$RelativeConvex@VShrunkConvexHullNoScaleV@Gu@physx@@@Gu@physx@@UEBA?AT__m128@@AEBT4@@Z 000000018012ccc0 f i GuPCMContactConvexConvex.obj
 0001:0012bfb0       ?support@?$RelativeConvex@VShrunkConvexHullNoScaleV@Gu@physx@@@Gu@physx@@UEBA?AT__m128@@AEBT4@AEAHPEAT4@@Z 000000018012cfb0 f i GuPCMContactConvexConvex.obj
 0001:0012c300       ?support@?$RelativeConvex@VShrunkConvexHullV@Gu@physx@@@Gu@physx@@UEBA?AT__m128@@AEBT4@@Z 000000018012d300 f i GuPCMContactConvexConvex.obj
 0001:0012c7f0       ?support@?$RelativeConvex@VShrunkConvexHullV@Gu@physx@@@Gu@physx@@UEBA?AT__m128@@AEBT4@AEAHPEAT4@@Z 000000018012d7f0 f i GuPCMContactConvexConvex.obj
 0001:0012cd30       ?supportPoint@?$RelativeConvex@VConvexHullV@Gu@physx@@@Gu@physx@@UEBA?AT__m128@@HPEAT4@@Z 000000018012dd30 f i GuPCMContactConvexConvex.obj
 0001:0012cdd0       ?supportPoint@?$RelativeConvex@VShrunkConvexHullNoScaleV@Gu@physx@@@Gu@physx@@UEBA?AT__m128@@HPEAT4@@Z 000000018012ddd0 f i GuPCMContactConvexConvex.obj
 0001:0012d0c0       ?supportPoint@?$RelativeConvex@VShrunkConvexHullV@Gu@physx@@@Gu@physx@@UEBA?AT__m128@@HPEAT4@@Z 000000018012e0c0 f i GuPCMContactConvexConvex.obj
 0001:0012d550       ?pcmContactBoxHeightField@Gu@physx@@YA_NAEBVGeometryUnion@12@0AEBVPxTransform@2@1AEBUNarrowPhaseParams@12@AEAUCache@12@AEAVContactBuffer@12@PEAVRenderOutput@Cm@2@@Z 000000018012e550 f   GuPCMContactConvexHeightField.obj
 0001:0012d870       ?pcmContactConvexHeightField@Gu@physx@@YA_NAEBVGeometryUnion@12@0AEBVPxTransform@2@1AEBUNarrowPhaseParams@12@AEAUCache@12@AEAVContactBuffer@12@PEAVRenderOutput@Cm@2@@Z 000000018012e870 f   GuPCMContactConvexHeightField.obj
 0001:0012df60       ?PCMContactConvexHeightfield@Gu@physx@@YA_NAEBUPolygonalData@12@PEAVSupportLocal@12@AEBT__m128@@AEBVPxBounds3@2@AEBVPxHeightFieldGeometry@2@AEBVPxTransform@2@5MAEAVContactBuffer@12@AEBVFastVertex2ShapeScaling@Cm@2@_NAEAVMultiplePersistentContactManifold@12@PEAVRenderOutput@Cm@2@@Z 000000018012ef60 f   GuPCMContactConvexHeightField.obj
 0001:0012efe0       ??_G?$PCMHeightfieldContactGenerationCallback@UPCMConvexVsHeightfieldContactGenerationCallback@physx@@@Gu@physx@@UEAAPEAXI@Z 000000018012ffe0 f i GuPCMContactConvexHeightField.obj
 0001:0012efe0       ??_E?$PCMHeightfieldContactGenerationCallback@UPCMConvexVsHeightfieldContactGenerationCallback@physx@@@Gu@physx@@UEAAPEAXI@Z 000000018012ffe0 f i GuPCMContactConvexHeightField.obj
 0001:0012f020       ??_E?$SupportLocalShrunkImpl@VBoxV@Gu@physx@@VShrunkBoxV@23@@Gu@physx@@UEAAPEAXI@Z 0000000180130020 f i GuPCMContactConvexHeightField.obj
 0001:0012f020       ??_G?$SupportLocalShrunkImpl@VBoxV@Gu@physx@@VShrunkBoxV@23@@Gu@physx@@UEAAPEAXI@Z 0000000180130020 f i GuPCMContactConvexHeightField.obj
 0001:0012f060       ??_E?$SupportLocalShrunkImpl@VConvexHullNoScaleV@Gu@physx@@VShrunkConvexHullNoScaleV@23@@Gu@physx@@UEAAPEAXI@Z 0000000180130060 f i GuPCMContactConvexHeightField.obj
 0001:0012f060       ??_G?$SupportLocalShrunkImpl@VConvexHullNoScaleV@Gu@physx@@VShrunkConvexHullNoScaleV@23@@Gu@physx@@UEAAPEAXI@Z 0000000180130060 f i GuPCMContactConvexHeightField.obj
 0001:0012f0a0       ??_G?$SupportLocalShrunkImpl@VConvexHullV@Gu@physx@@VShrunkConvexHullV@23@@Gu@physx@@UEAAPEAXI@Z 00000001801300a0 f i GuPCMContactConvexHeightField.obj
 0001:0012f0a0       ??_E?$SupportLocalShrunkImpl@VConvexHullV@Gu@physx@@VShrunkConvexHullV@23@@Gu@physx@@UEAAPEAXI@Z 00000001801300a0 f i GuPCMContactConvexHeightField.obj
 0001:0012f0e0       ??_EPCMConvexVsHeightfieldContactGenerationCallback@physx@@UEAAPEAXI@Z 00000001801300e0 f i GuPCMContactConvexHeightField.obj
 0001:0012f0e0       ??_GPCMConvexVsHeightfieldContactGenerationCallback@physx@@UEAAPEAXI@Z 00000001801300e0 f i GuPCMContactConvexHeightField.obj
 0001:0012f120       ?doSupport@?$SupportLocalShrunkImpl@VBoxV@Gu@physx@@VShrunkBoxV@23@@Gu@physx@@UEBA?AT__m128@@AEBT4@@Z 0000000180130120 f i GuPCMContactConvexHeightField.obj
 0001:0012f160       ?doSupport@?$SupportLocalShrunkImpl@VBoxV@Gu@physx@@VShrunkBoxV@23@@Gu@physx@@UEBAXAEBT__m128@@AEAT4@1@Z 0000000180130160 f i GuPCMContactConvexHeightField.obj
 0001:0012f1c0       ?doSupport@?$SupportLocalShrunkImpl@VConvexHullNoScaleV@Gu@physx@@VShrunkConvexHullNoScaleV@23@@Gu@physx@@UEBA?AT__m128@@AEBT4@@Z 00000001801301c0 f i GuPCMContactConvexHeightField.obj
 0001:0012f220       ?doSupport@?$SupportLocalShrunkImpl@VConvexHullNoScaleV@Gu@physx@@VShrunkConvexHullNoScaleV@23@@Gu@physx@@UEBAXAEBT__m128@@AEAT4@1@Z 0000000180130220 f i GuPCMContactConvexHeightField.obj
 0001:0012f400       ?doSupport@?$SupportLocalShrunkImpl@VConvexHullV@Gu@physx@@VShrunkConvexHullV@23@@Gu@physx@@UEBA?AT__m128@@AEBT4@@Z 0000000180130400 f i GuPCMContactConvexHeightField.obj
 0001:0012f4f0       ?doSupport@?$SupportLocalShrunkImpl@VConvexHullV@Gu@physx@@VShrunkConvexHullV@23@@Gu@physx@@UEBAXAEBT__m128@@AEAT4@1@Z 00000001801304f0 f i GuPCMContactConvexHeightField.obj
 0001:0012f7a0       ?onEvent@?$PCMHeightfieldContactGenerationCallback@UPCMConvexVsHeightfieldContactGenerationCallback@physx@@@Gu@physx@@UEAA_NIPEAI@Z 00000001801307a0 f i GuPCMContactConvexHeightField.obj
 0001:0012fe70       ?populateVerts@?$SupportLocalShrunkImpl@VBoxV@Gu@physx@@VShrunkBoxV@23@@Gu@physx@@UEBAXPEBEIPEBVPxVec3@3@PEAT__m128@@@Z 0000000180130e70 f i GuPCMContactConvexHeightField.obj
 0001:0012fec0       ?populateVerts@?$SupportLocalShrunkImpl@VConvexHullNoScaleV@Gu@physx@@VShrunkConvexHullNoScaleV@23@@Gu@physx@@UEBAXPEBEIPEBVPxVec3@3@PEAT__m128@@@Z 0000000180130ec0 f i GuPCMContactConvexHeightField.obj
 0001:0012ff10       ?populateVerts@?$SupportLocalShrunkImpl@VConvexHullV@Gu@physx@@VShrunkConvexHullV@23@@Gu@physx@@UEBAXPEBEIPEBVPxVec3@3@PEAT__m128@@@Z 0000000180130f10 f i GuPCMContactConvexHeightField.obj
 0001:0012ff90       ?pcmContactBoxMesh@Gu@physx@@YA_NAEBVGeometryUnion@12@0AEBVPxTransform@2@1AEBUNarrowPhaseParams@12@AEAUCache@12@AEAVContactBuffer@12@PEAVRenderOutput@Cm@2@@Z 0000000180130f90 f   GuPCMContactConvexMesh.obj
 0001:00130320       ?pcmContactConvexMesh@Gu@physx@@YA_NAEBVGeometryUnion@12@0AEBVPxTransform@2@1AEBUNarrowPhaseParams@12@AEAUCache@12@AEAVContactBuffer@12@PEAVRenderOutput@Cm@2@@Z 0000000180131320 f   GuPCMContactConvexMesh.obj
 0001:00130a80       ?PCMContactConvexMesh@Gu@physx@@YA_NAEBUPolygonalData@12@PEAVSupportLocal@12@AEBT__m128@@AEBVPxBounds3@2@AEBUPxTriangleMeshGeometryLL@2@AEBVPxTransform@2@5MAEAVContactBuffer@12@AEBVFastVertex2ShapeScaling@Cm@2@7_N8AEAVMultiplePersistentContactManifold@12@PEAVRenderOutput@Cm@2@@Z 0000000180131a80 f   GuPCMContactConvexMesh.obj
 0001:00131cb0       ??$processTriangleCache@$0BA@VPCMConvexVsMeshContactGeneration@Gu@physx@@@PCMMeshContactGeneration@Gu@physx@@QEAA_NAEAU?$TriangleCache@$0BA@@12@@Z 0000000180132cb0 f i GuPCMContactConvexMesh.obj
 0001:00131d60       ??_E?$PCMMeshContactGenerationCallback@UPCMConvexVsMeshContactGenerationCallback@physx@@@Gu@physx@@UEAAPEAXI@Z 0000000180132d60 f i GuPCMContactConvexMesh.obj
 0001:00131d60       ??_G?$PCMMeshContactGenerationCallback@UPCMConvexVsMeshContactGenerationCallback@physx@@@Gu@physx@@UEAAPEAXI@Z 0000000180132d60 f i GuPCMContactConvexMesh.obj
 0001:00131da0       ??_EPCMConvexVsMeshContactGenerationCallback@physx@@UEAAPEAXI@Z 0000000180132da0 f i GuPCMContactConvexMesh.obj
 0001:00131da0       ??_GPCMConvexVsMeshContactGenerationCallback@physx@@UEAAPEAXI@Z 0000000180132da0 f i GuPCMContactConvexMesh.obj
 0001:00131de0       ?processHit@?$PCMMeshContactGenerationCallback@UPCMConvexVsMeshContactGenerationCallback@physx@@@Gu@physx@@UEAA_NAEBUPxRaycastHit@3@AEBVPxVec3@3@11AEAMPEBI@Z 0000000180132de0 f i GuPCMContactConvexMesh.obj
 0001:001322c0       ?generateFullContactManifold@Gu@physx@@YA_NAEAUPolygonalData@12@0PEAVSupportLocal@12@1PEAVPersistentContact@12@AEAIAEBT__m128@@44444_NPEAVRenderOutput@Cm@2@4@Z 00000001801332c0 f   GuPCMContactGenBoxConvex.obj
 0001:00133790       ?computeMTD@Gu@physx@@YA_NAEAUPolygonalData@12@0PEAVSupportLocal@12@1AEAT__m128@@2@Z 0000000180134790 f   GuPCMContactGenBoxConvex.obj
 0001:00133e60       ?buildPartialHull@Gu@physx@@YAXAEBUPolygonalData@12@PEAVSupportLocal@12@AEAVSeparatingAxes@12@AEBT__m128@@3@Z 0000000180134e60 f   GuPCMContactGenBoxConvex.obj
 0001:00134150       ?generatedContacts@Gu@physx@@YAXAEAUPolygonalData@12@0AEBUHullPolygonData@12@1PEAVSupportLocal@12@2AEBVPsMatTransformV@aos@shdfnd@2@PEAVPersistentContact@12@AEAIAEBT__m128@@PEAVRenderOutput@Cm@2@@Z 0000000180135150 f   GuPCMContactGenBoxConvex.obj
 0001:00136720       ?generateFullContactManifold@Gu@physx@@YA_NAEBVCapsuleV@12@AEAUPolygonalData@12@PEAVSupportLocal@12@AEBVPsMatTransformV@aos@shdfnd@2@PEAVPersistentContact@12@AEAIAEBT__m128@@AEAT__m128@@66_N6@Z 0000000180137720 f   GuPCMContactGenSphereCapsule.obj
 0001:00136d90       ?generateCapsuleBoxFullContactManifold@Gu@physx@@YA_NAEBVCapsuleV@12@AEAUPolygonalData@12@PEAVSupportLocal@12@AEBVPsMatTransformV@aos@shdfnd@2@PEAVPersistentContact@12@AEAIAEBT__m128@@AEAT__m128@@66_N6@Z 0000000180137d90 f   GuPCMContactGenSphereCapsule.obj
 0001:00137390       ?computeMTD@Gu@physx@@YA_NAEBVCapsuleV@12@AEAUPolygonalData@12@PEAVSupportLocal@12@AEAT__m128@@3@Z 0000000180138390 f   GuPCMContactGenSphereCapsule.obj
 0001:001374c0       ?generateSphereFullContactManifold@Gu@physx@@YA_NAEBVCapsuleV@12@AEAUPolygonalData@12@PEAVSupportLocal@12@PEAVPersistentContact@12@AEAIAEBT__m128@@AEAT7@_N@Z 00000001801384c0 f   GuPCMContactGenSphereCapsule.obj
 0001:00137980       ?generatedCapsuleBoxFaceContacts@Gu@physx@@YAXAEBVCapsuleV@12@AEAUPolygonalData@12@AEBUHullPolygonData@12@PEAVSupportLocal@12@AEBVPsMatTransformV@aos@shdfnd@2@PEAVPersistentContact@12@AEAIAEBT__m128@@7@Z 0000000180138980 f   GuPCMContactGenSphereCapsule.obj
 0001:001381b0       ?generatedContactsEEContacts@Gu@physx@@YAXAEBVCapsuleV@12@AEAUPolygonalData@12@AEBUHullPolygonData@12@PEAVSupportLocal@12@AEBVPsMatTransformV@aos@shdfnd@2@PEAVPersistentContact@12@AEAIAEBT__m128@@7@Z 00000001801391b0 f   GuPCMContactGenSphereCapsule.obj
 0001:00139910       ?pcmContactPlaneBox@Gu@physx@@YA_NAEBVGeometryUnion@12@0AEBVPxTransform@2@1AEBUNarrowPhaseParams@12@AEAUCache@12@AEAVContactBuffer@12@PEAVRenderOutput@Cm@2@@Z 000000018013a910 f   GuPCMContactPlaneBox.obj
 0001:0013a7e0       ?pcmContactPlaneCapsule@Gu@physx@@YA_NAEBVGeometryUnion@12@0AEBVPxTransform@2@1AEBUNarrowPhaseParams@12@AEAUCache@12@AEAVContactBuffer@12@PEAVRenderOutput@Cm@2@@Z 000000018013b7e0 f   GuPCMContactPlaneCapsule.obj
 0001:0013b300       ?pcmContactPlaneConvex@Gu@physx@@YA_NAEBVGeometryUnion@12@0AEBVPxTransform@2@1AEBUNarrowPhaseParams@12@AEAUCache@12@AEAVContactBuffer@12@PEAVRenderOutput@Cm@2@@Z 000000018013c300 f   GuPCMContactPlaneConvex.obj
 0001:0013bf90       ?pcmContactSphereBox@Gu@physx@@YA_NAEBVGeometryUnion@12@0AEBVPxTransform@2@1AEBUNarrowPhaseParams@12@AEAUCache@12@AEAVContactBuffer@12@PEAVRenderOutput@Cm@2@@Z 000000018013cf90 f   GuPCMContactSphereBox.obj
 0001:0013c620       ?pcmContactSphereCapsule@Gu@physx@@YA_NAEBVGeometryUnion@12@0AEBVPxTransform@2@1AEBUNarrowPhaseParams@12@AEAUCache@12@AEAVContactBuffer@12@PEAVRenderOutput@Cm@2@@Z 000000018013d620 f   GuPCMContactSphereCapsule.obj
 0001:0013c9b0       ?pcmContactSphereConvex@Gu@physx@@YA_NAEBVGeometryUnion@12@0AEBVPxTransform@2@1AEBUNarrowPhaseParams@12@AEAUCache@12@AEAVContactBuffer@12@PEAVRenderOutput@Cm@2@@Z 000000018013d9b0 f   GuPCMContactSphereConvex.obj
 0001:0013ddf0       ?pcmContactSphereHeightField@Gu@physx@@YA_NAEBVGeometryUnion@12@0AEBVPxTransform@2@1AEBUNarrowPhaseParams@12@AEAUCache@12@AEAVContactBuffer@12@PEAVRenderOutput@Cm@2@@Z 000000018013edf0 f   GuPCMContactSphereHeightField.obj
 0001:0013ea60       ??_G?$PCMHeightfieldContactGenerationCallback@UPCMSphereVsHeightfieldContactGenerationCallback@physx@@@Gu@physx@@UEAAPEAXI@Z 000000018013fa60 f i GuPCMContactSphereHeightField.obj
 0001:0013ea60       ??_E?$PCMHeightfieldContactGenerationCallback@UPCMSphereVsHeightfieldContactGenerationCallback@physx@@@Gu@physx@@UEAAPEAXI@Z 000000018013fa60 f i GuPCMContactSphereHeightField.obj
 0001:0013eaa0       ??_GPCMSphereVsHeightfieldContactGenerationCallback@physx@@UEAAPEAXI@Z 000000018013faa0 f i GuPCMContactSphereHeightField.obj
 0001:0013eaa0       ??_EPCMSphereVsHeightfieldContactGenerationCallback@physx@@UEAAPEAXI@Z 000000018013faa0 f i GuPCMContactSphereHeightField.obj
 0001:0013eae0       ?onEvent@?$PCMHeightfieldContactGenerationCallback@UPCMSphereVsHeightfieldContactGenerationCallback@physx@@@Gu@physx@@UEAA_NIPEAI@Z 000000018013fae0 f i GuPCMContactSphereHeightField.obj
 0001:0013f1b0       ?pcmContactSphereMesh@Gu@physx@@YA_NAEBVGeometryUnion@12@0AEBVPxTransform@2@1AEBUNarrowPhaseParams@12@AEAUCache@12@AEAVContactBuffer@12@PEAVRenderOutput@Cm@2@@Z 00000001801401b0 f   GuPCMContactSphereMesh.obj
 0001:0013ffa0       ??$processTriangleCache@$0BA@VPCMSphereVsMeshContactGeneration@Gu@physx@@@PCMMeshContactGeneration@Gu@physx@@QEAA_NAEAU?$TriangleCache@$0BA@@12@@Z 0000000180140fa0 f i GuPCMContactSphereMesh.obj
 0001:00140050       ??_E?$PCMMeshContactGenerationCallback@UPCMSphereVsMeshContactGenerationCallback@physx@@@Gu@physx@@UEAAPEAXI@Z 0000000180141050 f i GuPCMContactSphereMesh.obj
 0001:00140050       ??_G?$PCMMeshContactGenerationCallback@UPCMSphereVsMeshContactGenerationCallback@physx@@@Gu@physx@@UEAAPEAXI@Z 0000000180141050 f i GuPCMContactSphereMesh.obj
 0001:00140090       ??_GPCMSphereVsMeshContactGenerationCallback@physx@@UEAAPEAXI@Z 0000000180141090 f i GuPCMContactSphereMesh.obj
 0001:00140090       ??_EPCMSphereVsMeshContactGenerationCallback@physx@@UEAAPEAXI@Z 0000000180141090 f i GuPCMContactSphereMesh.obj
 0001:001400d0       ?processHit@?$PCMMeshContactGenerationCallback@UPCMSphereVsMeshContactGenerationCallback@physx@@@Gu@physx@@UEAA_NAEBUPxRaycastHit@3@AEBVPxVec3@3@11AEAMPEBI@Z 00000001801410d0 f i GuPCMContactSphereMesh.obj
 0001:00140540       ?pcmContactSpherePlane@Gu@physx@@YA_NAEBVGeometryUnion@12@0AEBVPxTransform@2@1AEBUNarrowPhaseParams@12@AEAUCache@12@AEAVContactBuffer@12@PEAVRenderOutput@Cm@2@@Z 0000000180141540 f   GuPCMContactSpherePlane.obj
 0001:001407b0       ?pcmContactSphereSphere@Gu@physx@@YA_NAEBVGeometryUnion@12@0AEBVPxTransform@2@1AEBUNarrowPhaseParams@12@AEAUCache@12@AEAVContactBuffer@12@PEAVRenderOutput@Cm@2@@Z 00000001801417b0 f   GuPCMContactSphereSphere.obj
 0001:00140980       ??0PCMPolygonalBox@Gu@physx@@QEAA@AEBVPxVec3@2@@Z 0000000180141980 f   GuPCMShapeConvex.obj
 0001:00140b80       ?getPolygonalData@PCMPolygonalBox@Gu@physx@@QEBAXPEIAUPolygonalData@23@@Z 0000000180141b80 f   GuPCMShapeConvex.obj
 0001:00140bd0       ?getPCMConvexData@Gu@physx@@YAXAEBVConvexHullV@12@_NAEAUPolygonalData@12@@Z 0000000180141bd0 f   GuPCMShapeConvex.obj
 0001:00140c20       ?getPCMConvexData@Gu@physx@@YA_NAEBVGeometryUnion@12@AEAVFastVertex2ShapeScaling@Cm@2@AEAVPxBounds3@2@AEAUPolygonalData@12@@Z 0000000180141c20 f   GuPCMShapeConvex.obj
 0001:00141280       ?generateTriangleFullContactManifold@PCMConvexVsMeshContactGeneration@Gu@physx@@QEAA_NAEAVTriangleV@23@IPEBIEAEBUPolygonalData@23@PEAV?$SupportLocalImpl@VTriangleV@Gu@physx@@@23@PEAVSupportLocal@23@PEAVMeshPersistentContact@23@AEAIAEBT__m128@@AEAT9@@Z 0000000180142280 f   GuPCMTriangleContactGen.obj
 0001:00141c40       ?generatePolyDataContactManifold@PCMConvexVsMeshContactGeneration@Gu@physx@@QEAA_NAEAVTriangleV@23@IIEPEAVMeshPersistentContact@23@AEAIAEBT__m128@@AEAT6@@Z 0000000180142c40 f   GuPCMTriangleContactGen.obj
 0001:00141d80       ?generateTriangleFullContactManifold@PCMConvexVsMeshContactGeneration@Gu@physx@@SA_NAEAVTriangleV@23@IEAEBUPolygonalData@23@PEAV?$SupportLocalImpl@VTriangleV@Gu@physx@@@23@PEAVSupportLocal@23@PEAVMeshPersistentContact@23@AEAIAEBT__m128@@AEAT9@PEAVRenderOutput@Cm@3@@Z 0000000180142d80 f   GuPCMTriangleContactGen.obj
 0001:001452a0       ?findRotationMatrixFromZAxis@Gu@physx@@YA?AUMat33V@aos@shdfnd@2@AEBT__m128@@@Z 00000001801462a0 f   GuPersistentContactManifold.obj
 0001:00145580       ?replaceManifoldPoint@PersistentContactManifold@Gu@physx@@QEAA_NAEBT__m128@@000@Z 0000000180146580 f   GuPersistentContactManifold.obj
 0001:00145640       ?addManifoldPoint@PersistentContactManifold@Gu@physx@@QEAAIAEBT__m128@@000@Z 0000000180146640 f   GuPersistentContactManifold.obj
 0001:00145700       ?addManifoldPoint2@PersistentContactManifold@Gu@physx@@QEAAIAEBT__m128@@000@Z 0000000180146700 f   GuPersistentContactManifold.obj
 0001:001457d0       ?addBatchManifoldContactsCluster@PersistentContactManifold@Gu@physx@@QEAAXPEBVPersistentContact@23@I@Z 00000001801467d0 f   GuPersistentContactManifold.obj
 0001:00145850       ?addBatchManifoldContacts2@PersistentContactManifold@Gu@physx@@QEAAXPEBVPersistentContact@23@I@Z 0000000180146850 f   GuPersistentContactManifold.obj
 0001:001458d0       ?addBatchManifoldContacts@PersistentContactManifold@Gu@physx@@QEAAXPEBVPersistentContact@23@I@Z 00000001801468d0 f   GuPersistentContactManifold.obj
 0001:00145950       ?reduceBatchContactsCluster@PersistentContactManifold@Gu@physx@@QEAAXPEBVPersistentContact@23@I@Z 0000000180146950 f   GuPersistentContactManifold.obj
 0001:00145df0       ?reduceBatchContacts2@PersistentContactManifold@Gu@physx@@QEAAXPEBVPersistentContact@23@I@Z 0000000180146df0 f   GuPersistentContactManifold.obj
 0001:00145ff0       ?reduceBatchContacts@PersistentContactManifold@Gu@physx@@QEAAXPEBVPersistentContact@23@I@Z 0000000180146ff0 f   GuPersistentContactManifold.obj
 0001:00146320       ?reduceContactsForPCM@PersistentContactManifold@Gu@physx@@QEAAIAEBT__m128@@00@Z 0000000180147320 f   GuPersistentContactManifold.obj
 0001:00146790       ?reduceContactSegment@PersistentContactManifold@Gu@physx@@QEAAIAEBT__m128@@00@Z 0000000180147790 f   GuPersistentContactManifold.obj
 0001:00146830       ?addManifoldContactsToContactBuffer@PersistentContactManifold@Gu@physx@@QEAAXAEAVContactBuffer@23@AEBT__m128@@AEBVPsMatTransformV@aos@shdfnd@3@@Z 0000000180147830 f   GuPersistentContactManifold.obj
 0001:001468e0       ?addManifoldContactsToContactBuffer@PersistentContactManifold@Gu@physx@@QEAAXAEAVContactBuffer@23@AEBT__m128@@AEBVPsTransformV@aos@shdfnd@3@1@Z 00000001801478e0 f   GuPersistentContactManifold.obj
 0001:00146a60       ?addManifoldContactsToContactBuffer@PersistentContactManifold@Gu@physx@@QEAAXAEAVContactBuffer@23@AEBT__m128@@1AEBVPsTransformV@aos@shdfnd@3@11@Z 0000000180147a60 f   GuPersistentContactManifold.obj
 0001:00146c20       ?drawManifold@PersistentContactManifold@Gu@physx@@QEAAXAEAVRenderOutput@Cm@3@AEBVPsTransformV@aos@shdfnd@3@1@Z 0000000180147c20 f   GuPersistentContactManifold.obj
 0001:00146ca0       ?drawManifold@PersistentContactManifold@Gu@physx@@QEAAXAEAVRenderOutput@Cm@3@AEBVPsTransformV@aos@shdfnd@3@1AEBT__m128@@@Z 0000000180147ca0 f   GuPersistentContactManifold.obj
 0001:00146d40       ?drawManifold@PersistentContactManifold@Gu@physx@@QEAAXAEBVPersistentContact@23@AEAVRenderOutput@Cm@3@AEBVPsTransformV@aos@shdfnd@3@2@Z 0000000180147d40 f   GuPersistentContactManifold.obj
 0001:00146d70       ?drawPoint@PersistentContactManifold@Gu@physx@@SAXAEAVRenderOutput@Cm@3@AEBT__m128@@MI@Z 0000000180147d70 f   GuPersistentContactManifold.obj
 0001:00146f50       ?drawLine@PersistentContactManifold@Gu@physx@@SAXAEAVRenderOutput@Cm@3@AEBT__m128@@1I@Z 0000000180147f50 f   GuPersistentContactManifold.obj
 0001:00147010       ?drawTriangle@PersistentContactManifold@Gu@physx@@SAXAEAVRenderOutput@Cm@3@AEBT__m128@@11I@Z 0000000180148010 f   GuPersistentContactManifold.obj
 0001:00147100       ?drawPolygon@PersistentContactManifold@Gu@physx@@SAXAEAVRenderOutput@Cm@3@AEBVPsTransformV@aos@shdfnd@3@PEAT__m128@@II@Z 0000000180148100 f   GuPersistentContactManifold.obj
 0001:00147420       ?drawPolygon@PersistentContactManifold@Gu@physx@@SAXAEAVRenderOutput@Cm@3@AEBVPsMatTransformV@aos@shdfnd@3@PEAT__m128@@II@Z 0000000180148420 f   GuPersistentContactManifold.obj
 0001:001475e0       ?reduceBatchContactsConvex@SinglePersistentContactManifold@Gu@physx@@QEAA?AT__m128@@PEBVMeshPersistentContact@23@IAEAUPCMContactPatch@23@@Z 00000001801485e0 f   GuPersistentContactManifold.obj
 0001:00147ba0       ?reduceBatchContactsSphere@SinglePersistentContactManifold@Gu@physx@@QEAA?AT__m128@@PEBVMeshPersistentContact@23@IAEAUPCMContactPatch@23@@Z 0000000180148ba0 f   GuPersistentContactManifold.obj
 0001:00147c70       ?reduceBatchContactsCapsule@SinglePersistentContactManifold@Gu@physx@@QEAA?AT__m128@@PEBVMeshPersistentContact@23@IAEAUPCMContactPatch@23@@Z 0000000180148c70 f   GuPersistentContactManifold.obj
 0001:00147f10       ?addBatchManifoldContactsConvex@SinglePersistentContactManifold@Gu@physx@@QEAA?AT__m128@@PEBVMeshPersistentContact@23@IAEAUPCMContactPatch@23@AEBT4@@Z 0000000180148f10 f   GuPersistentContactManifold.obj
 0001:00147fe0       ?addBatchManifoldContactsSphere@SinglePersistentContactManifold@Gu@physx@@QEAA?AT__m128@@PEBVMeshPersistentContact@23@IAEAUPCMContactPatch@23@AEBT4@@Z 0000000180148fe0 f   GuPersistentContactManifold.obj
 0001:00148030       ?addBatchManifoldContactsCapsule@SinglePersistentContactManifold@Gu@physx@@QEAA?AT__m128@@PEBVMeshPersistentContact@23@IAEAUPCMContactPatch@23@AEBT4@@Z 0000000180149030 f   GuPersistentContactManifold.obj
 0001:00148100       ?reduceContacts@SinglePersistentContactManifold@Gu@physx@@SAIPEAVMeshPersistentContact@23@I@Z 0000000180149100 f   GuPersistentContactManifold.obj
 0001:00148550       ?refreshContactPoints@SinglePersistentContactManifold@Gu@physx@@QEAA?AT__m128@@AEBVPsMatTransformV@aos@shdfnd@3@AEBT4@1@Z 0000000180149550 f   GuPersistentContactManifold.obj
 0001:001486a0       ?drawManifold@SinglePersistentContactManifold@Gu@physx@@QEAAXAEAVRenderOutput@Cm@3@AEBVPsTransformV@aos@shdfnd@3@1@Z 00000001801496a0 f   GuPersistentContactManifold.obj
 0001:00148730       ?addManifoldContactPoints@MultiplePersistentContactManifold@Gu@physx@@QEAAXPEAVMeshPersistentContact@23@IPEAPEAUPCMContactPatch@23@IAEBT__m128@@2E@Z 0000000180149730 f   GuPersistentContactManifold.obj
 0001:00148b60       ?addManifoldContactsToContactBuffer@MultiplePersistentContactManifold@Gu@physx@@QEAA_NAEAVContactBuffer@23@AEBVPsTransformV@aos@shdfnd@3@@Z 0000000180149b60 f   GuPersistentContactManifold.obj
 0001:00148e40       ?addManifoldContactsToContactBuffer@MultiplePersistentContactManifold@Gu@physx@@QEAA_NAEAVContactBuffer@23@AEBVPsTransformV@aos@shdfnd@3@1AEBT__m128@@@Z 0000000180149e40 f   GuPersistentContactManifold.obj
 0001:00149180       ?drawManifold@MultiplePersistentContactManifold@Gu@physx@@QEAAXAEAVRenderOutput@Cm@3@AEBVPsTransformV@aos@shdfnd@3@1@Z 000000018014a180 f   GuPersistentContactManifold.obj
 0001:00149240       ?fromBuffer@MultiplePersistentContactManifold@Gu@physx@@QEAAXPEIAE@Z 000000018014a240 f   GuPersistentContactManifold.obj
 0001:001493b0       ?drawLine@MultiplePersistentContactManifold@Gu@physx@@SAXAEAVRenderOutput@Cm@3@AEBT__m128@@1I@Z 000000018014a3b0 f   GuPersistentContactManifold.obj
 0001:00149470       ?drawLine@MultiplePersistentContactManifold@Gu@physx@@SAXAEAVRenderOutput@Cm@3@VPxVec3@3@1I@Z 000000018014a470 f   GuPersistentContactManifold.obj
 0001:00149530       ?drawPoint@MultiplePersistentContactManifold@Gu@physx@@SAXAEAVRenderOutput@Cm@3@AEBT__m128@@MI@Z 000000018014a530 f   GuPersistentContactManifold.obj
 0001:00149710       ?drawPolygon@MultiplePersistentContactManifold@Gu@physx@@SAXAEAVRenderOutput@Cm@3@AEBVPsTransformV@aos@shdfnd@3@PEAT__m128@@II@Z 000000018014a710 f   GuPersistentContactManifold.obj
 0001:0014c360       ?SweepEstimateAnyShapeHeightfield@Gu@physx@@YAMAEBUCCDShape@12@0AEBVPxTransform@2@111MM@Z 000000018014d360 f   GuCCDSweepConvexMesh.obj
 0001:0014cc10       ?SweepEstimateAnyShapeMesh@Gu@physx@@YAMAEBUCCDShape@12@0AEBVPxTransform@2@111MM@Z 000000018014dc10 f   GuCCDSweepConvexMesh.obj
 0001:0014d010       ?SweepAnyShapeHeightfield@Gu@physx@@YAMAEBUCCDShape@12@0AEBVPxTransform@2@111MAEAVPxVec3@2@2MAEAIM@Z 000000018014e010 f   GuCCDSweepConvexMesh.obj
 0001:0014e220       ?SweepAnyShapeMesh@Gu@physx@@YAMAEBUCCDShape@12@0AEBVPxTransform@2@111MAEAVPxVec3@2@2MAEAIM@Z 000000018014f220 f   GuCCDSweepConvexMesh.obj
 0001:00150890       ??0?$InlineArray@I$0EA@VNamedAllocator@shdfnd@physx@@@shdfnd@physx@@QEAA@AEBVNamedAllocator@12@@Z 0000000180151890 f i GuCCDSweepConvexMesh.obj
 0001:001509c0       ??_EAccumCallback@?A0x54bc49bb@Gu@physx@@UEAAPEAXI@Z 00000001801519c0 f i GuCCDSweepConvexMesh.obj
 0001:001509c0       ??_GAccumCallback@?A0x54bc49bb@Gu@physx@@UEAAPEAXI@Z 00000001801519c0 f i GuCCDSweepConvexMesh.obj
 0001:00150a00       ??_GCB@?1??SweepEstimateAnyShapeMesh@Gu@physx@@YAMAEBUCCDShape@23@0AEBVPxTransform@3@111MM@Z@UEAAPEAXI@Z 0000000180151a00 f i GuCCDSweepConvexMesh.obj
 0001:00150a00       ??_ECB@?1??SweepEstimateAnyShapeMesh@Gu@physx@@YAMAEBUCCDShape@23@0AEBVPxTransform@3@111MM@Z@UEAAPEAXI@Z 0000000180151a00 f i GuCCDSweepConvexMesh.obj
 0001:00150a40       ??_EEntityReportContainerCallback@?A0x54bc49bb@Gu@physx@@UEAAPEAXI@Z 0000000180151a40 f i GuCCDSweepConvexMesh.obj
 0001:00150a40       ??_GEntityReportContainerCallback@?A0x54bc49bb@Gu@physx@@UEAAPEAXI@Z 0000000180151a40 f i GuCCDSweepConvexMesh.obj
 0001:00150a80       ?allocate@?$Array@IV?$InlineAllocator@$0BAA@VNamedAllocator@shdfnd@physx@@@shdfnd@physx@@@shdfnd@physx@@IEAAPEAII@Z 0000000180151a80 f i GuCCDSweepConvexMesh.obj
 0001:00151920       ?growAndPushBack@?$Array@IV?$InlineAllocator@$0BAA@VNamedAllocator@shdfnd@physx@@@shdfnd@physx@@@shdfnd@physx@@IEAAAEAIAEBI@Z 0000000180152920 f i GuCCDSweepConvexMesh.obj
 0001:00152210       ?recreate@?$Array@IV?$InlineAllocator@$0BAA@VNamedAllocator@shdfnd@physx@@@shdfnd@physx@@@shdfnd@physx@@IEAAXI@Z 0000000180153210 f i GuCCDSweepConvexMesh.obj
 0001:001522c0       ?recreate@?$Array@IVNamedAllocator@shdfnd@physx@@@shdfnd@physx@@IEAAXI@Z 00000001801532c0 f i GuCCDSweepConvexMesh.obj
 0001:00152390       ?resize@?$Array@IV?$InlineAllocator@$0BAA@VNamedAllocator@shdfnd@physx@@@shdfnd@physx@@@shdfnd@physx@@QEAAXIAEBI@Z 0000000180153390 f i GuCCDSweepConvexMesh.obj
 0001:00152450       ?resize@?$Array@IVNamedAllocator@shdfnd@physx@@@shdfnd@physx@@QEAAXIAEBI@Z 0000000180153450 f i GuCCDSweepConvexMesh.obj
 0001:00152510       ?supportPoint@?$RelativeConvex@VCapsuleV@Gu@physx@@@Gu@physx@@UEBA?AT__m128@@HPEAT4@@Z 0000000180153510 f i GuCCDSweepPrimitives.obj
 0001:00152580       ?support@?$RelativeConvex@VCapsuleV@Gu@physx@@@Gu@physx@@UEBA?AT__m128@@AEBT4@@Z 0000000180153580 f i GuCCDSweepPrimitives.obj
 0001:00152660       ?support@?$RelativeConvex@VCapsuleV@Gu@physx@@@Gu@physx@@UEBA?AT__m128@@AEBT4@AEAHPEAT4@@Z 0000000180153660 f i GuCCDSweepPrimitives.obj
 0001:00152760       ?getSweepMargin@?$RelativeConvex@VCapsuleV@Gu@physx@@@Gu@physx@@UEBA?AT__m128@@XZ 0000000180153760 f i GuCCDSweepPrimitives.obj
 0001:00152770       ??_E?$RelativeConvex@VCapsuleV@Gu@physx@@@Gu@physx@@UEAAPEAXI@Z 0000000180153770 f i GuCCDSweepPrimitives.obj
 0001:00152770       ??_G?$RelativeConvex@VCapsuleV@Gu@physx@@@Gu@physx@@UEAAPEAXI@Z 0000000180153770 f i GuCCDSweepPrimitives.obj
 0001:001527b0       ?SweepShapeShape@Gu@physx@@YAMAEBUCCDShape@12@0AEBVPxTransform@2@111MAEAVPxVec3@2@2MAEAIM@Z 00000001801537b0 f   GuCCDSweepPrimitives.obj
 0001:001527e0       ?UnimplementedSweep@Gu@physx@@YAMAEBUCCDShape@12@0AEBVPxTransform@2@111MAEAVPxVec3@2@2MAEAIM@Z 00000001801537e0 f   GuCCDSweepPrimitives.obj
 0001:001527f0       ?UnimplementedTriangleSweep@Gu@physx@@YAMAEBVGeometryUnion@12@0AEBVPxTransform@2@111MAEAVPxVec3@2@2AEBVFastVertex2ShapeScaling@Cm@2@AEAVTriangleV@12@M@Z 00000001801537f0 f   GuCCDSweepPrimitives.obj
 0001:00152800       ?SweepShapeTriangle@Gu@physx@@YAMAEBVGeometryUnion@12@0AEBVPxTransform@2@111MAEAVPxVec3@2@2AEBVFastVertex2ShapeScaling@Cm@2@AEAVTriangleV@12@M@Z 0000000180153800 f   GuCCDSweepPrimitives.obj
 0001:00152830       ??$SweepGeomGeom@VCapsuleV@Gu@physx@@V123@@Gu@physx@@YAMAEBUCCDShape@01@0AEBVPxTransform@1@111MAEAVPxVec3@1@2MAEAIM@Z 0000000180153830 f i GuCCDSweepPrimitives.obj
 0001:001529e0       ??$SweepGeomGeom@VCapsuleV@Gu@physx@@VBoxV@23@@Gu@physx@@YAMAEBUCCDShape@01@0AEBVPxTransform@1@111MAEAVPxVec3@1@2MAEAIM@Z 00000001801539e0 f i GuCCDSweepPrimitives.obj
 0001:00152c20       ??$SweepGeomGeom@VCapsuleV@Gu@physx@@VConvexHullV@23@@Gu@physx@@YAMAEBUCCDShape@01@0AEBVPxTransform@1@111MAEAVPxVec3@1@2MAEAIM@Z 0000000180153c20 f i GuCCDSweepPrimitives.obj
 0001:00153300       ??$SweepGeomGeom@VBoxV@Gu@physx@@V123@@Gu@physx@@YAMAEBUCCDShape@01@0AEBVPxTransform@1@111MAEAVPxVec3@1@2MAEAIM@Z 0000000180154300 f i GuCCDSweepPrimitives.obj
 0001:00153590       ??$SweepGeomGeom@VBoxV@Gu@physx@@VConvexHullV@23@@Gu@physx@@YAMAEBUCCDShape@01@0AEBVPxTransform@1@111MAEAVPxVec3@1@2MAEAIM@Z 0000000180154590 f i GuCCDSweepPrimitives.obj
 0001:00153cf0       ??$SweepGeomGeom@VConvexHullV@Gu@physx@@V123@@Gu@physx@@YAMAEBUCCDShape@01@0AEBVPxTransform@1@111MAEAVPxVec3@1@2MAEAIM@Z 0000000180154cf0 f i GuCCDSweepPrimitives.obj
 0001:00154810       ??$SweepGeomTriangles@VCapsuleV@Gu@physx@@@Gu@physx@@YAMAEBVGeometryUnion@01@0AEBVPxTransform@1@111MAEAVPxVec3@1@2AEBVFastVertex2ShapeScaling@Cm@1@AEAVTriangleV@01@M@Z 0000000180155810 f i GuCCDSweepPrimitives.obj
 0001:00154930       ??$SweepGeomTriangles@VBoxV@Gu@physx@@@Gu@physx@@YAMAEBVGeometryUnion@01@0AEBVPxTransform@1@111MAEAVPxVec3@1@2AEBVFastVertex2ShapeScaling@Cm@1@AEAVTriangleV@01@M@Z 0000000180155930 f i GuCCDSweepPrimitives.obj
 0001:00154ae0       ??$SweepGeomTriangles@VConvexHullV@Gu@physx@@@Gu@physx@@YAMAEBVGeometryUnion@01@0AEBVPxTransform@1@111MAEAVPxVec3@1@2AEBVFastVertex2ShapeScaling@Cm@1@AEAVTriangleV@01@M@Z 0000000180155ae0 f i GuCCDSweepPrimitives.obj
 0001:0015a9e0       ??$gjkPenetration@U?$RelativeConvex@VCapsuleV@Gu@physx@@@Gu@physx@@U?$LocalConvex@VCapsuleV@Gu@physx@@@23@@Gu@physx@@YA?AW4GjkStatus@01@AEBU?$RelativeConvex@VCapsuleV@Gu@physx@@@01@AEBU?$LocalConvex@VCapsuleV@Gu@physx@@@01@AEBT__m128@@2AEAT5@333PEIAE4AEAE_N@Z 000000018015b9e0 f i GuCCDSweepPrimitives.obj
 0001:0015c9e0       ??$gjkPenetration@U?$RelativeConvex@VCapsuleV@Gu@physx@@@Gu@physx@@U?$LocalConvex@VShrunkBoxV@Gu@physx@@@23@@Gu@physx@@YA?AW4GjkStatus@01@AEBU?$RelativeConvex@VCapsuleV@Gu@physx@@@01@AEBU?$LocalConvex@VShrunkBoxV@Gu@physx@@@01@AEBT__m128@@2AEAT5@333PEIAE4AEAE_N@Z 000000018015d9e0 f i GuCCDSweepPrimitives.obj
 0001:0015e9e0       ??$gjkPenetration@U?$RelativeConvex@VCapsuleV@Gu@physx@@@Gu@physx@@U?$LocalConvex@VShrunkConvexHullV@Gu@physx@@@23@@Gu@physx@@YA?AW4GjkStatus@01@AEBU?$RelativeConvex@VCapsuleV@Gu@physx@@@01@AEBU?$LocalConvex@VShrunkConvexHullV@Gu@physx@@@01@AEBT__m128@@2AEAT5@333PEIAE4AEAE_N@Z 000000018015f9e0 f i GuCCDSweepPrimitives.obj
 0001:00160ce0       ??$gjkPenetration@U?$RelativeConvex@VTriangleV@Gu@physx@@@Gu@physx@@U?$LocalConvex@VCapsuleV@Gu@physx@@@23@@Gu@physx@@YA?AW4GjkStatus@01@AEBU?$RelativeConvex@VTriangleV@Gu@physx@@@01@AEBU?$LocalConvex@VCapsuleV@Gu@physx@@@01@AEBT__m128@@2AEAT5@333PEIAE4AEAE_N@Z 0000000180161ce0 f i GuCCDSweepPrimitives.obj
 0001:00162ce0       ??$gjkPenetration@U?$RelativeConvex@VTriangleV@Gu@physx@@@Gu@physx@@U?$LocalConvex@VShrunkBoxV@Gu@physx@@@23@@Gu@physx@@YA?AW4GjkStatus@01@AEBU?$RelativeConvex@VTriangleV@Gu@physx@@@01@AEBU?$LocalConvex@VShrunkBoxV@Gu@physx@@@01@AEBT__m128@@2AEAT5@333PEIAE4AEAE_N@Z 0000000180163ce0 f i GuCCDSweepPrimitives.obj
 0001:00164c00       ??$gjkPenetration@U?$RelativeConvex@VTriangleV@Gu@physx@@@Gu@physx@@U?$LocalConvex@VShrunkConvexHullV@Gu@physx@@@23@@Gu@physx@@YA?AW4GjkStatus@01@AEBU?$RelativeConvex@VTriangleV@Gu@physx@@@01@AEBU?$LocalConvex@VShrunkConvexHullV@Gu@physx@@@01@AEBT__m128@@2AEAT5@333PEIAE4AEAE_N@Z 0000000180165c00 f i GuCCDSweepPrimitives.obj
 0001:00166e10       ??$gjkRaycast@U?$RelativeConvex@VCapsuleV@Gu@physx@@@Gu@physx@@U?$LocalConvex@VCapsuleV@Gu@physx@@@23@@Gu@physx@@YA_NAEBU?$RelativeConvex@VCapsuleV@Gu@physx@@@01@AEBU?$LocalConvex@VCapsuleV@Gu@physx@@@01@AEBT__m128@@222AEAT4@33M@Z 0000000180167e10 f i GuCCDSweepPrimitives.obj
 0001:00167ff0       ??$gjkRaycast@U?$RelativeConvex@VCapsuleV@Gu@physx@@@Gu@physx@@U?$LocalConvex@VShrunkBoxV@Gu@physx@@@23@@Gu@physx@@YA_NAEBU?$RelativeConvex@VCapsuleV@Gu@physx@@@01@AEBU?$LocalConvex@VShrunkBoxV@Gu@physx@@@01@AEBT__m128@@222AEAT4@33M@Z 0000000180168ff0 f i GuCCDSweepPrimitives.obj
 0001:001691f0       ??$gjkRaycast@U?$RelativeConvex@VCapsuleV@Gu@physx@@@Gu@physx@@U?$LocalConvex@VShrunkConvexHullV@Gu@physx@@@23@@Gu@physx@@YA_NAEBU?$RelativeConvex@VCapsuleV@Gu@physx@@@01@AEBU?$LocalConvex@VShrunkConvexHullV@Gu@physx@@@01@AEBT__m128@@222AEAT4@33M@Z 000000018016a1f0 f i GuCCDSweepPrimitives.obj
 0001:0016a360       ??$gjkRaycast@U?$RelativeConvex@VShrunkBoxV@Gu@physx@@@Gu@physx@@U?$LocalConvex@VShrunkBoxV@Gu@physx@@@23@@Gu@physx@@YA_NAEBU?$RelativeConvex@VShrunkBoxV@Gu@physx@@@01@AEBU?$LocalConvex@VShrunkBoxV@Gu@physx@@@01@AEBT__m128@@222AEAT4@33M@Z 000000018016b360 f i GuCCDSweepPrimitives.obj
 0001:0016b560       ??$gjkRaycast@U?$RelativeConvex@VShrunkBoxV@Gu@physx@@@Gu@physx@@U?$LocalConvex@VShrunkConvexHullV@Gu@physx@@@23@@Gu@physx@@YA_NAEBU?$RelativeConvex@VShrunkBoxV@Gu@physx@@@01@AEBU?$LocalConvex@VShrunkConvexHullV@Gu@physx@@@01@AEBT__m128@@222AEAT4@33M@Z 000000018016c560 f i GuCCDSweepPrimitives.obj
 0001:0016c6e0       ??$gjkRaycast@U?$RelativeConvex@VShrunkConvexHullV@Gu@physx@@@Gu@physx@@U?$LocalConvex@VShrunkConvexHullV@Gu@physx@@@23@@Gu@physx@@YA_NAEBU?$RelativeConvex@VShrunkConvexHullV@Gu@physx@@@01@AEBU?$LocalConvex@VShrunkConvexHullV@Gu@physx@@@01@AEBT__m128@@222AEAT4@33M@Z 000000018016d6e0 f i GuCCDSweepPrimitives.obj
 0001:0016d6d0       ??$gjkRaycast@U?$RelativeConvex@VTriangleV@Gu@physx@@@Gu@physx@@U?$LocalConvex@VBoxV@Gu@physx@@@23@@Gu@physx@@YA_NAEBU?$RelativeConvex@VTriangleV@Gu@physx@@@01@AEBU?$LocalConvex@VBoxV@Gu@physx@@@01@AEBT__m128@@222AEAT4@33M@Z 000000018016e6d0 f i GuCCDSweepPrimitives.obj
 0001:0016e920       ??$gjkRaycast@U?$RelativeConvex@VTriangleV@Gu@physx@@@Gu@physx@@U?$LocalConvex@VCapsuleV@Gu@physx@@@23@@Gu@physx@@YA_NAEBU?$RelativeConvex@VTriangleV@Gu@physx@@@01@AEBU?$LocalConvex@VCapsuleV@Gu@physx@@@01@AEBT__m128@@222AEAT4@33M@Z 000000018016f920 f i GuCCDSweepPrimitives.obj
 0001:0016fc00       ??$gjkRaycast@U?$RelativeConvex@VTriangleV@Gu@physx@@@Gu@physx@@U?$LocalConvex@VConvexHullV@Gu@physx@@@23@@Gu@physx@@YA_NAEBU?$RelativeConvex@VTriangleV@Gu@physx@@@01@AEBU?$LocalConvex@VConvexHullV@Gu@physx@@@01@AEBT__m128@@222AEAT4@33M@Z 0000000180170c00 f i GuCCDSweepPrimitives.obj
 0001:001710a0       ??$gjkRaycastPenetration@U?$RelativeConvex@VCapsuleV@Gu@physx@@@Gu@physx@@U?$LocalConvex@VCapsuleV@Gu@physx@@@23@@Gu@physx@@YA_NAEBU?$RelativeConvex@VCapsuleV@Gu@physx@@@01@AEBU?$LocalConvex@VCapsuleV@Gu@physx@@@01@AEBT__m128@@222AEAT4@33M_N@Z 00000001801720a0 f i GuCCDSweepPrimitives.obj
 0001:00171410       ??$gjkRaycastPenetration@U?$RelativeConvex@VCapsuleV@Gu@physx@@@Gu@physx@@U?$LocalConvex@VShrunkBoxV@Gu@physx@@@23@@Gu@physx@@YA_NAEBU?$RelativeConvex@VCapsuleV@Gu@physx@@@01@AEBU?$LocalConvex@VShrunkBoxV@Gu@physx@@@01@AEBT__m128@@222AEAT4@33M_N@Z 0000000180172410 f i GuCCDSweepPrimitives.obj
 0001:00171780       ??$gjkRaycastPenetration@U?$RelativeConvex@VCapsuleV@Gu@physx@@@Gu@physx@@U?$LocalConvex@VShrunkConvexHullV@Gu@physx@@@23@@Gu@physx@@YA_NAEBU?$RelativeConvex@VCapsuleV@Gu@physx@@@01@AEBU?$LocalConvex@VShrunkConvexHullV@Gu@physx@@@01@AEBT__m128@@222AEAT4@33M_N@Z 0000000180172780 f i GuCCDSweepPrimitives.obj
 0001:00171af0       ??$gjkRaycastPenetration@U?$RelativeConvex@VShrunkBoxV@Gu@physx@@@Gu@physx@@U?$LocalConvex@VShrunkBoxV@Gu@physx@@@23@@Gu@physx@@YA_NAEBU?$RelativeConvex@VShrunkBoxV@Gu@physx@@@01@AEBU?$LocalConvex@VShrunkBoxV@Gu@physx@@@01@AEBT__m128@@222AEAT4@33M_N@Z 0000000180172af0 f i GuCCDSweepPrimitives.obj
 0001:00171e60       ??$gjkRaycastPenetration@U?$RelativeConvex@VShrunkBoxV@Gu@physx@@@Gu@physx@@U?$LocalConvex@VShrunkConvexHullV@Gu@physx@@@23@@Gu@physx@@YA_NAEBU?$RelativeConvex@VShrunkBoxV@Gu@physx@@@01@AEBU?$LocalConvex@VShrunkConvexHullV@Gu@physx@@@01@AEBT__m128@@222AEAT4@33M_N@Z 0000000180172e60 f i GuCCDSweepPrimitives.obj
 0001:001721d0       ??$gjkRaycastPenetration@U?$RelativeConvex@VShrunkConvexHullV@Gu@physx@@@Gu@physx@@U?$LocalConvex@VShrunkConvexHullV@Gu@physx@@@23@@Gu@physx@@YA_NAEBU?$RelativeConvex@VShrunkConvexHullV@Gu@physx@@@01@AEBU?$LocalConvex@VShrunkConvexHullV@Gu@physx@@@01@AEBT__m128@@222AEAT4@33M_N@Z 00000001801731d0 f i GuCCDSweepPrimitives.obj
 0001:00172540       ??$gjkRaycastPenetration@U?$RelativeConvex@VTriangleV@Gu@physx@@@Gu@physx@@U?$LocalConvex@VBoxV@Gu@physx@@@23@@Gu@physx@@YA_NAEBU?$RelativeConvex@VTriangleV@Gu@physx@@@01@AEBU?$LocalConvex@VBoxV@Gu@physx@@@01@AEBT__m128@@222AEAT4@33M_N@Z 0000000180173540 f i GuCCDSweepPrimitives.obj
 0001:001728b0       ??$gjkRaycastPenetration@U?$RelativeConvex@VTriangleV@Gu@physx@@@Gu@physx@@U?$LocalConvex@VCapsuleV@Gu@physx@@@23@@Gu@physx@@YA_NAEBU?$RelativeConvex@VTriangleV@Gu@physx@@@01@AEBU?$LocalConvex@VCapsuleV@Gu@physx@@@01@AEBT__m128@@222AEAT4@33M_N@Z 00000001801738b0 f i GuCCDSweepPrimitives.obj
 0001:00172c20       ??$gjkRaycastPenetration@U?$RelativeConvex@VTriangleV@Gu@physx@@@Gu@physx@@U?$LocalConvex@VConvexHullV@Gu@physx@@@23@@Gu@physx@@YA_NAEBU?$RelativeConvex@VTriangleV@Gu@physx@@@01@AEBU?$LocalConvex@VConvexHullV@Gu@physx@@@01@AEBT__m128@@222AEAT4@33M_N@Z 0000000180173c20 f i GuCCDSweepPrimitives.obj
 0001:00172f90       ?computeBounds@Gu@physx@@YAXAEAVPxBounds3@2@AEBVPxGeometry@2@AEBVPxTransform@2@MPEIBVCenterExtentsPadded@12@M_N@Z 0000000180173f90 f   GuBounds.obj
 0001:00173830       ?computeBoundsWithCCDThreshold@Gu@physx@@YAMAEAVVec3p@12@0AEBVPxGeometry@2@AEBVPxTransform@2@PEIBVCenterExtentsPadded@12@@Z 0000000180174830 f   GuBounds.obj
 0001:00173dc0       ??0ShapeData@Gu@physx@@QEAA@AEBVPxGeometry@2@AEBVPxTransform@2@M@Z 0000000180174dc0 f   GuBounds.obj
 0001:00175e20       ?computeOBBPoints@Gu@physx@@YAXPEIAVPxVec3@2@AEBV32@1111@Z 0000000180176e20 f   GuBox.obj
 0001:00176130       ?create@Box@Gu@physx@@QEAAXAEBVCapsule@23@@Z 0000000180177130 f   GuBox.obj
 0001:00176260       ?getBoxEdges@Gu@physx@@YAPEBEXZ 0000000180177260 f   GuBox.obj
 0001:00176380       ?computeBoxAroundCapsule@Gu@physx@@YAXAEBVCapsule@12@AEAVBox@12@@Z 0000000180177380 f   GuCapsule.obj
 0001:001765f0       ?sweepBoxTriangles_Precise@Gu@physx@@YA_NIPEBVPxTriangle@2@_NAEBVPxBoxGeometry@2@AEBVPxTransform@2@AEBVPxVec3@2@MAEAUPxSweepHit@2@PEBIMV?$PxFlags@W4Enum@PxHitFlag@physx@@G@2@@Z 00000001801775f0 f   GuCCTSweepTests.obj
 0001:00176740       ?sweepCapsule_BoxGeom_Precise@@YA_NAEBVPxGeometry@physx@@AEBVPxTransform@2@AEBVPxCapsuleGeometry@2@1AEBVCapsule@Gu@2@AEBVPxVec3@2@MAEAUPxSweepHit@2@V?$PxFlags@W4Enum@PxHitFlag@physx@@G@2@M@Z 0000000180177740 f   GuCCTSweepTests.obj
 0001:00176df0       ?sweepBox_SphereGeom_Precise@@YA_NAEBVPxGeometry@physx@@AEBVPxTransform@2@AEBVPxBoxGeometry@2@1AEBVBox@Gu@2@AEBVPxVec3@2@MAEAUPxSweepHit@2@V?$PxFlags@W4Enum@PxHitFlag@physx@@G@2@M@Z 0000000180177df0 f   GuCCTSweepTests.obj
 0001:00177100       ?sweepBox_CapsuleGeom_Precise@@YA_NAEBVPxGeometry@physx@@AEBVPxTransform@2@AEBVPxBoxGeometry@2@1AEBVBox@Gu@2@AEBVPxVec3@2@MAEAUPxSweepHit@2@V?$PxFlags@W4Enum@PxHitFlag@physx@@G@2@M@Z 0000000180178100 f   GuCCTSweepTests.obj
 0001:001774e0       ?sweepBox_BoxGeom_Precise@@YA_NAEBVPxGeometry@physx@@AEBVPxTransform@2@AEBVPxBoxGeometry@2@1AEBVBox@Gu@2@AEBVPxVec3@2@MAEAUPxSweepHit@2@V?$PxFlags@W4Enum@PxHitFlag@physx@@G@2@M@Z 00000001801784e0 f   GuCCTSweepTests.obj
 0001:001776a0       ?sweepBox_HeightFieldGeom_Precise@@YA_NAEBVPxGeometry@physx@@AEBVPxTransform@2@AEBVPxBoxGeometry@2@1AEBVBox@Gu@2@AEBVPxVec3@2@MAEAUPxSweepHit@2@V?$PxFlags@W4Enum@PxHitFlag@physx@@G@2@M@Z 00000001801786a0 f   GuCCTSweepTests.obj
 0001:00177d30       ??_ELocalReport@?1??sweepBox_HeightFieldGeom_Precise@@YA_NAEBVPxGeometry@physx@@AEBVPxTransform@3@AEBVPxBoxGeometry@3@1AEBVBox@Gu@3@AEBVPxVec3@3@MAEAUPxSweepHit@3@V?$PxFlags@W4Enum@PxHitFlag@physx@@G@3@M@Z@UEAAPEAXI@Z 0000000180178d30 f i GuCCTSweepTests.obj
 0001:00177d30       ??_GLocalReport@?1??sweepBox_HeightFieldGeom_Precise@@YA_NAEBVPxGeometry@physx@@AEBVPxTransform@3@AEBVPxBoxGeometry@3@1AEBVBox@Gu@3@AEBVPxVec3@3@MAEAUPxSweepHit@3@V?$PxFlags@W4Enum@PxHitFlag@physx@@G@3@M@Z@UEAAPEAXI@Z 0000000180178d30 f i GuCCTSweepTests.obj
 0001:00178f60       ?sweep@PxGeometryQuery@physx@@SA_NAEBVPxVec3@2@MAEBVPxGeometry@2@AEBVPxTransform@2@12AEAUPxSweepHit@2@V?$PxFlags@W4Enum@PxHitFlag@physx@@G@2@M@Z 0000000180179f60 f   GuGeometryQuery.obj
 0001:001795b0       ?overlap@PxGeometryQuery@physx@@SA_NAEBVPxGeometry@2@AEBVPxTransform@2@01@Z 000000018017a5b0 f   GuGeometryQuery.obj
 0001:001796e0       ?raycast@PxGeometryQuery@physx@@SAIAEBVPxVec3@2@0AEBVPxGeometry@2@AEBVPxTransform@2@MV?$PxFlags@W4Enum@PxHitFlag@physx@@G@2@IPEIAUPxRaycastHit@2@@Z 000000018017a6e0 f   GuGeometryQuery.obj
 0001:001799e0       ?computePenetration@PxGeometryQuery@physx@@SA_NAEAVPxVec3@2@AEAMAEBVPxGeometry@2@AEBVPxTransform@2@23@Z 000000018017a9e0 f   GuGeometryQuery.obj
 0001:00179b70       ?pointDistance@PxGeometryQuery@physx@@SAMAEBVPxVec3@2@AEBVPxGeometry@2@AEBVPxTransform@2@PEAV32@@Z 000000018017ab70 f   GuGeometryQuery.obj
 0001:0017a1c0       ?getWorldBounds@PxGeometryQuery@physx@@SA?AVPxBounds3@2@AEBVPxGeometry@2@AEBVPxTransform@2@M@Z 000000018017b1c0 f   GuGeometryQuery.obj
 0001:0017a320       ?isValid@PxGeometryQuery@physx@@SA_NAEBVPxGeometry@2@@Z 000000018017b320 f   GuGeometryQuery.obj
 0001:0017a890       ?isValid@PxBoxGeometry@physx@@QEBA_NXZ 000000018017b890 f i GuGeometryQuery.obj
 0001:0017a920       ?isValid@PxCapsuleGeometry@physx@@QEBA_NXZ 000000018017b920 f i GuGeometryQuery.obj
 0001:0017a990       ?isValid@PxConvexMeshGeometry@physx@@QEBA_NXZ 000000018017b990 f i GuGeometryQuery.obj
 0001:0017aa60       ?set@GeometryUnion@Gu@physx@@QEAAXAEBVPxGeometry@3@@Z 000000018017ba60 f   GuGeometryUnion.obj
 0001:0017acb0       ?computeBoxPoints@Gu@physx@@YAXAEBVPxBounds3@2@PEIAVPxVec3@2@@Z 000000018017bcb0 f   GuInternal.obj
 0001:0017ad50       ?computeBoundsAroundVertices@Gu@physx@@YAXAEAVPxBounds3@2@IPEIBVPxVec3@2@@Z 000000018017bd50 f   GuInternal.obj
 0001:0017adf0       ?getPlane@Gu@physx@@YA?AVPxPlane@2@AEBVPxTransform@2@@Z 000000018017bdf0 f   GuInternal.obj
 0001:0017aea0       ?computeSweptBox@Gu@physx@@YAXAEAVBox@12@AEBVPxVec3@2@1AEBVPxMat33@2@1M@Z 000000018017bea0 f   GuInternal.obj
 0001:0017b560       ??0GuMeshFactory@physx@@QEAA@XZ 000000018017c560 f   GuMeshFactory.obj
 0001:0017b6f0       ??1GuMeshFactory@physx@@MEAA@XZ 000000018017c6f0 f   GuMeshFactory.obj
 0001:0017b7c0       ?release@GuMeshFactory@physx@@QEAAXXZ 000000018017c7c0 f   GuMeshFactory.obj
 0001:0017b890       ?addTriangleMesh@GuMeshFactory@physx@@QEAAXPEAVTriangleMesh@Gu@2@_N@Z 000000018017c890 f   GuMeshFactory.obj
 0001:0017b910       ?createTriangleMesh@GuMeshFactory@physx@@QEAAPEAVPxTriangleMesh@2@AEAVPxInputStream@2@@Z 000000018017c910 f   GuMeshFactory.obj
 0001:0017b970       ?createTriangleMesh@GuMeshFactory@physx@@QEAAPEAVPxTriangleMesh@2@PEAX@Z 000000018017c970 f   GuMeshFactory.obj
 0001:0017b980       ?removeTriangleMesh@GuMeshFactory@physx@@QEAA_NAEAVPxTriangleMesh@2@@Z 000000018017c980 f   GuMeshFactory.obj
 0001:0017b9f0       ?getNbTriangleMeshes@GuMeshFactory@physx@@QEBAIXZ 000000018017c9f0 f   GuMeshFactory.obj
 0001:0017ba30       ?getTriangleMeshes@GuMeshFactory@physx@@QEBAIPEAPEAVPxTriangleMesh@2@II@Z 000000018017ca30 f   GuMeshFactory.obj
 0001:0017bac0       ?addConvexMesh@GuMeshFactory@physx@@QEAAXPEAVConvexMesh@Gu@2@_N@Z 000000018017cac0 f   GuMeshFactory.obj
 0001:0017bb40       ?createConvexMesh@GuMeshFactory@physx@@QEAAPEAVPxConvexMesh@2@AEAVPxInputStream@2@@Z 000000018017cb40 f   GuMeshFactory.obj
 0001:0017bcb0       ?createConvexMesh@GuMeshFactory@physx@@QEAAPEAVPxConvexMesh@2@PEAX@Z 000000018017ccb0 f   GuMeshFactory.obj
 0001:0017bcc0       ?removeConvexMesh@GuMeshFactory@physx@@QEAA_NAEAVPxConvexMesh@2@@Z 000000018017ccc0 f   GuMeshFactory.obj
 0001:0017bd30       ?getNbConvexMeshes@GuMeshFactory@physx@@QEBAIXZ 000000018017cd30 f   GuMeshFactory.obj
 0001:0017bd70       ?getConvexMeshes@GuMeshFactory@physx@@QEBAIPEAPEAVPxConvexMesh@2@II@Z 000000018017cd70 f   GuMeshFactory.obj
 0001:0017be00       ?addHeightField@GuMeshFactory@physx@@QEAAXPEAVHeightField@Gu@2@_N@Z 000000018017ce00 f   GuMeshFactory.obj
 0001:0017be90       ?createHeightField@GuMeshFactory@physx@@QEAAPEAVPxHeightField@2@PEAX@Z 000000018017ce90 f   GuMeshFactory.obj
 0001:0017bfd0       ?createHeightField@GuMeshFactory@physx@@QEAAPEAVPxHeightField@2@AEAVPxInputStream@2@@Z 000000018017cfd0 f   GuMeshFactory.obj
 0001:0017c130       ?removeHeightField@GuMeshFactory@physx@@QEAA_NAEAVPxHeightField@2@@Z 000000018017d130 f   GuMeshFactory.obj
 0001:0017c1a0       ?getNbHeightFields@GuMeshFactory@physx@@QEBAIXZ 000000018017d1a0 f   GuMeshFactory.obj
 0001:0017c1e0       ?getHeightFields@GuMeshFactory@physx@@QEBAIPEAPEAVPxHeightField@2@II@Z 000000018017d1e0 f   GuMeshFactory.obj
 0001:0017c280       ?addFactoryListener@GuMeshFactory@physx@@QEAAXAEAVGuMeshFactoryListener@2@@Z 000000018017d280 f   GuMeshFactory.obj
 0001:0017c2f0       ?removeFactoryListener@GuMeshFactory@physx@@QEAAXAEAVGuMeshFactoryListener@2@@Z 000000018017d2f0 f   GuMeshFactory.obj
 0001:0017c380       ?notifyFactoryListener@GuMeshFactory@physx@@QEAAXPEBVPxBase@2@G@Z 000000018017d380 f   GuMeshFactory.obj
 0001:0017c400       ?createTriangleMesh@GuMeshFactory@physx@@IEAAPEAVPxTriangleMesh@2@AEAVTriangleMeshData@Gu@2@@Z 000000018017d400 f   GuMeshFactory.obj
 0001:0017c650       ?createConvexMesh@GuMeshFactory@physx@@IEAAPEAVPxConvexMesh@2@AEAUConvexHullData@Gu@2@@Z 000000018017d650 f   GuMeshFactory.obj
 0001:0017cc20       ??0BV4TriangleData@Gu@physx@@QEAA@XZ 000000018017dc20 f i GuMeshFactory.obj
 0001:0017cd10       ??0RTreeTriangleData@Gu@physx@@QEAA@XZ 000000018017dd10 f i GuMeshFactory.obj
 0001:0017cdf0       ??1BV4TriangleData@Gu@physx@@UEAA@XZ 000000018017ddf0 f i GuMeshFactory.obj
 0001:0017ce40       ??1RTreeTriangleData@Gu@physx@@UEAA@XZ 000000018017de40 f i GuMeshFactory.obj
 0001:0017cec0       ??1TriangleMeshData@Gu@physx@@UEAA@XZ 000000018017dec0 f i GuMeshFactory.obj
 0001:0017d110       ??_EGuMeshFactory@physx@@MEAAPEAXI@Z 000000018017e110 f i GuMeshFactory.obj
 0001:0017d260       ??_EBV4TriangleData@Gu@physx@@UEAAPEAXI@Z 000000018017e260 f i GuMeshFactory.obj
 0001:0017d260       ??_GBV4TriangleData@Gu@physx@@UEAAPEAXI@Z 000000018017e260 f i GuMeshFactory.obj
 0001:0017d300       ??_GGuMeshFactory@physx@@MEAAPEAXI@Z 000000018017e300 f i GuMeshFactory.obj
 0001:0017d380       ??_ERTreeTriangleData@Gu@physx@@UEAAPEAXI@Z 000000018017e380 f i GuMeshFactory.obj
 0001:0017d380       ??_GRTreeTriangleData@Gu@physx@@UEAAPEAXI@Z 000000018017e380 f i GuMeshFactory.obj
 0001:0017d460       ??_GTriangleMeshData@Gu@physx@@UEAAPEAXI@Z 000000018017e460 f i GuMeshFactory.obj
 0001:0017d460       ??_ETriangleMeshData@Gu@physx@@UEAAPEAXI@Z 000000018017e460 f i GuMeshFactory.obj
 0001:0017d4e0       ?allocateAdjacencies@TriangleMeshData@Gu@physx@@QEAAPEAIXZ 000000018017e4e0 f i GuMeshFactory.obj
 0001:0017d5d0       ?allocateExtraTrigData@TriangleMeshData@Gu@physx@@QEAAPEAEXZ 000000018017e5d0 f i GuMeshFactory.obj
 0001:0017d690       ?allocateFaceRemap@TriangleMeshData@Gu@physx@@QEAAPEAIXZ 000000018017e690 f i GuMeshFactory.obj
 0001:0017d770       ?allocateMaterials@TriangleMeshData@Gu@physx@@QEAAPEAGXZ 000000018017e770 f i GuMeshFactory.obj
 0001:0017d850       ?allocateTriangles@TriangleMeshData@Gu@physx@@QEAAPEAXI_NI@Z 000000018017e850 f i GuMeshFactory.obj
 0001:0017d960       ?allocateVertices@TriangleMeshData@Gu@physx@@QEAAPEAVPxVec3@3@I@Z 000000018017e960 f i GuMeshFactory.obj
 0001:0017d9f0       ?create@?$HashBase@PEAVConvexMesh@Gu@physx@@PEAV123@U?$Hash@PEAVConvexMesh@Gu@physx@@@shdfnd@3@UGetKey@?$HashSetBase@PEAVConvexMesh@Gu@physx@@U?$Hash@PEAVConvexMesh@Gu@physx@@@shdfnd@3@VNonTrackingAllocator@53@$00@internal@53@VNonTrackingAllocator@53@$00@internal@shdfnd@physx@@QEAAPEAPEAVConvexMesh@Gu@4@AEBQEAV564@AEA_N@Z 000000018017e9f0 f i GuMeshFactory.obj
 0001:0017dbf0       ?create@?$HashBase@PEAVHeightField@Gu@physx@@PEAV123@U?$Hash@PEAVHeightField@Gu@physx@@@shdfnd@3@UGetKey@?$HashSetBase@PEAVHeightField@Gu@physx@@U?$Hash@PEAVHeightField@Gu@physx@@@shdfnd@3@VNonTrackingAllocator@53@$00@internal@53@VNonTrackingAllocator@53@$00@internal@shdfnd@physx@@QEAAPEAPEAVHeightField@Gu@4@AEBQEAV564@AEA_N@Z 000000018017ebf0 f i GuMeshFactory.obj
 0001:0017ddf0       ?create@?$HashBase@PEAVTriangleMesh@Gu@physx@@PEAV123@U?$Hash@PEAVTriangleMesh@Gu@physx@@@shdfnd@3@UGetKey@?$HashSetBase@PEAVTriangleMesh@Gu@physx@@U?$Hash@PEAVTriangleMesh@Gu@physx@@@shdfnd@3@VNonTrackingAllocator@53@$00@internal@53@VNonTrackingAllocator@53@$00@internal@shdfnd@physx@@QEAAPEAPEAVTriangleMesh@Gu@4@AEBQEAV564@AEA_N@Z 000000018017edf0 f i GuMeshFactory.obj
 0001:0017dff0       ?erase@?$HashBase@PEAVConvexMesh@Gu@physx@@PEAV123@U?$Hash@PEAVConvexMesh@Gu@physx@@@shdfnd@3@UGetKey@?$HashSetBase@PEAVConvexMesh@Gu@physx@@U?$Hash@PEAVConvexMesh@Gu@physx@@@shdfnd@3@VNonTrackingAllocator@53@$00@internal@53@VNonTrackingAllocator@53@$00@internal@shdfnd@physx@@QEAA_NAEBQEAVConvexMesh@Gu@4@@Z 000000018017eff0 f i GuMeshFactory.obj
 0001:0017e100       ?erase@?$HashBase@PEAVHeightField@Gu@physx@@PEAV123@U?$Hash@PEAVHeightField@Gu@physx@@@shdfnd@3@UGetKey@?$HashSetBase@PEAVHeightField@Gu@physx@@U?$Hash@PEAVHeightField@Gu@physx@@@shdfnd@3@VNonTrackingAllocator@53@$00@internal@53@VNonTrackingAllocator@53@$00@internal@shdfnd@physx@@QEAA_NAEBQEAVHeightField@Gu@4@@Z 000000018017f100 f i GuMeshFactory.obj
 0001:0017e210       ?erase@?$HashBase@PEAVTriangleMesh@Gu@physx@@PEAV123@U?$Hash@PEAVTriangleMesh@Gu@physx@@@shdfnd@3@UGetKey@?$HashSetBase@PEAVTriangleMesh@Gu@physx@@U?$Hash@PEAVTriangleMesh@Gu@physx@@@shdfnd@3@VNonTrackingAllocator@53@$00@internal@53@VNonTrackingAllocator@53@$00@internal@shdfnd@physx@@QEAA_NAEBQEAVTriangleMesh@Gu@4@@Z 000000018017f210 f i GuMeshFactory.obj
 0001:0017e320       ?growAndPushBack@?$Array@PEAVGuMeshFactoryListener@physx@@VNamedAllocator@shdfnd@2@@shdfnd@physx@@IEAAAEAPEAVGuMeshFactoryListener@3@AEBQEAV43@@Z 000000018017f320 f i GuMeshFactory.obj
 0001:0017f640       ?replaceWithLast@?$HashBase@PEAVConvexMesh@Gu@physx@@PEAV123@U?$Hash@PEAVConvexMesh@Gu@physx@@@shdfnd@3@UGetKey@?$HashSetBase@PEAVConvexMesh@Gu@physx@@U?$Hash@PEAVConvexMesh@Gu@physx@@@shdfnd@3@VNonTrackingAllocator@53@$00@internal@53@VNonTrackingAllocator@53@$00@internal@shdfnd@physx@@AEAAXI@Z 0000000180180640 f i GuMeshFactory.obj
 0001:0017f740       ?replaceWithLast@?$HashBase@PEAVHeightField@Gu@physx@@PEAV123@U?$Hash@PEAVHeightField@Gu@physx@@@shdfnd@3@UGetKey@?$HashSetBase@PEAVHeightField@Gu@physx@@U?$Hash@PEAVHeightField@Gu@physx@@@shdfnd@3@VNonTrackingAllocator@53@$00@internal@53@VNonTrackingAllocator@53@$00@internal@shdfnd@physx@@AEAAXI@Z 0000000180180740 f i GuMeshFactory.obj
 0001:0017f840       ?replaceWithLast@?$HashBase@PEAVTriangleMesh@Gu@physx@@PEAV123@U?$Hash@PEAVTriangleMesh@Gu@physx@@@shdfnd@3@UGetKey@?$HashSetBase@PEAVTriangleMesh@Gu@physx@@U?$Hash@PEAVTriangleMesh@Gu@physx@@@shdfnd@3@VNonTrackingAllocator@53@$00@internal@53@VNonTrackingAllocator@53@$00@internal@shdfnd@physx@@AEAAXI@Z 0000000180180840 f i GuMeshFactory.obj
 0001:0017f940       ?reserveInternal@?$HashBase@PEAVConvexMesh@Gu@physx@@PEAV123@U?$Hash@PEAVConvexMesh@Gu@physx@@@shdfnd@3@UGetKey@?$HashSetBase@PEAVConvexMesh@Gu@physx@@U?$Hash@PEAVConvexMesh@Gu@physx@@@shdfnd@3@VNonTrackingAllocator@53@$00@internal@53@VNonTrackingAllocator@53@$00@internal@shdfnd@physx@@AEAAXI@Z 0000000180180940 f i GuMeshFactory.obj
 0001:0017fbb0       ?reserveInternal@?$HashBase@PEAVHeightField@Gu@physx@@PEAV123@U?$Hash@PEAVHeightField@Gu@physx@@@shdfnd@3@UGetKey@?$HashSetBase@PEAVHeightField@Gu@physx@@U?$Hash@PEAVHeightField@Gu@physx@@@shdfnd@3@VNonTrackingAllocator@53@$00@internal@53@VNonTrackingAllocator@53@$00@internal@shdfnd@physx@@AEAAXI@Z 0000000180180bb0 f i GuMeshFactory.obj
 0001:0017fe20       ?reserveInternal@?$HashBase@PEAVTriangleMesh@Gu@physx@@PEAV123@U?$Hash@PEAVTriangleMesh@Gu@physx@@@shdfnd@3@UGetKey@?$HashSetBase@PEAVTriangleMesh@Gu@physx@@U?$Hash@PEAVTriangleMesh@Gu@physx@@@shdfnd@3@VNonTrackingAllocator@53@$00@internal@53@VNonTrackingAllocator@53@$00@internal@shdfnd@physx@@AEAAXI@Z 0000000180180e20 f i GuMeshFactory.obj
 0001:00180090       ?getBinaryMetaData@HeightField@Gu@physx@@SAXAEAVPxOutputStream@3@@Z 0000000180181090 f   GuMetaData.obj
 0001:001803b0       ?getBinaryMetaData@BigConvexData@physx@@SAXAEAVPxOutputStream@2@@Z 00000001801813b0 f   GuMetaData.obj
 0001:001805d0       ?getBinaryMetaData@ConvexMesh@Gu@physx@@SAXAEAVPxOutputStream@3@@Z 00000001801815d0 f   GuMetaData.obj
 0001:00180a90       ?getBinaryMetaData@RTree@Gu@physx@@SAXAEAVPxOutputStream@3@@Z 0000000180181a90 f   GuMetaData.obj
 0001:00180dd0       ?getBinaryMetaData@SourceMesh@Gu@physx@@SAXAEAVPxOutputStream@3@@Z 0000000180181dd0 f   GuMetaData.obj
 0001:00180fc0       ?getBinaryMetaData@BV4Tree@Gu@physx@@SAXAEAVPxOutputStream@3@@Z 0000000180181fc0 f   GuMetaData.obj
 0001:00181360       ?getBinaryMetaData@TriangleMesh@Gu@physx@@SAXAEAVPxOutputStream@3@@Z 0000000180182360 f   GuMetaData.obj
 0001:00181c70       ?getBinaryMetaData@BV4TriangleMesh@Gu@physx@@SAXAEAVPxOutputStream@3@@Z 0000000180182c70 f   GuMetaData.obj
 0001:00181da0       ?getBinaryMetaData@RTreeTriangleMesh@Gu@physx@@SAXAEAVPxOutputStream@3@@Z 0000000180182da0 f   GuMetaData.obj
 0001:00181e90       ?getBinaryMetaData@MaterialIndicesStruct@physx@@SAXAEAVPxOutputStream@2@@Z 0000000180182e90 f   GuMetaData.obj
 0001:00182040       ?getBinaryMetaData@GeometryUnion@Gu@physx@@SAXAEAVPxOutputStream@3@@Z 0000000180183040 f   GuMetaData.obj
 0001:00184fe0       ?pointConvexDistance@@YA_NAEAVPxVec3@physx@@0AEAMAEBV12@PEBVConvexMesh@Gu@2@AEBVPxMeshScale@2@AEBVPxTransform@2@@Z 0000000180185fe0 f   GuMTD.obj
 0001:00187650       ??0ContactPoint@Gu@physx@@QEAA@XZ 0000000180188650 f i GuMTD.obj
 0001:0018db50       ?getOverlapFuncTable@Gu@physx@@YAPEAY06Q6A_NAEBVPxGeometry@2@AEBVPxTransform@2@01PEAUTriggerCache@12@@ZXZ 000000018018eb50 f   GuOverlapTests.obj
 0001:0018db60       ?registerHeightFields@Gu@physx@@YAXXZ 000000018018eb60 f   GuOverlapTests.obj
 0001:00190820       ??$gjk@U?$RelativeConvex@VBoxV@Gu@physx@@@Gu@physx@@U?$LocalConvex@VConvexHullV@Gu@physx@@@23@@Gu@physx@@YA?AW4GjkStatus@01@AEBU?$RelativeConvex@VBoxV@Gu@physx@@@01@AEBU?$LocalConvex@VConvexHullV@Gu@physx@@@01@AEBT__m128@@2AEAT5@333@Z 0000000180191820 f i GuOverlapTests.obj
 0001:00191a20       ??$gjk@U?$RelativeConvex@VConvexHullV@Gu@physx@@@Gu@physx@@U?$LocalConvex@VConvexHullV@Gu@physx@@@23@@Gu@physx@@YA?AW4GjkStatus@01@AEBU?$RelativeConvex@VConvexHullV@Gu@physx@@@01@AEBU?$LocalConvex@VConvexHullV@Gu@physx@@@01@AEBT__m128@@2AEAT5@333@Z 0000000180192a20 f i GuOverlapTests.obj
 0001:00194d60       ?getRaycastFuncTable@Gu@physx@@YAAEAY06Q6AIAEBVPxGeometry@2@AEBVPxTransform@2@AEBVPxVec3@2@2MV?$PxFlags@W4Enum@PxHitFlag@physx@@G@2@IPEIAUPxRaycastHit@2@@ZXZ 0000000180195d60 f   GuRaycastTests.obj
 0001:00194d70       ?raycast_box@@YAIAEBVPxGeometry@physx@@AEBVPxTransform@2@AEBVPxVec3@2@2MV?$PxFlags@W4Enum@PxHitFlag@physx@@G@2@IPEIAUPxRaycastHit@2@@Z 0000000180195d70 f   GuRaycastTests.obj
 0001:001953a0       ?raycast_sphere@@YAIAEBVPxGeometry@physx@@AEBVPxTransform@2@AEBVPxVec3@2@2MV?$PxFlags@W4Enum@PxHitFlag@physx@@G@2@IPEIAUPxRaycastHit@2@@Z 00000001801963a0 f   GuRaycastTests.obj
 0001:00195540       ?raycast_capsule@@YAIAEBVPxGeometry@physx@@AEBVPxTransform@2@AEBVPxVec3@2@2MV?$PxFlags@W4Enum@PxHitFlag@physx@@G@2@IPEIAUPxRaycastHit@2@@Z 0000000180196540 f   GuRaycastTests.obj
 0001:001959f0       ?raycast_plane@@YAIAEBVPxGeometry@physx@@AEBVPxTransform@2@AEBVPxVec3@2@2MV?$PxFlags@W4Enum@PxHitFlag@physx@@G@2@IPEIAUPxRaycastHit@2@@Z 00000001801969f0 f   GuRaycastTests.obj
 0001:00195bc0       ?raycast_convexMesh@@YAIAEBVPxGeometry@physx@@AEBVPxTransform@2@AEBVPxVec3@2@2MV?$PxFlags@W4Enum@PxHitFlag@physx@@G@2@IPEIAUPxRaycastHit@2@@Z 0000000180196bc0 f   GuRaycastTests.obj
 0001:00196740       ?raycast_triangleMesh@@YAIAEBVPxGeometry@physx@@AEBVPxTransform@2@AEBVPxVec3@2@2MV?$PxFlags@W4Enum@PxHitFlag@physx@@G@2@IPEIAUPxRaycastHit@2@@Z 0000000180197740 f   GuRaycastTests.obj
 0001:001967d0       ?raycast_heightField@@YAIAEBVPxGeometry@physx@@AEBVPxTransform@2@AEBVPxVec3@2@2MV?$PxFlags@W4Enum@PxHitFlag@physx@@G@2@IPEIAUPxRaycastHit@2@@Z 00000001801977d0 f   GuRaycastTests.obj
 0001:00196e40       ?registerHeightFields_Raycasts@@YAXXZ 0000000180197e40 f   GuRaycastTests.obj
 0001:00197690       ??$traceSegment@UHFTraceSegmentCallback@?A0x3d0fc70a@@$0A@$0A@@HeightFieldUtil@Gu@physx@@QEBAXAEBVPxVec3@2@0MPEAUHFTraceSegmentCallback@?A0x3d0fc70a@@AEBVPxBounds3@2@_NPEBV32@@Z 0000000180198690 f i GuRaycastTests.obj
 0001:00199350       ?readChunk@physx@@YAXAEAC000AEAVPxInputStream@1@@Z 000000018019a350 f   GuSerialize.obj
 0001:001993e0       ?readWord@physx@@YAG_NAEAVPxInputStream@1@@Z 000000018019a3e0 f   GuSerialize.obj
 0001:00199430       ?readDword@physx@@YAI_NAEAVPxInputStream@1@@Z 000000018019a430 f   GuSerialize.obj
 0001:00199490       ?readFloat@physx@@YAM_NAEAVPxInputStream@1@@Z 000000018019a490 f   GuSerialize.obj
 0001:001994f0       ?writeWord@physx@@YAXG_NAEAVPxOutputStream@1@@Z 000000018019a4f0 f   GuSerialize.obj
 0001:00199530       ?writeDword@physx@@YAXI_NAEAVPxOutputStream@1@@Z 000000018019a530 f   GuSerialize.obj
 0001:00199590       ?writeFloat@physx@@YAXM_NAEAVPxOutputStream@1@@Z 000000018019a590 f   GuSerialize.obj
 0001:001995f0       ?readFloatBuffer@physx@@YA_NPEAMI_NAEAVPxInputStream@1@@Z 000000018019a5f0 f   GuSerialize.obj
 0001:00199670       ?writeFloatBuffer@physx@@YAXPEBMI_NAEAVPxOutputStream@1@@Z 000000018019a670 f   GuSerialize.obj
 0001:00199710       ?writeWordBuffer@physx@@YAXPEBGI_NAEAVPxOutputStream@1@@Z 000000018019a710 f   GuSerialize.obj
 0001:001997a0       ?readWordBuffer@physx@@YAXPEAGI_NAEAVPxInputStream@1@@Z 000000018019a7a0 f   GuSerialize.obj
 0001:00199810       ?writeHeader@physx@@YA_NCCCCI_NAEAVPxOutputStream@1@@Z 000000018019a810 f   GuSerialize.obj
 0001:00199940       ?readHeader@physx@@YA_NCCCCAEAIAEA_NAEAVPxInputStream@1@@Z 000000018019a940 f   GuSerialize.obj
 0001:00199aa0       ?computeMaxIndex@physx@@YAIPEBII@Z 000000018019aaa0 f   GuSerialize.obj
 0001:00199ad0       ?computeMaxIndex@physx@@YAGPEBGI@Z 000000018019aad0 f   GuSerialize.obj
 0001:00199b00       ?storeIndices@physx@@YAXIIPEBIAEAVPxOutputStream@1@_N@Z 000000018019ab00 f   GuSerialize.obj
 0001:00199c00       ?readIndices@physx@@YAXIIPEAIAEAVPxInputStream@1@_N@Z 000000018019ac00 f   GuSerialize.obj
 0001:00199d00       ?WriteHeader@Gu@physx@@YA_NEEEEI_NAEAVPxOutputStream@2@@Z 000000018019ad00 f   GuSerialize.obj
 0001:00199e30       ?ReadHeader@Gu@physx@@YA_NEEEEAEAIAEA_NAEAVPxInputStream@2@@Z 000000018019ae30 f   GuSerialize.obj
 0001:00199fb0       ?StoreIndices@Gu@physx@@YAXIIPEBIAEAVPxOutputStream@2@_N@Z 000000018019afb0 f   GuSerialize.obj
 0001:0019a0f0       ?ReadIndices@Gu@physx@@YAXIIPEAIAEAVPxInputStream@2@_N@Z 000000018019b0f0 f   GuSerialize.obj
 0001:0019a200       ?StoreIndices@Gu@physx@@YAXGIPEBGAEAVPxOutputStream@2@_N@Z 000000018019b200 f   GuSerialize.obj
 0001:0019a2e0       ?ReadIndices@Gu@physx@@YAXGIPEAGAEAVPxInputStream@2@_N@Z 000000018019b2e0 f   GuSerialize.obj
 0001:0019a840       ?computeCapsule_TriangleMeshMTD@Gu@physx@@YA_NAEBVPxTriangleMeshGeometry@2@AEBVPxTransform@2@AEAVCapsuleV@12@M_NAEAUPxSweepHit@2@@Z 000000018019b840 f   GuSweepMTD.obj
 0001:0019b1b0       ?computeCapsule_HeightFieldMTD@Gu@physx@@YA_NAEBVPxHeightFieldGeometry@2@AEBVPxTransform@2@AEAVCapsuleV@12@M_NIAEAUPxSweepHit@2@@Z 000000018019c1b0 f   GuSweepMTD.obj
 0001:0019b890       ?computeBox_TriangleMeshMTD@Gu@physx@@YA_NAEBVPxTriangleMeshGeometry@2@AEBVPxTransform@2@AEBVBox@12@1M_NAEAUPxSweepHit@2@@Z 000000018019c890 f   GuSweepMTD.obj
 0001:0019c630       ?computeBox_HeightFieldMTD@Gu@physx@@YA_NAEBVPxHeightFieldGeometry@2@AEBVPxTransform@2@AEBVBox@12@1M_NIAEAUPxSweepHit@2@@Z 000000018019d630 f   GuSweepMTD.obj
 0001:0019d4c0       ?computeConvex_TriangleMeshMTD@Gu@physx@@YA_NAEBVPxTriangleMeshGeometry@2@AEBVPxTransform@2@AEBVPxConvexMeshGeometry@2@1M_NAEAUPxSweepHit@2@@Z 000000018019e4c0 f   GuSweepMTD.obj
 0001:0019e860       ?computeConvex_HeightFieldMTD@Gu@physx@@YA_NAEBVPxHeightFieldGeometry@2@AEBVPxTransform@2@AEBVPxConvexMeshGeometry@2@1M_NIAEAUPxSweepHit@2@@Z 000000018019f860 f   GuSweepMTD.obj
 0001:0019fd30       ?computeSphere_SphereMTD@Gu@physx@@YA_NAEBVSphere@12@0AEAUPxSweepHit@2@@Z 00000001801a0d30 f   GuSweepMTD.obj
 0001:0019fe10       ?computeSphere_CapsuleMTD@Gu@physx@@YA_NAEBVSphere@12@AEBVCapsule@12@AEAUPxSweepHit@2@@Z 00000001801a0e10 f   GuSweepMTD.obj
 0001:0019ff50       ?computeCapsule_CapsuleMTD@Gu@physx@@YA_NAEBVCapsule@12@0AEAUPxSweepHit@2@@Z 00000001801a0f50 f   GuSweepMTD.obj
 0001:001a0190       ?computePlane_CapsuleMTD@Gu@physx@@YA_NAEBVPxPlane@2@AEBVCapsule@12@AEAUPxSweepHit@2@@Z 00000001801a1190 f   GuSweepMTD.obj
 0001:001a02a0       ?computePlane_BoxMTD@Gu@physx@@YA_NAEBVPxPlane@2@AEBVBox@12@AEAUPxSweepHit@2@@Z 00000001801a12a0 f   GuSweepMTD.obj
 0001:001a0500       ?computePlane_ConvexMTD@Gu@physx@@YA_NAEBVPxPlane@2@AEBVPxConvexMeshGeometry@2@AEBVPxTransform@2@AEAUPxSweepHit@2@@Z 00000001801a1500 f   GuSweepMTD.obj
 0001:001a2260       ??0MTDTriangle@@QEAA@XZ    00000001801a3260 f i GuSweepMTD.obj
 0001:001a2270       ??1MTDTriangle@@QEAA@XZ    00000001801a3270 f i GuSweepMTD.obj
 0001:001a2280       ??_EMeshMTDGenerationCallback@@UEAAPEAXI@Z 00000001801a3280 f i GuSweepMTD.obj
 0001:001a2280       ??_GMeshMTDGenerationCallback@@UEAAPEAXI@Z 00000001801a3280 f i GuSweepMTD.obj
 0001:001a22c0       ??_EMidPhaseQueryLocalReport@@UEAAPEAXI@Z 00000001801a32c0 f i GuSweepMTD.obj
 0001:001a22c0       ??_GMidPhaseQueryLocalReport@@UEAAPEAXI@Z 00000001801a32c0 f i GuSweepMTD.obj
 0001:001a2300       ?onEvent@MidPhaseQueryLocalReport@@UEAA_NIPEAI@Z 00000001801a3300 f i GuSweepMTD.obj
 0001:001a2390       ?processHit@MeshMTDGenerationCallback@@UEAA_NAEBUPxRaycastHit@physx@@AEBVPxVec3@3@11AEAMPEBI@Z 00000001801a3390 f i GuSweepMTD.obj
 0001:001a23f0       ?sweepCapsuleTriangles@Gu@physx@@YA_NIPEBVPxTriangle@2@_NAEBVPxCapsuleGeometry@2@AEBVPxTransform@2@AEBVPxVec3@2@MAEAUPxSweepHit@2@PEBIMV?$PxFlags@W4Enum@PxHitFlag@physx@@G@2@@Z 00000001801a33f0 f   GuSweepSharedTests.obj
 0001:001a25f0       ?sweepCapsule_SphereGeom@@YA_NAEBVPxGeometry@physx@@AEBVPxTransform@2@AEBVPxCapsuleGeometry@2@1AEBVCapsule@Gu@2@AEBVPxVec3@2@MAEAUPxSweepHit@2@V?$PxFlags@W4Enum@PxHitFlag@physx@@G@2@M@Z 00000001801a35f0 f   GuSweepSharedTests.obj
 0001:001a2790       ?sweepCapsule_PlaneGeom@@YA_NAEBVPxGeometry@physx@@AEBVPxTransform@2@AEBVPxCapsuleGeometry@2@1AEBVCapsule@Gu@2@AEBVPxVec3@2@MAEAUPxSweepHit@2@V?$PxFlags@W4Enum@PxHitFlag@physx@@G@2@M@Z 00000001801a3790 f   GuSweepSharedTests.obj
 0001:001a2a90       ?sweepCapsule_CapsuleGeom@@YA_NAEBVPxGeometry@physx@@AEBVPxTransform@2@AEBVPxCapsuleGeometry@2@1AEBVCapsule@Gu@2@AEBVPxVec3@2@MAEAUPxSweepHit@2@V?$PxFlags@W4Enum@PxHitFlag@physx@@G@2@M@Z 00000001801a3a90 f   GuSweepSharedTests.obj
 0001:001a2c70       ?sweepCapsule_ConvexGeom@@YA_NAEBVPxGeometry@physx@@AEBVPxTransform@2@AEBVPxCapsuleGeometry@2@1AEBVCapsule@Gu@2@AEBVPxVec3@2@MAEAUPxSweepHit@2@V?$PxFlags@W4Enum@PxHitFlag@physx@@G@2@M@Z 00000001801a3c70 f   GuSweepSharedTests.obj
 0001:001a3b70       ?sweepBox_PlaneGeom@@YA_NAEBVPxGeometry@physx@@AEBVPxTransform@2@AEBVPxBoxGeometry@2@1AEBVBox@Gu@2@AEBVPxVec3@2@MAEAUPxSweepHit@2@V?$PxFlags@W4Enum@PxHitFlag@physx@@G@2@M@Z 00000001801a4b70 f   GuSweepSharedTests.obj
 0001:001a3f70       ?sweepBox_ConvexGeom@@YA_NAEBVPxGeometry@physx@@AEBVPxTransform@2@AEBVPxBoxGeometry@2@1AEBVBox@Gu@2@AEBVPxVec3@2@MAEAUPxSweepHit@2@V?$PxFlags@W4Enum@PxHitFlag@physx@@G@2@M@Z 00000001801a4f70 f   GuSweepSharedTests.obj
 0001:001a4ff0       ?sweepConvex_SphereGeom@@YA_NAEBVPxGeometry@physx@@AEBVPxTransform@2@AEBVPxConvexMeshGeometry@2@1AEBVPxVec3@2@MAEAUPxSweepHit@2@V?$PxFlags@W4Enum@PxHitFlag@physx@@G@2@M@Z 00000001801a5ff0 f   GuSweepSharedTests.obj
 0001:001a5d80       ?sweepConvex_PlaneGeom@@YA_NAEBVPxGeometry@physx@@AEBVPxTransform@2@AEBVPxConvexMeshGeometry@2@1AEBVPxVec3@2@MAEAUPxSweepHit@2@V?$PxFlags@W4Enum@PxHitFlag@physx@@G@2@M@Z 00000001801a6d80 f   GuSweepSharedTests.obj
 0001:001a61e0       ?sweepConvex_CapsuleGeom@@YA_NAEBVPxGeometry@physx@@AEBVPxTransform@2@AEBVPxConvexMeshGeometry@2@1AEBVPxVec3@2@MAEAUPxSweepHit@2@V?$PxFlags@W4Enum@PxHitFlag@physx@@G@2@M@Z 00000001801a71e0 f   GuSweepSharedTests.obj
 0001:001a6400       ?sweepConvex_BoxGeom@@YA_NAEBVPxGeometry@physx@@AEBVPxTransform@2@AEBVPxConvexMeshGeometry@2@1AEBVPxVec3@2@MAEAUPxSweepHit@2@V?$PxFlags@W4Enum@PxHitFlag@physx@@G@2@M@Z 00000001801a7400 f   GuSweepSharedTests.obj
 0001:001a6610       ?sweepConvex_ConvexGeom@@YA_NAEBVPxGeometry@physx@@AEBVPxTransform@2@AEBVPxConvexMeshGeometry@2@1AEBVPxVec3@2@MAEAUPxSweepHit@2@V?$PxFlags@W4Enum@PxHitFlag@physx@@G@2@M@Z 00000001801a7610 f   GuSweepSharedTests.obj
 0001:001a8c90       ??$gjkPenetration@U?$LocalConvex@VCapsuleV@Gu@physx@@@Gu@physx@@U?$LocalConvex@VShrunkConvexHullV@Gu@physx@@@23@@Gu@physx@@YA?AW4GjkStatus@01@AEBU?$LocalConvex@VCapsuleV@Gu@physx@@@01@AEBU?$LocalConvex@VShrunkConvexHullV@Gu@physx@@@01@AEBT__m128@@2AEAT5@333PEIAE4AEAE_N@Z 00000001801a9c90 f i GuSweepSharedTests.obj
 0001:001aaee0       ??$gjkRaycast@U?$LocalConvex@VCapsuleV@Gu@physx@@@Gu@physx@@U?$LocalConvex@VConvexHullV@Gu@physx@@@23@@Gu@physx@@YA_NAEBU?$LocalConvex@VCapsuleV@Gu@physx@@@01@AEBU?$LocalConvex@VConvexHullV@Gu@physx@@@01@AEBT__m128@@222AEAT4@33M@Z 00000001801abee0 f i GuSweepSharedTests.obj
 0001:001ac100       ??$gjkRaycast@U?$RelativeConvex@VBoxV@Gu@physx@@@Gu@physx@@U?$LocalConvex@VConvexHullV@Gu@physx@@@23@@Gu@physx@@YA_NAEBU?$RelativeConvex@VBoxV@Gu@physx@@@01@AEBU?$LocalConvex@VConvexHullV@Gu@physx@@@01@AEBT__m128@@222AEAT4@33M@Z 00000001801ad100 f i GuSweepSharedTests.obj
 0001:001ad490       ??$gjkRaycast@U?$RelativeConvex@VConvexHullV@Gu@physx@@@Gu@physx@@U?$LocalConvex@VConvexHullV@Gu@physx@@@23@@Gu@physx@@YA_NAEBU?$RelativeConvex@VConvexHullV@Gu@physx@@@01@AEBU?$LocalConvex@VConvexHullV@Gu@physx@@@01@AEBT__m128@@222AEAT4@33M@Z 00000001801ae490 f i GuSweepSharedTests.obj
 0001:001ae960       ??$gjkRaycastPenetration@U?$LocalConvex@VCapsuleV@Gu@physx@@@Gu@physx@@U?$LocalConvex@VConvexHullV@Gu@physx@@@23@@Gu@physx@@YA_NAEBU?$LocalConvex@VCapsuleV@Gu@physx@@@01@AEBU?$LocalConvex@VConvexHullV@Gu@physx@@@01@AEBT__m128@@222AEAT4@33M_N@Z 00000001801af960 f i GuSweepSharedTests.obj
 0001:001aec60       ??$gjkRaycastPenetration@U?$RelativeConvex@VBoxV@Gu@physx@@@Gu@physx@@U?$LocalConvex@VConvexHullV@Gu@physx@@@23@@Gu@physx@@YA_NAEBU?$RelativeConvex@VBoxV@Gu@physx@@@01@AEBU?$LocalConvex@VConvexHullV@Gu@physx@@@01@AEBT__m128@@222AEAT4@33M_N@Z 00000001801afc60 f i GuSweepSharedTests.obj
 0001:001aefd0       ??$gjkRaycastPenetration@U?$RelativeConvex@VConvexHullV@Gu@physx@@@Gu@physx@@U?$LocalConvex@VConvexHullV@Gu@physx@@@23@@Gu@physx@@YA_NAEBU?$RelativeConvex@VConvexHullV@Gu@physx@@@01@AEBU?$LocalConvex@VConvexHullV@Gu@physx@@@01@AEBT__m128@@222AEAT4@33M_N@Z 00000001801affd0 f i GuSweepSharedTests.obj
 0001:001afeb0       ?getSweepFuncTable@Gu@physx@@YAAEBUGeomSweepFuncs@12@XZ 00000001801b0eb0 f   GuSweepTests.obj
 0001:001afec0       ?sweepBoxTriangles@Gu@physx@@YA_NIPEBVPxTriangle@2@_NAEBVPxBoxGeometry@2@AEBVPxTransform@2@AEBVPxVec3@2@MAEAUPxSweepHit@2@PEBIMV?$PxFlags@W4Enum@PxHitFlag@physx@@G@2@@Z 00000001801b0ec0 f   GuSweepTests.obj
 0001:001b0a70       ?sweepCapsule_BoxGeom@@YA_NAEBVPxGeometry@physx@@AEBVPxTransform@2@AEBVPxCapsuleGeometry@2@1AEBVCapsule@Gu@2@AEBVPxVec3@2@MAEAUPxSweepHit@2@V?$PxFlags@W4Enum@PxHitFlag@physx@@G@2@M@Z 00000001801b1a70 f   GuSweepTests.obj
 0001:001b15a0       ?sweepBox_SphereGeom@@YA_NAEBVPxGeometry@physx@@AEBVPxTransform@2@AEBVPxBoxGeometry@2@1AEBVBox@Gu@2@AEBVPxVec3@2@MAEAUPxSweepHit@2@V?$PxFlags@W4Enum@PxHitFlag@physx@@G@2@M@Z 00000001801b25a0 f   GuSweepTests.obj
 0001:001b1ea0       ?sweepBox_CapsuleGeom@@YA_NAEBVPxGeometry@physx@@AEBVPxTransform@2@AEBVPxBoxGeometry@2@1AEBVBox@Gu@2@AEBVPxVec3@2@MAEAUPxSweepHit@2@V?$PxFlags@W4Enum@PxHitFlag@physx@@G@2@M@Z 00000001801b2ea0 f   GuSweepTests.obj
 0001:001b29c0       ?sweepBox_BoxGeom@@YA_NAEBVPxGeometry@physx@@AEBVPxTransform@2@AEBVPxBoxGeometry@2@1AEBVBox@Gu@2@AEBVPxVec3@2@MAEAUPxSweepHit@2@V?$PxFlags@W4Enum@PxHitFlag@physx@@G@2@M@Z 00000001801b39c0 f   GuSweepTests.obj
 0001:001b3690       ?registerHeightFields_Sweeps@@YAXXZ 00000001801b4690 f   GuSweepTests.obj
 0001:001b44e0       ??$gjkPenetration@U?$LocalConvex@VCapsuleV@Gu@physx@@@Gu@physx@@U?$LocalConvex@VShrunkBoxV@Gu@physx@@@23@@Gu@physx@@YA?AW4GjkStatus@01@AEBU?$LocalConvex@VCapsuleV@Gu@physx@@@01@AEBU?$LocalConvex@VShrunkBoxV@Gu@physx@@@01@AEBT__m128@@2AEAT5@333PEIAE4AEAE_N@Z 00000001801b54e0 f i GuSweepTests.obj
 0001:001b6420       ??$gjkRaycast@U?$LocalConvex@VCapsuleV@Gu@physx@@@Gu@physx@@U?$LocalConvex@VBoxV@Gu@physx@@@23@@Gu@physx@@YA_NAEBU?$LocalConvex@VCapsuleV@Gu@physx@@@01@AEBU?$LocalConvex@VBoxV@Gu@physx@@@01@AEBT__m128@@222AEAT4@33M@Z 00000001801b7420 f i GuSweepTests.obj
 0001:001b74b0       ??$gjkRaycast@U?$RelativeConvex@VBoxV@Gu@physx@@@Gu@physx@@U?$LocalConvex@VBoxV@Gu@physx@@@23@@Gu@physx@@YA_NAEBU?$RelativeConvex@VBoxV@Gu@physx@@@01@AEBU?$LocalConvex@VBoxV@Gu@physx@@@01@AEBT__m128@@222AEAT4@33M@Z 00000001801b84b0 f i GuSweepTests.obj
 0001:001b85c0       ??$gjkRaycastPenetration@U?$LocalConvex@VCapsuleV@Gu@physx@@@Gu@physx@@U?$LocalConvex@VBoxV@Gu@physx@@@23@@Gu@physx@@YA_NAEBU?$LocalConvex@VCapsuleV@Gu@physx@@@01@AEBU?$LocalConvex@VBoxV@Gu@physx@@@01@AEBT__m128@@222AEAT4@33M_N@Z 00000001801b95c0 f i GuSweepTests.obj
 0001:001b88c0       ??$gjkRaycastPenetration@U?$RelativeConvex@VBoxV@Gu@physx@@@Gu@physx@@U?$LocalConvex@VBoxV@Gu@physx@@@23@@Gu@physx@@YA_NAEBU?$RelativeConvex@VBoxV@Gu@physx@@@01@AEBU?$LocalConvex@VBoxV@Gu@physx@@@01@AEBT__m128@@222AEAT4@33M_N@Z 00000001801b98c0 f i GuSweepTests.obj
 0001:001b8c28       LoadLibraryA               00000001801b9c28 f   kernel32:KERNEL32.dll
 0001:001b8c2e       FreeLibrary                00000001801b9c2e f   kernel32:KERNEL32.dll
 0001:001b8c34       GetProcAddress             00000001801b9c34 f   kernel32:KERNEL32.dll
 0001:001b8c3a       __imp_load_??0NamedAllocator@shdfnd@physx@@QEAA@PEBD@Z 00000001801b9c3a f   PxFoundationCHECKED_x64:PxFoundationCHECKED_x64.dll
 0001:001b8c46       __tailMerge_PxFoundationCHECKED_x64_dll 00000001801b9c46 f i PxFoundationCHECKED_x64:PxFoundationCHECKED_x64.dll
 0001:001b8cbf       ??0NamedAllocator@shdfnd@physx@@QEAA@PEBD@Z 00000001801b9cbf f   PxFoundationCHECKED_x64:PxFoundationCHECKED_x64.dll
 0001:001b8cc5       __imp_load_?getAllocator@shdfnd@physx@@YAAEAVPxAllocatorCallback@2@XZ 00000001801b9cc5 f   PxFoundationCHECKED_x64:PxFoundationCHECKED_x64.dll
 0001:001b8cd1       ?getAllocator@shdfnd@physx@@YAAEAVPxAllocatorCallback@2@XZ 00000001801b9cd1 f   PxFoundationCHECKED_x64:PxFoundationCHECKED_x64.dll
 0001:001b8cd7       __imp_load_??1NamedAllocator@shdfnd@physx@@QEAA@XZ 00000001801b9cd7 f   PxFoundationCHECKED_x64:PxFoundationCHECKED_x64.dll
 0001:001b8ce3       ??1NamedAllocator@shdfnd@physx@@QEAA@XZ 00000001801b9ce3 f   PxFoundationCHECKED_x64:PxFoundationCHECKED_x64.dll
 0001:001b8ce9       __imp_load_?allocate@NamedAllocator@shdfnd@physx@@QEAAPEAX_KPEBDH@Z 00000001801b9ce9 f   PxFoundationCHECKED_x64:PxFoundationCHECKED_x64.dll
 0001:001b8cf5       ?allocate@NamedAllocator@shdfnd@physx@@QEAAPEAX_KPEBDH@Z 00000001801b9cf5 f   PxFoundationCHECKED_x64:PxFoundationCHECKED_x64.dll
 0001:001b8cfb       __imp_load_?deallocate@NamedAllocator@shdfnd@physx@@QEAAXPEAX@Z 00000001801b9cfb f   PxFoundationCHECKED_x64:PxFoundationCHECKED_x64.dll
 0001:001b8d07       ?deallocate@NamedAllocator@shdfnd@physx@@QEAAXPEAX@Z 00000001801b9d07 f   PxFoundationCHECKED_x64:PxFoundationCHECKED_x64.dll
 0001:001b8d0d       __imp_load_PxGetFoundation 00000001801b9d0d f   PxFoundationCHECKED_x64:PxFoundationCHECKED_x64.dll
 0001:001b8d19       PxGetFoundation            00000001801b9d19 f   PxFoundationCHECKED_x64:PxFoundationCHECKED_x64.dll
 0001:001b8d1f       __imp_load_?getInstance@Foundation@shdfnd@physx@@SAAEAV123@XZ 00000001801b9d1f f   PxFoundationCHECKED_x64:PxFoundationCHECKED_x64.dll
 0001:001b8d2b       ?getInstance@Foundation@shdfnd@physx@@SAAEAV123@XZ 00000001801b9d2b f   PxFoundationCHECKED_x64:PxFoundationCHECKED_x64.dll
 0001:001b8d31       __imp_load_?error@Foundation@shdfnd@physx@@QEAAXW4Enum@PxErrorCode@3@PEBDH1ZZ 00000001801b9d31 f   PxFoundationCHECKED_x64:PxFoundationCHECKED_x64.dll
 0001:001b8d3d       ?error@Foundation@shdfnd@physx@@QEAAXW4Enum@PxErrorCode@3@PEBDH1ZZ 00000001801b9d3d f   PxFoundationCHECKED_x64:PxFoundationCHECKED_x64.dll
 0001:001b8d43       __imp_load_?PxShortestRotation@physx@@YA?AVPxQuat@1@AEBVPxVec3@1@0@Z 00000001801b9d43 f   PxFoundationCHECKED_x64:PxFoundationCHECKED_x64.dll
 0001:001b8d4f       ?PxShortestRotation@physx@@YA?AVPxQuat@1@AEBVPxVec3@1@0@Z 00000001801b9d4f f   PxFoundationCHECKED_x64:PxFoundationCHECKED_x64.dll
 0001:001b8d55       __imp_load_?vsnprintf@shdfnd@physx@@YAHPEAD_KPEBD0@Z 00000001801b9d55 f   PxFoundationCHECKED_x64:PxFoundationCHECKED_x64.dll
 0001:001b8d61       ?vsnprintf@shdfnd@physx@@YAHPEAD_KPEBD0@Z 00000001801b9d61 f   PxFoundationCHECKED_x64:PxFoundationCHECKED_x64.dll
 0001:001b8d67       __imp_load_?optimizeBoundingBox@shdfnd@physx@@YA?AVPxVec3@2@AEAVPxMat33@2@@Z 00000001801b9d67 f   PxFoundationCHECKED_x64:PxFoundationCHECKED_x64.dll
 0001:001b8d73       ?optimizeBoundingBox@shdfnd@physx@@YA?AVPxVec3@2@AEAVPxMat33@2@@Z 00000001801b9d73 f   PxFoundationCHECKED_x64:PxFoundationCHECKED_x64.dll
 0001:001b8d79       __imp_load_??0NamedAllocator@shdfnd@physx@@QEAA@AEBV012@@Z 00000001801b9d79 f   PxFoundationCHECKED_x64:PxFoundationCHECKED_x64.dll
 0001:001b8d85       ??0NamedAllocator@shdfnd@physx@@QEAA@AEBV012@@Z 00000001801b9d85 f   PxFoundationCHECKED_x64:PxFoundationCHECKED_x64.dll
 0001:001b8d8b       __imp_load_?allocate@TempAllocator@shdfnd@physx@@QEAAPEAX_KPEBDH@Z 00000001801b9d8b f   PxFoundationCHECKED_x64:PxFoundationCHECKED_x64.dll
 0001:001b8d97       ?allocate@TempAllocator@shdfnd@physx@@QEAAPEAX_KPEBDH@Z 00000001801b9d97 f   PxFoundationCHECKED_x64:PxFoundationCHECKED_x64.dll
 0001:001b8d9d       __imp_load_?deallocate@TempAllocator@shdfnd@physx@@QEAAXPEAX@Z 00000001801b9d9d f   PxFoundationCHECKED_x64:PxFoundationCHECKED_x64.dll
 0001:001b8da9       ?deallocate@TempAllocator@shdfnd@physx@@QEAAXPEAX@Z 00000001801b9da9 f   PxFoundationCHECKED_x64:PxFoundationCHECKED_x64.dll
 0001:001b8daf       __imp_load_?atomicIncrement@shdfnd@physx@@YAHPECH@Z 00000001801b9daf f   PxFoundationCHECKED_x64:PxFoundationCHECKED_x64.dll
 0001:001b8dbb       ?atomicIncrement@shdfnd@physx@@YAHPECH@Z 00000001801b9dbb f   PxFoundationCHECKED_x64:PxFoundationCHECKED_x64.dll
 0001:001b8dc1       __imp_load_?atomicDecrement@shdfnd@physx@@YAHPECH@Z 00000001801b9dc1 f   PxFoundationCHECKED_x64:PxFoundationCHECKED_x64.dll
 0001:001b8dcd       ?atomicDecrement@shdfnd@physx@@YAHPECH@Z 00000001801b9dcd f   PxFoundationCHECKED_x64:PxFoundationCHECKED_x64.dll
 0001:001b8dd3       __imp_load_PxGetProfilerCallback 00000001801b9dd3 f   PxFoundationCHECKED_x64:PxFoundationCHECKED_x64.dll
 0001:001b8ddf       PxGetProfilerCallback      00000001801b9ddf f   PxFoundationCHECKED_x64:PxFoundationCHECKED_x64.dll
 0001:001b8de5       __imp_load_??0MutexImpl@shdfnd@physx@@QEAA@XZ 00000001801b9de5 f   PxFoundationCHECKED_x64:PxFoundationCHECKED_x64.dll
 0001:001b8df1       ??0MutexImpl@shdfnd@physx@@QEAA@XZ 00000001801b9df1 f   PxFoundationCHECKED_x64:PxFoundationCHECKED_x64.dll
 0001:001b8df7       __imp_load_??1MutexImpl@shdfnd@physx@@QEAA@XZ 00000001801b9df7 f   PxFoundationCHECKED_x64:PxFoundationCHECKED_x64.dll
 0001:001b8e03       ??1MutexImpl@shdfnd@physx@@QEAA@XZ 00000001801b9e03 f   PxFoundationCHECKED_x64:PxFoundationCHECKED_x64.dll
 0001:001b8e09       __imp_load_?lock@MutexImpl@shdfnd@physx@@QEAAXXZ 00000001801b9e09 f   PxFoundationCHECKED_x64:PxFoundationCHECKED_x64.dll
 0001:001b8e15       ?lock@MutexImpl@shdfnd@physx@@QEAAXXZ 00000001801b9e15 f   PxFoundationCHECKED_x64:PxFoundationCHECKED_x64.dll
 0001:001b8e1b       __imp_load_?unlock@MutexImpl@shdfnd@physx@@QEAAXXZ 00000001801b9e1b f   PxFoundationCHECKED_x64:PxFoundationCHECKED_x64.dll
 0001:001b8e27       ?unlock@MutexImpl@shdfnd@physx@@QEAAXXZ 00000001801b9e27 f   PxFoundationCHECKED_x64:PxFoundationCHECKED_x64.dll
 0001:001b8e2d       __imp_load_?getSize@MutexImpl@shdfnd@physx@@SAAEBIXZ 00000001801b9e2d f   PxFoundationCHECKED_x64:PxFoundationCHECKED_x64.dll
 0001:001b8e39       ?getSize@MutexImpl@shdfnd@physx@@SAAEBIXZ 00000001801b9e39 f   PxFoundationCHECKED_x64:PxFoundationCHECKED_x64.dll
 0001:001b8e40       ??$PFromRva@PEAP6A_JXZ@@YAPEAP6A_JXZK@Z 00000001801b9e40 f i delayimp:delayhlp.obj
 0001:001b8e50       ??$PFromRva@PEAPEAUHINSTANCE__@@@@YAPEAPEAUHINSTANCE__@@K@Z 00000001801b9e50 f i delayimp:delayhlp.obj
 0001:001b8e60       ??$PFromRva@PEAU_IMAGE_IMPORT_BY_NAME@@@@YAPEAU_IMAGE_IMPORT_BY_NAME@@K@Z 00000001801b9e60 f i delayimp:delayhlp.obj
 0001:001b8e70       ??$PFromRva@PEAU_IMAGE_THUNK_DATA64@@@@YAPEAU_IMAGE_THUNK_DATA64@@K@Z 00000001801b9e70 f i delayimp:delayhlp.obj
 0001:001b8e80       ??$PFromRva@PEBD@@YAPEBDK@Z 00000001801b9e80 f i delayimp:delayhlp.obj
 0001:001b8e90       ??$PFromRva@PEBUImgDelayDescr@@@@YAPEBUImgDelayDescr@@K@Z 00000001801b9e90 f i delayimp:delayhlp.obj
 0001:001b8ea0       ??$PFromRva@PEBU_IMAGE_THUNK_DATA64@@@@YAPEBU_IMAGE_THUNK_DATA64@@K@Z 00000001801b9ea0 f i delayimp:delayhlp.obj
 0001:001b8eb0       ?CountOfImports@@YAIPEBU_IMAGE_THUNK_DATA64@@@Z 00000001801b9eb0 f i delayimp:delayhlp.obj
 0001:001b8ecc       ?DloadAcquireSectionWriteAccess@@YAXXZ 00000001801b9ecc f i delayimp:delayhlp.obj
 0001:001b8fb4       ?DloadGetSRWLockFunctionPointers@@YAEXZ 00000001801b9fb4 f i delayimp:delayhlp.obj
 0001:001b9078       ?DloadLock@@YAXXZ          00000001801ba078 f i delayimp:delayhlp.obj
 0001:001b90e0       ?DloadMakePermanentImageCommit@@YAXPEAX_K@Z 00000001801ba0e0 f i delayimp:delayhlp.obj
 0001:001b919c       ?DloadObtainSection@@YAPEAXPEAK0@Z 00000001801ba19c f i delayimp:delayhlp.obj
 0001:001b925c       ?DloadProtectSection@@YAXKPEAK@Z 00000001801ba25c f i delayimp:delayhlp.obj
 0001:001b9310       ?DloadReleaseSectionWriteAccess@@YAXXZ 00000001801ba310 f i delayimp:delayhlp.obj
 0001:001b93e0       ?DloadUnlock@@YAXXZ        00000001801ba3e0 f i delayimp:delayhlp.obj
 0001:001b9440       ?IndexFromPImgThunkData@@YAIPEBU_IMAGE_THUNK_DATA64@@0@Z 00000001801ba440 f i delayimp:delayhlp.obj
 0001:001b95d4       HRESULT_FROM_WIN32         00000001801ba5d4 f i delayimp:delayhlp.obj
 0001:001b95e8       ReadAcquire64              00000001801ba5e8 f i delayimp:delayhlp.obj
 0001:001b95ec       ReadPointerAcquire         00000001801ba5ec f i delayimp:delayhlp.obj
 0001:001b95f0       WritePointerRelease        00000001801ba5f0 f i delayimp:delayhlp.obj
 0001:001b95f4       WriteRelease64             00000001801ba5f4 f i delayimp:delayhlp.obj
 0001:001b95f8       __FUnloadDelayLoadedDLL2   00000001801ba5f8 f   delayimp:delayhlp.obj
 0001:001b96e0       __HrLoadAllImportsForDll   00000001801ba6e0 f   delayimp:delayhlp.obj
 0001:001b9770       __delayLoadHelper2         00000001801ba770 f   delayimp:delayhlp.obj
 0001:001b9b28       ??3@YAXPEAX_K@Z            00000001801bab28 f   LIBCMT:delete_scalar_size.obj
 0001:001b9b30       ??_V@YAXPEAX_K@Z           00000001801bab30 f   LIBCMT:delete_array_size.obj
 0001:001b9b38       ?__scrt_initialize_type_info@@YAXXZ 00000001801bab38 f   LIBCMT:tncleanup.obj
 0001:001b9b4c       ?__scrt_uninitialize_type_info@@YAXXZ 00000001801bab4c f   LIBCMT:tncleanup.obj
 0001:001b9b5c       ??1type_info@@UEAA@XZ      00000001801bab5c f   LIBCMT:std_type_info_static.obj
 0001:001b9b6c       ??_Etype_info@@UEAAPEAXI@Z 00000001801bab6c f i LIBCMT:std_type_info_static.obj
 0001:001b9b6c       ??_Gtype_info@@UEAAPEAXI@Z 00000001801bab6c f i LIBCMT:std_type_info_static.obj
 0001:001b9bc0       __chkstk                   00000001801babc0 f   LIBCMT:_chkstk_.obj
 0001:001b9bc0       _alloca_probe              00000001801babc0 f   LIBCMT:_chkstk_.obj
 0001:001b9c2c       ??3@YAXPEAX@Z              00000001801bac2c f   LIBCMT:delete_scalar.obj
 0001:001b9c34       ??_V@YAXPEAX@Z             00000001801bac34 f   LIBCMT:delete_array.obj
 0001:001ba05c       _CRT_INIT                  00000001801bb05c f   LIBCMT:dll_dllmain.obj
 0001:001ba064       _DllMainCRTStartup         00000001801bb064 f   LIBCMT:dll_dllmain.obj
 0001:001ba0b0       _guard_check_icall_nop     00000001801bb0b0 f i LIBCMT:guard_support.obj
 0001:001ba0b4       _guard_icall_checks_enforced 00000001801bb0b4 f i LIBCMT:guard_support.obj
 0001:001ba0d0       ??$__crt_fast_decode_pointer@PEAP6AXXZ@@YAPEAP6AXXZQEAP6AXXZ@Z 00000001801bb0d0 f i LIBCMT:utility.obj
 0001:001ba0ec       ??$__crt_fast_encode_pointer@PEAP6AXXZ@@YAPEAP6AXXZQEAP6AXXZ@Z 00000001801bb0ec f i LIBCMT:utility.obj
 0001:001ba114       ?__crt_rotate_pointer_value@@YA_K_KH@Z 00000001801bb114 f i LIBCMT:utility.obj
 0001:001ba120       ?configure_argv@__scrt_narrow_argv_policy@@SAHXZ 00000001801bb120 f i LIBCMT:utility.obj
 0001:001ba1d4       NtCurrentTeb               00000001801bb1d4 f i LIBCMT:utility.obj
 0001:001ba1e0       __scrt_acquire_startup_lock 00000001801bb1e0 f   LIBCMT:utility.obj
 0001:001ba228       __scrt_dllmain_after_initialize_c 00000001801bb228 f   LIBCMT:utility.obj
 0001:001ba26c       __scrt_dllmain_before_initialize_c 00000001801bb26c f   LIBCMT:utility.obj
 0001:001ba288       __scrt_dllmain_crt_thread_attach 00000001801bb288 f   LIBCMT:utility.obj
 0001:001ba2bc       __scrt_dllmain_crt_thread_detach 00000001801bb2bc f   LIBCMT:utility.obj
 0001:001ba2d8       __scrt_dllmain_exception_filter 00000001801bb2d8 f   LIBCMT:utility.obj
 0001:001ba354       __scrt_dllmain_uninitialize_c 00000001801bb354 f   LIBCMT:utility.obj
 0001:001ba390       __scrt_dllmain_uninitialize_critical 00000001801bb390 f   LIBCMT:utility.obj
 0001:001ba3ac       __scrt_initialize_crt      00000001801bb3ac f   LIBCMT:utility.obj
 0001:001ba408       __scrt_initialize_onexit_tables 00000001801bb408 f   LIBCMT:utility.obj
 0001:001ba504       __scrt_is_nonwritable_in_current_image 00000001801bb504 f   LIBCMT:utility.obj
 0001:001ba5c4       __scrt_release_startup_lock 00000001801bb5c4 f   LIBCMT:utility.obj
 0001:001ba5f4       __scrt_uninitialize_crt    00000001801bb5f4 f   LIBCMT:utility.obj
 0001:001ba62c       _onexit                    00000001801bb62c f   LIBCMT:utility.obj
 0001:001ba690       at_quick_exit              00000001801bb690 f   LIBCMT:utility.obj
 0001:001ba6d4       atexit                     00000001801bb6d4 f   LIBCMT:utility.obj
 0001:001ba6f0       __security_init_cookie     00000001801bb6f0 f   LIBCMT:gs_support.obj
 0001:001ba7c8       DllMain                    00000001801bb7c8 f   LIBCMT:dll_dllmain_stub.obj
 0001:001ba7d0       __local_stdio_printf_options 00000001801bb7d0 f i LIBCMT:default_local_stdio_options.obj
 0001:001ba7dc       __local_stdio_scanf_options 00000001801bb7dc f i LIBCMT:default_local_stdio_options.obj
 0001:001ba7e8       __scrt_initialize_default_local_stdio_options 00000001801bb7e8 f   LIBCMT:default_local_stdio_options.obj
 0001:001ba80c       __scrt_get_dyn_tls_init_callback 00000001801bb80c f   LIBCMT:dyn_tls_init.obj
 0001:001ba818       __crt_debugger_hook        00000001801bb818 f   LIBCMT:utility_desktop.obj
 0001:001ba824       __scrt_fastfail            00000001801bb824 f   LIBCMT:utility_desktop.obj
 0001:001ba9bc       __scrt_get_show_window_mode 00000001801bb9bc f   LIBCMT:utility_desktop.obj
 0001:001baa08       __scrt_initialize_winrt    00000001801bba08 f   LIBCMT:utility_desktop.obj
 0001:001baa0c       __scrt_is_managed_app      00000001801bba0c f   LIBCMT:utility_desktop.obj
 0001:001baa78       __scrt_set_unhandled_exception_filter 00000001801bba78 f   LIBCMT:utility_desktop.obj
 0001:001baa8c       __scrt_unhandled_exception_filter 00000001801bba8c f   LIBCMT:utility_desktop.obj
 0001:001baad4       _RTC_Initialize            00000001801bbad4 f   LIBCMT:_initsect_.obj
 0001:001bab30       _RTC_Terminate             00000001801bbb30 f   LIBCMT:_initsect_.obj
 0001:001bab8c       _guard_check_icall         00000001801bbb8c f i LIBCMT:checkcfg.obj
 0001:001baba0       __isa_available_init       00000001801bbba0 f   LIBCMT:_cpu_disp_.obj
 0001:001badd8       _get_startup_argv_mode     00000001801bbdd8 f   LIBCMT:argv_mode.obj
 0001:001bade0       __scrt_is_ucrt_dll_in_use  00000001801bbde0 f   LIBCMT:ucrt_detection.obj
 0001:001badf0       strstr                     00000001801bbdf0 f   libvcruntime:strstr.obj
 0001:001bb060       ??$__crt_fast_decode_pointer@P6AXXZ@@YAP6AXXZQ6AXXZ@Z 00000001801bc060 f i libvcruntime:purevirt.obj
 0001:001bb07c       ??$__crt_fast_encode_pointer@P6AXXZ@@YAP6AXXZQ6AXXZ@Z 00000001801bc07c f i libvcruntime:purevirt.obj
 0001:001bb0a4       ??$__crt_interlocked_compare_exchange_pointer@$$A6AXXZ$$T$$T@@YAP6AXXZPEDS6AXXZ$$T1@Z 00000001801bc0a4 f i libvcruntime:purevirt.obj
 0001:001bb0b0       ??$__crt_interlocked_exchange_pointer@$$A6AXXZP6AXXZ@@YAP6AXXZPEDS6AXXZQ6AXXZ@Z 00000001801bc0b0 f i libvcruntime:purevirt.obj
 0001:001bb0b8       ??$__crt_interlocked_read_pointer@$$A6AXXZ@@YAP6AXXZPEDS6AXXZ@Z 00000001801bc0b8 f i libvcruntime:purevirt.obj
 0001:001bb0c4       _get_purecall_handler      00000001801bc0c4 f   libvcruntime:purevirt.obj
 0001:001bb0ec       _purecall                  00000001801bc0ec f   libvcruntime:purevirt.obj
 0001:001bb134       _set_purecall_handler      00000001801bc134 f   libvcruntime:purevirt.obj
 0001:001bb190       memcpy                     00000001801bc190 f   libvcruntime:memcpy.obj
 0001:001bb190       memmove                    00000001801bc190 f   libvcruntime:memcpy.obj
 0001:001bb6e8       ??$?RD@__crt_internal_free_policy@@QEBAXQEBD@Z 00000001801bc6e8 f i libvcruntime:std_type_info.obj
 0001:001bb6f4       ??$?RX@__crt_internal_free_policy@@QEBAXQEBX@Z 00000001801bc6f4 f i libvcruntime:std_type_info.obj
 0001:001bb700       ??$__crt_interlocked_compare_exchange_pointer@$$CBD$$T$$T@@YAPEBDPEDSEBD$$T1@Z 00000001801bc700 f i libvcruntime:std_type_info.obj
 0001:001bb70c       ??$__crt_interlocked_compare_exchange_pointer@$$CBDPEAD$$T@@YAPEBDPEDSEBDQEAD$$T@Z 00000001801bc70c f i libvcruntime:std_type_info.obj
 0001:001bb718       ??$__crt_interlocked_read_pointer@$$CBD@@YAPEBDPEDSEBD@Z 00000001801bc718 f i libvcruntime:std_type_info.obj
 0001:001bb724       ??0?$__crt_unique_heap_ptr@DU__crt_internal_free_policy@@@@QEAA@QEAD@Z 00000001801bc724 f i libvcruntime:std_type_info.obj
 0001:001bb72c       ??0?$__crt_unique_heap_ptr@XU__crt_internal_free_policy@@@@QEAA@QEAX@Z 00000001801bc72c f i libvcruntime:std_type_info.obj
 0001:001bb734       ??1?$__crt_unique_heap_ptr@DU__crt_internal_free_policy@@@@QEAA@XZ 00000001801bc734 f i libvcruntime:std_type_info.obj
 0001:001bb758       ??1?$__crt_unique_heap_ptr@XU__crt_internal_free_policy@@@@QEAA@XZ 00000001801bc758 f i libvcruntime:std_type_info.obj
 0001:001bb794       ??B?$__crt_unique_heap_ptr@DU__crt_internal_free_policy@@@@QEBA_NXZ 00000001801bc794 f i libvcruntime:std_type_info.obj
 0001:001bb7a0       ??B?$__crt_unique_heap_ptr@XU__crt_internal_free_policy@@@@QEBA_NXZ 00000001801bc7a0 f i libvcruntime:std_type_info.obj
 0001:001bb7c4       ?detach@?$__crt_unique_heap_ptr@XU__crt_internal_free_policy@@@@QEAAPEAXXZ 00000001801bc7c4 f i libvcruntime:std_type_info.obj
 0001:001bb7d0       ?get@?$__crt_unique_heap_ptr@DU__crt_internal_free_policy@@@@QEBAPEADXZ 00000001801bc7d0 f i libvcruntime:std_type_info.obj
 0001:001bb7d4       ?get@?$__crt_unique_heap_ptr@XU__crt_internal_free_policy@@@@QEBAPEAXXZ 00000001801bc7d4 f i libvcruntime:std_type_info.obj
 0001:001bb7d8       ?is_valid@?$__crt_unique_heap_ptr@DU__crt_internal_free_policy@@@@QEBA_NXZ 00000001801bc7d8 f i libvcruntime:std_type_info.obj
 0001:001bb7e4       ?is_valid@?$__crt_unique_heap_ptr@XU__crt_internal_free_policy@@@@QEBA_NXZ 00000001801bc7e4 f i libvcruntime:std_type_info.obj
 0001:001bb7f0       ?release@?$__crt_unique_heap_ptr@DU__crt_internal_free_policy@@@@QEAAXXZ 00000001801bc7f0 f i libvcruntime:std_type_info.obj
 0001:001bb814       ?release@?$__crt_unique_heap_ptr@XU__crt_internal_free_policy@@@@QEAAXXZ 00000001801bc814 f i libvcruntime:std_type_info.obj
 0001:001bb838       __std_type_info_compare    00000001801bc838 f   libvcruntime:std_type_info.obj
 0001:001bb868       __std_type_info_destroy_list 00000001801bc868 f   libvcruntime:std_type_info.obj
 0001:001bb89c       __std_type_info_hash       00000001801bc89c f   libvcruntime:std_type_info.obj
 0001:001bb8e8       __std_type_info_name       00000001801bc8e8 f   libvcruntime:std_type_info.obj
 0001:001bba60       memset                     00000001801bca60 f   libvcruntime:memset.obj
 0001:001bbc6c       __C_specific_handler       00000001801bcc6c f   libvcruntime:_chandler_.obj
 0001:001bbee8       __vcrt_initialize          00000001801bcee8 f   libvcruntime:initialization.obj
 0001:001bbf28       __vcrt_thread_attach       00000001801bcf28 f   libvcruntime:initialization.obj
 0001:001bbf44       __vcrt_thread_detach       00000001801bcf44 f   libvcruntime:initialization.obj
 0001:001bbf5c       __vcrt_uninitialize        00000001801bcf5c f   libvcruntime:initialization.obj
 0001:001bbf84       __vcrt_uninitialize_critical 00000001801bcf84 f   libvcruntime:initialization.obj
 0001:001bbf9c       ??$?B$$A6AXXZ@__crt_fast_encoded_nullptr_t@@QEBAP6AXXZXZ 00000001801bcf9c f i libvcruntime:purevirt_data.obj
 0001:001bbfc0       ?__crt_fast_encode_pointer@@YA?AU__crt_fast_encoded_nullptr_t@@$$T@Z 00000001801bcfc0 f i libvcruntime:purevirt_data.obj
 0001:001bbfc8       __vcrt_initialize_pure_virtual_call_handler 00000001801bcfc8 f   libvcruntime:purevirt_data.obj
 0001:001bbff4       ??$__vcrt_va_start_verify_argument_type@QEBD@@YAXXZ 00000001801bcff4 f i libvcruntime:undname.obj
 0001:001bbff8       ??0Block@_HeapManager@@QEAA@XZ 00000001801bcff8 f i libvcruntime:undname.obj
 0001:001bc004       ??0DName@@QEAA@AEAPEBDD@Z  00000001801bd004 f   libvcruntime:undname.obj
 0001:001bc11c       ??0DName@@QEAA@AEBV0@@Z    00000001801bd11c f i libvcruntime:undname.obj
 0001:001bc12c       ??0DName@@QEAA@D@Z         00000001801bd12c f   libvcruntime:undname.obj
 0001:001bc174       ??0DName@@QEAA@PEAV0@@Z    00000001801bd174 f   libvcruntime:undname.obj
 0001:001bc21c       ??0DName@@QEAA@PEBD@Z      00000001801bd21c f   libvcruntime:undname.obj
 0001:001bc274       ??0DName@@QEAA@W4DNameStatus@@@Z 00000001801bd274 f   libvcruntime:undname.obj
 0001:001bc2d8       ??0DName@@QEAA@XZ          00000001801bd2d8 f i libvcruntime:undname.obj
 0001:001bc2f0       ??0DName@@QEAA@_J@Z        00000001801bd2f0 f   libvcruntime:undname.obj
 0001:001bc3c4       ??0DName@@QEAA@_K@Z        00000001801bd3c4 f   libvcruntime:undname.obj
 0001:001bc478       ??0DNameNode@@IEAA@XZ      00000001801bd478 f   libvcruntime:undname.obj
 0001:001bc48c       ??0DNameStatusNode@@AEAA@W4DNameStatus@@@Z 00000001801bd48c f   libvcruntime:undname.obj
 0001:001bc4b8       ??0Replicator@@QEAA@XZ     00000001801bd4b8 f i libvcruntime:undname.obj
 0001:001bc4c0       ??0UnDecorator@@QEAA@PEADPEBDHP6APEADJ@ZK@Z 00000001801bd4c0 f i libvcruntime:undname.obj
 0001:001bc550       ??0charNode@@QEAA@D@Z      00000001801bd550 f   libvcruntime:undname.obj
 0001:001bc568       ??0pDNameNode@@QEAA@PEAVDName@@@Z 00000001801bd568 f   libvcruntime:undname.obj
 0001:001bc598       ??0pairNode@@QEAA@PEAVDNameNode@@0@Z 00000001801bd598 f   libvcruntime:undname.obj
 0001:001bc5b8       ??0pcharNode@@QEAA@PEBDH@Z 00000001801bd5b8 f   libvcruntime:undname.obj
 0001:001bc664       ??2@YAPEAX_KAEAV_HeapManager@@H@Z 00000001801bd664 f i libvcruntime:undname.obj
 0001:001bc678       ??4DName@@QEAAAEAV0@AEBV0@@Z 00000001801bd678 f   libvcruntime:undname.obj
 0001:001bc688       ??4DName@@QEAAAEAV0@D@Z    00000001801bd688 f i libvcruntime:undname.obj
 0001:001bc6d0       ??4DName@@QEAAAEAV0@PEAV0@@Z 00000001801bd6d0 f   libvcruntime:undname.obj
 0001:001bc778       ??4DName@@QEAAAEAV0@PEBD@Z 00000001801bd778 f   libvcruntime:undname.obj
 0001:001bc7c4       ??4DName@@QEAAAEAV0@W4DNameStatus@@@Z 00000001801bd7c4 f   libvcruntime:undname.obj
 0001:001bc810       ??AReplicator@@QEBA?AVDName@@H@Z 00000001801bd810 f   libvcruntime:undname.obj
 0001:001bc868       ??BUnDecorator@@QEAAPEADXZ 00000001801bd868 f i libvcruntime:undname.obj
 0001:001bcafc       ??H@YA?AVDName@@DAEBV0@@Z  00000001801bdafc f i libvcruntime:undname.obj
 0001:001bcb44       ??H@YA?AVDName@@PEBDAEBV0@@Z 00000001801bdb44 f i libvcruntime:undname.obj
 0001:001bcb8c       ??H@YA?AVDName@@W4DNameStatus@@AEBV0@@Z 00000001801bdb8c f i libvcruntime:undname.obj
 0001:001bcbd4       ??HDName@@QEBA?AV0@AEBV0@@Z 00000001801bdbd4 f   libvcruntime:undname.obj
 0001:001bcc04       ??HDName@@QEBA?AV0@D@Z     00000001801bdc04 f   libvcruntime:undname.obj
 0001:001bcc34       ??HDName@@QEBA?AV0@PEAV0@@Z 00000001801bdc34 f   libvcruntime:undname.obj
 0001:001bcc64       ??HDName@@QEBA?AV0@PEBD@Z  00000001801bdc64 f   libvcruntime:undname.obj
 0001:001bcc94       ??HDName@@QEBA?AV0@W4DNameStatus@@@Z 00000001801bdc94 f   libvcruntime:undname.obj
 0001:001bccc4       ??YDName@@QEAAAEAV0@AEBV0@@Z 00000001801bdcc4 f   libvcruntime:undname.obj
 0001:001bcd14       ??YDName@@QEAAAEAV0@D@Z    00000001801bdd14 f   libvcruntime:undname.obj
 0001:001bcdbc       ??YDName@@QEAAAEAV0@PEAV0@@Z 00000001801bddbc f   libvcruntime:undname.obj
 0001:001bce78       ??YDName@@QEAAAEAV0@PEBD@Z 00000001801bde78 f   libvcruntime:undname.obj
 0001:001bcf24       ??YDName@@QEAAAEAV0@W4DNameStatus@@@Z 00000001801bdf24 f   libvcruntime:undname.obj
 0001:001bcf78       ??YReplicator@@QEAAAEAV0@AEBVDName@@@Z 00000001801bdf78 f   libvcruntime:undname.obj
 0001:001bcff0       ??_5DName@@QEAAAEAV0@AEBV0@@Z 00000001801bdff0 f   libvcruntime:undname.obj
 0001:001bd00c       ?Constructor@_HeapManager@@QEAAXP6APEAX_K@ZP6AXPEAX@Z@Z 00000001801be00c f i libvcruntime:undname.obj
 0001:001bd028       ?Destructor@_HeapManager@@QEAAXXZ 00000001801be028 f i libvcruntime:undname.obj
 0001:001bd090       ?UScore@UnDecorator@@SAPEBDW4Tokens@@@Z 00000001801be090 f   libvcruntime:undname.obj
 0001:001bd0b8       ?append@DName@@AEAAXPEAVDNameNode@@@Z 00000001801be0b8 f   libvcruntime:undname.obj
 0001:001bd134       ?composeDeclaration@UnDecorator@@CA?AVDName@@AEBV2@@Z 00000001801be134 f i libvcruntime:undname.obj
 0001:001be374       ?doAccessSpecifiers@UnDecorator@@SAHXZ 00000001801bf374 f i libvcruntime:undname.obj
 0001:001be388       ?doAllocationLanguage@UnDecorator@@SAHXZ 00000001801bf388 f i libvcruntime:undname.obj
 0001:001be39c       ?doAllocationModel@UnDecorator@@SAHXZ 00000001801bf39c f i libvcruntime:undname.obj
 0001:001be3b0       ?doEcsu@UnDecorator@@SAHXZ 00000001801bf3b0 f i libvcruntime:undname.obj
 0001:001be3c4       ?doEllipsis@UnDecorator@@SAHXZ 00000001801bf3c4 f i libvcruntime:undname.obj
 0001:001be3d8       ?doFunctionReturns@UnDecorator@@SAHXZ 00000001801bf3d8 f i libvcruntime:undname.obj
 0001:001be3ec       ?doMSKeywords@UnDecorator@@SAHXZ 00000001801bf3ec f i libvcruntime:undname.obj
 0001:001be400       ?doMemberTypes@UnDecorator@@SAHXZ 00000001801bf400 f i libvcruntime:undname.obj
 0001:001be414       ?doNameOnly@UnDecorator@@SAHXZ 00000001801bf414 f i libvcruntime:undname.obj
 0001:001be424       ?doNoIdentCharCheck@UnDecorator@@SAHXZ 00000001801bf424 f i libvcruntime:undname.obj
 0001:001be434       ?doPchar@DName@@AEAAXPEBDH@Z 00000001801bf434 f   libvcruntime:undname.obj
 0001:001be508       ?doPtr64@UnDecorator@@SAHXZ 00000001801bf508 f i libvcruntime:undname.obj
 0001:001be51c       ?doRestrictionSpec@UnDecorator@@SAHXZ 00000001801bf51c f i libvcruntime:undname.obj
 0001:001be530       ?doThisTypes@UnDecorator@@SAHXZ 00000001801bf530 f i libvcruntime:undname.obj
 0001:001be548       ?doThrowTypes@UnDecorator@@SAHXZ 00000001801bf548 f i libvcruntime:undname.obj
 0001:001be55c       ?doTypeOnly@UnDecorator@@SAHXZ 00000001801bf55c f i libvcruntime:undname.obj
 0001:001be56c       ?doUnderScore@UnDecorator@@SAHXZ 00000001801bf56c f i libvcruntime:undname.obj
 0001:001be57c       ?getArgumentList@UnDecorator@@CA?AVDName@@XZ 00000001801bf57c f   libvcruntime:undname.obj
 0001:001be710       ?getArgumentTypes@UnDecorator@@CA?AVDName@@XZ 00000001801bf710 f   libvcruntime:undname.obj
 0001:001be848       ?getArrayType@UnDecorator@@CA?AVDName@@AEBV2@@Z 00000001801bf848 f i libvcruntime:undname.obj
 0001:001beb14       ?getBasedType@UnDecorator@@CA?AVDName@@XZ 00000001801bfb14 f   libvcruntime:undname.obj
 0001:001bec00       ?getBasicDataType@UnDecorator@@CA?AVDName@@AEBV2@@Z 00000001801bfc00 f   libvcruntime:undname.obj
 0001:001bf154       ?getCallIndex@UnDecorator@@CA?AVDName@@XZ 00000001801c0154 f i libvcruntime:undname.obj
 0001:001bf174       ?getCallingConvention@UnDecorator@@CA?AVDName@@XZ 00000001801c0174 f   libvcruntime:undname.obj
 0001:001bf2b4       ?getDataIndirectType@UnDecorator@@CA?AVDName@@AEBV2@PEBD0H@Z 00000001801c02b4 f   libvcruntime:undname.obj
 0001:001bfbb8       ?getDataIndirectType@UnDecorator@@CA?AVDName@@XZ 00000001801c0bb8 f i libvcruntime:undname.obj
 0001:001bfc10       ?getDataType@UnDecorator@@CA?AVDName@@PEAV2@@Z 00000001801c0c10 f   libvcruntime:undname.obj
 0001:001bfd2c       ?getDecoratedName@UnDecorator@@CA?AVDName@@XZ 00000001801c0d2c f   libvcruntime:undname.obj
 0001:001c003c       ?getDimension@UnDecorator@@CA?AVDName@@_N@Z 00000001801c103c f   libvcruntime:undname.obj
 0001:001c01f0       ?getDispatchTarget@UnDecorator@@CA?AVDName@@XZ 00000001801c11f0 f   libvcruntime:undname.obj
 0001:001c026c       ?getDisplacement@UnDecorator@@CA?AVDName@@XZ 00000001801c126c f i libvcruntime:undname.obj
 0001:001c028c       ?getECSUDataType@UnDecorator@@CA?AVDName@@XZ 00000001801c128c f   libvcruntime:undname.obj
 0001:001c0448       ?getECSUName@UnDecorator@@CA?AVDName@@XZ 00000001801c1448 f i libvcruntime:undname.obj
 0001:001c0464       ?getEnumType@UnDecorator@@CA?AVDName@@XZ 00000001801c1464 f i libvcruntime:undname.obj
 0001:001c0584       ?getExtendedDataIndirectType@UnDecorator@@CA?AVDName@@AEAPEBDAEA_NH@Z 00000001801c1584 f   libvcruntime:undname.obj
 0001:001c085c       ?getExternalDataType@UnDecorator@@CA?AVDName@@AEBV2@@Z 00000001801c185c f i libvcruntime:undname.obj
 0001:001c0964       ?getFunctionIndirectType@UnDecorator@@CA?AVDName@@AEBV2@@Z 00000001801c1964 f   libvcruntime:undname.obj
 0001:001c0fcc       ?getGuardNumber@UnDecorator@@CA?AVDName@@XZ 00000001801c1fcc f i libvcruntime:undname.obj
 0001:001c0fec       ?getLastChar@DName@@QEBADXZ 00000001801c1fec f i libvcruntime:undname.obj
 0001:001c1030       ?getLastChar@DNameStatusNode@@UEBADXZ 00000001801c2030 f i libvcruntime:undname.obj
 0001:001c1040       ?getLastChar@charNode@@UEBADXZ 00000001801c2040 f i libvcruntime:undname.obj
 0001:001c1044       ?getLastChar@pDNameNode@@UEBADXZ 00000001801c2044 f i libvcruntime:undname.obj
 0001:001c1090       ?getLastChar@pairNode@@UEBADXZ 00000001801c2090 f i libvcruntime:undname.obj
 0001:001c10fc       ?getLastChar@pcharNode@@UEBADXZ 00000001801c20fc f i libvcruntime:undname.obj
 0001:001c1118       ?getLexicalFrame@UnDecorator@@CA?AVDName@@XZ 00000001801c2118 f i libvcruntime:undname.obj
 0001:001c1190       ?getMemory@_HeapManager@@QEAAPEAX_KH@Z 00000001801c2190 f   libvcruntime:undname.obj
 0001:001c127c       ?getNumberOfDimensions@UnDecorator@@CAHXZ 00000001801c227c f   libvcruntime:undname.obj
 0001:001c130c       ?getOperatorName@UnDecorator@@CA?AVDName@@_NPEA_N@Z 00000001801c230c f i libvcruntime:undname.obj
 0001:001c1c34       ?getPointerType@UnDecorator@@CA?AVDName@@AEBV2@0@Z 00000001801c2c34 f i libvcruntime:undname.obj
 0001:001c1c5c       ?getPointerTypeArray@UnDecorator@@CA?AVDName@@AEBV2@0@Z 00000001801c2c5c f i libvcruntime:undname.obj
 0001:001c1c84       ?getPrimaryDataType@UnDecorator@@CA?AVDName@@AEBV2@@Z 00000001801c2c84 f   libvcruntime:undname.obj
 0001:001c1f78       ?getPtrRefDataType@UnDecorator@@CA?AVDName@@AEBV2@H@Z 00000001801c2f78 f   libvcruntime:undname.obj
 0001:001c20e8       ?getPtrRefType@UnDecorator@@CA?AVDName@@AEBV2@0PEBD@Z 00000001801c30e8 f   libvcruntime:undname.obj
 0001:001c2268       ?getReferenceType@UnDecorator@@CA?AVDName@@AEBV2@0PEBD@Z 00000001801c3268 f i libvcruntime:undname.obj
 0001:001c2284       ?getRestrictionSpec@UnDecorator@@CA?AVDName@@XZ 00000001801c3284 f   libvcruntime:undname.obj
 0001:001c23f8       ?getReturnType@UnDecorator@@CA?AVDName@@PEAV2@@Z 00000001801c33f8 f   libvcruntime:undname.obj
 0001:001c243c       ?getScope@UnDecorator@@CA?AVDName@@XZ 00000001801c343c f   libvcruntime:undname.obj
 0001:001c2a10       ?getScopedName@UnDecorator@@CA?AVDName@@XZ 00000001801c3a10 f   libvcruntime:undname.obj
 0001:001c2b70       ?getSignedDimension@UnDecorator@@CA?AVDName@@XZ 00000001801c3b70 f   libvcruntime:undname.obj
 0001:001c2c0c       ?getStorageConvention@UnDecorator@@CA?AVDName@@XZ 00000001801c3c0c f i libvcruntime:undname.obj
 0001:001c2c64       ?getString@DName@@QEBAPEADPEAD0@Z 00000001801c3c64 f i libvcruntime:undname.obj
 0001:001c2cd0       ?getString@DName@@QEBAPEADPEADH@Z 00000001801c3cd0 f i libvcruntime:undname.obj
 0001:001c2dac       ?getString@DNameStatusNode@@UEBAPEADPEAD0@Z 00000001801c3dac f i libvcruntime:undname.obj
 0001:001c2e04       ?getString@charNode@@UEBAPEADPEAD0@Z 00000001801c3e04 f i libvcruntime:undname.obj
 0001:001c2e1c       ?getString@pDNameNode@@UEBAPEADPEAD0@Z 00000001801c3e1c f i libvcruntime:undname.obj
 0001:001c2e94       ?getString@pairNode@@UEBAPEADPEAD0@Z 00000001801c3e94 f i libvcruntime:undname.obj
 0001:001c2f38       ?getString@pcharNode@@UEBAPEADPEAD0@Z 00000001801c3f38 f i libvcruntime:undname.obj
 0001:001c2f7c       ?getStringEncoding@UnDecorator@@CA?AVDName@@PEADH@Z 00000001801c3f7c f   libvcruntime:undname.obj
 0001:001c306c       ?getStringHelper@@YAPEADPEAD00H@Z 00000001801c406c f i libvcruntime:undname.obj
 0001:001c30a4       ?getSymbolName@UnDecorator@@CA?AVDName@@XZ 00000001801c40a4 f i libvcruntime:undname.obj
 0001:001c3104       ?getTemplateArgumentList@UnDecorator@@CA?AVDName@@XZ 00000001801c4104 f   libvcruntime:undname.obj
 0001:001c3488       ?getTemplateConstant@UnDecorator@@CA?AVDName@@XZ 00000001801c4488 f   libvcruntime:undname.obj
 0001:001c3918       ?getTemplateName@UnDecorator@@CA?AVDName@@_N@Z 00000001801c4918 f   libvcruntime:undname.obj
 0001:001c3b68       ?getThisType@UnDecorator@@CA?AVDName@@XZ 00000001801c4b68 f i libvcruntime:undname.obj
 0001:001c3bc0       ?getThrowTypes@UnDecorator@@CA?AVDName@@XZ 00000001801c4bc0 f   libvcruntime:undname.obj
 0001:001c3cb4       ?getTypeEncoding@UnDecorator@@CAHXZ 00000001801c4cb4 f i libvcruntime:undname.obj
 0001:001c40f0       ?getVCallThunkType@UnDecorator@@CA?AVDName@@XZ 00000001801c50f0 f i libvcruntime:undname.obj
 0001:001c4150       ?getVbTableType@UnDecorator@@CA?AVDName@@AEBV2@@Z 00000001801c5150 f i libvcruntime:undname.obj
 0001:001c416c       ?getVdispMapType@UnDecorator@@CA?AVDName@@AEBV2@@Z 00000001801c516c f i libvcruntime:undname.obj
 0001:001c41dc       ?getVfTableType@UnDecorator@@CA?AVDName@@AEBV2@@Z 00000001801c51dc f i libvcruntime:undname.obj
 0001:001c441c       ?getZName@UnDecorator@@CA?AVDName@@_N0@Z 00000001801c541c f   libvcruntime:undname.obj
 0001:001c4760       ?haveTemplateParameters@UnDecorator@@SAHXZ 00000001801c5760 f i libvcruntime:undname.obj
 0001:001c4770       ?isArray@DName@@QEBAHXZ    00000001801c5770 f i libvcruntime:undname.obj
 0001:001c477c       ?isComArray@DName@@QEBAHXZ 00000001801c577c f i libvcruntime:undname.obj
 0001:001c4788       ?isEmpty@DName@@QEBAHXZ    00000001801c5788 f i libvcruntime:undname.obj
 0001:001c4794       ?isFull@Replicator@@QEBAHXZ 00000001801c5794 f i libvcruntime:undname.obj
 0001:001c47a0       ?isNoTE@DName@@QEBAHXZ     00000001801c57a0 f i libvcruntime:undname.obj
 0001:001c47ac       ?isPinPtr@DName@@QEBAHXZ   00000001801c57ac f i libvcruntime:undname.obj
 0001:001c47b8       ?isPtrRef@DName@@QEBAHXZ   00000001801c57b8 f i libvcruntime:undname.obj
 0001:001c47c4       ?isUDC@DName@@QEBAHXZ      00000001801c57c4 f i libvcruntime:undname.obj
 0001:001c47e0       ?isUDTThunk@DName@@QEBAHXZ 00000001801c57e0 f i libvcruntime:undname.obj
 0001:001c47fc       ?isVCallThunk@DName@@QEBAHXZ 00000001801c57fc f i libvcruntime:undname.obj
 0001:001c4808       ?isValid@DName@@QEBAHXZ    00000001801c5808 f i libvcruntime:undname.obj
 0001:001c4814       ?length@DName@@QEBAHXZ     00000001801c5814 f i libvcruntime:undname.obj
 0001:001c4858       ?length@DNameStatusNode@@UEBAHXZ 00000001801c5858 f i libvcruntime:undname.obj
 0001:001c485c       ?length@charNode@@UEBAHXZ  00000001801c585c f i libvcruntime:undname.obj
 0001:001c4864       ?length@pDNameNode@@UEBAHXZ 00000001801c5864 f i libvcruntime:undname.obj
 0001:001c48b0       ?length@pairNode@@UEBAHXZ  00000001801c58b0 f i libvcruntime:undname.obj
 0001:001c4934       ?length@pcharNode@@UEBAHXZ 00000001801c5934 f i libvcruntime:undname.obj
 0001:001c4938       ?make@DNameStatusNode@@SAPEAV1@W4DNameStatus@@@Z 00000001801c5938 f i libvcruntime:undname.obj
 0001:001c49e4       ?setIsArray@DName@@QEAAXXZ 00000001801c59e4 f i libvcruntime:undname.obj
 0001:001c49ec       ?setIsComArray@DName@@QEAAXXZ 00000001801c59ec f i libvcruntime:undname.obj
 0001:001c49f4       ?setIsNoTE@DName@@QEAAXXZ  00000001801c59f4 f i libvcruntime:undname.obj
 0001:001c49fc       ?setIsPinPtr@DName@@QEAAXXZ 00000001801c59fc f i libvcruntime:undname.obj
 0001:001c4a04       ?setIsUDC@DName@@QEAAXXZ   00000001801c5a04 f i libvcruntime:undname.obj
 0001:001c4a14       ?setIsVCallThunk@DName@@QEAAXXZ 00000001801c5a14 f i libvcruntime:undname.obj
 0001:001c4a1c       ?setPtrRef@DName@@QEAAAEAV1@XZ 00000001801c5a1c f i libvcruntime:undname.obj
 0001:001c4a28       ?status@DName@@QEBA?AW4DNameStatus@@XZ 00000001801c5a28 f i libvcruntime:undname.obj
 0001:001c4aa0       __unDName                  00000001801c5aa0 f   libvcruntime:undname.obj
 0001:001c4bd4       __unDNameEx                00000001801c5bd4 f   libvcruntime:undname.obj
 0001:001c4d10       _vsprintf_s_l              00000001801c5d10 f i libvcruntime:undname.obj
 0001:001c4d8c       sprintf_s                  00000001801c5d8c f i libvcruntime:undname.obj
 0001:001c4e10       _local_unwind              00000001801c5e10 f   libvcruntime:_jmpuwind_.obj
 0001:001c4e40       _NLG_Notify                00000001801c5e40 f   libvcruntime:_jmpuwind_.obj
 0001:001c4e60       __NLG_Dispatch2            00000001801c5e60 f   libvcruntime:_jmpuwind_.obj
 0001:001c4e70       __NLG_Return2              00000001801c5e70 f   libvcruntime:_jmpuwind_.obj
 0001:001c4e90       __except_validate_context_record 00000001801c5e90 f   libvcruntime:jbcxrval.obj
 0001:001c4e94       __except_validate_jump_buffer 00000001801c5e94 f   libvcruntime:jbcxrval.obj
 0001:001c4e98       ??$?RU__vcrt_ptd@@@__crt_internal_free_policy@@QEBAXQEBU__vcrt_ptd@@@Z 00000001801c5e98 f i libvcruntime:per_thread_data.obj
 0001:001c4ea4       ??0?$__crt_unique_heap_ptr@U__vcrt_ptd@@U__crt_internal_free_policy@@@@QEAA@QEAU__vcrt_ptd@@@Z 00000001801c5ea4 f i libvcruntime:per_thread_data.obj
 0001:001c4ecc       ??1?$__crt_unique_heap_ptr@U__vcrt_ptd@@U__crt_internal_free_policy@@@@QEAA@XZ 00000001801c5ecc f i libvcruntime:per_thread_data.obj
 0001:001c4efc       ??B?$__crt_unique_heap_ptr@U__vcrt_ptd@@U__crt_internal_free_policy@@@@QEBA_NXZ 00000001801c5efc f i libvcruntime:per_thread_data.obj
 0001:001c4f08       ?detach@?$__crt_unique_heap_ptr@U__vcrt_ptd@@U__crt_internal_free_policy@@@@QEAAPEAU__vcrt_ptd@@XZ 00000001801c5f08 f i libvcruntime:per_thread_data.obj
 0001:001c4f14       ?get@?$__crt_unique_heap_ptr@U__vcrt_ptd@@U__crt_internal_free_policy@@@@QEBAPEAU__vcrt_ptd@@XZ 00000001801c5f14 f i libvcruntime:per_thread_data.obj
 0001:001c4f18       ?is_valid@?$__crt_unique_heap_ptr@U__vcrt_ptd@@U__crt_internal_free_policy@@@@QEBA_NXZ 00000001801c5f18 f i libvcruntime:per_thread_data.obj
 0001:001c4f24       ?release@?$__crt_unique_heap_ptr@U__vcrt_ptd@@U__crt_internal_free_policy@@@@QEAAXXZ 00000001801c5f24 f i libvcruntime:per_thread_data.obj
 0001:001c4f6c       __vcrt_freefls             00000001801c5f6c f   libvcruntime:per_thread_data.obj
 0001:001c4f94       __vcrt_freeptd             00000001801c5f94 f   libvcruntime:per_thread_data.obj
 0001:001c4ff4       __vcrt_getptd              00000001801c5ff4 f   libvcruntime:per_thread_data.obj
 0001:001c5014       __vcrt_getptd_noexit       00000001801c6014 f   libvcruntime:per_thread_data.obj
 0001:001c50fc       __vcrt_initialize_ptd      00000001801c60fc f   libvcruntime:per_thread_data.obj
 0001:001c514c       __vcrt_uninitialize_ptd    00000001801c614c f   libvcruntime:per_thread_data.obj
 0001:001c5178       __vcrt_initialize_locks    00000001801c6178 f   libvcruntime:locks.obj
 0001:001c51d0       __vcrt_lock                00000001801c61d0 f   libvcruntime:locks.obj
 0001:001c51f0       __vcrt_uninitialize_locks  00000001801c61f0 f   libvcruntime:locks.obj
 0001:001c5234       __vcrt_unlock              00000001801c6234 f   libvcruntime:locks.obj
 0001:001c5254       ??$?BX@__crt_fast_encoded_nullptr_t@@QEBAPEAXXZ 00000001801c6254 f i libvcruntime:winapi_downlevel.obj
 0001:001c5278       ??$__crt_fast_decode_pointer@PEAX@@YAPEAXQEAX@Z 00000001801c6278 f i libvcruntime:winapi_downlevel.obj
 0001:001c5294       ??$__crt_fast_encode_pointer@PEAX@@YAPEAXQEAX@Z 00000001801c6294 f i libvcruntime:winapi_downlevel.obj
 0001:001c52bc       ??$__crt_interlocked_compare_exchange_pointer@UHINSTANCE__@@$$T$$T@@YAPEAUHINSTANCE__@@PEDSEAU0@$$T1@Z 00000001801c62bc f i libvcruntime:winapi_downlevel.obj
 0001:001c52c8       ??$__crt_interlocked_compare_exchange_pointer@X$$T$$T@@YAPEAXPEDSEAX$$T1@Z 00000001801c62c8 f i libvcruntime:winapi_downlevel.obj
 0001:001c52d4       ??$__crt_interlocked_exchange_pointer@UHINSTANCE__@@PEAU1@@@YAPEAUHINSTANCE__@@PEDSEAU0@QEAU0@@Z 00000001801c62d4 f i libvcruntime:winapi_downlevel.obj
 0001:001c52dc       ??$__crt_interlocked_exchange_pointer@UHINSTANCE__@@PEAX@@YAPEAUHINSTANCE__@@PEDSEAU0@QEAX@Z 00000001801c62dc f i libvcruntime:winapi_downlevel.obj
 0001:001c52e4       ??$__crt_interlocked_exchange_pointer@XPEAX@@YAPEAXPEDSEAXQEAX@Z 00000001801c62e4 f i libvcruntime:winapi_downlevel.obj
 0001:001c52ec       ??$__crt_interlocked_read_pointer@UHINSTANCE__@@@@YAPEAUHINSTANCE__@@PEDSEAU0@@Z 00000001801c62ec f i libvcruntime:winapi_downlevel.obj
 0001:001c52f8       ??$__crt_interlocked_read_pointer@X@@YAPEAXPEDSEAX@Z 00000001801c62f8 f i libvcruntime:winapi_downlevel.obj
 0001:001c5a80       __vcrt_EventRegister       00000001801c6a80 f   libvcruntime:winapi_downlevel.obj
 0001:001c5b24       __vcrt_EventSetInformation 00000001801c6b24 f   libvcruntime:winapi_downlevel.obj
 0001:001c5bc8       __vcrt_EventUnregister     00000001801c6bc8 f   libvcruntime:winapi_downlevel.obj
 0001:001c5c30       __vcrt_EventWriteTransfer  00000001801c6c30 f   libvcruntime:winapi_downlevel.obj
 0001:001c5cec       __vcrt_FlsAlloc            00000001801c6cec f   libvcruntime:winapi_downlevel.obj
 0001:001c5d58       __vcrt_FlsFree             00000001801c6d58 f   libvcruntime:winapi_downlevel.obj
 0001:001c5dc4       __vcrt_FlsGetValue         00000001801c6dc4 f   libvcruntime:winapi_downlevel.obj
 0001:001c5e30       __vcrt_FlsSetValue         00000001801c6e30 f   libvcruntime:winapi_downlevel.obj
 0001:001c5eb0       __vcrt_InitializeCriticalSectionEx 00000001801c6eb0 f   libvcruntime:winapi_downlevel.obj
 0001:001c5f44       __vcrt_initialize_winapi_thunks 00000001801c6f44 f   libvcruntime:winapi_downlevel.obj
 0001:001c5fa0       __vcrt_uninitialize_winapi_thunks 00000001801c6fa0 f   libvcruntime:winapi_downlevel.obj
 0001:001c5ff0       cosf                       00000001801c6ff0 f   libucrt:cosf.obj
 0001:001c6630       sinf                       00000001801c7630 f   libucrt:sinf.obj
 0001:001c6f00       strcmp                     00000001801c7f00 f   libucrt:strcmp.obj
 0001:001c6f84       _fpclass                   00000001801c7f84 f   libucrt:ieeemisc.obj
 0001:001c705c       _fpclassf                  00000001801c805c f   libucrt:ieeemisc.obj
 0001:001c70f0       _isnan                     00000001801c80f0 f   libucrt:ieeemisc.obj
 0001:001c7128       _isnanf                    00000001801c8128 f   libucrt:ieeemisc.obj
 0001:001c7148       _nextafter                 00000001801c8148 f   libucrt:ieeemisc.obj
 0001:001c7150       _nextafterf                00000001801c8150 f   libucrt:ieeemisc.obj
 0001:001c7158       _scalb                     00000001801c8158 f   libucrt:ieeemisc.obj
 0001:001c7360       _scalbf                    00000001801c8360 f   libucrt:ieeemisc.obj
 0001:001c7564       free                       00000001801c8564 f   libucrt:free.obj
 0001:001c756c       _initterm                  00000001801c856c f   libucrt:initterm.obj
 0001:001c7600       _initterm_e                00000001801c8600 f   libucrt:initterm.obj
 0001:001c7684       _seh_filter_dll            00000001801c8684 f   libucrt:exception_filter.obj
 0001:001c769c       _seh_filter_exe            00000001801c869c f   libucrt:exception_filter.obj
 0001:001c788c       ??$?B$$A6AXPEAXK0@Z@__crt_fast_encoded_nullptr_t@@QEBAP6AXPEAXK0@ZXZ 00000001801c888c f i libucrt:exit.obj
 0001:001c78b0       ??$__crt_fast_decode_pointer@P6AXPEAXK0@Z@@YAP6AXPEAXK0@ZQ6AX0K0@Z@Z 00000001801c88b0 f i libucrt:exit.obj
 0001:001c78cc       ??$__crt_fast_encode_pointer@P6AXPEAXK0@Z@@YAP6AXPEAXK0@ZQ6AX0K0@Z@Z 00000001801c88cc f i libucrt:exit.obj
 0001:001c78f4       ??$__crt_get_proc_address@P6AXI@Z@@YAP6AXI@ZQEAUHINSTANCE__@@QEBD@Z 00000001801c88f4 f i libucrt:exit.obj
 0001:001c78fc       ??$__crt_interlocked_read@J@@YAJPEDJ@Z 00000001801c88fc f i libucrt:exit.obj
 0001:001c7900       ??0?$__crt_unique_handle_t@U__crt_hmodule_traits@@@@QEAA@QEAUHINSTANCE__@@@Z 00000001801c8900 f i libucrt:exit.obj
 0001:001c7908       ??1?$__crt_unique_handle_t@U__crt_hmodule_traits@@@@QEAA@XZ 00000001801c8908 f i libucrt:exit.obj
 0001:001c7934       ?__crt_interlocked_read_32@@YAHPEDH@Z 00000001801c8934 f i libucrt:exit.obj
 0001:001c7948       ?close@?$__crt_unique_handle_t@U__crt_hmodule_traits@@@@QEAAXXZ 00000001801c8948 f i libucrt:exit.obj
 0001:001c7974       ?close@__crt_hmodule_traits@@SA_NPEAUHINSTANCE__@@@Z 00000001801c8974 f i libucrt:exit.obj
 0001:001c7bb4       ?get@?$__crt_unique_handle_t@U__crt_hmodule_traits@@@@QEBAPEAUHINSTANCE__@@XZ 00000001801c8bb4 f i libucrt:exit.obj
 0001:001c7bb8       ?get_address_of@?$__crt_unique_handle_t@U__crt_hmodule_traits@@@@QEAAPEAPEAUHINSTANCE__@@XZ 00000001801c8bb8 f i libucrt:exit.obj
 0001:001c7bbc       ?get_invalid_value@__crt_hmodule_traits@@SAPEAUHINSTANCE__@@XZ 00000001801c8bbc f i libucrt:exit.obj
 0001:001c7ce8       _Exit                      00000001801c8ce8 f   libucrt:exit.obj
 0001:001c7cf8       __acrt_initialize_thread_local_exit_callback 00000001801c8cf8 f   libucrt:exit.obj
 0001:001c7d04       _c_exit                    00000001801c8d04 f   libucrt:exit.obj
 0001:001c7d18       _cexit                     00000001801c8d18 f   libucrt:exit.obj
 0001:001c7d28       _exit                      00000001801c8d28 f   libucrt:exit.obj
 0001:001c7d38       _is_c_termination_complete 00000001801c8d38 f   libucrt:exit.obj
 0001:001c7d40       _register_thread_local_exe_atexit_callback 00000001801c8d40 f   libucrt:exit.obj
 0001:001c7d98       exit                       00000001801c8d98 f   libucrt:exit.obj
 0001:001c7da4       quick_exit                 00000001801c8da4 f   libucrt:exit.obj
 0001:001c7db4       ??$?RE@__crt_internal_free_policy@@QEBAXQEBE@Z 00000001801c8db4 f i libucrt:argv_parsing.obj
 0001:001c7dc0       ??$?RPEAD@__crt_internal_free_policy@@QEBAXQEBQEAD@Z 00000001801c8dc0 f i libucrt:argv_parsing.obj
 0001:001c7dcc       ??$?RPEA_W@__crt_internal_free_policy@@QEBAXQEBQEA_W@Z 00000001801c8dcc f i libucrt:argv_parsing.obj
 0001:001c8160       ??$get_module_file_name@$$TAEAY0BAF@DH@?$__crt_char_traits@D@@SAK$$QEA$$TAEAY0BAF@D$$QEAH@Z 00000001801c9160 f i libucrt:argv_parsing.obj
 0001:001c8170       ??$get_module_file_name@$$TAEAY0BAF@_WH@?$__crt_char_traits@_W@@SAK$$QEA$$TAEAY0BAF@_W$$QEAH@Z 00000001801c9170 f i libucrt:argv_parsing.obj
 0001:001c85a8       ??$set_program_name@PEAD@?$__crt_char_traits@D@@SAX$$QEAPEAD@Z 00000001801c95a8 f i libucrt:argv_parsing.obj
 0001:001c85b8       ??$set_program_name@PEA_W@?$__crt_char_traits@_W@@SAX$$QEAPEA_W@Z 00000001801c95b8 f i libucrt:argv_parsing.obj
 0001:001c85d8       ??0?$__crt_unique_heap_ptr@EU__crt_internal_free_policy@@@@QEAA@QEAE@Z 00000001801c95d8 f i libucrt:argv_parsing.obj
 0001:001c85e0       ??0?$__crt_unique_heap_ptr@PEADU__crt_internal_free_policy@@@@QEAA@QEAPEAD@Z 00000001801c95e0 f i libucrt:argv_parsing.obj
 0001:001c85e8       ??0?$__crt_unique_heap_ptr@PEA_WU__crt_internal_free_policy@@@@QEAA@QEAPEA_W@Z 00000001801c95e8 f i libucrt:argv_parsing.obj
 0001:001c85f0       ??1?$__crt_unique_heap_ptr@EU__crt_internal_free_policy@@@@QEAA@XZ 00000001801c95f0 f i libucrt:argv_parsing.obj
 0001:001c8614       ??1?$__crt_unique_heap_ptr@PEADU__crt_internal_free_policy@@@@QEAA@XZ 00000001801c9614 f i libucrt:argv_parsing.obj
 0001:001c8638       ??1?$__crt_unique_heap_ptr@PEA_WU__crt_internal_free_policy@@@@QEAA@XZ 00000001801c9638 f i libucrt:argv_parsing.obj
 0001:001c865c       ??B?$__crt_unique_heap_ptr@EU__crt_internal_free_policy@@@@QEBA_NXZ 00000001801c965c f i libucrt:argv_parsing.obj
 0001:001c86b0       ?detach@?$__crt_unique_heap_ptr@EU__crt_internal_free_policy@@@@QEAAPEAEXZ 00000001801c96b0 f i libucrt:argv_parsing.obj
 0001:001c86bc       ?detach@?$__crt_unique_heap_ptr@PEADU__crt_internal_free_policy@@@@QEAAPEAPEADXZ 00000001801c96bc f i libucrt:argv_parsing.obj
 0001:001c86c8       ?detach@?$__crt_unique_heap_ptr@PEA_WU__crt_internal_free_policy@@@@QEAAPEAPEA_WXZ 00000001801c96c8 f i libucrt:argv_parsing.obj
 0001:001c86f0       ?get@?$__crt_unique_heap_ptr@EU__crt_internal_free_policy@@@@QEBAPEAEXZ 00000001801c96f0 f i libucrt:argv_parsing.obj
 0001:001c86f4       ?get@?$__crt_unique_heap_ptr@PEADU__crt_internal_free_policy@@@@QEBAPEAPEADXZ 00000001801c96f4 f i libucrt:argv_parsing.obj
 0001:001c86f8       ?get@?$__crt_unique_heap_ptr@PEA_WU__crt_internal_free_policy@@@@QEBAPEAPEA_WXZ 00000001801c96f8 f i libucrt:argv_parsing.obj
 0001:001c86fc       ?get_address_of@?$__crt_unique_heap_ptr@PEADU__crt_internal_free_policy@@@@QEAAPEAPEAPEADXZ 00000001801c96fc f i libucrt:argv_parsing.obj
 0001:001c8700       ?get_address_of@?$__crt_unique_heap_ptr@PEA_WU__crt_internal_free_policy@@@@QEAAPEAPEAPEA_WXZ 00000001801c9700 f i libucrt:argv_parsing.obj
 0001:001c8734       ?is_valid@?$__crt_unique_heap_ptr@EU__crt_internal_free_policy@@@@QEBA_NXZ 00000001801c9734 f i libucrt:argv_parsing.obj
 0001:001c8740       ?release@?$__crt_unique_heap_ptr@EU__crt_internal_free_policy@@@@QEAAXXZ 00000001801c9740 f i libucrt:argv_parsing.obj
 0001:001c8764       ?release@?$__crt_unique_heap_ptr@PEADU__crt_internal_free_policy@@@@QEAAXXZ 00000001801c9764 f i libucrt:argv_parsing.obj
 0001:001c8788       ?release@?$__crt_unique_heap_ptr@PEA_WU__crt_internal_free_policy@@@@QEAAXXZ 00000001801c9788 f i libucrt:argv_parsing.obj
 0001:001c87cc       __acrt_allocate_buffer_for_argv 00000001801c97cc f   libucrt:argv_parsing.obj
 0001:001c8848       _configure_narrow_argv     00000001801c9848 f   libucrt:argv_parsing.obj
 0001:001c8a1c       _configure_wide_argv       00000001801c9a1c f   libucrt:argv_parsing.obj
 0001:001c8bec       _set_pgmptr                00000001801c9bec f i libucrt:argv_parsing.obj
 0001:001c8bf8       _set_wpgmptr               00000001801c9bf8 f i libucrt:argv_parsing.obj
 0001:001c8c04       ??$?R_W@__crt_internal_free_policy@@QEBAXQEB_W@Z 00000001801c9c04 f i libucrt:environment_initialization.obj
 0001:001c91b0       ??$get_environment_from_os@$$$V@?$__crt_char_traits@D@@SAPEADXZ 00000001801ca1b0 f i libucrt:environment_initialization.obj
 0001:001c91b8       ??$get_environment_from_os@$$$V@?$__crt_char_traits@_W@@SAPEA_WXZ 00000001801ca1b8 f i libucrt:environment_initialization.obj
 0001:001c93a4       ??$set_variable_in_environment_nolock@PEADH@?$__crt_char_traits@D@@SAH$$QEAPEAD$$QEAH@Z 00000001801ca3a4 f i libucrt:environment_initialization.obj
 0001:001c93b0       ??$set_variable_in_environment_nolock@PEA_WH@?$__crt_char_traits@_W@@SAH$$QEAPEA_W$$QEAH@Z 00000001801ca3b0 f i libucrt:environment_initialization.obj
 0001:001c93bc       ??$tcscpy_s@PEADAEB_KAEAPEAD@?$__crt_char_traits@D@@SAH$$QEAPEADAEB_KAEAPEAD@Z 00000001801ca3bc f i libucrt:environment_initialization.obj
 0001:001c93d0       ??$tcscpy_s@PEA_WAEB_KAEAPEA_W@?$__crt_char_traits@_W@@SAH$$QEAPEA_WAEB_KAEAPEA_W@Z 00000001801ca3d0 f i libucrt:environment_initialization.obj
 0001:001c93e4       ??$tcslen@AEAPEAD@?$__crt_char_traits@D@@SA_KAEAPEAD@Z 00000001801ca3e4 f i libucrt:environment_initialization.obj
 0001:001c93fc       ??$tcslen@AEAPEA_W@?$__crt_char_traits@_W@@SA_KAEAPEA_W@Z 00000001801ca3fc f i libucrt:environment_initialization.obj
 0001:001c9414       ??$uninitialize@A6AXAEAPEAPEAD@Z@?$dual_state_global@PEAPEAD@__crt_state_management@@QEAAXA6AXAEAPEAPEAD@Z@Z 00000001801ca414 f i libucrt:environment_initialization.obj
 0001:001c946c       ??$uninitialize@A6AXAEAPEAPEA_W@Z@?$dual_state_global@PEAPEA_W@__crt_state_management@@QEAAXA6AXAEAPEAPEA_W@Z@Z 00000001801ca46c f i libucrt:environment_initialization.obj
 0001:001c9504       ??0?$__crt_unique_heap_ptr@_WU__crt_internal_free_policy@@@@QEAA@QEA_W@Z 00000001801ca504 f i libucrt:environment_initialization.obj
 0001:001c950c       ??1?$__crt_unique_heap_ptr@_WU__crt_internal_free_policy@@@@QEAA@XZ 00000001801ca50c f i libucrt:environment_initialization.obj
 0001:001c9530       ??B?$__crt_unique_heap_ptr@PEADU__crt_internal_free_policy@@@@QEBA_NXZ 00000001801ca530 f i libucrt:environment_initialization.obj
 0001:001c953c       ??B?$__crt_unique_heap_ptr@PEA_WU__crt_internal_free_policy@@@@QEBA_NXZ 00000001801ca53c f i libucrt:environment_initialization.obj
 0001:001c9548       ??B?$__crt_unique_heap_ptr@_WU__crt_internal_free_policy@@@@QEBA_NXZ 00000001801ca548 f i libucrt:environment_initialization.obj
 0001:001c9554       ?__crt_compute_required_transform_buffer_count@@YA_KIQEBD@Z 00000001801ca554 f i libucrt:environment_initialization.obj
 0001:001c9584       ?__crt_compute_required_transform_buffer_count@@YA_KIQEB_W@Z 00000001801ca584 f i libucrt:environment_initialization.obj
 0001:001c95c0       ?__crt_transform_string@@YA_KIQEBDQEA_W_K@Z 00000001801ca5c0 f i libucrt:environment_initialization.obj
 0001:001c95f0       ?__crt_transform_string@@YA_KIQEB_WQEAD_K@Z 00000001801ca5f0 f i libucrt:environment_initialization.obj
 0001:001c962c       ?detach@?$__crt_unique_heap_ptr@DU__crt_internal_free_policy@@@@QEAAPEADXZ 00000001801ca62c f i libucrt:environment_initialization.obj
 0001:001c9638       ?detach@?$__crt_unique_heap_ptr@_WU__crt_internal_free_policy@@@@QEAAPEA_WXZ 00000001801ca638 f i libucrt:environment_initialization.obj
 0001:001c9644       ?get@?$__crt_unique_heap_ptr@_WU__crt_internal_free_policy@@@@QEBAPEA_WXZ 00000001801ca644 f i libucrt:environment_initialization.obj
 0001:001c9648       ?get_current_state_index@__crt_state_management@@YA_KXZ 00000001801ca648 f i libucrt:environment_initialization.obj
 0001:001c9694       ?initialize@?$dual_state_global@PEAPEAD@__crt_state_management@@QEAAXQEAPEAD@Z 00000001801ca694 f i libucrt:environment_initialization.obj
 0001:001c96d4       ?initialize@?$dual_state_global@PEAPEA_W@__crt_state_management@@QEAAXQEAPEA_W@Z 00000001801ca6d4 f i libucrt:environment_initialization.obj
 0001:001c9714       ?is_valid@?$__crt_unique_heap_ptr@PEADU__crt_internal_free_policy@@@@QEBA_NXZ 00000001801ca714 f i libucrt:environment_initialization.obj
 0001:001c9720       ?is_valid@?$__crt_unique_heap_ptr@PEA_WU__crt_internal_free_policy@@@@QEBA_NXZ 00000001801ca720 f i libucrt:environment_initialization.obj
 0001:001c972c       ?is_valid@?$__crt_unique_heap_ptr@_WU__crt_internal_free_policy@@@@QEBA_NXZ 00000001801ca72c f i libucrt:environment_initialization.obj
 0001:001c9744       ?release@?$__crt_unique_heap_ptr@_WU__crt_internal_free_policy@@@@QEAAXXZ 00000001801ca744 f i libucrt:environment_initialization.obj
 0001:001c9768       ?value@?$dual_state_global@PEAPEAD@__crt_state_management@@QEAAAEAPEAPEADXZ 00000001801ca768 f i libucrt:environment_initialization.obj
 0001:001c976c       ?value@?$dual_state_global@PEAPEA_W@__crt_state_management@@QEAAAEAPEAPEA_WXZ 00000001801ca76c f i libucrt:environment_initialization.obj
 0001:001c9770       __dcrt_get_or_create_narrow_environment_nolock 00000001801ca770 f   libucrt:environment_initialization.obj
 0001:001c9778       __dcrt_get_or_create_wide_environment_nolock 00000001801ca778 f   libucrt:environment_initialization.obj
 0001:001c9780       __dcrt_uninitialize_environments_nolock 00000001801ca780 f   libucrt:environment_initialization.obj
 0001:001c97c8       __p__environ               00000001801ca7c8 f   libucrt:environment_initialization.obj
 0001:001c97d4       __p__wenviron              00000001801ca7d4 f   libucrt:environment_initialization.obj
 0001:001c97e0       _get_initial_narrow_environment 00000001801ca7e0 f   libucrt:environment_initialization.obj
 0001:001c980c       _get_initial_wide_environment 00000001801ca80c f   libucrt:environment_initialization.obj
 0001:001c9838       _initialize_narrow_environment 00000001801ca838 f   libucrt:environment_initialization.obj
 0001:001c9840       _initialize_wide_environment 00000001801ca840 f   libucrt:environment_initialization.obj
 0001:001c9848       _invoke_watson_if_error    00000001801ca848 f i libucrt:environment_initialization.obj
 0001:001c9888       ??$?BP6AXXZ@__crt_fast_encoded_nullptr_t@@QEBAPEAP6AXXZXZ 00000001801ca888 f i libucrt:onexit.obj
 0001:001c98ac       ??$?RP6AXXZ@__crt_internal_free_policy@@QEBAXQEBQ6AXXZ@Z 00000001801ca8ac f i libucrt:onexit.obj
 0001:001c98b8       ??$?RV<lambda_b8c45f8f788dd370798f47cfe8ac3a86>@@AEAV<lambda_4e60a939b0d047cfe11ddc22648dfba9>@@V<lambda_332c3edc96d0294ec56c57d38c1cdfd5>@@@?$__crt_seh_guarded_call@H@@QEAAH$$QEAV<lambda_b8c45f8f788dd370798f47cfe8ac3a86>@@AEAV<lambda_4e60a939b0d047cfe11ddc22648dfba9>@@$$QEAV<lambda_332c3edc96d0294ec56c57d38c1cdfd5>@@@Z 00000001801ca8b8 f i libucrt:onexit.obj
 0001:001c9904       ??$?RV<lambda_e24bbb7b643b32fcea6fa61b31d4c984>@@AEAV<lambda_275893d493268fdec8709772e3fcec0e>@@V<lambda_9d71df4d7cf3f480f8d633942495c3b0>@@@?$__crt_seh_guarded_call@H@@QEAAH$$QEAV<lambda_e24bbb7b643b32fcea6fa61b31d4c984>@@AEAV<lambda_275893d493268fdec8709772e3fcec0e>@@$$QEAV<lambda_9d71df4d7cf3f480f8d633942495c3b0>@@@Z 00000001801ca904 f i libucrt:onexit.obj
 0001:001c9b0c       ??$__acrt_lock_and_call@V<lambda_275893d493268fdec8709772e3fcec0e>@@@@YAHW4__acrt_lock_id@@$$QEAV<lambda_275893d493268fdec8709772e3fcec0e>@@@Z 00000001801cab0c f i libucrt:onexit.obj
 0001:001c9b3c       ??$__acrt_lock_and_call@V<lambda_4e60a939b0d047cfe11ddc22648dfba9>@@@@YAHW4__acrt_lock_id@@$$QEAV<lambda_4e60a939b0d047cfe11ddc22648dfba9>@@@Z 00000001801cab3c f i libucrt:onexit.obj
 0001:001c9b6c       ??$__crt_fast_encode_pointer@P6AHXZ@@YAP6AHXZQ6AHXZ@Z 00000001801cab6c f i libucrt:onexit.obj
 0001:001c9bdc       ??0?$__crt_unique_heap_ptr@P6AXXZU__crt_internal_free_policy@@@@QEAA@QEAP6AXXZ@Z 00000001801cabdc f i libucrt:onexit.obj
 0001:001c9be4       ??1?$__crt_unique_heap_ptr@P6AXXZU__crt_internal_free_policy@@@@QEAA@XZ 00000001801cabe4 f i libucrt:onexit.obj
 0001:001ca01c       ?detach@?$__crt_unique_heap_ptr@P6AXXZU__crt_internal_free_policy@@@@QEAAPEAP6AXXZXZ 00000001801cb01c f i libucrt:onexit.obj
 0001:001ca028       ?release@?$__crt_unique_heap_ptr@P6AXXZU__crt_internal_free_policy@@@@QEAAXXZ 00000001801cb028 f i libucrt:onexit.obj
 0001:001ca04c       _crt_at_quick_exit         00000001801cb04c f   libucrt:onexit.obj
 0001:001ca060       _crt_atexit                00000001801cb060 f   libucrt:onexit.obj
 0001:001ca074       _execute_onexit_table      00000001801cb074 f   libucrt:onexit.obj
 0001:001ca0bc       _initialize_onexit_table   00000001801cb0bc f   libucrt:onexit.obj
 0001:001ca10c       _register_onexit_function  00000001801cb10c f   libucrt:onexit.obj
 0001:001ca2f8       ?initialize@?$dual_state_global@PEAU__crt_locale_data@@@__crt_state_management@@QEAAXQEAU__crt_locale_data@@@Z 00000001801cb2f8 f i libucrt:initialization.obj
 0001:001ca338       __acrt_initialize          00000001801cb338 f   libucrt:initialization.obj
 0001:001ca350       __acrt_thread_attach       00000001801cb350 f   libucrt:initialization.obj
 0001:001ca36c       __acrt_thread_detach       00000001801cb36c f   libucrt:initialization.obj
 0001:001ca380       __acrt_uninitialize        00000001801cb380 f   libucrt:initialization.obj
 0001:001ca398       __acrt_uninitialize_critical 00000001801cb398 f   libucrt:initialization.obj
 0001:001ca3c4       _get_terminate             00000001801cb3c4 f   libucrt:terminate.obj
 0001:001ca3f0       set_terminate              00000001801cb3f0 f   libucrt:terminate.obj
 0001:001ca428       terminate                  00000001801cb428 f   libucrt:terminate.obj
 0001:001ca458       _set_abort_behavior        00000001801cb458 f   libucrt:abort.obj
 0001:001ca47c       abort                      00000001801cb47c f   libucrt:abort.obj
 0001:001ca4e8       ??$__crt_interlocked_exchange_pointer@X$$T@@YAPEAXPEDSEAX$$T@Z 00000001801cb4e8 f i libucrt:free_base.obj
 0001:001ca4f0       ?__crt_interlocked_read_64@@YA_JPED_J@Z 00000001801cb4f0 f i libucrt:free_base.obj
 0001:001ca500       __acrt_get_msvcrt_heap_handle 00000001801cb500 f   libucrt:free_base.obj
 0001:001ca588       _free_base                 00000001801cb588 f   libucrt:free_base.obj
 0001:001ca5d4       _malloc_base               00000001801cb5d4 f   libucrt:malloc_base.obj
 0001:001ca6c8       strcpy_s                   00000001801cb6c8 f   libucrt:strcpy_s.obj
 0001:001ca740       ??$?0AEBV?$stream_output_adapter@D@__crt_stdio_output@@AEB_KAEBQEBDAEBQEAU__crt_locale_pointers@@AEBQEAD@?$format_validation_base@DV?$stream_output_adapter@D@__crt_stdio_output@@@__crt_stdio_output@@IEAA@AEBV?$stream_output_adapter@D@1@AEB_KAEBQEBDAEBQEAU__crt_locale_pointers@@AEBQEAD@Z 00000001801cb740 f i libucrt:output.obj
 0001:001ca7e4       ??$?0AEBV?$stream_output_adapter@D@__crt_stdio_output@@AEB_KAEBQEBDAEBQEAU__crt_locale_pointers@@AEBQEAD@?$positional_parameter_base@DV?$stream_output_adapter@D@__crt_stdio_output@@@__crt_stdio_output@@IEAA@AEBV?$stream_output_adapter@D@1@AEB_KAEBQEBDAEBQEAU__crt_locale_pointers@@AEBQEAD@Z 00000001801cb7e4 f i libucrt:output.obj
 0001:001ca8ac       ??$?0AEBV?$stream_output_adapter@D@__crt_stdio_output@@AEB_KAEBQEBDAEBQEAU__crt_locale_pointers@@AEBQEAD@?$standard_base@DV?$stream_output_adapter@D@__crt_stdio_output@@@__crt_stdio_output@@IEAA@AEBV?$stream_output_adapter@D@1@AEB_KAEBQEBDAEBQEAU__crt_locale_pointers@@AEBQEAD@Z 00000001801cb8ac f i libucrt:output.obj
 0001:001ca950       ??$?0AEBV?$stream_output_adapter@_W@__crt_stdio_output@@AEB_KAEBQEB_WAEBQEAU__crt_locale_pointers@@AEBQEAD@?$format_validation_base@_WV?$stream_output_adapter@_W@__crt_stdio_output@@@__crt_stdio_output@@IEAA@AEBV?$stream_output_adapter@_W@1@AEB_KAEBQEB_WAEBQEAU__crt_locale_pointers@@AEBQEAD@Z 00000001801cb950 f i libucrt:output.obj
 0001:001ca9f8       ??$?0AEBV?$stream_output_adapter@_W@__crt_stdio_output@@AEB_KAEBQEB_WAEBQEAU__crt_locale_pointers@@AEBQEAD@?$positional_parameter_base@_WV?$stream_output_adapter@_W@__crt_stdio_output@@@__crt_stdio_output@@IEAA@AEBV?$stream_output_adapter@_W@1@AEB_KAEBQEB_WAEBQEAU__crt_locale_pointers@@AEBQEAD@Z 00000001801cb9f8 f i libucrt:output.obj
 0001:001caac4       ??$?0AEBV?$stream_output_adapter@_W@__crt_stdio_output@@AEB_KAEBQEB_WAEBQEAU__crt_locale_pointers@@AEBQEAD@?$standard_base@_WV?$stream_output_adapter@_W@__crt_stdio_output@@@__crt_stdio_output@@IEAA@AEBV?$stream_output_adapter@_W@1@AEB_KAEBQEB_WAEBQEAU__crt_locale_pointers@@AEBQEAD@Z 00000001801cbac4 f i libucrt:output.obj
 0001:001cab6c       ??$?0AEBV?$string_output_adapter@D@__crt_stdio_output@@AEB_KAEBQEBDAEBQEAU__crt_locale_pointers@@AEBQEAD@?$format_validation_base@DV?$string_output_adapter@D@__crt_stdio_output@@@__crt_stdio_output@@IEAA@AEBV?$string_output_adapter@D@1@AEB_KAEBQEBDAEBQEAU__crt_locale_pointers@@AEBQEAD@Z 00000001801cbb6c f i libucrt:output.obj
 0001:001cac10       ??$?0AEBV?$string_output_adapter@D@__crt_stdio_output@@AEB_KAEBQEBDAEBQEAU__crt_locale_pointers@@AEBQEAD@?$positional_parameter_base@DV?$string_output_adapter@D@__crt_stdio_output@@@__crt_stdio_output@@IEAA@AEBV?$string_output_adapter@D@1@AEB_KAEBQEBDAEBQEAU__crt_locale_pointers@@AEBQEAD@Z 00000001801cbc10 f i libucrt:output.obj
 0001:001cacd8       ??$?0AEBV?$string_output_adapter@D@__crt_stdio_output@@AEB_KAEBQEBDAEBQEAU__crt_locale_pointers@@AEBQEAD@?$standard_base@DV?$string_output_adapter@D@__crt_stdio_output@@@__crt_stdio_output@@IEAA@AEBV?$string_output_adapter@D@1@AEB_KAEBQEBDAEBQEAU__crt_locale_pointers@@AEBQEAD@Z 00000001801cbcd8 f i libucrt:output.obj
 0001:001cad7c       ??$?0AEBV?$string_output_adapter@_W@__crt_stdio_output@@AEB_KAEBQEB_WAEBQEAU__crt_locale_pointers@@AEBQEAD@?$format_validation_base@_WV?$string_output_adapter@_W@__crt_stdio_output@@@__crt_stdio_output@@IEAA@AEBV?$string_output_adapter@_W@1@AEB_KAEBQEB_WAEBQEAU__crt_locale_pointers@@AEBQEAD@Z 00000001801cbd7c f i libucrt:output.obj
 0001:001cae24       ??$?0AEBV?$string_output_adapter@_W@__crt_stdio_output@@AEB_KAEBQEB_WAEBQEAU__crt_locale_pointers@@AEBQEAD@?$positional_parameter_base@_WV?$string_output_adapter@_W@__crt_stdio_output@@@__crt_stdio_output@@IEAA@AEBV?$string_output_adapter@_W@1@AEB_KAEBQEB_WAEBQEAU__crt_locale_pointers@@AEBQEAD@Z 00000001801cbe24 f i libucrt:output.obj
 0001:001caef0       ??$?0AEBV?$string_output_adapter@_W@__crt_stdio_output@@AEB_KAEBQEB_WAEBQEAU__crt_locale_pointers@@AEBQEAD@?$standard_base@_WV?$string_output_adapter@_W@__crt_stdio_output@@@__crt_stdio_output@@IEAA@AEBV?$string_output_adapter@_W@1@AEB_KAEBQEB_WAEBQEAU__crt_locale_pointers@@AEBQEAD@Z 00000001801cbef0 f i libucrt:output.obj
 0001:001caf98       ??$?RV<lambda_2647abb55a408a205467c4169a724277>@@AEAV<lambda_576477a770bb5ab586b2d9569451c7f7>@@V<lambda_c2b006f504a10a4cf14b9a1fbce2a01e>@@@?$__crt_seh_guarded_call@H@@QEAAH$$QEAV<lambda_2647abb55a408a205467c4169a724277>@@AEAV<lambda_576477a770bb5ab586b2d9569451c7f7>@@$$QEAV<lambda_c2b006f504a10a4cf14b9a1fbce2a01e>@@@Z 00000001801cbf98 f i libucrt:output.obj
 0001:001cafe4       ??$?RV<lambda_2b8ba55cb2a29189d70f882b678c7350>@@AEAV<lambda_ab9668973a2a61b07c64846465621f55>@@V<lambda_748afda9c1ab82b4e15f74dcdf75db74>@@@?$__crt_seh_guarded_call@H@@QEAAH$$QEAV<lambda_2b8ba55cb2a29189d70f882b678c7350>@@AEAV<lambda_ab9668973a2a61b07c64846465621f55>@@$$QEAV<lambda_748afda9c1ab82b4e15f74dcdf75db74>@@@Z 00000001801cbfe4 f i libucrt:output.obj
 0001:001cb030       ??$?RV<lambda_4942f9dcb8a83a0b649775421cdab7f2>@@AEAV<lambda_9fdeb54d99e6c7e515b8c19e0613d470>@@V<lambda_f61bc4569557b8ad96931f67d51af400>@@@?$__crt_seh_guarded_call@H@@QEAAH$$QEAV<lambda_4942f9dcb8a83a0b649775421cdab7f2>@@AEAV<lambda_9fdeb54d99e6c7e515b8c19e0613d470>@@$$QEAV<lambda_f61bc4569557b8ad96931f67d51af400>@@@Z 00000001801cc030 f i libucrt:output.obj
 0001:001cb07c       ??$?RV<lambda_7b91131dde12e1c3dfc74ff76b3f2eac>@@AEAV<lambda_dd75445284c072d0bd3768540cc698fa>@@V<lambda_16bc4ecb55b4718497c16bceaea2ceaf>@@@?$__crt_seh_guarded_call@H@@QEAAH$$QEAV<lambda_7b91131dde12e1c3dfc74ff76b3f2eac>@@AEAV<lambda_dd75445284c072d0bd3768540cc698fa>@@$$QEAV<lambda_16bc4ecb55b4718497c16bceaea2ceaf>@@@Z 00000001801cc07c f i libucrt:output.obj
 0001:001cb0c8       ??$?RV<lambda_aa279a7bcb127014629d5b1d62c7325d>@@AEAV<lambda_0a64b6a4deda75c01876f29c44fc5eb3>@@V<lambda_3323e69fbefe9d1a11713e670d47cdfa>@@@?$__crt_seh_guarded_call@H@@QEAAH$$QEAV<lambda_aa279a7bcb127014629d5b1d62c7325d>@@AEAV<lambda_0a64b6a4deda75c01876f29c44fc5eb3>@@$$QEAV<lambda_3323e69fbefe9d1a11713e670d47cdfa>@@@Z 00000001801cc0c8 f i libucrt:output.obj
 0001:001cb114       ??$?RV<lambda_c232a0c49490a30f399a8430f51b50ba>@@AEAV<lambda_7b6c652cce95ef5b7c2ff34f92bf0578>@@V<lambda_c415c6f6d9d103d7e93818ef66b8cc8a>@@@?$__crt_seh_guarded_call@H@@QEAAH$$QEAV<lambda_c232a0c49490a30f399a8430f51b50ba>@@AEAV<lambda_7b6c652cce95ef5b7c2ff34f92bf0578>@@$$QEAV<lambda_c415c6f6d9d103d7e93818ef66b8cc8a>@@@Z 00000001801cc114 f i libucrt:output.obj
 0001:001cb160       ??$__acrt_lock_stream_and_call@V<lambda_0a64b6a4deda75c01876f29c44fc5eb3>@@@@YAHQEAU_iobuf@@$$QEAV<lambda_0a64b6a4deda75c01876f29c44fc5eb3>@@@Z 00000001801cc160 f i libucrt:output.obj
 0001:001cb194       ??$__acrt_lock_stream_and_call@V<lambda_576477a770bb5ab586b2d9569451c7f7>@@@@YAHQEAU_iobuf@@$$QEAV<lambda_576477a770bb5ab586b2d9569451c7f7>@@@Z 00000001801cc194 f i libucrt:output.obj
 0001:001cb1c8       ??$__acrt_lock_stream_and_call@V<lambda_7b6c652cce95ef5b7c2ff34f92bf0578>@@@@YAHQEAU_iobuf@@$$QEAV<lambda_7b6c652cce95ef5b7c2ff34f92bf0578>@@@Z 00000001801cc1c8 f i libucrt:output.obj
 0001:001cb1fc       ??$__acrt_lock_stream_and_call@V<lambda_9fdeb54d99e6c7e515b8c19e0613d470>@@@@YAHQEAU_iobuf@@$$QEAV<lambda_9fdeb54d99e6c7e515b8c19e0613d470>@@@Z 00000001801cc1fc f i libucrt:output.obj
 0001:001cb230       ??$__acrt_lock_stream_and_call@V<lambda_ab9668973a2a61b07c64846465621f55>@@@@YAHQEAU_iobuf@@$$QEAV<lambda_ab9668973a2a61b07c64846465621f55>@@@Z 00000001801cc230 f i libucrt:output.obj
 0001:001cb264       ??$__acrt_lock_stream_and_call@V<lambda_dd75445284c072d0bd3768540cc698fa>@@@@YAHQEAU_iobuf@@$$QEAV<lambda_dd75445284c072d0bd3768540cc698fa>@@@Z 00000001801cc264 f i libucrt:output.obj
 0001:001cc76c       ??$count@D@formatting_buffer@__crt_stdio_output@@QEBA_KXZ 00000001801cd76c f i libucrt:output.obj
 0001:001cc790       ??$data@D@formatting_buffer@__crt_stdio_output@@QEAAPEADXZ 00000001801cd790 f i libucrt:output.obj
 0001:001cc7a4       ??$data@_W@formatting_buffer@__crt_stdio_output@@QEAAPEA_WXZ 00000001801cd7a4 f i libucrt:output.obj
 0001:001cc7b8       ??$ensure_buffer_is_big_enough@D@formatting_buffer@__crt_stdio_output@@QEAA_N_K@Z 00000001801cd7b8 f i libucrt:output.obj
 0001:001cc890       ??$extract_argument_from_va_list@C_J@?$positional_parameter_base@DV?$stream_output_adapter@D@__crt_stdio_output@@@__crt_stdio_output@@IEAA_NAEA_J@Z 00000001801cd890 f i libucrt:output.obj
 0001:001cc984       ??$extract_argument_from_va_list@C_J@?$positional_parameter_base@DV?$string_output_adapter@D@__crt_stdio_output@@@__crt_stdio_output@@IEAA_NAEA_J@Z 00000001801cd984 f i libucrt:output.obj
 0001:001cca78       ??$extract_argument_from_va_list@C_J@?$positional_parameter_base@_WV?$stream_output_adapter@_W@__crt_stdio_output@@@__crt_stdio_output@@IEAA_NAEA_J@Z 00000001801cda78 f i libucrt:output.obj
 0001:001ccb70       ??$extract_argument_from_va_list@C_J@?$positional_parameter_base@_WV?$string_output_adapter@_W@__crt_stdio_output@@@__crt_stdio_output@@IEAA_NAEA_J@Z 00000001801cdb70 f i libucrt:output.obj
 0001:001ccc68       ??$extract_argument_from_va_list@C_J@?$standard_base@DV?$stream_output_adapter@D@__crt_stdio_output@@@__crt_stdio_output@@IEAA_NAEA_J@Z 00000001801cdc68 f i libucrt:output.obj
 0001:001ccc84       ??$extract_argument_from_va_list@C_J@?$standard_base@DV?$string_output_adapter@D@__crt_stdio_output@@@__crt_stdio_output@@IEAA_NAEA_J@Z 00000001801cdc84 f i libucrt:output.obj
 0001:001ccca0       ??$extract_argument_from_va_list@C_J@?$standard_base@_WV?$stream_output_adapter@_W@__crt_stdio_output@@@__crt_stdio_output@@IEAA_NAEA_J@Z 00000001801cdca0 f i libucrt:output.obj
 0001:001cccbc       ??$extract_argument_from_va_list@C_J@?$standard_base@_WV?$string_output_adapter@_W@__crt_stdio_output@@@__crt_stdio_output@@IEAA_NAEA_J@Z 00000001801cdcbc f i libucrt:output.obj
 0001:001cccd8       ??$extract_argument_from_va_list@E_J@?$positional_parameter_base@DV?$stream_output_adapter@D@__crt_stdio_output@@@__crt_stdio_output@@IEAA_NAEA_J@Z 00000001801cdcd8 f i libucrt:output.obj
 0001:001ccdcc       ??$extract_argument_from_va_list@E_J@?$positional_parameter_base@DV?$string_output_adapter@D@__crt_stdio_output@@@__crt_stdio_output@@IEAA_NAEA_J@Z 00000001801cddcc f i libucrt:output.obj
 0001:001ccec0       ??$extract_argument_from_va_list@E_J@?$positional_parameter_base@_WV?$stream_output_adapter@_W@__crt_stdio_output@@@__crt_stdio_output@@IEAA_NAEA_J@Z 00000001801cdec0 f i libucrt:output.obj
 0001:001ccfb8       ??$extract_argument_from_va_list@E_J@?$positional_parameter_base@_WV?$string_output_adapter@_W@__crt_stdio_output@@@__crt_stdio_output@@IEAA_NAEA_J@Z 00000001801cdfb8 f i libucrt:output.obj
 0001:001cd0b0       ??$extract_argument_from_va_list@E_J@?$standard_base@DV?$stream_output_adapter@D@__crt_stdio_output@@@__crt_stdio_output@@IEAA_NAEA_J@Z 00000001801ce0b0 f i libucrt:output.obj
 0001:001cd0c8       ??$extract_argument_from_va_list@E_J@?$standard_base@DV?$string_output_adapter@D@__crt_stdio_output@@@__crt_stdio_output@@IEAA_NAEA_J@Z 00000001801ce0c8 f i libucrt:output.obj
 0001:001cd0e0       ??$extract_argument_from_va_list@E_J@?$standard_base@_WV?$stream_output_adapter@_W@__crt_stdio_output@@@__crt_stdio_output@@IEAA_NAEA_J@Z 00000001801ce0e0 f i libucrt:output.obj
 0001:001cd0f8       ??$extract_argument_from_va_list@E_J@?$standard_base@_WV?$string_output_adapter@_W@__crt_stdio_output@@@__crt_stdio_output@@IEAA_NAEA_J@Z 00000001801ce0f8 f i libucrt:output.obj
 0001:001cd110       ??$extract_argument_from_va_list@F_J@?$positional_parameter_base@DV?$stream_output_adapter@D@__crt_stdio_output@@@__crt_stdio_output@@IEAA_NAEA_J@Z 00000001801ce110 f i libucrt:output.obj
 0001:001cd204       ??$extract_argument_from_va_list@F_J@?$positional_parameter_base@DV?$string_output_adapter@D@__crt_stdio_output@@@__crt_stdio_output@@IEAA_NAEA_J@Z 00000001801ce204 f i libucrt:output.obj
 0001:001cd2f8       ??$extract_argument_from_va_list@F_J@?$positional_parameter_base@_WV?$stream_output_adapter@_W@__crt_stdio_output@@@__crt_stdio_output@@IEAA_NAEA_J@Z 00000001801ce2f8 f i libucrt:output.obj
 0001:001cd3f0       ??$extract_argument_from_va_list@F_J@?$positional_parameter_base@_WV?$string_output_adapter@_W@__crt_stdio_output@@@__crt_stdio_output@@IEAA_NAEA_J@Z 00000001801ce3f0 f i libucrt:output.obj
 0001:001cd4e8       ??$extract_argument_from_va_list@F_J@?$standard_base@DV?$stream_output_adapter@D@__crt_stdio_output@@@__crt_stdio_output@@IEAA_NAEA_J@Z 00000001801ce4e8 f i libucrt:output.obj
 0001:001cd504       ??$extract_argument_from_va_list@F_J@?$standard_base@DV?$string_output_adapter@D@__crt_stdio_output@@@__crt_stdio_output@@IEAA_NAEA_J@Z 00000001801ce504 f i libucrt:output.obj
 0001:001cd520       ??$extract_argument_from_va_list@F_J@?$standard_base@_WV?$stream_output_adapter@_W@__crt_stdio_output@@@__crt_stdio_output@@IEAA_NAEA_J@Z 00000001801ce520 f i libucrt:output.obj
 0001:001cd53c       ??$extract_argument_from_va_list@F_J@?$standard_base@_WV?$string_output_adapter@_W@__crt_stdio_output@@@__crt_stdio_output@@IEAA_NAEA_J@Z 00000001801ce53c f i libucrt:output.obj
 0001:001cd558       ??$extract_argument_from_va_list@GD@?$positional_parameter_base@DV?$stream_output_adapter@D@__crt_stdio_output@@@__crt_stdio_output@@IEAA_NAEAD@Z 00000001801ce558 f i libucrt:output.obj
 0001:001cd648       ??$extract_argument_from_va_list@GD@?$positional_parameter_base@DV?$string_output_adapter@D@__crt_stdio_output@@@__crt_stdio_output@@IEAA_NAEAD@Z 00000001801ce648 f i libucrt:output.obj
 0001:001cd738       ??$extract_argument_from_va_list@GD@?$standard_base@DV?$stream_output_adapter@D@__crt_stdio_output@@@__crt_stdio_output@@IEAA_NAEAD@Z 00000001801ce738 f i libucrt:output.obj
 0001:001cd750       ??$extract_argument_from_va_list@GD@?$standard_base@DV?$string_output_adapter@D@__crt_stdio_output@@@__crt_stdio_output@@IEAA_NAEAD@Z 00000001801ce750 f i libucrt:output.obj
 0001:001cd768       ??$extract_argument_from_va_list@G_J@?$positional_parameter_base@DV?$stream_output_adapter@D@__crt_stdio_output@@@__crt_stdio_output@@IEAA_NAEA_J@Z 00000001801ce768 f i libucrt:output.obj
 0001:001cd85c       ??$extract_argument_from_va_list@G_J@?$positional_parameter_base@DV?$string_output_adapter@D@__crt_stdio_output@@@__crt_stdio_output@@IEAA_NAEA_J@Z 00000001801ce85c f i libucrt:output.obj
 0001:001cd950       ??$extract_argument_from_va_list@G_J@?$positional_parameter_base@_WV?$stream_output_adapter@_W@__crt_stdio_output@@@__crt_stdio_output@@IEAA_NAEA_J@Z 00000001801ce950 f i libucrt:output.obj
 0001:001cda48       ??$extract_argument_from_va_list@G_J@?$positional_parameter_base@_WV?$string_output_adapter@_W@__crt_stdio_output@@@__crt_stdio_output@@IEAA_NAEA_J@Z 00000001801cea48 f i libucrt:output.obj
 0001:001cdb40       ??$extract_argument_from_va_list@G_J@?$standard_base@DV?$stream_output_adapter@D@__crt_stdio_output@@@__crt_stdio_output@@IEAA_NAEA_J@Z 00000001801ceb40 f i libucrt:output.obj
 0001:001cdb58       ??$extract_argument_from_va_list@G_J@?$standard_base@DV?$string_output_adapter@D@__crt_stdio_output@@@__crt_stdio_output@@IEAA_NAEA_J@Z 00000001801ceb58 f i libucrt:output.obj
 0001:001cdb70       ??$extract_argument_from_va_list@G_J@?$standard_base@_WV?$stream_output_adapter@_W@__crt_stdio_output@@@__crt_stdio_output@@IEAA_NAEA_J@Z 00000001801ceb70 f i libucrt:output.obj
 0001:001cdb88       ??$extract_argument_from_va_list@G_J@?$standard_base@_WV?$string_output_adapter@_W@__crt_stdio_output@@@__crt_stdio_output@@IEAA_NAEA_J@Z 00000001801ceb88 f i libucrt:output.obj
 0001:001cdba0       ??$extract_argument_from_va_list@H_J@?$positional_parameter_base@DV?$stream_output_adapter@D@__crt_stdio_output@@@__crt_stdio_output@@IEAA_NAEA_J@Z 00000001801ceba0 f i libucrt:output.obj
 0001:001cdc94       ??$extract_argument_from_va_list@H_J@?$positional_parameter_base@DV?$string_output_adapter@D@__crt_stdio_output@@@__crt_stdio_output@@IEAA_NAEA_J@Z 00000001801cec94 f i libucrt:output.obj
 0001:001cdd88       ??$extract_argument_from_va_list@H_J@?$positional_parameter_base@_WV?$stream_output_adapter@_W@__crt_stdio_output@@@__crt_stdio_output@@IEAA_NAEA_J@Z 00000001801ced88 f i libucrt:output.obj
 0001:001cde7c       ??$extract_argument_from_va_list@H_J@?$positional_parameter_base@_WV?$string_output_adapter@_W@__crt_stdio_output@@@__crt_stdio_output@@IEAA_NAEA_J@Z 00000001801cee7c f i libucrt:output.obj
 0001:001cdf70       ??$extract_argument_from_va_list@H_J@?$standard_base@DV?$stream_output_adapter@D@__crt_stdio_output@@@__crt_stdio_output@@IEAA_NAEA_J@Z 00000001801cef70 f i libucrt:output.obj
 0001:001cdf88       ??$extract_argument_from_va_list@H_J@?$standard_base@DV?$string_output_adapter@D@__crt_stdio_output@@@__crt_stdio_output@@IEAA_NAEA_J@Z 00000001801cef88 f i libucrt:output.obj
 0001:001cdfa0       ??$extract_argument_from_va_list@H_J@?$standard_base@_WV?$stream_output_adapter@_W@__crt_stdio_output@@@__crt_stdio_output@@IEAA_NAEA_J@Z 00000001801cefa0 f i libucrt:output.obj
 0001:001cdfb8       ??$extract_argument_from_va_list@H_J@?$standard_base@_WV?$string_output_adapter@_W@__crt_stdio_output@@@__crt_stdio_output@@IEAA_NAEA_J@Z 00000001801cefb8 f i libucrt:output.obj
 0001:001cdfd0       ??$extract_argument_from_va_list@I_J@?$positional_parameter_base@DV?$stream_output_adapter@D@__crt_stdio_output@@@__crt_stdio_output@@IEAA_NAEA_J@Z 00000001801cefd0 f i libucrt:output.obj
 0001:001ce0c0       ??$extract_argument_from_va_list@I_J@?$positional_parameter_base@DV?$string_output_adapter@D@__crt_stdio_output@@@__crt_stdio_output@@IEAA_NAEA_J@Z 00000001801cf0c0 f i libucrt:output.obj
 0001:001ce1b0       ??$extract_argument_from_va_list@I_J@?$positional_parameter_base@_WV?$stream_output_adapter@_W@__crt_stdio_output@@@__crt_stdio_output@@IEAA_NAEA_J@Z 00000001801cf1b0 f i libucrt:output.obj
 0001:001ce2a4       ??$extract_argument_from_va_list@I_J@?$positional_parameter_base@_WV?$string_output_adapter@_W@__crt_stdio_output@@@__crt_stdio_output@@IEAA_NAEA_J@Z 00000001801cf2a4 f i libucrt:output.obj
 0001:001ce398       ??$extract_argument_from_va_list@I_J@?$standard_base@DV?$stream_output_adapter@D@__crt_stdio_output@@@__crt_stdio_output@@IEAA_NAEA_J@Z 00000001801cf398 f i libucrt:output.obj
 0001:001ce3b0       ??$extract_argument_from_va_list@I_J@?$standard_base@DV?$string_output_adapter@D@__crt_stdio_output@@@__crt_stdio_output@@IEAA_NAEA_J@Z 00000001801cf3b0 f i libucrt:output.obj
 0001:001ce3c8       ??$extract_argument_from_va_list@I_J@?$standard_base@_WV?$stream_output_adapter@_W@__crt_stdio_output@@@__crt_stdio_output@@IEAA_NAEA_J@Z 00000001801cf3c8 f i libucrt:output.obj
 0001:001ce3e0       ??$extract_argument_from_va_list@I_J@?$standard_base@_WV?$string_output_adapter@_W@__crt_stdio_output@@@__crt_stdio_output@@IEAA_NAEA_J@Z 00000001801cf3e0 f i libucrt:output.obj
 0001:001ce3f8       ??$extract_argument_from_va_list@PEADPEAD@?$positional_parameter_base@DV?$stream_output_adapter@D@__crt_stdio_output@@@__crt_stdio_output@@IEAA_NAEAPEAD@Z 00000001801cf3f8 f i libucrt:output.obj
 0001:001ce4ec       ??$extract_argument_from_va_list@PEADPEAD@?$positional_parameter_base@DV?$string_output_adapter@D@__crt_stdio_output@@@__crt_stdio_output@@IEAA_NAEAPEAD@Z 00000001801cf4ec f i libucrt:output.obj
 0001:001ce5e0       ??$extract_argument_from_va_list@PEADPEAD@?$positional_parameter_base@_WV?$stream_output_adapter@_W@__crt_stdio_output@@@__crt_stdio_output@@IEAA_NAEAPEAD@Z 00000001801cf5e0 f i libucrt:output.obj
 0001:001ce6d4       ??$extract_argument_from_va_list@PEADPEAD@?$positional_parameter_base@_WV?$string_output_adapter@_W@__crt_stdio_output@@@__crt_stdio_output@@IEAA_NAEAPEAD@Z 00000001801cf6d4 f i libucrt:output.obj
 0001:001ce7c8       ??$extract_argument_from_va_list@PEADPEAD@?$standard_base@DV?$stream_output_adapter@D@__crt_stdio_output@@@__crt_stdio_output@@IEAA_NAEAPEAD@Z 00000001801cf7c8 f i libucrt:output.obj
 0001:001ce7e0       ??$extract_argument_from_va_list@PEADPEAD@?$standard_base@DV?$string_output_adapter@D@__crt_stdio_output@@@__crt_stdio_output@@IEAA_NAEAPEAD@Z 00000001801cf7e0 f i libucrt:output.obj
 0001:001ce7f8       ??$extract_argument_from_va_list@PEADPEAD@?$standard_base@_WV?$stream_output_adapter@_W@__crt_stdio_output@@@__crt_stdio_output@@IEAA_NAEAPEAD@Z 00000001801cf7f8 f i libucrt:output.obj
 0001:001ce810       ??$extract_argument_from_va_list@PEADPEAD@?$standard_base@_WV?$string_output_adapter@_W@__crt_stdio_output@@@__crt_stdio_output@@IEAA_NAEAPEAD@Z 00000001801cf810 f i libucrt:output.obj
 0001:001ce828       ??$extract_argument_from_va_list@PEAUansi_string@?1??type_case_Z@?$output_processor@DV?$stream_output_adapter@D@__crt_stdio_output@@V?$format_validation_base@DV?$stream_output_adapter@D@__crt_stdio_output@@@2@@__crt_stdio_output@@AEAA_NXZ@PEAU1?1??234@AEAA_NXZ@@?$standard_base@DV?$stream_output_adapter@D@__crt_stdio_output@@@__crt_stdio_output@@IEAA_NAEAPEAUansi_string@?1??type_case_Z@?$output_processor@DV?$stream_output_adapter@D@__crt_stdio_output@@V?$format_validation_base@DV?$stream_output_adapter@D@__crt_stdio_output@@@2@@1@AEAA_NXZ@@Z 00000001801cf828 f i libucrt:output.obj
 0001:001ce840       ??$extract_argument_from_va_list@PEAUansi_string@?1??type_case_Z@?$output_processor@DV?$stream_output_adapter@D@__crt_stdio_output@@V?$positional_parameter_base@DV?$stream_output_adapter@D@__crt_stdio_output@@@2@@__crt_stdio_output@@AEAA_NXZ@PEAU1?1??234@AEAA_NXZ@@?$positional_parameter_base@DV?$stream_output_adapter@D@__crt_stdio_output@@@__crt_stdio_output@@IEAA_NAEAPEAUansi_string@?1??type_case_Z@?$output_processor@DV?$stream_output_adapter@D@__crt_stdio_output@@V?$positional_parameter_base@DV?$stream_output_adapter@D@__crt_stdio_output@@@2@@1@AEAA_NXZ@@Z 00000001801cf840 f i libucrt:output.obj
 0001:001ce934       ??$extract_argument_from_va_list@PEAUansi_string@?1??type_case_Z@?$output_processor@DV?$stream_output_adapter@D@__crt_stdio_output@@V?$positional_parameter_base@DV?$stream_output_adapter@D@__crt_stdio_output@@@2@@__crt_stdio_output@@AEAA_NXZ@PEAU1?1??234@AEAA_NXZ@@?$standard_base@DV?$stream_output_adapter@D@__crt_stdio_output@@@__crt_stdio_output@@IEAA_NAEAPEAUansi_string@?1??type_case_Z@?$output_processor@DV?$stream_output_adapter@D@__crt_stdio_output@@V?$positional_parameter_base@DV?$stream_output_adapter@D@__crt_stdio_output@@@2@@1@AEAA_NXZ@@Z 00000001801cf934 f i libucrt:output.obj
 0001:001ce94c       ??$extract_argument_from_va_list@PEAUansi_string@?1??type_case_Z@?$output_processor@DV?$stream_output_adapter@D@__crt_stdio_output@@V?$standard_base@DV?$stream_output_adapter@D@__crt_stdio_output@@@2@@__crt_stdio_output@@AEAA_NXZ@PEAU1?1??234@AEAA_NXZ@@?$standard_base@DV?$stream_output_adapter@D@__crt_stdio_output@@@__crt_stdio_output@@IEAA_NAEAPEAUansi_string@?1??type_case_Z@?$output_processor@DV?$stream_output_adapter@D@__crt_stdio_output@@V?$standard_base@DV?$stream_output_adapter@D@__crt_stdio_output@@@2@@1@AEAA_NXZ@@Z 00000001801cf94c f i libucrt:output.obj
 0001:001ce964       ??$extract_argument_from_va_list@PEAUansi_string@?1??type_case_Z@?$output_processor@DV?$string_output_adapter@D@__crt_stdio_output@@V?$format_validation_base@DV?$string_output_adapter@D@__crt_stdio_output@@@2@@__crt_stdio_output@@AEAA_NXZ@PEAU1?1??234@AEAA_NXZ@@?$standard_base@DV?$string_output_adapter@D@__crt_stdio_output@@@__crt_stdio_output@@IEAA_NAEAPEAUansi_string@?1??type_case_Z@?$output_processor@DV?$string_output_adapter@D@__crt_stdio_output@@V?$format_validation_base@DV?$string_output_adapter@D@__crt_stdio_output@@@2@@1@AEAA_NXZ@@Z 00000001801cf964 f i libucrt:output.obj
 0001:001ce97c       ??$extract_argument_from_va_list@PEAUansi_string@?1??type_case_Z@?$output_processor@DV?$string_output_adapter@D@__crt_stdio_output@@V?$positional_parameter_base@DV?$string_output_adapter@D@__crt_stdio_output@@@2@@__crt_stdio_output@@AEAA_NXZ@PEAU1?1??234@AEAA_NXZ@@?$positional_parameter_base@DV?$string_output_adapter@D@__crt_stdio_output@@@__crt_stdio_output@@IEAA_NAEAPEAUansi_string@?1??type_case_Z@?$output_processor@DV?$string_output_adapter@D@__crt_stdio_output@@V?$positional_parameter_base@DV?$string_output_adapter@D@__crt_stdio_output@@@2@@1@AEAA_NXZ@@Z 00000001801cf97c f i libucrt:output.obj
 0001:001cea70       ??$extract_argument_from_va_list@PEAUansi_string@?1??type_case_Z@?$output_processor@DV?$string_output_adapter@D@__crt_stdio_output@@V?$positional_parameter_base@DV?$string_output_adapter@D@__crt_stdio_output@@@2@@__crt_stdio_output@@AEAA_NXZ@PEAU1?1??234@AEAA_NXZ@@?$standard_base@DV?$string_output_adapter@D@__crt_stdio_output@@@__crt_stdio_output@@IEAA_NAEAPEAUansi_string@?1??type_case_Z@?$output_processor@DV?$string_output_adapter@D@__crt_stdio_output@@V?$positional_parameter_base@DV?$string_output_adapter@D@__crt_stdio_output@@@2@@1@AEAA_NXZ@@Z 00000001801cfa70 f i libucrt:output.obj
 0001:001cea88       ??$extract_argument_from_va_list@PEAUansi_string@?1??type_case_Z@?$output_processor@DV?$string_output_adapter@D@__crt_stdio_output@@V?$standard_base@DV?$string_output_adapter@D@__crt_stdio_output@@@2@@__crt_stdio_output@@AEAA_NXZ@PEAU1?1??234@AEAA_NXZ@@?$standard_base@DV?$string_output_adapter@D@__crt_stdio_output@@@__crt_stdio_output@@IEAA_NAEAPEAUansi_string@?1??type_case_Z@?$output_processor@DV?$string_output_adapter@D@__crt_stdio_output@@V?$standard_base@DV?$string_output_adapter@D@__crt_stdio_output@@@2@@1@AEAA_NXZ@@Z 00000001801cfa88 f i libucrt:output.obj
 0001:001ceaa0       ??$extract_argument_from_va_list@PEAUansi_string@?1??type_case_Z@?$output_processor@_WV?$stream_output_adapter@_W@__crt_stdio_output@@V?$format_validation_base@_WV?$stream_output_adapter@_W@__crt_stdio_output@@@2@@__crt_stdio_output@@AEAA_NXZ@PEAU1?1??234@AEAA_NXZ@@?$standard_base@_WV?$stream_output_adapter@_W@__crt_stdio_output@@@__crt_stdio_output@@IEAA_NAEAPEAUansi_string@?1??type_case_Z@?$output_processor@_WV?$stream_output_adapter@_W@__crt_stdio_output@@V?$format_validation_base@_WV?$stream_output_adapter@_W@__crt_stdio_output@@@2@@1@AEAA_NXZ@@Z 00000001801cfaa0 f i libucrt:output.obj
 0001:001ceab8       ??$extract_argument_from_va_list@PEAUansi_string@?1??type_case_Z@?$output_processor@_WV?$stream_output_adapter@_W@__crt_stdio_output@@V?$positional_parameter_base@_WV?$stream_output_adapter@_W@__crt_stdio_output@@@2@@__crt_stdio_output@@AEAA_NXZ@PEAU1?1??234@AEAA_NXZ@@?$positional_parameter_base@_WV?$stream_output_adapter@_W@__crt_stdio_output@@@__crt_stdio_output@@IEAA_NAEAPEAUansi_string@?1??type_case_Z@?$output_processor@_WV?$stream_output_adapter@_W@__crt_stdio_output@@V?$positional_parameter_base@_WV?$stream_output_adapter@_W@__crt_stdio_output@@@2@@1@AEAA_NXZ@@Z 00000001801cfab8 f i libucrt:output.obj
 0001:001cebac       ??$extract_argument_from_va_list@PEAUansi_string@?1??type_case_Z@?$output_processor@_WV?$stream_output_adapter@_W@__crt_stdio_output@@V?$positional_parameter_base@_WV?$stream_output_adapter@_W@__crt_stdio_output@@@2@@__crt_stdio_output@@AEAA_NXZ@PEAU1?1??234@AEAA_NXZ@@?$standard_base@_WV?$stream_output_adapter@_W@__crt_stdio_output@@@__crt_stdio_output@@IEAA_NAEAPEAUansi_string@?1??type_case_Z@?$output_processor@_WV?$stream_output_adapter@_W@__crt_stdio_output@@V?$positional_parameter_base@_WV?$stream_output_adapter@_W@__crt_stdio_output@@@2@@1@AEAA_NXZ@@Z 00000001801cfbac f i libucrt:output.obj
 0001:001cebc4       ??$extract_argument_from_va_list@PEAUansi_string@?1??type_case_Z@?$output_processor@_WV?$stream_output_adapter@_W@__crt_stdio_output@@V?$standard_base@_WV?$stream_output_adapter@_W@__crt_stdio_output@@@2@@__crt_stdio_output@@AEAA_NXZ@PEAU1?1??234@AEAA_NXZ@@?$standard_base@_WV?$stream_output_adapter@_W@__crt_stdio_output@@@__crt_stdio_output@@IEAA_NAEAPEAUansi_string@?1??type_case_Z@?$output_processor@_WV?$stream_output_adapter@_W@__crt_stdio_output@@V?$standard_base@_WV?$stream_output_adapter@_W@__crt_stdio_output@@@2@@1@AEAA_NXZ@@Z 00000001801cfbc4 f i libucrt:output.obj
 0001:001cebdc       ??$extract_argument_from_va_list@PEAUansi_string@?1??type_case_Z@?$output_processor@_WV?$string_output_adapter@_W@__crt_stdio_output@@V?$format_validation_base@_WV?$string_output_adapter@_W@__crt_stdio_output@@@2@@__crt_stdio_output@@AEAA_NXZ@PEAU1?1??234@AEAA_NXZ@@?$standard_base@_WV?$string_output_adapter@_W@__crt_stdio_output@@@__crt_stdio_output@@IEAA_NAEAPEAUansi_string@?1??type_case_Z@?$output_processor@_WV?$string_output_adapter@_W@__crt_stdio_output@@V?$format_validation_base@_WV?$string_output_adapter@_W@__crt_stdio_output@@@2@@1@AEAA_NXZ@@Z 00000001801cfbdc f i libucrt:output.obj
 0001:001cebf4       ??$extract_argument_from_va_list@PEAUansi_string@?1??type_case_Z@?$output_processor@_WV?$string_output_adapter@_W@__crt_stdio_output@@V?$positional_parameter_base@_WV?$string_output_adapter@_W@__crt_stdio_output@@@2@@__crt_stdio_output@@AEAA_NXZ@PEAU1?1??234@AEAA_NXZ@@?$positional_parameter_base@_WV?$string_output_adapter@_W@__crt_stdio_output@@@__crt_stdio_output@@IEAA_NAEAPEAUansi_string@?1??type_case_Z@?$output_processor@_WV?$string_output_adapter@_W@__crt_stdio_output@@V?$positional_parameter_base@_WV?$string_output_adapter@_W@__crt_stdio_output@@@2@@1@AEAA_NXZ@@Z 00000001801cfbf4 f i libucrt:output.obj
 0001:001cece8       ??$extract_argument_from_va_list@PEAUansi_string@?1??type_case_Z@?$output_processor@_WV?$string_output_adapter@_W@__crt_stdio_output@@V?$positional_parameter_base@_WV?$string_output_adapter@_W@__crt_stdio_output@@@2@@__crt_stdio_output@@AEAA_NXZ@PEAU1?1??234@AEAA_NXZ@@?$standard_base@_WV?$string_output_adapter@_W@__crt_stdio_output@@@__crt_stdio_output@@IEAA_NAEAPEAUansi_string@?1??type_case_Z@?$output_processor@_WV?$string_output_adapter@_W@__crt_stdio_output@@V?$positional_parameter_base@_WV?$string_output_adapter@_W@__crt_stdio_output@@@2@@1@AEAA_NXZ@@Z 00000001801cfce8 f i libucrt:output.obj
 0001:001ced00       ??$extract_argument_from_va_list@PEAUansi_string@?1??type_case_Z@?$output_processor@_WV?$string_output_adapter@_W@__crt_stdio_output@@V?$standard_base@_WV?$string_output_adapter@_W@__crt_stdio_output@@@2@@__crt_stdio_output@@AEAA_NXZ@PEAU1?1??234@AEAA_NXZ@@?$standard_base@_WV?$string_output_adapter@_W@__crt_stdio_output@@@__crt_stdio_output@@IEAA_NAEAPEAUansi_string@?1??type_case_Z@?$output_processor@_WV?$string_output_adapter@_W@__crt_stdio_output@@V?$standard_base@_WV?$string_output_adapter@_W@__crt_stdio_output@@@2@@1@AEAA_NXZ@@Z 00000001801cfd00 f i libucrt:output.obj
 0001:001ced18       ??$extract_argument_from_va_list@PEAXPEAX@?$positional_parameter_base@DV?$stream_output_adapter@D@__crt_stdio_output@@@__crt_stdio_output@@IEAA_NAEAPEAX@Z 00000001801cfd18 f i libucrt:output.obj
 0001:001cee0c       ??$extract_argument_from_va_list@PEAXPEAX@?$positional_parameter_base@DV?$string_output_adapter@D@__crt_stdio_output@@@__crt_stdio_output@@IEAA_NAEAPEAX@Z 00000001801cfe0c f i libucrt:output.obj
 0001:001cef00       ??$extract_argument_from_va_list@PEAXPEAX@?$positional_parameter_base@_WV?$stream_output_adapter@_W@__crt_stdio_output@@@__crt_stdio_output@@IEAA_NAEAPEAX@Z 00000001801cff00 f i libucrt:output.obj
 0001:001ceff4       ??$extract_argument_from_va_list@PEAXPEAX@?$positional_parameter_base@_WV?$string_output_adapter@_W@__crt_stdio_output@@@__crt_stdio_output@@IEAA_NAEAPEAX@Z 00000001801cfff4 f i libucrt:output.obj
 0001:001cf0e8       ??$extract_argument_from_va_list@PEAXPEAX@?$standard_base@DV?$stream_output_adapter@D@__crt_stdio_output@@@__crt_stdio_output@@IEAA_NAEAPEAX@Z 00000001801d00e8 f i libucrt:output.obj
 0001:001cf100       ??$extract_argument_from_va_list@PEAXPEAX@?$standard_base@DV?$string_output_adapter@D@__crt_stdio_output@@@__crt_stdio_output@@IEAA_NAEAPEAX@Z 00000001801d0100 f i libucrt:output.obj
 0001:001cf118       ??$extract_argument_from_va_list@PEAXPEAX@?$standard_base@_WV?$stream_output_adapter@_W@__crt_stdio_output@@@__crt_stdio_output@@IEAA_NAEAPEAX@Z 00000001801d0118 f i libucrt:output.obj
 0001:001cf130       ??$extract_argument_from_va_list@PEAXPEAX@?$standard_base@_WV?$string_output_adapter@_W@__crt_stdio_output@@@__crt_stdio_output@@IEAA_NAEAPEAX@Z 00000001801d0130 f i libucrt:output.obj
 0001:001cf148       ??$extract_argument_from_va_list@U_CRT_DOUBLE@@U1@@?$positional_parameter_base@DV?$stream_output_adapter@D@__crt_stdio_output@@@__crt_stdio_output@@IEAA_NAEAU_CRT_DOUBLE@@@Z 00000001801d0148 f i libucrt:output.obj
 0001:001cf240       ??$extract_argument_from_va_list@U_CRT_DOUBLE@@U1@@?$positional_parameter_base@DV?$string_output_adapter@D@__crt_stdio_output@@@__crt_stdio_output@@IEAA_NAEAU_CRT_DOUBLE@@@Z 00000001801d0240 f i libucrt:output.obj
 0001:001cf338       ??$extract_argument_from_va_list@U_CRT_DOUBLE@@U1@@?$positional_parameter_base@_WV?$stream_output_adapter@_W@__crt_stdio_output@@@__crt_stdio_output@@IEAA_NAEAU_CRT_DOUBLE@@@Z 00000001801d0338 f i libucrt:output.obj
 0001:001cf434       ??$extract_argument_from_va_list@U_CRT_DOUBLE@@U1@@?$positional_parameter_base@_WV?$string_output_adapter@_W@__crt_stdio_output@@@__crt_stdio_output@@IEAA_NAEAU_CRT_DOUBLE@@@Z 00000001801d0434 f i libucrt:output.obj
 0001:001cf530       ??$extract_argument_from_va_list@U_CRT_DOUBLE@@U1@@?$standard_base@DV?$stream_output_adapter@D@__crt_stdio_output@@@__crt_stdio_output@@IEAA_NAEAU_CRT_DOUBLE@@@Z 00000001801d0530 f i libucrt:output.obj
 0001:001cf54c       ??$extract_argument_from_va_list@U_CRT_DOUBLE@@U1@@?$standard_base@DV?$string_output_adapter@D@__crt_stdio_output@@@__crt_stdio_output@@IEAA_NAEAU_CRT_DOUBLE@@@Z 00000001801d054c f i libucrt:output.obj
 0001:001cf568       ??$extract_argument_from_va_list@U_CRT_DOUBLE@@U1@@?$standard_base@_WV?$stream_output_adapter@_W@__crt_stdio_output@@@__crt_stdio_output@@IEAA_NAEAU_CRT_DOUBLE@@@Z 00000001801d0568 f i libucrt:output.obj
 0001:001cf584       ??$extract_argument_from_va_list@U_CRT_DOUBLE@@U1@@?$standard_base@_WV?$string_output_adapter@_W@__crt_stdio_output@@@__crt_stdio_output@@IEAA_NAEAU_CRT_DOUBLE@@@Z 00000001801d0584 f i libucrt:output.obj
 0001:001cf5a0       ??$extract_argument_from_va_list@_J_J@?$positional_parameter_base@DV?$stream_output_adapter@D@__crt_stdio_output@@@__crt_stdio_output@@IEAA_NAEA_J@Z 00000001801d05a0 f i libucrt:output.obj
 0001:001cf694       ??$extract_argument_from_va_list@_J_J@?$positional_parameter_base@DV?$string_output_adapter@D@__crt_stdio_output@@@__crt_stdio_output@@IEAA_NAEA_J@Z 00000001801d0694 f i libucrt:output.obj
 0001:001cf788       ??$extract_argument_from_va_list@_J_J@?$positional_parameter_base@_WV?$stream_output_adapter@_W@__crt_stdio_output@@@__crt_stdio_output@@IEAA_NAEA_J@Z 00000001801d0788 f i libucrt:output.obj
 0001:001cf87c       ??$extract_argument_from_va_list@_J_J@?$positional_parameter_base@_WV?$string_output_adapter@_W@__crt_stdio_output@@@__crt_stdio_output@@IEAA_NAEA_J@Z 00000001801d087c f i libucrt:output.obj
 0001:001cf970       ??$extract_argument_from_va_list@_J_J@?$standard_base@DV?$stream_output_adapter@D@__crt_stdio_output@@@__crt_stdio_output@@IEAA_NAEA_J@Z 00000001801d0970 f i libucrt:output.obj
 0001:001cf988       ??$extract_argument_from_va_list@_J_J@?$standard_base@DV?$string_output_adapter@D@__crt_stdio_output@@@__crt_stdio_output@@IEAA_NAEA_J@Z 00000001801d0988 f i libucrt:output.obj
 0001:001cf9a0       ??$extract_argument_from_va_list@_J_J@?$standard_base@_WV?$stream_output_adapter@_W@__crt_stdio_output@@@__crt_stdio_output@@IEAA_NAEA_J@Z 00000001801d09a0 f i libucrt:output.obj
 0001:001cf9b8       ??$extract_argument_from_va_list@_J_J@?$standard_base@_WV?$string_output_adapter@_W@__crt_stdio_output@@@__crt_stdio_output@@IEAA_NAEA_J@Z 00000001801d09b8 f i libucrt:output.obj
 0001:001cf9d0       ??$extract_argument_from_va_list@_K_J@?$positional_parameter_base@DV?$stream_output_adapter@D@__crt_stdio_output@@@__crt_stdio_output@@IEAA_NAEA_J@Z 00000001801d09d0 f i libucrt:output.obj
 0001:001cfac4       ??$extract_argument_from_va_list@_K_J@?$positional_parameter_base@DV?$string_output_adapter@D@__crt_stdio_output@@@__crt_stdio_output@@IEAA_NAEA_J@Z 00000001801d0ac4 f i libucrt:output.obj
 0001:001cfbb8       ??$extract_argument_from_va_list@_K_J@?$positional_parameter_base@_WV?$stream_output_adapter@_W@__crt_stdio_output@@@__crt_stdio_output@@IEAA_NAEA_J@Z 00000001801d0bb8 f i libucrt:output.obj
 0001:001cfcac       ??$extract_argument_from_va_list@_K_J@?$positional_parameter_base@_WV?$string_output_adapter@_W@__crt_stdio_output@@@__crt_stdio_output@@IEAA_NAEA_J@Z 00000001801d0cac f i libucrt:output.obj
 0001:001cfda0       ??$extract_argument_from_va_list@_K_J@?$standard_base@DV?$stream_output_adapter@D@__crt_stdio_output@@@__crt_stdio_output@@IEAA_NAEA_J@Z 00000001801d0da0 f i libucrt:output.obj
 0001:001cfdb8       ??$extract_argument_from_va_list@_K_J@?$standard_base@DV?$string_output_adapter@D@__crt_stdio_output@@@__crt_stdio_output@@IEAA_NAEA_J@Z 00000001801d0db8 f i libucrt:output.obj
 0001:001cfdd0       ??$extract_argument_from_va_list@_K_J@?$standard_base@_WV?$stream_output_adapter@_W@__crt_stdio_output@@@__crt_stdio_output@@IEAA_NAEA_J@Z 00000001801d0dd0 f i libucrt:output.obj
 0001:001cfde8       ??$extract_argument_from_va_list@_K_J@?$standard_base@_WV?$string_output_adapter@_W@__crt_stdio_output@@@__crt_stdio_output@@IEAA_NAEA_J@Z 00000001801d0de8 f i libucrt:output.obj
 0001:001cfe00       ??$extract_argument_from_va_list@_W_W@?$positional_parameter_base@DV?$stream_output_adapter@D@__crt_stdio_output@@@__crt_stdio_output@@IEAA_NAEA_W@Z 00000001801d0e00 f i libucrt:output.obj
 0001:001cfef4       ??$extract_argument_from_va_list@_W_W@?$positional_parameter_base@DV?$string_output_adapter@D@__crt_stdio_output@@@__crt_stdio_output@@IEAA_NAEA_W@Z 00000001801d0ef4 f i libucrt:output.obj
 0001:001cffe8       ??$extract_argument_from_va_list@_W_W@?$positional_parameter_base@_WV?$stream_output_adapter@_W@__crt_stdio_output@@@__crt_stdio_output@@IEAA_NAEA_W@Z 00000001801d0fe8 f i libucrt:output.obj
 0001:001d00e0       ??$extract_argument_from_va_list@_W_W@?$positional_parameter_base@_WV?$string_output_adapter@_W@__crt_stdio_output@@@__crt_stdio_output@@IEAA_NAEA_W@Z 00000001801d10e0 f i libucrt:output.obj
 0001:001d01d8       ??$extract_argument_from_va_list@_W_W@?$standard_base@DV?$stream_output_adapter@D@__crt_stdio_output@@@__crt_stdio_output@@IEAA_NAEA_W@Z 00000001801d11d8 f i libucrt:output.obj
 0001:001d01f0       ??$extract_argument_from_va_list@_W_W@?$standard_base@DV?$string_output_adapter@D@__crt_stdio_output@@@__crt_stdio_output@@IEAA_NAEA_W@Z 00000001801d11f0 f i libucrt:output.obj
 0001:001d0208       ??$extract_argument_from_va_list@_W_W@?$standard_base@_WV?$stream_output_adapter@_W@__crt_stdio_output@@@__crt_stdio_output@@IEAA_NAEA_W@Z 00000001801d1208 f i libucrt:output.obj
 0001:001d0220       ??$extract_argument_from_va_list@_W_W@?$standard_base@_WV?$string_output_adapter@_W@__crt_stdio_output@@@__crt_stdio_output@@IEAA_NAEA_W@Z 00000001801d1220 f i libucrt:output.obj
 0001:001d0238       ??$get_parameter_type@D@?$positional_parameter_base@DV?$stream_output_adapter@D@__crt_stdio_output@@@__crt_stdio_output@@CA?AW4parameter_type@01@PEAD@Z 00000001801d1238 f i libucrt:output.obj
 0001:001d0240       ??$get_parameter_type@D@?$positional_parameter_base@DV?$string_output_adapter@D@__crt_stdio_output@@@__crt_stdio_output@@CA?AW4parameter_type@01@PEAD@Z 00000001801d1240 f i libucrt:output.obj
 0001:001d0248       ??$get_parameter_type@D@?$positional_parameter_base@_WV?$stream_output_adapter@_W@__crt_stdio_output@@@__crt_stdio_output@@CA?AW4parameter_type@01@PEAD@Z 00000001801d1248 f i libucrt:output.obj
 0001:001d0250       ??$get_parameter_type@D@?$positional_parameter_base@_WV?$string_output_adapter@_W@__crt_stdio_output@@@__crt_stdio_output@@CA?AW4parameter_type@01@PEAD@Z 00000001801d1250 f i libucrt:output.obj
 0001:001d0258       ??$get_parameter_type@Uansi_string@?1??type_case_Z@?$output_processor@DV?$stream_output_adapter@D@__crt_stdio_output@@V?$positional_parameter_base@DV?$stream_output_adapter@D@__crt_stdio_output@@@2@@__crt_stdio_output@@AEAA_NXZ@@?$positional_parameter_base@DV?$stream_output_adapter@D@__crt_stdio_output@@@__crt_stdio_output@@CA?AW4parameter_type@01@PEAUansi_string@?1??type_case_Z@?$output_processor@DV?$stream_output_adapter@D@__crt_stdio_output@@V?$positional_parameter_base@DV?$stream_output_adapter@D@__crt_stdio_output@@@2@@1@AEAA_NXZ@@Z 00000001801d1258 f i libucrt:output.obj
 0001:001d0260       ??$get_parameter_type@Uansi_string@?1??type_case_Z@?$output_processor@DV?$string_output_adapter@D@__crt_stdio_output@@V?$positional_parameter_base@DV?$string_output_adapter@D@__crt_stdio_output@@@2@@__crt_stdio_output@@AEAA_NXZ@@?$positional_parameter_base@DV?$string_output_adapter@D@__crt_stdio_output@@@__crt_stdio_output@@CA?AW4parameter_type@01@PEAUansi_string@?1??type_case_Z@?$output_processor@DV?$string_output_adapter@D@__crt_stdio_output@@V?$positional_parameter_base@DV?$string_output_adapter@D@__crt_stdio_output@@@2@@1@AEAA_NXZ@@Z 00000001801d1260 f i libucrt:output.obj
 0001:001d0268       ??$get_parameter_type@Uansi_string@?1??type_case_Z@?$output_processor@_WV?$stream_output_adapter@_W@__crt_stdio_output@@V?$positional_parameter_base@_WV?$stream_output_adapter@_W@__crt_stdio_output@@@2@@__crt_stdio_output@@AEAA_NXZ@@?$positional_parameter_base@_WV?$stream_output_adapter@_W@__crt_stdio_output@@@__crt_stdio_output@@CA?AW4parameter_type@01@PEAUansi_string@?1??type_case_Z@?$output_processor@_WV?$stream_output_adapter@_W@__crt_stdio_output@@V?$positional_parameter_base@_WV?$stream_output_adapter@_W@__crt_stdio_output@@@2@@1@AEAA_NXZ@@Z 00000001801d1268 f i libucrt:output.obj
 0001:001d0270       ??$get_parameter_type@Uansi_string@?1??type_case_Z@?$output_processor@_WV?$string_output_adapter@_W@__crt_stdio_output@@V?$positional_parameter_base@_WV?$string_output_adapter@_W@__crt_stdio_output@@@2@@__crt_stdio_output@@AEAA_NXZ@@?$positional_parameter_base@_WV?$string_output_adapter@_W@__crt_stdio_output@@@__crt_stdio_output@@CA?AW4parameter_type@01@PEAUansi_string@?1??type_case_Z@?$output_processor@_WV?$string_output_adapter@_W@__crt_stdio_output@@V?$positional_parameter_base@_WV?$string_output_adapter@_W@__crt_stdio_output@@@2@@1@AEAA_NXZ@@Z 00000001801d1270 f i libucrt:output.obj
 0001:001d0278       ??$get_parameter_type@X@?$positional_parameter_base@DV?$stream_output_adapter@D@__crt_stdio_output@@@__crt_stdio_output@@CA?AW4parameter_type@01@PEAX@Z 00000001801d1278 f i libucrt:output.obj
 0001:001d0280       ??$get_parameter_type@X@?$positional_parameter_base@DV?$string_output_adapter@D@__crt_stdio_output@@@__crt_stdio_output@@CA?AW4parameter_type@01@PEAX@Z 00000001801d1280 f i libucrt:output.obj
 0001:001d0288       ??$get_parameter_type@X@?$positional_parameter_base@_WV?$stream_output_adapter@_W@__crt_stdio_output@@@__crt_stdio_output@@CA?AW4parameter_type@01@PEAX@Z 00000001801d1288 f i libucrt:output.obj
 0001:001d0290       ??$get_parameter_type@X@?$positional_parameter_base@_WV?$string_output_adapter@_W@__crt_stdio_output@@@__crt_stdio_output@@CA?AW4parameter_type@01@PEAX@Z 00000001801d1290 f i libucrt:output.obj
 0001:001d0298       ??$is_character_specifier@D@?$positional_parameter_base@DV?$stream_output_adapter@D@__crt_stdio_output@@@__crt_stdio_output@@CA_ND@Z 00000001801d1298 f i libucrt:output.obj
 0001:001d02a4       ??$is_character_specifier@D@?$positional_parameter_base@DV?$string_output_adapter@D@__crt_stdio_output@@@__crt_stdio_output@@CA_ND@Z 00000001801d12a4 f i libucrt:output.obj
 0001:001d02b0       ??$is_character_specifier@_W@?$positional_parameter_base@_WV?$stream_output_adapter@_W@__crt_stdio_output@@@__crt_stdio_output@@CA_N_W@Z 00000001801d12b0 f i libucrt:output.obj
 0001:001d02c4       ??$is_character_specifier@_W@?$positional_parameter_base@_WV?$string_output_adapter@_W@__crt_stdio_output@@@__crt_stdio_output@@CA_N_W@Z 00000001801d12c4 f i libucrt:output.obj
 0001:001d02d8       ??$is_integral_specifier@D@?$positional_parameter_base@DV?$stream_output_adapter@D@__crt_stdio_output@@@__crt_stdio_output@@CA_ND@Z 00000001801d12d8 f i libucrt:output.obj
 0001:001d0308       ??$is_integral_specifier@D@?$positional_parameter_base@DV?$string_output_adapter@D@__crt_stdio_output@@@__crt_stdio_output@@CA_ND@Z 00000001801d1308 f i libucrt:output.obj
 0001:001d0338       ??$is_integral_specifier@_W@?$positional_parameter_base@_WV?$stream_output_adapter@_W@__crt_stdio_output@@@__crt_stdio_output@@CA_N_W@Z 00000001801d1338 f i libucrt:output.obj
 0001:001d036c       ??$is_integral_specifier@_W@?$positional_parameter_base@_WV?$string_output_adapter@_W@__crt_stdio_output@@@__crt_stdio_output@@CA_N_W@Z 00000001801d136c f i libucrt:output.obj
 0001:001d03a0       ??$is_pointer_specifier@D@?$positional_parameter_base@DV?$stream_output_adapter@D@__crt_stdio_output@@@__crt_stdio_output@@CA_ND@Z 00000001801d13a0 f i libucrt:output.obj
 0001:001d03a8       ??$is_pointer_specifier@D@?$positional_parameter_base@DV?$string_output_adapter@D@__crt_stdio_output@@@__crt_stdio_output@@CA_ND@Z 00000001801d13a8 f i libucrt:output.obj
 0001:001d03b0       ??$is_pointer_specifier@_W@?$positional_parameter_base@_WV?$stream_output_adapter@_W@__crt_stdio_output@@@__crt_stdio_output@@CA_N_W@Z 00000001801d13b0 f i libucrt:output.obj
 0001:001d03bc       ??$is_pointer_specifier@_W@?$positional_parameter_base@_WV?$string_output_adapter@_W@__crt_stdio_output@@@__crt_stdio_output@@CA_N_W@Z 00000001801d13bc f i libucrt:output.obj
 0001:001d03c8       ??$is_string_specifier@D@?$positional_parameter_base@DV?$stream_output_adapter@D@__crt_stdio_output@@@__crt_stdio_output@@CA_ND@Z 00000001801d13c8 f i libucrt:output.obj
 0001:001d03d4       ??$is_string_specifier@D@?$positional_parameter_base@DV?$string_output_adapter@D@__crt_stdio_output@@@__crt_stdio_output@@CA_ND@Z 00000001801d13d4 f i libucrt:output.obj
 0001:001d03e0       ??$is_string_specifier@_W@?$positional_parameter_base@_WV?$stream_output_adapter@_W@__crt_stdio_output@@@__crt_stdio_output@@CA_N_W@Z 00000001801d13e0 f i libucrt:output.obj
 0001:001d03f4       ??$is_string_specifier@_W@?$positional_parameter_base@_WV?$string_output_adapter@_W@__crt_stdio_output@@@__crt_stdio_output@@CA_N_W@Z 00000001801d13f4 f i libucrt:output.obj
 0001:001d0408       ??$is_wide_character_specifier@D@__crt_stdio_output@@YA_N_KDW4length_modifier@0@@Z 00000001801d1408 f i libucrt:output.obj
 0001:001d0444       ??$is_wide_character_specifier@_W@__crt_stdio_output@@YA_N_K_WW4length_modifier@0@@Z 00000001801d1444 f i libucrt:output.obj
 0001:001d049c       ??$peek_va_arg@C@__crt_stdio_output@@YACPEAD@Z 00000001801d149c f i libucrt:output.obj
 0001:001d04a0       ??$peek_va_arg@E@__crt_stdio_output@@YAEPEAD@Z 00000001801d14a0 f i libucrt:output.obj
 0001:001d04a4       ??$peek_va_arg@F@__crt_stdio_output@@YAFPEAD@Z 00000001801d14a4 f i libucrt:output.obj
 0001:001d04a8       ??$peek_va_arg@G@__crt_stdio_output@@YAGPEAD@Z 00000001801d14a8 f i libucrt:output.obj
 0001:001d04ac       ??$peek_va_arg@H@__crt_stdio_output@@YAHPEAD@Z 00000001801d14ac f i libucrt:output.obj
 0001:001d04b0       ??$peek_va_arg@I@__crt_stdio_output@@YAIPEAD@Z 00000001801d14b0 f i libucrt:output.obj
 0001:001d04b4       ??$peek_va_arg@PEAD@__crt_stdio_output@@YAPEADPEAD@Z 00000001801d14b4 f i libucrt:output.obj
 0001:001d04b8       ??$peek_va_arg@PEAUansi_string@?1??type_case_Z@?$output_processor@DV?$stream_output_adapter@D@__crt_stdio_output@@V?$positional_parameter_base@DV?$stream_output_adapter@D@__crt_stdio_output@@@2@@__crt_stdio_output@@AEAA_NXZ@@__crt_stdio_output@@YAPEAUansi_string@?1??type_case_Z@?$output_processor@DV?$stream_output_adapter@D@__crt_stdio_output@@V?$positional_parameter_base@DV?$stream_output_adapter@D@__crt_stdio_output@@@2@@0@AEAA_NXZ@PEAD@Z 00000001801d14b8 f i libucrt:output.obj
 0001:001d04bc       ??$peek_va_arg@PEAUansi_string@?1??type_case_Z@?$output_processor@DV?$string_output_adapter@D@__crt_stdio_output@@V?$positional_parameter_base@DV?$string_output_adapter@D@__crt_stdio_output@@@2@@__crt_stdio_output@@AEAA_NXZ@@__crt_stdio_output@@YAPEAUansi_string@?1??type_case_Z@?$output_processor@DV?$string_output_adapter@D@__crt_stdio_output@@V?$positional_parameter_base@DV?$string_output_adapter@D@__crt_stdio_output@@@2@@0@AEAA_NXZ@PEAD@Z 00000001801d14bc f i libucrt:output.obj
 0001:001d04c0       ??$peek_va_arg@PEAUansi_string@?1??type_case_Z@?$output_processor@_WV?$stream_output_adapter@_W@__crt_stdio_output@@V?$positional_parameter_base@_WV?$stream_output_adapter@_W@__crt_stdio_output@@@2@@__crt_stdio_output@@AEAA_NXZ@@__crt_stdio_output@@YAPEAUansi_string@?1??type_case_Z@?$output_processor@_WV?$stream_output_adapter@_W@__crt_stdio_output@@V?$positional_parameter_base@_WV?$stream_output_adapter@_W@__crt_stdio_output@@@2@@0@AEAA_NXZ@PEAD@Z 00000001801d14c0 f i libucrt:output.obj
 0001:001d04c4       ??$peek_va_arg@PEAUansi_string@?1??type_case_Z@?$output_processor@_WV?$string_output_adapter@_W@__crt_stdio_output@@V?$positional_parameter_base@_WV?$string_output_adapter@_W@__crt_stdio_output@@@2@@__crt_stdio_output@@AEAA_NXZ@@__crt_stdio_output@@YAPEAUansi_string@?1??type_case_Z@?$output_processor@_WV?$string_output_adapter@_W@__crt_stdio_output@@V?$positional_parameter_base@_WV?$string_output_adapter@_W@__crt_stdio_output@@@2@@0@AEAA_NXZ@PEAD@Z 00000001801d14c4 f i libucrt:output.obj
 0001:001d04c8       ??$peek_va_arg@PEAX@__crt_stdio_output@@YAPEAXPEAD@Z 00000001801d14c8 f i libucrt:output.obj
 0001:001d04cc       ??$peek_va_arg@U_CRT_DOUBLE@@@__crt_stdio_output@@YA?AU_CRT_DOUBLE@@PEAD@Z 00000001801d14cc f i libucrt:output.obj
 0001:001d04d0       ??$peek_va_arg@_J@__crt_stdio_output@@YA_JPEAD@Z 00000001801d14d0 f i libucrt:output.obj
 0001:001d04d4       ??$peek_va_arg@_K@__crt_stdio_output@@YA_KPEAD@Z 00000001801d14d4 f i libucrt:output.obj
 0001:001d04d8       ??$peek_va_arg@_W@__crt_stdio_output@@YA_WPEAD@Z 00000001801d14d8 f i libucrt:output.obj
 0001:001d04dc       ??$puttc_nolock@AEBDPEAU_iobuf@@@?$__crt_char_traits@D@@SAHAEBD$$QEAPEAU_iobuf@@@Z 00000001801d14dc f i libucrt:output.obj
 0001:001d04ec       ??$puttc_nolock@AEB_WPEAU_iobuf@@@?$__crt_char_traits@_W@@SAGAEB_W$$QEAPEAU_iobuf@@@Z 00000001801d14ec f i libucrt:output.obj
 0001:001d04fc       ??$read_va_arg@C@__crt_stdio_output@@YACAEAPEAD@Z 00000001801d14fc f i libucrt:output.obj
 0001:001d050c       ??$read_va_arg@E@__crt_stdio_output@@YAEAEAPEAD@Z 00000001801d150c f i libucrt:output.obj
 0001:001d051c       ??$read_va_arg@F@__crt_stdio_output@@YAFAEAPEAD@Z 00000001801d151c f i libucrt:output.obj
 0001:001d052c       ??$read_va_arg@G@__crt_stdio_output@@YAGAEAPEAD@Z 00000001801d152c f i libucrt:output.obj
 0001:001d053c       ??$read_va_arg@H@__crt_stdio_output@@YAHAEAPEAD@Z 00000001801d153c f i libucrt:output.obj
 0001:001d054c       ??$read_va_arg@I@__crt_stdio_output@@YAIAEAPEAD@Z 00000001801d154c f i libucrt:output.obj
 0001:001d055c       ??$read_va_arg@PEAD@__crt_stdio_output@@YAPEADAEAPEAD@Z 00000001801d155c f i libucrt:output.obj
 0001:001d056c       ??$read_va_arg@PEAUansi_string@?1??type_case_Z@?$output_processor@DV?$stream_output_adapter@D@__crt_stdio_output@@V?$format_validation_base@DV?$stream_output_adapter@D@__crt_stdio_output@@@2@@__crt_stdio_output@@AEAA_NXZ@@__crt_stdio_output@@YAPEAUansi_string@?1??type_case_Z@?$output_processor@DV?$stream_output_adapter@D@__crt_stdio_output@@V?$format_validation_base@DV?$stream_output_adapter@D@__crt_stdio_output@@@2@@0@AEAA_NXZ@AEAPEAD@Z 00000001801d156c f i libucrt:output.obj
 0001:001d057c       ??$read_va_arg@PEAUansi_string@?1??type_case_Z@?$output_processor@DV?$stream_output_adapter@D@__crt_stdio_output@@V?$positional_parameter_base@DV?$stream_output_adapter@D@__crt_stdio_output@@@2@@__crt_stdio_output@@AEAA_NXZ@@__crt_stdio_output@@YAPEAUansi_string@?1??type_case_Z@?$output_processor@DV?$stream_output_adapter@D@__crt_stdio_output@@V?$positional_parameter_base@DV?$stream_output_adapter@D@__crt_stdio_output@@@2@@0@AEAA_NXZ@AEAPEAD@Z 00000001801d157c f i libucrt:output.obj
 0001:001d058c       ??$read_va_arg@PEAUansi_string@?1??type_case_Z@?$output_processor@DV?$stream_output_adapter@D@__crt_stdio_output@@V?$standard_base@DV?$stream_output_adapter@D@__crt_stdio_output@@@2@@__crt_stdio_output@@AEAA_NXZ@@__crt_stdio_output@@YAPEAUansi_string@?1??type_case_Z@?$output_processor@DV?$stream_output_adapter@D@__crt_stdio_output@@V?$standard_base@DV?$stream_output_adapter@D@__crt_stdio_output@@@2@@0@AEAA_NXZ@AEAPEAD@Z 00000001801d158c f i libucrt:output.obj
 0001:001d059c       ??$read_va_arg@PEAUansi_string@?1??type_case_Z@?$output_processor@DV?$string_output_adapter@D@__crt_stdio_output@@V?$format_validation_base@DV?$string_output_adapter@D@__crt_stdio_output@@@2@@__crt_stdio_output@@AEAA_NXZ@@__crt_stdio_output@@YAPEAUansi_string@?1??type_case_Z@?$output_processor@DV?$string_output_adapter@D@__crt_stdio_output@@V?$format_validation_base@DV?$string_output_adapter@D@__crt_stdio_output@@@2@@0@AEAA_NXZ@AEAPEAD@Z 00000001801d159c f i libucrt:output.obj
 0001:001d05ac       ??$read_va_arg@PEAUansi_string@?1??type_case_Z@?$output_processor@DV?$string_output_adapter@D@__crt_stdio_output@@V?$positional_parameter_base@DV?$string_output_adapter@D@__crt_stdio_output@@@2@@__crt_stdio_output@@AEAA_NXZ@@__crt_stdio_output@@YAPEAUansi_string@?1??type_case_Z@?$output_processor@DV?$string_output_adapter@D@__crt_stdio_output@@V?$positional_parameter_base@DV?$string_output_adapter@D@__crt_stdio_output@@@2@@0@AEAA_NXZ@AEAPEAD@Z 00000001801d15ac f i libucrt:output.obj
 0001:001d05bc       ??$read_va_arg@PEAUansi_string@?1??type_case_Z@?$output_processor@DV?$string_output_adapter@D@__crt_stdio_output@@V?$standard_base@DV?$string_output_adapter@D@__crt_stdio_output@@@2@@__crt_stdio_output@@AEAA_NXZ@@__crt_stdio_output@@YAPEAUansi_string@?1??type_case_Z@?$output_processor@DV?$string_output_adapter@D@__crt_stdio_output@@V?$standard_base@DV?$string_output_adapter@D@__crt_stdio_output@@@2@@0@AEAA_NXZ@AEAPEAD@Z 00000001801d15bc f i libucrt:output.obj
 0001:001d05cc       ??$read_va_arg@PEAUansi_string@?1??type_case_Z@?$output_processor@_WV?$stream_output_adapter@_W@__crt_stdio_output@@V?$format_validation_base@_WV?$stream_output_adapter@_W@__crt_stdio_output@@@2@@__crt_stdio_output@@AEAA_NXZ@@__crt_stdio_output@@YAPEAUansi_string@?1??type_case_Z@?$output_processor@_WV?$stream_output_adapter@_W@__crt_stdio_output@@V?$format_validation_base@_WV?$stream_output_adapter@_W@__crt_stdio_output@@@2@@0@AEAA_NXZ@AEAPEAD@Z 00000001801d15cc f i libucrt:output.obj
 0001:001d05dc       ??$read_va_arg@PEAUansi_string@?1??type_case_Z@?$output_processor@_WV?$stream_output_adapter@_W@__crt_stdio_output@@V?$positional_parameter_base@_WV?$stream_output_adapter@_W@__crt_stdio_output@@@2@@__crt_stdio_output@@AEAA_NXZ@@__crt_stdio_output@@YAPEAUansi_string@?1??type_case_Z@?$output_processor@_WV?$stream_output_adapter@_W@__crt_stdio_output@@V?$positional_parameter_base@_WV?$stream_output_adapter@_W@__crt_stdio_output@@@2@@0@AEAA_NXZ@AEAPEAD@Z 00000001801d15dc f i libucrt:output.obj
 0001:001d05ec       ??$read_va_arg@PEAUansi_string@?1??type_case_Z@?$output_processor@_WV?$stream_output_adapter@_W@__crt_stdio_output@@V?$standard_base@_WV?$stream_output_adapter@_W@__crt_stdio_output@@@2@@__crt_stdio_output@@AEAA_NXZ@@__crt_stdio_output@@YAPEAUansi_string@?1??type_case_Z@?$output_processor@_WV?$stream_output_adapter@_W@__crt_stdio_output@@V?$standard_base@_WV?$stream_output_adapter@_W@__crt_stdio_output@@@2@@0@AEAA_NXZ@AEAPEAD@Z 00000001801d15ec f i libucrt:output.obj
 0001:001d05fc       ??$read_va_arg@PEAUansi_string@?1??type_case_Z@?$output_processor@_WV?$string_output_adapter@_W@__crt_stdio_output@@V?$format_validation_base@_WV?$string_output_adapter@_W@__crt_stdio_output@@@2@@__crt_stdio_output@@AEAA_NXZ@@__crt_stdio_output@@YAPEAUansi_string@?1??type_case_Z@?$output_processor@_WV?$string_output_adapter@_W@__crt_stdio_output@@V?$format_validation_base@_WV?$string_output_adapter@_W@__crt_stdio_output@@@2@@0@AEAA_NXZ@AEAPEAD@Z 00000001801d15fc f i libucrt:output.obj
 0001:001d060c       ??$read_va_arg@PEAUansi_string@?1??type_case_Z@?$output_processor@_WV?$string_output_adapter@_W@__crt_stdio_output@@V?$positional_parameter_base@_WV?$string_output_adapter@_W@__crt_stdio_output@@@2@@__crt_stdio_output@@AEAA_NXZ@@__crt_stdio_output@@YAPEAUansi_string@?1??type_case_Z@?$output_processor@_WV?$string_output_adapter@_W@__crt_stdio_output@@V?$positional_parameter_base@_WV?$string_output_adapter@_W@__crt_stdio_output@@@2@@0@AEAA_NXZ@AEAPEAD@Z 00000001801d160c f i libucrt:output.obj
 0001:001d061c       ??$read_va_arg@PEAUansi_string@?1??type_case_Z@?$output_processor@_WV?$string_output_adapter@_W@__crt_stdio_output@@V?$standard_base@_WV?$string_output_adapter@_W@__crt_stdio_output@@@2@@__crt_stdio_output@@AEAA_NXZ@@__crt_stdio_output@@YAPEAUansi_string@?1??type_case_Z@?$output_processor@_WV?$string_output_adapter@_W@__crt_stdio_output@@V?$standard_base@_WV?$string_output_adapter@_W@__crt_stdio_output@@@2@@0@AEAA_NXZ@AEAPEAD@Z 00000001801d161c f i libucrt:output.obj
 0001:001d062c       ??$read_va_arg@PEAX@__crt_stdio_output@@YAPEAXAEAPEAD@Z 00000001801d162c f i libucrt:output.obj
 0001:001d063c       ??$read_va_arg@U_CRT_DOUBLE@@@__crt_stdio_output@@YA?AU_CRT_DOUBLE@@AEAPEAD@Z 00000001801d163c f i libucrt:output.obj
 0001:001d064c       ??$read_va_arg@_J@__crt_stdio_output@@YA_JAEAPEAD@Z 00000001801d164c f i libucrt:output.obj
 0001:001d065c       ??$read_va_arg@_K@__crt_stdio_output@@YA_KAEAPEAD@Z 00000001801d165c f i libucrt:output.obj
 0001:001d066c       ??$read_va_arg@_W@__crt_stdio_output@@YA_WAEAPEAD@Z 00000001801d166c f i libucrt:output.obj
 0001:001d067c       ??$scratch_count@D@formatting_buffer@__crt_stdio_output@@QEBA_KXZ 00000001801d167c f i libucrt:output.obj
 0001:001d06a0       ??$scratch_data@D@formatting_buffer@__crt_stdio_output@@QEAAPEADXZ 00000001801d16a0 f i libucrt:output.obj
 0001:001d06cc       ??$tcstol@AEAPEBDPEAPEADH@?$__crt_char_traits@D@@SAJAEAPEBD$$QEAPEAPEAD$$QEAH@Z 00000001801d16cc f i libucrt:output.obj
 0001:001d06e0       ??$tcstol@AEAPEB_WPEAPEA_WH@?$__crt_char_traits@_W@@SAJAEAPEB_W$$QEAPEAPEA_W$$QEAH@Z 00000001801d16e0 f i libucrt:output.obj
 0001:001d06f4       ??$tcstol@PEBDPEAPEADH@?$__crt_char_traits@D@@SAJ$$QEAPEBD$$QEAPEAPEAD$$QEAH@Z 00000001801d16f4 f i libucrt:output.obj
 0001:001d0708       ??$tcstol@PEB_WPEAPEA_WH@?$__crt_char_traits@_W@@SAJ$$QEAPEB_W$$QEAPEAPEA_W$$QEAH@Z 00000001801d1708 f i libucrt:output.obj
 0001:001d071c       ??$type_case_integer_parse_into_buffer@I@?$output_processor@DV?$stream_output_adapter@D@__crt_stdio_output@@V?$format_validation_base@DV?$stream_output_adapter@D@__crt_stdio_output@@@2@@__crt_stdio_output@@AEAAXII_N@Z 00000001801d171c f i libucrt:output.obj
 0001:001d07e0       ??$type_case_integer_parse_into_buffer@I@?$output_processor@DV?$stream_output_adapter@D@__crt_stdio_output@@V?$positional_parameter_base@DV?$stream_output_adapter@D@__crt_stdio_output@@@2@@__crt_stdio_output@@AEAAXII_N@Z 00000001801d17e0 f i libucrt:output.obj
 0001:001d08a4       ??$type_case_integer_parse_into_buffer@I@?$output_processor@DV?$stream_output_adapter@D@__crt_stdio_output@@V?$standard_base@DV?$stream_output_adapter@D@__crt_stdio_output@@@2@@__crt_stdio_output@@AEAAXII_N@Z 00000001801d18a4 f i libucrt:output.obj
 0001:001d0968       ??$type_case_integer_parse_into_buffer@I@?$output_processor@DV?$string_output_adapter@D@__crt_stdio_output@@V?$format_validation_base@DV?$string_output_adapter@D@__crt_stdio_output@@@2@@__crt_stdio_output@@AEAAXII_N@Z 00000001801d1968 f i libucrt:output.obj
 0001:001d0a2c       ??$type_case_integer_parse_into_buffer@I@?$output_processor@DV?$string_output_adapter@D@__crt_stdio_output@@V?$positional_parameter_base@DV?$string_output_adapter@D@__crt_stdio_output@@@2@@__crt_stdio_output@@AEAAXII_N@Z 00000001801d1a2c f i libucrt:output.obj
 0001:001d0af0       ??$type_case_integer_parse_into_buffer@I@?$output_processor@DV?$string_output_adapter@D@__crt_stdio_output@@V?$standard_base@DV?$string_output_adapter@D@__crt_stdio_output@@@2@@__crt_stdio_output@@AEAAXII_N@Z 00000001801d1af0 f i libucrt:output.obj
 0001:001d0bb4       ??$type_case_integer_parse_into_buffer@I@?$output_processor@_WV?$stream_output_adapter@_W@__crt_stdio_output@@V?$format_validation_base@_WV?$stream_output_adapter@_W@__crt_stdio_output@@@2@@__crt_stdio_output@@AEAAXII_N@Z 00000001801d1bb4 f i libucrt:output.obj
 0001:001d0c78       ??$type_case_integer_parse_into_buffer@I@?$output_processor@_WV?$stream_output_adapter@_W@__crt_stdio_output@@V?$positional_parameter_base@_WV?$stream_output_adapter@_W@__crt_stdio_output@@@2@@__crt_stdio_output@@AEAAXII_N@Z 00000001801d1c78 f i libucrt:output.obj
 0001:001d0d3c       ??$type_case_integer_parse_into_buffer@I@?$output_processor@_WV?$stream_output_adapter@_W@__crt_stdio_output@@V?$standard_base@_WV?$stream_output_adapter@_W@__crt_stdio_output@@@2@@__crt_stdio_output@@AEAAXII_N@Z 00000001801d1d3c f i libucrt:output.obj
 0001:001d0e00       ??$type_case_integer_parse_into_buffer@I@?$output_processor@_WV?$string_output_adapter@_W@__crt_stdio_output@@V?$format_validation_base@_WV?$string_output_adapter@_W@__crt_stdio_output@@@2@@__crt_stdio_output@@AEAAXII_N@Z 00000001801d1e00 f i libucrt:output.obj
 0001:001d0ec4       ??$type_case_integer_parse_into_buffer@I@?$output_processor@_WV?$string_output_adapter@_W@__crt_stdio_output@@V?$positional_parameter_base@_WV?$string_output_adapter@_W@__crt_stdio_output@@@2@@__crt_stdio_output@@AEAAXII_N@Z 00000001801d1ec4 f i libucrt:output.obj
 0001:001d0f88       ??$type_case_integer_parse_into_buffer@I@?$output_processor@_WV?$string_output_adapter@_W@__crt_stdio_output@@V?$standard_base@_WV?$string_output_adapter@_W@__crt_stdio_output@@@2@@__crt_stdio_output@@AEAAXII_N@Z 00000001801d1f88 f i libucrt:output.obj
 0001:001d104c       ??$type_case_integer_parse_into_buffer@_K@?$output_processor@DV?$stream_output_adapter@D@__crt_stdio_output@@V?$format_validation_base@DV?$stream_output_adapter@D@__crt_stdio_output@@@2@@__crt_stdio_output@@AEAAX_KI_N@Z 00000001801d204c f i libucrt:output.obj
 0001:001d1110       ??$type_case_integer_parse_into_buffer@_K@?$output_processor@DV?$stream_output_adapter@D@__crt_stdio_output@@V?$positional_parameter_base@DV?$stream_output_adapter@D@__crt_stdio_output@@@2@@__crt_stdio_output@@AEAAX_KI_N@Z 00000001801d2110 f i libucrt:output.obj
 0001:001d11d4       ??$type_case_integer_parse_into_buffer@_K@?$output_processor@DV?$stream_output_adapter@D@__crt_stdio_output@@V?$standard_base@DV?$stream_output_adapter@D@__crt_stdio_output@@@2@@__crt_stdio_output@@AEAAX_KI_N@Z 00000001801d21d4 f i libucrt:output.obj
 0001:001d1298       ??$type_case_integer_parse_into_buffer@_K@?$output_processor@DV?$string_output_adapter@D@__crt_stdio_output@@V?$format_validation_base@DV?$string_output_adapter@D@__crt_stdio_output@@@2@@__crt_stdio_output@@AEAAX_KI_N@Z 00000001801d2298 f i libucrt:output.obj
 0001:001d135c       ??$type_case_integer_parse_into_buffer@_K@?$output_processor@DV?$string_output_adapter@D@__crt_stdio_output@@V?$positional_parameter_base@DV?$string_output_adapter@D@__crt_stdio_output@@@2@@__crt_stdio_output@@AEAAX_KI_N@Z 00000001801d235c f i libucrt:output.obj
 0001:001d1420       ??$type_case_integer_parse_into_buffer@_K@?$output_processor@DV?$string_output_adapter@D@__crt_stdio_output@@V?$standard_base@DV?$string_output_adapter@D@__crt_stdio_output@@@2@@__crt_stdio_output@@AEAAX_KI_N@Z 00000001801d2420 f i libucrt:output.obj
 0001:001d14e4       ??$type_case_integer_parse_into_buffer@_K@?$output_processor@_WV?$stream_output_adapter@_W@__crt_stdio_output@@V?$format_validation_base@_WV?$stream_output_adapter@_W@__crt_stdio_output@@@2@@__crt_stdio_output@@AEAAX_KI_N@Z 00000001801d24e4 f i libucrt:output.obj
 0001:001d15a8       ??$type_case_integer_parse_into_buffer@_K@?$output_processor@_WV?$stream_output_adapter@_W@__crt_stdio_output@@V?$positional_parameter_base@_WV?$stream_output_adapter@_W@__crt_stdio_output@@@2@@__crt_stdio_output@@AEAAX_KI_N@Z 00000001801d25a8 f i libucrt:output.obj
 0001:001d166c       ??$type_case_integer_parse_into_buffer@_K@?$output_processor@_WV?$stream_output_adapter@_W@__crt_stdio_output@@V?$standard_base@_WV?$stream_output_adapter@_W@__crt_stdio_output@@@2@@__crt_stdio_output@@AEAAX_KI_N@Z 00000001801d266c f i libucrt:output.obj
 0001:001d1730       ??$type_case_integer_parse_into_buffer@_K@?$output_processor@_WV?$string_output_adapter@_W@__crt_stdio_output@@V?$format_validation_base@_WV?$string_output_adapter@_W@__crt_stdio_output@@@2@@__crt_stdio_output@@AEAAX_KI_N@Z 00000001801d2730 f i libucrt:output.obj
 0001:001d17f4       ??$type_case_integer_parse_into_buffer@_K@?$output_processor@_WV?$string_output_adapter@_W@__crt_stdio_output@@V?$positional_parameter_base@_WV?$string_output_adapter@_W@__crt_stdio_output@@@2@@__crt_stdio_output@@AEAAX_KI_N@Z 00000001801d27f4 f i libucrt:output.obj
 0001:001d18b8       ??$type_case_integer_parse_into_buffer@_K@?$output_processor@_WV?$string_output_adapter@_W@__crt_stdio_output@@V?$standard_base@_WV?$string_output_adapter@_W@__crt_stdio_output@@@2@@__crt_stdio_output@@AEAAX_KI_N@Z 00000001801d28b8 f i libucrt:output.obj
 0001:001d197c       ??$write_multiple_characters@V?$stream_output_adapter@D@__crt_stdio_output@@D@__crt_stdio_output@@YAXAEBV?$stream_output_adapter@D@0@DHQEAH@Z 00000001801d297c f i libucrt:output.obj
 0001:001d1a24       ??$write_multiple_characters@V?$stream_output_adapter@_W@__crt_stdio_output@@D@__crt_stdio_output@@YAXAEBV?$stream_output_adapter@_W@0@DHQEAH@Z 00000001801d2a24 f i libucrt:output.obj
 0001:001d1ad8       ??$write_multiple_characters@V?$string_output_adapter@D@__crt_stdio_output@@D@__crt_stdio_output@@YAXAEBV?$string_output_adapter@D@0@DHQEAH@Z 00000001801d2ad8 f i libucrt:output.obj
 0001:001d1b4c       ??$write_multiple_characters@V?$string_output_adapter@_W@__crt_stdio_output@@D@__crt_stdio_output@@YAXAEBV?$string_output_adapter@_W@0@DHQEAH@Z 00000001801d2b4c f i libucrt:output.obj
 0001:001d1d70       ??0?$common_data@D@__crt_stdio_output@@IEAA@XZ 00000001801d2d70 f i libucrt:output.obj
 0001:001d1dbc       ??0?$common_data@_W@__crt_stdio_output@@IEAA@XZ 00000001801d2dbc f i libucrt:output.obj
 0001:001d1e0c       ??0?$output_adapter_data@DV?$stream_output_adapter@D@__crt_stdio_output@@@__crt_stdio_output@@IEAA@AEBV?$stream_output_adapter@D@1@_KQEBDQEAU__crt_locale_pointers@@QEAD@Z 00000001801d2e0c f i libucrt:output.obj
 0001:001d1e84       ??0?$output_adapter_data@DV?$string_output_adapter@D@__crt_stdio_output@@@__crt_stdio_output@@IEAA@AEBV?$string_output_adapter@D@1@_KQEBDQEAU__crt_locale_pointers@@QEAD@Z 00000001801d2e84 f i libucrt:output.obj
 0001:001d1efc       ??0?$output_adapter_data@_WV?$stream_output_adapter@_W@__crt_stdio_output@@@__crt_stdio_output@@IEAA@AEBV?$stream_output_adapter@_W@1@_KQEB_WQEAU__crt_locale_pointers@@QEAD@Z 00000001801d2efc f i libucrt:output.obj
 0001:001d1f78       ??0?$output_adapter_data@_WV?$string_output_adapter@_W@__crt_stdio_output@@@__crt_stdio_output@@IEAA@AEBV?$string_output_adapter@_W@1@_KQEB_WQEAU__crt_locale_pointers@@QEAD@Z 00000001801d2f78 f i libucrt:output.obj
 0001:001d1ff4       ??0?$output_processor@DV?$stream_output_adapter@D@__crt_stdio_output@@V?$format_validation_base@DV?$stream_output_adapter@D@__crt_stdio_output@@@2@@__crt_stdio_output@@QEAA@AEBV?$stream_output_adapter@D@1@_KQEBDQEAU__crt_locale_pointers@@QEAD@Z 00000001801d2ff4 f i libucrt:output.obj
 0001:001d2090       ??0?$output_processor@DV?$stream_output_adapter@D@__crt_stdio_output@@V?$positional_parameter_base@DV?$stream_output_adapter@D@__crt_stdio_output@@@2@@__crt_stdio_output@@QEAA@AEBV?$stream_output_adapter@D@1@_KQEBDQEAU__crt_locale_pointers@@QEAD@Z 00000001801d3090 f i libucrt:output.obj
 0001:001d2150       ??0?$output_processor@DV?$stream_output_adapter@D@__crt_stdio_output@@V?$standard_base@DV?$stream_output_adapter@D@__crt_stdio_output@@@2@@__crt_stdio_output@@QEAA@AEBV?$stream_output_adapter@D@1@_KQEBDQEAU__crt_locale_pointers@@QEAD@Z 00000001801d3150 f i libucrt:output.obj
 0001:001d21ec       ??0?$output_processor@DV?$string_output_adapter@D@__crt_stdio_output@@V?$format_validation_base@DV?$string_output_adapter@D@__crt_stdio_output@@@2@@__crt_stdio_output@@QEAA@AEBV?$string_output_adapter@D@1@_KQEBDQEAU__crt_locale_pointers@@QEAD@Z 00000001801d31ec f i libucrt:output.obj
 0001:001d2288       ??0?$output_processor@DV?$string_output_adapter@D@__crt_stdio_output@@V?$positional_parameter_base@DV?$string_output_adapter@D@__crt_stdio_output@@@2@@__crt_stdio_output@@QEAA@AEBV?$string_output_adapter@D@1@_KQEBDQEAU__crt_locale_pointers@@QEAD@Z 00000001801d3288 f i libucrt:output.obj
 0001:001d2348       ??0?$output_processor@DV?$string_output_adapter@D@__crt_stdio_output@@V?$standard_base@DV?$string_output_adapter@D@__crt_stdio_output@@@2@@__crt_stdio_output@@QEAA@AEBV?$string_output_adapter@D@1@_KQEBDQEAU__crt_locale_pointers@@QEAD@Z 00000001801d3348 f i libucrt:output.obj
 0001:001d23e4       ??0?$output_processor@_WV?$stream_output_adapter@_W@__crt_stdio_output@@V?$format_validation_base@_WV?$stream_output_adapter@_W@__crt_stdio_output@@@2@@__crt_stdio_output@@QEAA@AEBV?$stream_output_adapter@_W@1@_KQEB_WQEAU__crt_locale_pointers@@QEAD@Z 00000001801d33e4 f i libucrt:output.obj
 0001:001d2484       ??0?$output_processor@_WV?$stream_output_adapter@_W@__crt_stdio_output@@V?$positional_parameter_base@_WV?$stream_output_adapter@_W@__crt_stdio_output@@@2@@__crt_stdio_output@@QEAA@AEBV?$stream_output_adapter@_W@1@_KQEB_WQEAU__crt_locale_pointers@@QEAD@Z 00000001801d3484 f i libucrt:output.obj
 0001:001d2548       ??0?$output_processor@_WV?$stream_output_adapter@_W@__crt_stdio_output@@V?$standard_base@_WV?$stream_output_adapter@_W@__crt_stdio_output@@@2@@__crt_stdio_output@@QEAA@AEBV?$stream_output_adapter@_W@1@_KQEB_WQEAU__crt_locale_pointers@@QEAD@Z 00000001801d3548 f i libucrt:output.obj
 0001:001d25e8       ??0?$output_processor@_WV?$string_output_adapter@_W@__crt_stdio_output@@V?$format_validation_base@_WV?$string_output_adapter@_W@__crt_stdio_output@@@2@@__crt_stdio_output@@QEAA@AEBV?$string_output_adapter@_W@1@_KQEB_WQEAU__crt_locale_pointers@@QEAD@Z 00000001801d35e8 f i libucrt:output.obj
 0001:001d2688       ??0?$output_processor@_WV?$string_output_adapter@_W@__crt_stdio_output@@V?$positional_parameter_base@_WV?$string_output_adapter@_W@__crt_stdio_output@@@2@@__crt_stdio_output@@QEAA@AEBV?$string_output_adapter@_W@1@_KQEB_WQEAU__crt_locale_pointers@@QEAD@Z 00000001801d3688 f i libucrt:output.obj
 0001:001d274c       ??0?$output_processor@_WV?$string_output_adapter@_W@__crt_stdio_output@@V?$standard_base@_WV?$string_output_adapter@_W@__crt_stdio_output@@@2@@__crt_stdio_output@@QEAA@AEBV?$string_output_adapter@_W@1@_KQEB_WQEAU__crt_locale_pointers@@QEAD@Z 00000001801d374c f i libucrt:output.obj
 0001:001d27ec       ??0?$stream_output_adapter@D@__crt_stdio_output@@QEAA@QEAU_iobuf@@@Z 00000001801d37ec f i libucrt:output.obj
 0001:001d27f4       ??0?$stream_output_adapter@_W@__crt_stdio_output@@QEAA@QEAU_iobuf@@@Z 00000001801d37f4 f i libucrt:output.obj
 0001:001d27fc       ??0?$string_output_adapter@D@__crt_stdio_output@@QEAA@QEAU?$string_output_adapter_context@D@1@@Z 00000001801d37fc f i libucrt:output.obj
 0001:001d2804       ??0?$string_output_adapter@_W@__crt_stdio_output@@QEAA@QEAU?$string_output_adapter_context@_W@1@@Z 00000001801d3804 f i libucrt:output.obj
 0001:001d280c       ??0_LocaleUpdate@@QEAA@QEAU__crt_locale_pointers@@@Z 00000001801d380c f i libucrt:output.obj
 0001:001d28c0       ??0__acrt_stdio_temporary_buffering_guard@@QEAA@QEAU_iobuf@@@Z 00000001801d38c0 f i libucrt:output.obj
 0001:001d28e8       ??0__crt_errno_guard@@QEAA@QEAH@Z 00000001801d38e8 f i libucrt:output.obj
 0001:001d28fc       ??0__crt_stdio_stream@@QEAA@QEAU_iobuf@@@Z 00000001801d38fc f i libucrt:output.obj
 0001:001d2904       ??0formatting_buffer@__crt_stdio_output@@QEAA@XZ 00000001801d3904 f i libucrt:output.obj
 0001:001d2920       ??1?$common_data@D@__crt_stdio_output@@QEAA@XZ 00000001801d3920 f i libucrt:output.obj
 0001:001d294c       ??1?$common_data@_W@__crt_stdio_output@@QEAA@XZ 00000001801d394c f i libucrt:output.obj
 0001:001d2978       ??1?$format_validation_base@DV?$stream_output_adapter@D@__crt_stdio_output@@@__crt_stdio_output@@QEAA@XZ 00000001801d3978 f i libucrt:output.obj
 0001:001d29a4       ??1?$format_validation_base@DV?$string_output_adapter@D@__crt_stdio_output@@@__crt_stdio_output@@QEAA@XZ 00000001801d39a4 f i libucrt:output.obj
 0001:001d29d0       ??1?$format_validation_base@_WV?$stream_output_adapter@_W@__crt_stdio_output@@@__crt_stdio_output@@QEAA@XZ 00000001801d39d0 f i libucrt:output.obj
 0001:001d29fc       ??1?$format_validation_base@_WV?$string_output_adapter@_W@__crt_stdio_output@@@__crt_stdio_output@@QEAA@XZ 00000001801d39fc f i libucrt:output.obj
 0001:001d2a28       ??1?$output_adapter_data@DV?$stream_output_adapter@D@__crt_stdio_output@@@__crt_stdio_output@@QEAA@XZ 00000001801d3a28 f i libucrt:output.obj
 0001:001d2a54       ??1?$output_adapter_data@DV?$string_output_adapter@D@__crt_stdio_output@@@__crt_stdio_output@@QEAA@XZ 00000001801d3a54 f i libucrt:output.obj
 0001:001d2a80       ??1?$output_adapter_data@_WV?$stream_output_adapter@_W@__crt_stdio_output@@@__crt_stdio_output@@QEAA@XZ 00000001801d3a80 f i libucrt:output.obj
 0001:001d2aac       ??1?$output_adapter_data@_WV?$string_output_adapter@_W@__crt_stdio_output@@@__crt_stdio_output@@QEAA@XZ 00000001801d3aac f i libucrt:output.obj
 0001:001d2ad8       ??1?$output_processor@DV?$stream_output_adapter@D@__crt_stdio_output@@V?$format_validation_base@DV?$stream_output_adapter@D@__crt_stdio_output@@@2@@__crt_stdio_output@@QEAA@XZ 00000001801d3ad8 f i libucrt:output.obj
 0001:001d2b04       ??1?$output_processor@DV?$stream_output_adapter@D@__crt_stdio_output@@V?$positional_parameter_base@DV?$stream_output_adapter@D@__crt_stdio_output@@@2@@__crt_stdio_output@@QEAA@XZ 00000001801d3b04 f i libucrt:output.obj
 0001:001d2b30       ??1?$output_processor@DV?$stream_output_adapter@D@__crt_stdio_output@@V?$standard_base@DV?$stream_output_adapter@D@__crt_stdio_output@@@2@@__crt_stdio_output@@QEAA@XZ 00000001801d3b30 f i libucrt:output.obj
 0001:001d2b5c       ??1?$output_processor@DV?$string_output_adapter@D@__crt_stdio_output@@V?$format_validation_base@DV?$string_output_adapter@D@__crt_stdio_output@@@2@@__crt_stdio_output@@QEAA@XZ 00000001801d3b5c f i libucrt:output.obj
 0001:001d2b88       ??1?$output_processor@DV?$string_output_adapter@D@__crt_stdio_output@@V?$positional_parameter_base@DV?$string_output_adapter@D@__crt_stdio_output@@@2@@__crt_stdio_output@@QEAA@XZ 00000001801d3b88 f i libucrt:output.obj
 0001:001d2bb4       ??1?$output_processor@DV?$string_output_adapter@D@__crt_stdio_output@@V?$standard_base@DV?$string_output_adapter@D@__crt_stdio_output@@@2@@__crt_stdio_output@@QEAA@XZ 00000001801d3bb4 f i libucrt:output.obj
 0001:001d2be0       ??1?$output_processor@_WV?$stream_output_adapter@_W@__crt_stdio_output@@V?$format_validation_base@_WV?$stream_output_adapter@_W@__crt_stdio_output@@@2@@__crt_stdio_output@@QEAA@XZ 00000001801d3be0 f i libucrt:output.obj
 0001:001d2c0c       ??1?$output_processor@_WV?$stream_output_adapter@_W@__crt_stdio_output@@V?$positional_parameter_base@_WV?$stream_output_adapter@_W@__crt_stdio_output@@@2@@__crt_stdio_output@@QEAA@XZ 00000001801d3c0c f i libucrt:output.obj
 0001:001d2c38       ??1?$output_processor@_WV?$stream_output_adapter@_W@__crt_stdio_output@@V?$standard_base@_WV?$stream_output_adapter@_W@__crt_stdio_output@@@2@@__crt_stdio_output@@QEAA@XZ 00000001801d3c38 f i libucrt:output.obj
 0001:001d2c64       ??1?$output_processor@_WV?$string_output_adapter@_W@__crt_stdio_output@@V?$format_validation_base@_WV?$string_output_adapter@_W@__crt_stdio_output@@@2@@__crt_stdio_output@@QEAA@XZ 00000001801d3c64 f i libucrt:output.obj
 0001:001d2c90       ??1?$output_processor@_WV?$string_output_adapter@_W@__crt_stdio_output@@V?$positional_parameter_base@_WV?$string_output_adapter@_W@__crt_stdio_output@@@2@@__crt_stdio_output@@QEAA@XZ 00000001801d3c90 f i libucrt:output.obj
 0001:001d2cbc       ??1?$output_processor@_WV?$string_output_adapter@_W@__crt_stdio_output@@V?$standard_base@_WV?$string_output_adapter@_W@__crt_stdio_output@@@2@@__crt_stdio_output@@QEAA@XZ 00000001801d3cbc f i libucrt:output.obj
 0001:001d2ce8       ??1?$positional_parameter_base@DV?$stream_output_adapter@D@__crt_stdio_output@@@__crt_stdio_output@@QEAA@XZ 00000001801d3ce8 f i libucrt:output.obj
 0001:001d2d14       ??1?$positional_parameter_base@DV?$string_output_adapter@D@__crt_stdio_output@@@__crt_stdio_output@@QEAA@XZ 00000001801d3d14 f i libucrt:output.obj
 0001:001d2d40       ??1?$positional_parameter_base@_WV?$stream_output_adapter@_W@__crt_stdio_output@@@__crt_stdio_output@@QEAA@XZ 00000001801d3d40 f i libucrt:output.obj
 0001:001d2d6c       ??1?$positional_parameter_base@_WV?$string_output_adapter@_W@__crt_stdio_output@@@__crt_stdio_output@@QEAA@XZ 00000001801d3d6c f i libucrt:output.obj
 0001:001d2d98       ??1?$standard_base@DV?$stream_output_adapter@D@__crt_stdio_output@@@__crt_stdio_output@@QEAA@XZ 00000001801d3d98 f i libucrt:output.obj
 0001:001d2dc4       ??1?$standard_base@DV?$string_output_adapter@D@__crt_stdio_output@@@__crt_stdio_output@@QEAA@XZ 00000001801d3dc4 f i libucrt:output.obj
 0001:001d2df0       ??1?$standard_base@_WV?$stream_output_adapter@_W@__crt_stdio_output@@@__crt_stdio_output@@QEAA@XZ 00000001801d3df0 f i libucrt:output.obj
 0001:001d2e1c       ??1?$standard_base@_WV?$string_output_adapter@_W@__crt_stdio_output@@@__crt_stdio_output@@QEAA@XZ 00000001801d3e1c f i libucrt:output.obj
 0001:001d2e48       ??1_LocaleUpdate@@QEAA@XZ  00000001801d3e48 f i libucrt:output.obj
 0001:001d2e60       ??1__acrt_stdio_temporary_buffering_guard@@QEAA@XZ 00000001801d3e60 f i libucrt:output.obj
 0001:001d2e70       ??1__crt_errno_guard@@QEAA@XZ 00000001801d3e70 f i libucrt:output.obj
 0001:001d2e88       ??1formatting_buffer@__crt_stdio_output@@QEAA@XZ 00000001801d3e88 f i libucrt:output.obj
 0001:001d2eb4       ??4?$__crt_unique_heap_ptr@DU__crt_internal_free_policy@@@@QEAAAEAV0@$$QEAV0@@Z 00000001801d3eb4 f i libucrt:output.obj
 0001:001d2ef8       ??C__crt_stdio_stream@@QEBAPEAU__crt_stdio_stream_data@@XZ 00000001801d3ef8 f i libucrt:output.obj
 0001:001d3694       ?GetLocaleT@_LocaleUpdate@@QEAAPEAU__crt_locale_pointers@@XZ 00000001801d4694 f i libucrt:output.obj
 0001:001d369c       ?adjust_hexit@?$output_processor@DV?$stream_output_adapter@D@__crt_stdio_output@@V?$format_validation_base@DV?$stream_output_adapter@D@__crt_stdio_output@@@2@@__crt_stdio_output@@CADH_N@Z 00000001801d469c f i libucrt:output.obj
 0001:001d36ac       ?adjust_hexit@?$output_processor@DV?$stream_output_adapter@D@__crt_stdio_output@@V?$positional_parameter_base@DV?$stream_output_adapter@D@__crt_stdio_output@@@2@@__crt_stdio_output@@CADH_N@Z 00000001801d46ac f i libucrt:output.obj
 0001:001d36bc       ?adjust_hexit@?$output_processor@DV?$stream_output_adapter@D@__crt_stdio_output@@V?$standard_base@DV?$stream_output_adapter@D@__crt_stdio_output@@@2@@__crt_stdio_output@@CADH_N@Z 00000001801d46bc f i libucrt:output.obj
 0001:001d36cc       ?adjust_hexit@?$output_processor@DV?$string_output_adapter@D@__crt_stdio_output@@V?$format_validation_base@DV?$string_output_adapter@D@__crt_stdio_output@@@2@@__crt_stdio_output@@CADH_N@Z 00000001801d46cc f i libucrt:output.obj
 0001:001d36dc       ?adjust_hexit@?$output_processor@DV?$string_output_adapter@D@__crt_stdio_output@@V?$positional_parameter_base@DV?$string_output_adapter@D@__crt_stdio_output@@@2@@__crt_stdio_output@@CADH_N@Z 00000001801d46dc f i libucrt:output.obj
 0001:001d36ec       ?adjust_hexit@?$output_processor@DV?$string_output_adapter@D@__crt_stdio_output@@V?$standard_base@DV?$string_output_adapter@D@__crt_stdio_output@@@2@@__crt_stdio_output@@CADH_N@Z 00000001801d46ec f i libucrt:output.obj
 0001:001d36fc       ?adjust_hexit@?$output_processor@_WV?$stream_output_adapter@_W@__crt_stdio_output@@V?$format_validation_base@_WV?$stream_output_adapter@_W@__crt_stdio_output@@@2@@__crt_stdio_output@@CADH_N@Z 00000001801d46fc f i libucrt:output.obj
 0001:001d370c       ?adjust_hexit@?$output_processor@_WV?$stream_output_adapter@_W@__crt_stdio_output@@V?$positional_parameter_base@_WV?$stream_output_adapter@_W@__crt_stdio_output@@@2@@__crt_stdio_output@@CADH_N@Z 00000001801d470c f i libucrt:output.obj
 0001:001d371c       ?adjust_hexit@?$output_processor@_WV?$stream_output_adapter@_W@__crt_stdio_output@@V?$standard_base@_WV?$stream_output_adapter@_W@__crt_stdio_output@@@2@@__crt_stdio_output@@CADH_N@Z 00000001801d471c f i libucrt:output.obj
 0001:001d372c       ?adjust_hexit@?$output_processor@_WV?$string_output_adapter@_W@__crt_stdio_output@@V?$format_validation_base@_WV?$string_output_adapter@_W@__crt_stdio_output@@@2@@__crt_stdio_output@@CADH_N@Z 00000001801d472c f i libucrt:output.obj
 0001:001d373c       ?adjust_hexit@?$output_processor@_WV?$string_output_adapter@_W@__crt_stdio_output@@V?$positional_parameter_base@_WV?$string_output_adapter@_W@__crt_stdio_output@@@2@@__crt_stdio_output@@CADH_N@Z 00000001801d473c f i libucrt:output.obj
 0001:001d374c       ?adjust_hexit@?$output_processor@_WV?$string_output_adapter@_W@__crt_stdio_output@@V?$standard_base@_WV?$string_output_adapter@_W@__crt_stdio_output@@@2@@__crt_stdio_output@@CADH_N@Z 00000001801d474c f i libucrt:output.obj
 0001:001d375c       ?advance_to_next_pass@?$positional_parameter_base@DV?$stream_output_adapter@D@__crt_stdio_output@@@__crt_stdio_output@@IEAA_NXZ 00000001801d475c f i libucrt:output.obj
 0001:001d37c0       ?advance_to_next_pass@?$positional_parameter_base@DV?$string_output_adapter@D@__crt_stdio_output@@@__crt_stdio_output@@IEAA_NXZ 00000001801d47c0 f i libucrt:output.obj
 0001:001d3824       ?advance_to_next_pass@?$positional_parameter_base@_WV?$stream_output_adapter@_W@__crt_stdio_output@@@__crt_stdio_output@@IEAA_NXZ 00000001801d4824 f i libucrt:output.obj
 0001:001d3888       ?advance_to_next_pass@?$positional_parameter_base@_WV?$string_output_adapter@_W@__crt_stdio_output@@@__crt_stdio_output@@IEAA_NXZ 00000001801d4888 f i libucrt:output.obj
 0001:001d38ec       ?advance_to_next_pass@?$standard_base@DV?$stream_output_adapter@D@__crt_stdio_output@@@__crt_stdio_output@@IEAA_NXZ 00000001801d48ec f i libucrt:output.obj
 0001:001d3904       ?advance_to_next_pass@?$standard_base@DV?$string_output_adapter@D@__crt_stdio_output@@@__crt_stdio_output@@IEAA_NXZ 00000001801d4904 f i libucrt:output.obj
 0001:001d391c       ?advance_to_next_pass@?$standard_base@_WV?$stream_output_adapter@_W@__crt_stdio_output@@@__crt_stdio_output@@IEAA_NXZ 00000001801d491c f i libucrt:output.obj
 0001:001d3934       ?advance_to_next_pass@?$standard_base@_WV?$string_output_adapter@_W@__crt_stdio_output@@@__crt_stdio_output@@IEAA_NXZ 00000001801d4934 f i libucrt:output.obj
 0001:001d394c       ?crop_zeroes@__crt_stdio_output@@YAXPEADQEAU__crt_locale_pointers@@@Z 00000001801d494c f i libucrt:output.obj
 0001:001d39c0       ?find_next_state@?$output_processor@DV?$stream_output_adapter@D@__crt_stdio_output@@V?$format_validation_base@DV?$stream_output_adapter@D@__crt_stdio_output@@@2@@__crt_stdio_output@@AEBA?AW4state@2@DW432@@Z 00000001801d49c0 f i libucrt:output.obj
 0001:001d39fc       ?find_next_state@?$output_processor@DV?$stream_output_adapter@D@__crt_stdio_output@@V?$positional_parameter_base@DV?$stream_output_adapter@D@__crt_stdio_output@@@2@@__crt_stdio_output@@AEBA?AW4state@2@DW432@@Z 00000001801d49fc f i libucrt:output.obj
 0001:001d3a38       ?find_next_state@?$output_processor@DV?$stream_output_adapter@D@__crt_stdio_output@@V?$standard_base@DV?$stream_output_adapter@D@__crt_stdio_output@@@2@@__crt_stdio_output@@AEBA?AW4state@2@DW432@@Z 00000001801d4a38 f i libucrt:output.obj
 0001:001d3a70       ?find_next_state@?$output_processor@DV?$string_output_adapter@D@__crt_stdio_output@@V?$format_validation_base@DV?$string_output_adapter@D@__crt_stdio_output@@@2@@__crt_stdio_output@@AEBA?AW4state@2@DW432@@Z 00000001801d4a70 f i libucrt:output.obj
 0001:001d3aac       ?find_next_state@?$output_processor@DV?$string_output_adapter@D@__crt_stdio_output@@V?$positional_parameter_base@DV?$string_output_adapter@D@__crt_stdio_output@@@2@@__crt_stdio_output@@AEBA?AW4state@2@DW432@@Z 00000001801d4aac f i libucrt:output.obj
 0001:001d3ae8       ?find_next_state@?$output_processor@DV?$string_output_adapter@D@__crt_stdio_output@@V?$standard_base@DV?$string_output_adapter@D@__crt_stdio_output@@@2@@__crt_stdio_output@@AEBA?AW4state@2@DW432@@Z 00000001801d4ae8 f i libucrt:output.obj
 0001:001d3b20       ?find_next_state@?$output_processor@_WV?$stream_output_adapter@_W@__crt_stdio_output@@V?$format_validation_base@_WV?$stream_output_adapter@_W@__crt_stdio_output@@@2@@__crt_stdio_output@@AEBA?AW4state@2@_WW432@@Z 00000001801d4b20 f i libucrt:output.obj
 0001:001d3b5c       ?find_next_state@?$output_processor@_WV?$stream_output_adapter@_W@__crt_stdio_output@@V?$positional_parameter_base@_WV?$stream_output_adapter@_W@__crt_stdio_output@@@2@@__crt_stdio_output@@AEBA?AW4state@2@_WW432@@Z 00000001801d4b5c f i libucrt:output.obj
 0001:001d3b98       ?find_next_state@?$output_processor@_WV?$stream_output_adapter@_W@__crt_stdio_output@@V?$standard_base@_WV?$stream_output_adapter@_W@__crt_stdio_output@@@2@@__crt_stdio_output@@AEBA?AW4state@2@_WW432@@Z 00000001801d4b98 f i libucrt:output.obj
 0001:001d3bd0       ?find_next_state@?$output_processor@_WV?$string_output_adapter@_W@__crt_stdio_output@@V?$format_validation_base@_WV?$string_output_adapter@_W@__crt_stdio_output@@@2@@__crt_stdio_output@@AEBA?AW4state@2@_WW432@@Z 00000001801d4bd0 f i libucrt:output.obj
 0001:001d3c0c       ?find_next_state@?$output_processor@_WV?$string_output_adapter@_W@__crt_stdio_output@@V?$positional_parameter_base@_WV?$string_output_adapter@_W@__crt_stdio_output@@@2@@__crt_stdio_output@@AEBA?AW4state@2@_WW432@@Z 00000001801d4c0c f i libucrt:output.obj
 0001:001d3c48       ?find_next_state@?$output_processor@_WV?$string_output_adapter@_W@__crt_stdio_output@@V?$standard_base@_WV?$string_output_adapter@_W@__crt_stdio_output@@@2@@__crt_stdio_output@@AEBA?AW4state@2@_WW432@@Z 00000001801d4c48 f i libucrt:output.obj
 0001:001d3c80       ?force_decimal_point@__crt_stdio_output@@YAXPEADQEAU__crt_locale_pointers@@@Z 00000001801d4c80 f i libucrt:output.obj
 0001:001d3d08       ?get_flags@__crt_stdio_stream@@QEBAJXZ 00000001801d4d08 f i libucrt:output.obj
 0001:001d3d10       ?get_parameter_type@?$positional_parameter_base@DV?$stream_output_adapter@D@__crt_stdio_output@@@__crt_stdio_output@@CA?AW4parameter_type@12@F@Z 00000001801d4d10 f i libucrt:output.obj
 0001:001d3d18       ?get_parameter_type@?$positional_parameter_base@DV?$stream_output_adapter@D@__crt_stdio_output@@@__crt_stdio_output@@CA?AW4parameter_type@12@G@Z 00000001801d4d18 f i libucrt:output.obj
 0001:001d3d20       ?get_parameter_type@?$positional_parameter_base@DV?$stream_output_adapter@D@__crt_stdio_output@@@__crt_stdio_output@@CA?AW4parameter_type@12@H@Z 00000001801d4d20 f i libucrt:output.obj
 0001:001d3d28       ?get_parameter_type@?$positional_parameter_base@DV?$stream_output_adapter@D@__crt_stdio_output@@@__crt_stdio_output@@CA?AW4parameter_type@12@I@Z 00000001801d4d28 f i libucrt:output.obj
 0001:001d3d30       ?get_parameter_type@?$positional_parameter_base@DV?$stream_output_adapter@D@__crt_stdio_output@@@__crt_stdio_output@@CA?AW4parameter_type@12@U_CRT_DOUBLE@@@Z 00000001801d4d30 f i libucrt:output.obj
 0001:001d3d38       ?get_parameter_type@?$positional_parameter_base@DV?$stream_output_adapter@D@__crt_stdio_output@@@__crt_stdio_output@@CA?AW4parameter_type@12@_J@Z 00000001801d4d38 f i libucrt:output.obj
 0001:001d3d40       ?get_parameter_type@?$positional_parameter_base@DV?$stream_output_adapter@D@__crt_stdio_output@@@__crt_stdio_output@@CA?AW4parameter_type@12@_K@Z 00000001801d4d40 f i libucrt:output.obj
 0001:001d3d48       ?get_parameter_type@?$positional_parameter_base@DV?$stream_output_adapter@D@__crt_stdio_output@@@__crt_stdio_output@@CA?AW4parameter_type@12@_W@Z 00000001801d4d48 f i libucrt:output.obj
 0001:001d3d50       ?get_parameter_type@?$positional_parameter_base@DV?$string_output_adapter@D@__crt_stdio_output@@@__crt_stdio_output@@CA?AW4parameter_type@12@F@Z 00000001801d4d50 f i libucrt:output.obj
 0001:001d3d58       ?get_parameter_type@?$positional_parameter_base@DV?$string_output_adapter@D@__crt_stdio_output@@@__crt_stdio_output@@CA?AW4parameter_type@12@G@Z 00000001801d4d58 f i libucrt:output.obj
 0001:001d3d60       ?get_parameter_type@?$positional_parameter_base@DV?$string_output_adapter@D@__crt_stdio_output@@@__crt_stdio_output@@CA?AW4parameter_type@12@H@Z 00000001801d4d60 f i libucrt:output.obj
 0001:001d3d68       ?get_parameter_type@?$positional_parameter_base@DV?$string_output_adapter@D@__crt_stdio_output@@@__crt_stdio_output@@CA?AW4parameter_type@12@I@Z 00000001801d4d68 f i libucrt:output.obj
 0001:001d3d70       ?get_parameter_type@?$positional_parameter_base@DV?$string_output_adapter@D@__crt_stdio_output@@@__crt_stdio_output@@CA?AW4parameter_type@12@U_CRT_DOUBLE@@@Z 00000001801d4d70 f i libucrt:output.obj
 0001:001d3d78       ?get_parameter_type@?$positional_parameter_base@DV?$string_output_adapter@D@__crt_stdio_output@@@__crt_stdio_output@@CA?AW4parameter_type@12@_J@Z 00000001801d4d78 f i libucrt:output.obj
 0001:001d3d80       ?get_parameter_type@?$positional_parameter_base@DV?$string_output_adapter@D@__crt_stdio_output@@@__crt_stdio_output@@CA?AW4parameter_type@12@_K@Z 00000001801d4d80 f i libucrt:output.obj
 0001:001d3d88       ?get_parameter_type@?$positional_parameter_base@DV?$string_output_adapter@D@__crt_stdio_output@@@__crt_stdio_output@@CA?AW4parameter_type@12@_W@Z 00000001801d4d88 f i libucrt:output.obj
 0001:001d3d90       ?get_parameter_type@?$positional_parameter_base@_WV?$stream_output_adapter@_W@__crt_stdio_output@@@__crt_stdio_output@@CA?AW4parameter_type@12@F@Z 00000001801d4d90 f i libucrt:output.obj
 0001:001d3d98       ?get_parameter_type@?$positional_parameter_base@_WV?$stream_output_adapter@_W@__crt_stdio_output@@@__crt_stdio_output@@CA?AW4parameter_type@12@G@Z 00000001801d4d98 f i libucrt:output.obj
 0001:001d3da0       ?get_parameter_type@?$positional_parameter_base@_WV?$stream_output_adapter@_W@__crt_stdio_output@@@__crt_stdio_output@@CA?AW4parameter_type@12@H@Z 00000001801d4da0 f i libucrt:output.obj
 0001:001d3da8       ?get_parameter_type@?$positional_parameter_base@_WV?$stream_output_adapter@_W@__crt_stdio_output@@@__crt_stdio_output@@CA?AW4parameter_type@12@I@Z 00000001801d4da8 f i libucrt:output.obj
 0001:001d3db0       ?get_parameter_type@?$positional_parameter_base@_WV?$stream_output_adapter@_W@__crt_stdio_output@@@__crt_stdio_output@@CA?AW4parameter_type@12@U_CRT_DOUBLE@@@Z 00000001801d4db0 f i libucrt:output.obj
 0001:001d3db8       ?get_parameter_type@?$positional_parameter_base@_WV?$stream_output_adapter@_W@__crt_stdio_output@@@__crt_stdio_output@@CA?AW4parameter_type@12@_J@Z 00000001801d4db8 f i libucrt:output.obj
 0001:001d3dc0       ?get_parameter_type@?$positional_parameter_base@_WV?$stream_output_adapter@_W@__crt_stdio_output@@@__crt_stdio_output@@CA?AW4parameter_type@12@_K@Z 00000001801d4dc0 f i libucrt:output.obj
 0001:001d3dc8       ?get_parameter_type@?$positional_parameter_base@_WV?$stream_output_adapter@_W@__crt_stdio_output@@@__crt_stdio_output@@CA?AW4parameter_type@12@_W@Z 00000001801d4dc8 f i libucrt:output.obj
 0001:001d3dd0       ?get_parameter_type@?$positional_parameter_base@_WV?$string_output_adapter@_W@__crt_stdio_output@@@__crt_stdio_output@@CA?AW4parameter_type@12@F@Z 00000001801d4dd0 f i libucrt:output.obj
 0001:001d3dd8       ?get_parameter_type@?$positional_parameter_base@_WV?$string_output_adapter@_W@__crt_stdio_output@@@__crt_stdio_output@@CA?AW4parameter_type@12@G@Z 00000001801d4dd8 f i libucrt:output.obj
 0001:001d3de0       ?get_parameter_type@?$positional_parameter_base@_WV?$string_output_adapter@_W@__crt_stdio_output@@@__crt_stdio_output@@CA?AW4parameter_type@12@H@Z 00000001801d4de0 f i libucrt:output.obj
 0001:001d3de8       ?get_parameter_type@?$positional_parameter_base@_WV?$string_output_adapter@_W@__crt_stdio_output@@@__crt_stdio_output@@CA?AW4parameter_type@12@I@Z 00000001801d4de8 f i libucrt:output.obj
 0001:001d3df0       ?get_parameter_type@?$positional_parameter_base@_WV?$string_output_adapter@_W@__crt_stdio_output@@@__crt_stdio_output@@CA?AW4parameter_type@12@U_CRT_DOUBLE@@@Z 00000001801d4df0 f i libucrt:output.obj
 0001:001d3df8       ?get_parameter_type@?$positional_parameter_base@_WV?$string_output_adapter@_W@__crt_stdio_output@@@__crt_stdio_output@@CA?AW4parameter_type@12@_J@Z 00000001801d4df8 f i libucrt:output.obj
 0001:001d3e00       ?get_parameter_type@?$positional_parameter_base@_WV?$string_output_adapter@_W@__crt_stdio_output@@@__crt_stdio_output@@CA?AW4parameter_type@12@_K@Z 00000001801d4e00 f i libucrt:output.obj
 0001:001d3e08       ?get_parameter_type@?$positional_parameter_base@_WV?$string_output_adapter@_W@__crt_stdio_output@@@__crt_stdio_output@@CA?AW4parameter_type@12@_W@Z 00000001801d4e08 f i libucrt:output.obj
 0001:001d3e10       ?has_flag@?$output_processor@DV?$stream_output_adapter@D@__crt_stdio_output@@V?$format_validation_base@DV?$stream_output_adapter@D@__crt_stdio_output@@@2@@__crt_stdio_output@@AEBA_NI@Z 00000001801d4e10 f i libucrt:output.obj
 0001:001d3e18       ?has_flag@?$output_processor@DV?$stream_output_adapter@D@__crt_stdio_output@@V?$positional_parameter_base@DV?$stream_output_adapter@D@__crt_stdio_output@@@2@@__crt_stdio_output@@AEBA_NI@Z 00000001801d4e18 f i libucrt:output.obj
 0001:001d3e20       ?has_flag@?$output_processor@DV?$stream_output_adapter@D@__crt_stdio_output@@V?$standard_base@DV?$stream_output_adapter@D@__crt_stdio_output@@@2@@__crt_stdio_output@@AEBA_NI@Z 00000001801d4e20 f i libucrt:output.obj
 0001:001d3e28       ?has_flag@?$output_processor@DV?$string_output_adapter@D@__crt_stdio_output@@V?$format_validation_base@DV?$string_output_adapter@D@__crt_stdio_output@@@2@@__crt_stdio_output@@AEBA_NI@Z 00000001801d4e28 f i libucrt:output.obj
 0001:001d3e30       ?has_flag@?$output_processor@DV?$string_output_adapter@D@__crt_stdio_output@@V?$positional_parameter_base@DV?$string_output_adapter@D@__crt_stdio_output@@@2@@__crt_stdio_output@@AEBA_NI@Z 00000001801d4e30 f i libucrt:output.obj
 0001:001d3e38       ?has_flag@?$output_processor@DV?$string_output_adapter@D@__crt_stdio_output@@V?$standard_base@DV?$string_output_adapter@D@__crt_stdio_output@@@2@@__crt_stdio_output@@AEBA_NI@Z 00000001801d4e38 f i libucrt:output.obj
 0001:001d3e40       ?has_flag@?$output_processor@_WV?$stream_output_adapter@_W@__crt_stdio_output@@V?$format_validation_base@_WV?$stream_output_adapter@_W@__crt_stdio_output@@@2@@__crt_stdio_output@@AEBA_NI@Z 00000001801d4e40 f i libucrt:output.obj
 0001:001d3e48       ?has_flag@?$output_processor@_WV?$stream_output_adapter@_W@__crt_stdio_output@@V?$positional_parameter_base@_WV?$stream_output_adapter@_W@__crt_stdio_output@@@2@@__crt_stdio_output@@AEBA_NI@Z 00000001801d4e48 f i libucrt:output.obj
 0001:001d3e50       ?has_flag@?$output_processor@_WV?$stream_output_adapter@_W@__crt_stdio_output@@V?$standard_base@_WV?$stream_output_adapter@_W@__crt_stdio_output@@@2@@__crt_stdio_output@@AEBA_NI@Z 00000001801d4e50 f i libucrt:output.obj
 0001:001d3e58       ?has_flag@?$output_processor@_WV?$string_output_adapter@_W@__crt_stdio_output@@V?$format_validation_base@_WV?$string_output_adapter@_W@__crt_stdio_output@@@2@@__crt_stdio_output@@AEBA_NI@Z 00000001801d4e58 f i libucrt:output.obj
 0001:001d3e60       ?has_flag@?$output_processor@_WV?$string_output_adapter@_W@__crt_stdio_output@@V?$positional_parameter_base@_WV?$string_output_adapter@_W@__crt_stdio_output@@@2@@__crt_stdio_output@@AEBA_NI@Z 00000001801d4e60 f i libucrt:output.obj
 0001:001d3e68       ?has_flag@?$output_processor@_WV?$string_output_adapter@_W@__crt_stdio_output@@V?$standard_base@_WV?$string_output_adapter@_W@__crt_stdio_output@@@2@@__crt_stdio_output@@AEBA_NI@Z 00000001801d4e68 f i libucrt:output.obj
 0001:001d3e70       ?is_positional_parameter_reappearance_consistent@?$positional_parameter_base@DV?$stream_output_adapter@D@__crt_stdio_output@@@__crt_stdio_output@@AEAA_NAEBUparameter_data@12@W4parameter_type@12@DW4length_modifier@2@@Z 00000001801d4e70 f i libucrt:output.obj
 0001:001d40d8       ?is_positional_parameter_reappearance_consistent@?$positional_parameter_base@DV?$string_output_adapter@D@__crt_stdio_output@@@__crt_stdio_output@@AEAA_NAEBUparameter_data@12@W4parameter_type@12@DW4length_modifier@2@@Z 00000001801d50d8 f i libucrt:output.obj
 0001:001d4340       ?is_positional_parameter_reappearance_consistent@?$positional_parameter_base@_WV?$stream_output_adapter@_W@__crt_stdio_output@@@__crt_stdio_output@@AEAA_NAEBUparameter_data@12@W4parameter_type@12@_WW4length_modifier@2@@Z 00000001801d5340 f i libucrt:output.obj
 0001:001d45c8       ?is_positional_parameter_reappearance_consistent@?$positional_parameter_base@_WV?$string_output_adapter@_W@__crt_stdio_output@@@__crt_stdio_output@@AEAA_NAEBUparameter_data@12@W4parameter_type@12@_WW4length_modifier@2@@Z 00000001801d55c8 f i libucrt:output.obj
 0001:001d4850       ?is_string_backed@__crt_stdio_stream@@QEBA_NXZ 00000001801d5850 f i libucrt:output.obj
 0001:001d4860       ?narrow_null_string@?$output_processor@DV?$stream_output_adapter@D@__crt_stdio_output@@V?$format_validation_base@DV?$stream_output_adapter@D@__crt_stdio_output@@@2@@__crt_stdio_output@@CAPEADXZ 00000001801d5860 f i libucrt:output.obj
 0001:001d486c       ?narrow_null_string@?$output_processor@DV?$stream_output_adapter@D@__crt_stdio_output@@V?$positional_parameter_base@DV?$stream_output_adapter@D@__crt_stdio_output@@@2@@__crt_stdio_output@@CAPEADXZ 00000001801d586c f i libucrt:output.obj
 0001:001d4878       ?narrow_null_string@?$output_processor@DV?$stream_output_adapter@D@__crt_stdio_output@@V?$standard_base@DV?$stream_output_adapter@D@__crt_stdio_output@@@2@@__crt_stdio_output@@CAPEADXZ 00000001801d5878 f i libucrt:output.obj
 0001:001d4884       ?narrow_null_string@?$output_processor@DV?$string_output_adapter@D@__crt_stdio_output@@V?$format_validation_base@DV?$string_output_adapter@D@__crt_stdio_output@@@2@@__crt_stdio_output@@CAPEADXZ 00000001801d5884 f i libucrt:output.obj
 0001:001d4890       ?narrow_null_string@?$output_processor@DV?$string_output_adapter@D@__crt_stdio_output@@V?$positional_parameter_base@DV?$string_output_adapter@D@__crt_stdio_output@@@2@@__crt_stdio_output@@CAPEADXZ 00000001801d5890 f i libucrt:output.obj
 0001:001d489c       ?narrow_null_string@?$output_processor@DV?$string_output_adapter@D@__crt_stdio_output@@V?$standard_base@DV?$string_output_adapter@D@__crt_stdio_output@@@2@@__crt_stdio_output@@CAPEADXZ 00000001801d589c f i libucrt:output.obj
 0001:001d48a8       ?narrow_null_string@?$output_processor@_WV?$stream_output_adapter@_W@__crt_stdio_output@@V?$format_validation_base@_WV?$stream_output_adapter@_W@__crt_stdio_output@@@2@@__crt_stdio_output@@CAPEADXZ 00000001801d58a8 f i libucrt:output.obj
 0001:001d48b4       ?narrow_null_string@?$output_processor@_WV?$stream_output_adapter@_W@__crt_stdio_output@@V?$positional_parameter_base@_WV?$stream_output_adapter@_W@__crt_stdio_output@@@2@@__crt_stdio_output@@CAPEADXZ 00000001801d58b4 f i libucrt:output.obj
 0001:001d48c0       ?narrow_null_string@?$output_processor@_WV?$stream_output_adapter@_W@__crt_stdio_output@@V?$standard_base@_WV?$stream_output_adapter@_W@__crt_stdio_output@@@2@@__crt_stdio_output@@CAPEADXZ 00000001801d58c0 f i libucrt:output.obj
 0001:001d48cc       ?narrow_null_string@?$output_processor@_WV?$string_output_adapter@_W@__crt_stdio_output@@V?$format_validation_base@_WV?$string_output_adapter@_W@__crt_stdio_output@@@2@@__crt_stdio_output@@CAPEADXZ 00000001801d58cc f i libucrt:output.obj
 0001:001d48d8       ?narrow_null_string@?$output_processor@_WV?$string_output_adapter@_W@__crt_stdio_output@@V?$positional_parameter_base@_WV?$string_output_adapter@_W@__crt_stdio_output@@@2@@__crt_stdio_output@@CAPEADXZ 00000001801d58d8 f i libucrt:output.obj
 0001:001d48e4       ?narrow_null_string@?$output_processor@_WV?$string_output_adapter@_W@__crt_stdio_output@@V?$standard_base@_WV?$string_output_adapter@_W@__crt_stdio_output@@@2@@__crt_stdio_output@@CAPEADXZ 00000001801d58e4 f i libucrt:output.obj
 0001:001d48f0       ?parse_int_from_format_string@?$output_processor@DV?$stream_output_adapter@D@__crt_stdio_output@@V?$format_validation_base@DV?$stream_output_adapter@D@__crt_stdio_output@@@2@@__crt_stdio_output@@AEAA_NQEAH@Z 00000001801d58f0 f i libucrt:output.obj
 0001:001d4994       ?parse_int_from_format_string@?$output_processor@DV?$stream_output_adapter@D@__crt_stdio_output@@V?$positional_parameter_base@DV?$stream_output_adapter@D@__crt_stdio_output@@@2@@__crt_stdio_output@@AEAA_NQEAH@Z 00000001801d5994 f i libucrt:output.obj
 0001:001d4a38       ?parse_int_from_format_string@?$output_processor@DV?$stream_output_adapter@D@__crt_stdio_output@@V?$standard_base@DV?$stream_output_adapter@D@__crt_stdio_output@@@2@@__crt_stdio_output@@AEAA_NQEAH@Z 00000001801d5a38 f i libucrt:output.obj
 0001:001d4adc       ?parse_int_from_format_string@?$output_processor@DV?$string_output_adapter@D@__crt_stdio_output@@V?$format_validation_base@DV?$string_output_adapter@D@__crt_stdio_output@@@2@@__crt_stdio_output@@AEAA_NQEAH@Z 00000001801d5adc f i libucrt:output.obj
 0001:001d4b80       ?parse_int_from_format_string@?$output_processor@DV?$string_output_adapter@D@__crt_stdio_output@@V?$positional_parameter_base@DV?$string_output_adapter@D@__crt_stdio_output@@@2@@__crt_stdio_output@@AEAA_NQEAH@Z 00000001801d5b80 f i libucrt:output.obj
 0001:001d4c24       ?parse_int_from_format_string@?$output_processor@DV?$string_output_adapter@D@__crt_stdio_output@@V?$standard_base@DV?$string_output_adapter@D@__crt_stdio_output@@@2@@__crt_stdio_output@@AEAA_NQEAH@Z 00000001801d5c24 f i libucrt:output.obj
 0001:001d4cc8       ?parse_int_from_format_string@?$output_processor@_WV?$stream_output_adapter@_W@__crt_stdio_output@@V?$format_validation_base@_WV?$stream_output_adapter@_W@__crt_stdio_output@@@2@@__crt_stdio_output@@AEAA_NQEAH@Z 00000001801d5cc8 f i libucrt:output.obj
 0001:001d4d68       ?parse_int_from_format_string@?$output_processor@_WV?$stream_output_adapter@_W@__crt_stdio_output@@V?$positional_parameter_base@_WV?$stream_output_adapter@_W@__crt_stdio_output@@@2@@__crt_stdio_output@@AEAA_NQEAH@Z 00000001801d5d68 f i libucrt:output.obj
 0001:001d4e08       ?parse_int_from_format_string@?$output_processor@_WV?$stream_output_adapter@_W@__crt_stdio_output@@V?$standard_base@_WV?$stream_output_adapter@_W@__crt_stdio_output@@@2@@__crt_stdio_output@@AEAA_NQEAH@Z 00000001801d5e08 f i libucrt:output.obj
 0001:001d4ea8       ?parse_int_from_format_string@?$output_processor@_WV?$string_output_adapter@_W@__crt_stdio_output@@V?$format_validation_base@_WV?$string_output_adapter@_W@__crt_stdio_output@@@2@@__crt_stdio_output@@AEAA_NQEAH@Z 00000001801d5ea8 f i libucrt:output.obj
 0001:001d4f48       ?parse_int_from_format_string@?$output_processor@_WV?$string_output_adapter@_W@__crt_stdio_output@@V?$positional_parameter_base@_WV?$string_output_adapter@_W@__crt_stdio_output@@@2@@__crt_stdio_output@@AEAA_NQEAH@Z 00000001801d5f48 f i libucrt:output.obj
 0001:001d4fe8       ?parse_int_from_format_string@?$output_processor@_WV?$string_output_adapter@_W@__crt_stdio_output@@V?$standard_base@_WV?$string_output_adapter@_W@__crt_stdio_output@@@2@@__crt_stdio_output@@AEAA_NQEAH@Z 00000001801d5fe8 f i libucrt:output.obj
 0001:001d5088       ?process@?$output_processor@DV?$stream_output_adapter@D@__crt_stdio_output@@V?$format_validation_base@DV?$stream_output_adapter@D@__crt_stdio_output@@@2@@__crt_stdio_output@@QEAAHXZ 00000001801d6088 f i libucrt:output.obj
 0001:001d5330       ?process@?$output_processor@DV?$stream_output_adapter@D@__crt_stdio_output@@V?$positional_parameter_base@DV?$stream_output_adapter@D@__crt_stdio_output@@@2@@__crt_stdio_output@@QEAAHXZ 00000001801d6330 f i libucrt:output.obj
 0001:001d5674       ?process@?$output_processor@DV?$stream_output_adapter@D@__crt_stdio_output@@V?$standard_base@DV?$stream_output_adapter@D@__crt_stdio_output@@@2@@__crt_stdio_output@@QEAAHXZ 00000001801d6674 f i libucrt:output.obj
 0001:001d5908       ?process@?$output_processor@DV?$string_output_adapter@D@__crt_stdio_output@@V?$format_validation_base@DV?$string_output_adapter@D@__crt_stdio_output@@@2@@__crt_stdio_output@@QEAAHXZ 00000001801d6908 f i libucrt:output.obj
 0001:001d5ba0       ?process@?$output_processor@DV?$string_output_adapter@D@__crt_stdio_output@@V?$positional_parameter_base@DV?$string_output_adapter@D@__crt_stdio_output@@@2@@__crt_stdio_output@@QEAAHXZ 00000001801d6ba0 f i libucrt:output.obj
 0001:001d5ed4       ?process@?$output_processor@DV?$string_output_adapter@D@__crt_stdio_output@@V?$standard_base@DV?$string_output_adapter@D@__crt_stdio_output@@@2@@__crt_stdio_output@@QEAAHXZ 00000001801d6ed4 f i libucrt:output.obj
 0001:001d6158       ?process@?$output_processor@_WV?$stream_output_adapter@_W@__crt_stdio_output@@V?$format_validation_base@_WV?$stream_output_adapter@_W@__crt_stdio_output@@@2@@__crt_stdio_output@@QEAAHXZ 00000001801d7158 f i libucrt:output.obj
 0001:001d647c       ?process@?$output_processor@_WV?$stream_output_adapter@_W@__crt_stdio_output@@V?$positional_parameter_base@_WV?$stream_output_adapter@_W@__crt_stdio_output@@@2@@__crt_stdio_output@@QEAAHXZ 00000001801d747c f i libucrt:output.obj
 0001:001d67dc       ?process@?$output_processor@_WV?$stream_output_adapter@_W@__crt_stdio_output@@V?$standard_base@_WV?$stream_output_adapter@_W@__crt_stdio_output@@@2@@__crt_stdio_output@@QEAAHXZ 00000001801d77dc f i libucrt:output.obj
 0001:001d6af0       ?process@?$output_processor@_WV?$string_output_adapter@_W@__crt_stdio_output@@V?$format_validation_base@_WV?$string_output_adapter@_W@__crt_stdio_output@@@2@@__crt_stdio_output@@QEAAHXZ 00000001801d7af0 f i libucrt:output.obj
 0001:001d6e18       ?process@?$output_processor@_WV?$string_output_adapter@_W@__crt_stdio_output@@V?$positional_parameter_base@_WV?$string_output_adapter@_W@__crt_stdio_output@@@2@@__crt_stdio_output@@QEAAHXZ 00000001801d7e18 f i libucrt:output.obj
 0001:001d7178       ?process@?$output_processor@_WV?$string_output_adapter@_W@__crt_stdio_output@@V?$standard_base@_WV?$string_output_adapter@_W@__crt_stdio_output@@@2@@__crt_stdio_output@@QEAAHXZ 00000001801d8178 f i libucrt:output.obj
 0001:001d7490       ?public_stream@__crt_stdio_stream@@QEBAPEAU_iobuf@@XZ 00000001801d8490 f i libucrt:output.obj
 0001:001d7494       ?set_flag@?$output_processor@DV?$stream_output_adapter@D@__crt_stdio_output@@V?$format_validation_base@DV?$stream_output_adapter@D@__crt_stdio_output@@@2@@__crt_stdio_output@@AEAAXI@Z 00000001801d8494 f i libucrt:output.obj
 0001:001d7498       ?set_flag@?$output_processor@DV?$stream_output_adapter@D@__crt_stdio_output@@V?$positional_parameter_base@DV?$stream_output_adapter@D@__crt_stdio_output@@@2@@__crt_stdio_output@@AEAAXI@Z 00000001801d8498 f i libucrt:output.obj
 0001:001d749c       ?set_flag@?$output_processor@DV?$stream_output_adapter@D@__crt_stdio_output@@V?$standard_base@DV?$stream_output_adapter@D@__crt_stdio_output@@@2@@__crt_stdio_output@@AEAAXI@Z 00000001801d849c f i libucrt:output.obj
 0001:001d74a0       ?set_flag@?$output_processor@DV?$string_output_adapter@D@__crt_stdio_output@@V?$format_validation_base@DV?$string_output_adapter@D@__crt_stdio_output@@@2@@__crt_stdio_output@@AEAAXI@Z 00000001801d84a0 f i libucrt:output.obj
 0001:001d74a4       ?set_flag@?$output_processor@DV?$string_output_adapter@D@__crt_stdio_output@@V?$positional_parameter_base@DV?$string_output_adapter@D@__crt_stdio_output@@@2@@__crt_stdio_output@@AEAAXI@Z 00000001801d84a4 f i libucrt:output.obj
 0001:001d74a8       ?set_flag@?$output_processor@DV?$string_output_adapter@D@__crt_stdio_output@@V?$standard_base@DV?$string_output_adapter@D@__crt_stdio_output@@@2@@__crt_stdio_output@@AEAAXI@Z 00000001801d84a8 f i libucrt:output.obj
 0001:001d74ac       ?set_flag@?$output_processor@_WV?$stream_output_adapter@_W@__crt_stdio_output@@V?$format_validation_base@_WV?$stream_output_adapter@_W@__crt_stdio_output@@@2@@__crt_stdio_output@@AEAAXI@Z 00000001801d84ac f i libucrt:output.obj
 0001:001d74b0       ?set_flag@?$output_processor@_WV?$stream_output_adapter@_W@__crt_stdio_output@@V?$positional_parameter_base@_WV?$stream_output_adapter@_W@__crt_stdio_output@@@2@@__crt_stdio_output@@AEAAXI@Z 00000001801d84b0 f i libucrt:output.obj
 0001:001d74b4       ?set_flag@?$output_processor@_WV?$stream_output_adapter@_W@__crt_stdio_output@@V?$standard_base@_WV?$stream_output_adapter@_W@__crt_stdio_output@@@2@@__crt_stdio_output@@AEAAXI@Z 00000001801d84b4 f i libucrt:output.obj
 0001:001d74b8       ?set_flag@?$output_processor@_WV?$string_output_adapter@_W@__crt_stdio_output@@V?$format_validation_base@_WV?$string_output_adapter@_W@__crt_stdio_output@@@2@@__crt_stdio_output@@AEAAXI@Z 00000001801d84b8 f i libucrt:output.obj
 0001:001d74bc       ?set_flag@?$output_processor@_WV?$string_output_adapter@_W@__crt_stdio_output@@V?$positional_parameter_base@_WV?$string_output_adapter@_W@__crt_stdio_output@@@2@@__crt_stdio_output@@AEAAXI@Z 00000001801d84bc f i libucrt:output.obj
 0001:001d74c0       ?set_flag@?$output_processor@_WV?$string_output_adapter@_W@__crt_stdio_output@@V?$standard_base@_WV?$string_output_adapter@_W@__crt_stdio_output@@@2@@__crt_stdio_output@@AEAAXI@Z 00000001801d84c0 f i libucrt:output.obj
 0001:001d74c4       ?should_format@?$positional_parameter_base@DV?$stream_output_adapter@D@__crt_stdio_output@@@__crt_stdio_output@@IEAA_NXZ 00000001801d84c4 f i libucrt:output.obj
 0001:001d74e4       ?should_format@?$positional_parameter_base@DV?$string_output_adapter@D@__crt_stdio_output@@@__crt_stdio_output@@IEAA_NXZ 00000001801d84e4 f i libucrt:output.obj
 0001:001d7504       ?should_format@?$positional_parameter_base@_WV?$stream_output_adapter@_W@__crt_stdio_output@@@__crt_stdio_output@@IEAA_NXZ 00000001801d8504 f i libucrt:output.obj
 0001:001d7524       ?should_format@?$positional_parameter_base@_WV?$string_output_adapter@_W@__crt_stdio_output@@@__crt_stdio_output@@IEAA_NXZ 00000001801d8524 f i libucrt:output.obj
 0001:001d7544       ?should_format@?$standard_base@DV?$stream_output_adapter@D@__crt_stdio_output@@@__crt_stdio_output@@IEAA_NXZ 00000001801d8544 f i libucrt:output.obj
 0001:001d7548       ?should_format@?$standard_base@DV?$string_output_adapter@D@__crt_stdio_output@@@__crt_stdio_output@@IEAA_NXZ 00000001801d8548 f i libucrt:output.obj
 0001:001d754c       ?should_format@?$standard_base@_WV?$stream_output_adapter@_W@__crt_stdio_output@@@__crt_stdio_output@@IEAA_NXZ 00000001801d854c f i libucrt:output.obj
 0001:001d7550       ?should_format@?$standard_base@_WV?$string_output_adapter@_W@__crt_stdio_output@@@__crt_stdio_output@@IEAA_NXZ 00000001801d8550 f i libucrt:output.obj
 0001:001d7554       ?should_skip_normal_state_processing@?$positional_parameter_base@DV?$stream_output_adapter@D@__crt_stdio_output@@@__crt_stdio_output@@IEAA_NXZ 00000001801d8554 f i libucrt:output.obj
 0001:001d7588       ?should_skip_normal_state_processing@?$positional_parameter_base@DV?$string_output_adapter@D@__crt_stdio_output@@@__crt_stdio_output@@IEAA_NXZ 00000001801d8588 f i libucrt:output.obj
 0001:001d75bc       ?should_skip_normal_state_processing@?$positional_parameter_base@_WV?$stream_output_adapter@_W@__crt_stdio_output@@@__crt_stdio_output@@IEAA_NXZ 00000001801d85bc f i libucrt:output.obj
 0001:001d75f0       ?should_skip_normal_state_processing@?$positional_parameter_base@_WV?$string_output_adapter@_W@__crt_stdio_output@@@__crt_stdio_output@@IEAA_NXZ 00000001801d85f0 f i libucrt:output.obj
 0001:001d7624       ?should_skip_normal_state_processing@?$standard_base@DV?$stream_output_adapter@D@__crt_stdio_output@@@__crt_stdio_output@@IEAA_NXZ 00000001801d8624 f i libucrt:output.obj
 0001:001d7628       ?should_skip_normal_state_processing@?$standard_base@DV?$string_output_adapter@D@__crt_stdio_output@@@__crt_stdio_output@@IEAA_NXZ 00000001801d8628 f i libucrt:output.obj
 0001:001d762c       ?should_skip_normal_state_processing@?$standard_base@_WV?$stream_output_adapter@_W@__crt_stdio_output@@@__crt_stdio_output@@IEAA_NXZ 00000001801d862c f i libucrt:output.obj
 0001:001d7630       ?should_skip_normal_state_processing@?$standard_base@_WV?$string_output_adapter@_W@__crt_stdio_output@@@__crt_stdio_output@@IEAA_NXZ 00000001801d8630 f i libucrt:output.obj
 0001:001d7634       ?should_skip_type_state_output@?$positional_parameter_base@DV?$stream_output_adapter@D@__crt_stdio_output@@@__crt_stdio_output@@IEBA_NXZ 00000001801d8634 f i libucrt:output.obj
 0001:001d7654       ?should_skip_type_state_output@?$positional_parameter_base@DV?$string_output_adapter@D@__crt_stdio_output@@@__crt_stdio_output@@IEBA_NXZ 00000001801d8654 f i libucrt:output.obj
 0001:001d7674       ?should_skip_type_state_output@?$positional_parameter_base@_WV?$stream_output_adapter@_W@__crt_stdio_output@@@__crt_stdio_output@@IEBA_NXZ 00000001801d8674 f i libucrt:output.obj
 0001:001d7694       ?should_skip_type_state_output@?$positional_parameter_base@_WV?$string_output_adapter@_W@__crt_stdio_output@@@__crt_stdio_output@@IEBA_NXZ 00000001801d8694 f i libucrt:output.obj
 0001:001d76b4       ?should_skip_type_state_output@?$standard_base@DV?$stream_output_adapter@D@__crt_stdio_output@@@__crt_stdio_output@@IEBA_NXZ 00000001801d86b4 f i libucrt:output.obj
 0001:001d76b8       ?should_skip_type_state_output@?$standard_base@DV?$string_output_adapter@D@__crt_stdio_output@@@__crt_stdio_output@@IEBA_NXZ 00000001801d86b8 f i libucrt:output.obj
 0001:001d76bc       ?should_skip_type_state_output@?$standard_base@_WV?$stream_output_adapter@_W@__crt_stdio_output@@@__crt_stdio_output@@IEBA_NXZ 00000001801d86bc f i libucrt:output.obj
 0001:001d76c0       ?should_skip_type_state_output@?$standard_base@_WV?$string_output_adapter@_W@__crt_stdio_output@@@__crt_stdio_output@@IEBA_NXZ 00000001801d86c0 f i libucrt:output.obj
 0001:001d76c4       ?state_case_dot@?$output_processor@DV?$stream_output_adapter@D@__crt_stdio_output@@V?$format_validation_base@DV?$stream_output_adapter@D@__crt_stdio_output@@@2@@__crt_stdio_output@@AEAA_NXZ 00000001801d86c4 f i libucrt:output.obj
 0001:001d76cc       ?state_case_dot@?$output_processor@DV?$stream_output_adapter@D@__crt_stdio_output@@V?$positional_parameter_base@DV?$stream_output_adapter@D@__crt_stdio_output@@@2@@__crt_stdio_output@@AEAA_NXZ 00000001801d86cc f i libucrt:output.obj
 0001:001d76d4       ?state_case_dot@?$output_processor@DV?$stream_output_adapter@D@__crt_stdio_output@@V?$standard_base@DV?$stream_output_adapter@D@__crt_stdio_output@@@2@@__crt_stdio_output@@AEAA_NXZ 00000001801d86d4 f i libucrt:output.obj
 0001:001d76dc       ?state_case_dot@?$output_processor@DV?$string_output_adapter@D@__crt_stdio_output@@V?$format_validation_base@DV?$string_output_adapter@D@__crt_stdio_output@@@2@@__crt_stdio_output@@AEAA_NXZ 00000001801d86dc f i libucrt:output.obj
 0001:001d76e4       ?state_case_dot@?$output_processor@DV?$string_output_adapter@D@__crt_stdio_output@@V?$positional_parameter_base@DV?$string_output_adapter@D@__crt_stdio_output@@@2@@__crt_stdio_output@@AEAA_NXZ 00000001801d86e4 f i libucrt:output.obj
 0001:001d76ec       ?state_case_dot@?$output_processor@DV?$string_output_adapter@D@__crt_stdio_output@@V?$standard_base@DV?$string_output_adapter@D@__crt_stdio_output@@@2@@__crt_stdio_output@@AEAA_NXZ 00000001801d86ec f i libucrt:output.obj
 0001:001d76f4       ?state_case_dot@?$output_processor@_WV?$stream_output_adapter@_W@__crt_stdio_output@@V?$format_validation_base@_WV?$stream_output_adapter@_W@__crt_stdio_output@@@2@@__crt_stdio_output@@AEAA_NXZ 00000001801d86f4 f i libucrt:output.obj
 0001:001d76fc       ?state_case_dot@?$output_processor@_WV?$stream_output_adapter@_W@__crt_stdio_output@@V?$positional_parameter_base@_WV?$stream_output_adapter@_W@__crt_stdio_output@@@2@@__crt_stdio_output@@AEAA_NXZ 00000001801d86fc f i libucrt:output.obj
 0001:001d7704       ?state_case_dot@?$output_processor@_WV?$stream_output_adapter@_W@__crt_stdio_output@@V?$standard_base@_WV?$stream_output_adapter@_W@__crt_stdio_output@@@2@@__crt_stdio_output@@AEAA_NXZ 00000001801d8704 f i libucrt:output.obj
 0001:001d770c       ?state_case_dot@?$output_processor@_WV?$string_output_adapter@_W@__crt_stdio_output@@V?$format_validation_base@_WV?$string_output_adapter@_W@__crt_stdio_output@@@2@@__crt_stdio_output@@AEAA_NXZ 00000001801d870c f i libucrt:output.obj
 0001:001d7714       ?state_case_dot@?$output_processor@_WV?$string_output_adapter@_W@__crt_stdio_output@@V?$positional_parameter_base@_WV?$string_output_adapter@_W@__crt_stdio_output@@@2@@__crt_stdio_output@@AEAA_NXZ 00000001801d8714 f i libucrt:output.obj
 0001:001d771c       ?state_case_dot@?$output_processor@_WV?$string_output_adapter@_W@__crt_stdio_output@@V?$standard_base@_WV?$string_output_adapter@_W@__crt_stdio_output@@@2@@__crt_stdio_output@@AEAA_NXZ 00000001801d871c f i libucrt:output.obj
 0001:001d7724       ?state_case_flag@?$output_processor@DV?$stream_output_adapter@D@__crt_stdio_output@@V?$format_validation_base@DV?$stream_output_adapter@D@__crt_stdio_output@@@2@@__crt_stdio_output@@AEAA_NXZ 00000001801d8724 f i libucrt:output.obj
 0001:001d7768       ?state_case_flag@?$output_processor@DV?$stream_output_adapter@D@__crt_stdio_output@@V?$positional_parameter_base@DV?$stream_output_adapter@D@__crt_stdio_output@@@2@@__crt_stdio_output@@AEAA_NXZ 00000001801d8768 f i libucrt:output.obj
 0001:001d77ac       ?state_case_flag@?$output_processor@DV?$stream_output_adapter@D@__crt_stdio_output@@V?$standard_base@DV?$stream_output_adapter@D@__crt_stdio_output@@@2@@__crt_stdio_output@@AEAA_NXZ 00000001801d87ac f i libucrt:output.obj
 0001:001d77f0       ?state_case_flag@?$output_processor@DV?$string_output_adapter@D@__crt_stdio_output@@V?$format_validation_base@DV?$string_output_adapter@D@__crt_stdio_output@@@2@@__crt_stdio_output@@AEAA_NXZ 00000001801d87f0 f i libucrt:output.obj
 0001:001d7834       ?state_case_flag@?$output_processor@DV?$string_output_adapter@D@__crt_stdio_output@@V?$positional_parameter_base@DV?$string_output_adapter@D@__crt_stdio_output@@@2@@__crt_stdio_output@@AEAA_NXZ 00000001801d8834 f i libucrt:output.obj
 0001:001d7878       ?state_case_flag@?$output_processor@DV?$string_output_adapter@D@__crt_stdio_output@@V?$standard_base@DV?$string_output_adapter@D@__crt_stdio_output@@@2@@__crt_stdio_output@@AEAA_NXZ 00000001801d8878 f i libucrt:output.obj
 0001:001d78bc       ?state_case_flag@?$output_processor@_WV?$stream_output_adapter@_W@__crt_stdio_output@@V?$format_validation_base@_WV?$stream_output_adapter@_W@__crt_stdio_output@@@2@@__crt_stdio_output@@AEAA_NXZ 00000001801d88bc f i libucrt:output.obj
 0001:001d7908       ?state_case_flag@?$output_processor@_WV?$stream_output_adapter@_W@__crt_stdio_output@@V?$positional_parameter_base@_WV?$stream_output_adapter@_W@__crt_stdio_output@@@2@@__crt_stdio_output@@AEAA_NXZ 00000001801d8908 f i libucrt:output.obj
 0001:001d7954       ?state_case_flag@?$output_processor@_WV?$stream_output_adapter@_W@__crt_stdio_output@@V?$standard_base@_WV?$stream_output_adapter@_W@__crt_stdio_output@@@2@@__crt_stdio_output@@AEAA_NXZ 00000001801d8954 f i libucrt:output.obj
 0001:001d79a0       ?state_case_flag@?$output_processor@_WV?$string_output_adapter@_W@__crt_stdio_output@@V?$format_validation_base@_WV?$string_output_adapter@_W@__crt_stdio_output@@@2@@__crt_stdio_output@@AEAA_NXZ 00000001801d89a0 f i libucrt:output.obj
 0001:001d79ec       ?state_case_flag@?$output_processor@_WV?$string_output_adapter@_W@__crt_stdio_output@@V?$positional_parameter_base@_WV?$string_output_adapter@_W@__crt_stdio_output@@@2@@__crt_stdio_output@@AEAA_NXZ 00000001801d89ec f i libucrt:output.obj
 0001:001d7a38       ?state_case_flag@?$output_processor@_WV?$string_output_adapter@_W@__crt_stdio_output@@V?$standard_base@_WV?$string_output_adapter@_W@__crt_stdio_output@@@2@@__crt_stdio_output@@AEAA_NXZ 00000001801d8a38 f i libucrt:output.obj
 0001:001d7a84       ?state_case_normal@?$output_processor@DV?$stream_output_adapter@D@__crt_stdio_output@@V?$format_validation_base@DV?$stream_output_adapter@D@__crt_stdio_output@@@2@@__crt_stdio_output@@AEAA_NXZ 00000001801d8a84 f i libucrt:output.obj
 0001:001d7b10       ?state_case_normal@?$output_processor@DV?$stream_output_adapter@D@__crt_stdio_output@@V?$positional_parameter_base@DV?$stream_output_adapter@D@__crt_stdio_output@@@2@@__crt_stdio_output@@AEAA_NXZ 00000001801d8b10 f i libucrt:output.obj
 0001:001d7bcc       ?state_case_normal@?$output_processor@DV?$stream_output_adapter@D@__crt_stdio_output@@V?$standard_base@DV?$stream_output_adapter@D@__crt_stdio_output@@@2@@__crt_stdio_output@@AEAA_NXZ 00000001801d8bcc f i libucrt:output.obj
 0001:001d7c58       ?state_case_normal@?$output_processor@DV?$string_output_adapter@D@__crt_stdio_output@@V?$format_validation_base@DV?$string_output_adapter@D@__crt_stdio_output@@@2@@__crt_stdio_output@@AEAA_NXZ 00000001801d8c58 f i libucrt:output.obj
 0001:001d7cec       ?state_case_normal@?$output_processor@DV?$string_output_adapter@D@__crt_stdio_output@@V?$positional_parameter_base@DV?$string_output_adapter@D@__crt_stdio_output@@@2@@__crt_stdio_output@@AEAA_NXZ 00000001801d8cec f i libucrt:output.obj
 0001:001d7dac       ?state_case_normal@?$output_processor@DV?$string_output_adapter@D@__crt_stdio_output@@V?$standard_base@DV?$string_output_adapter@D@__crt_stdio_output@@@2@@__crt_stdio_output@@AEAA_NXZ 00000001801d8dac f i libucrt:output.obj
 0001:001d7e40       ?state_case_normal@?$output_processor@_WV?$stream_output_adapter@_W@__crt_stdio_output@@V?$format_validation_base@_WV?$stream_output_adapter@_W@__crt_stdio_output@@@2@@__crt_stdio_output@@AEAA_NXZ 00000001801d8e40 f i libucrt:output.obj
 0001:001d7eb0       ?state_case_normal@?$output_processor@_WV?$stream_output_adapter@_W@__crt_stdio_output@@V?$positional_parameter_base@_WV?$stream_output_adapter@_W@__crt_stdio_output@@@2@@__crt_stdio_output@@AEAA_NXZ 00000001801d8eb0 f i libucrt:output.obj
 0001:001d7f50       ?state_case_normal@?$output_processor@_WV?$stream_output_adapter@_W@__crt_stdio_output@@V?$standard_base@_WV?$stream_output_adapter@_W@__crt_stdio_output@@@2@@__crt_stdio_output@@AEAA_NXZ 00000001801d8f50 f i libucrt:output.obj
 0001:001d7fc0       ?state_case_normal@?$output_processor@_WV?$string_output_adapter@_W@__crt_stdio_output@@V?$format_validation_base@_WV?$string_output_adapter@_W@__crt_stdio_output@@@2@@__crt_stdio_output@@AEAA_NXZ 00000001801d8fc0 f i libucrt:output.obj
 0001:001d802c       ?state_case_normal@?$output_processor@_WV?$string_output_adapter@_W@__crt_stdio_output@@V?$positional_parameter_base@_WV?$string_output_adapter@_W@__crt_stdio_output@@@2@@__crt_stdio_output@@AEAA_NXZ 00000001801d902c f i libucrt:output.obj
 0001:001d80bc       ?state_case_normal@?$output_processor@_WV?$string_output_adapter@_W@__crt_stdio_output@@V?$standard_base@_WV?$string_output_adapter@_W@__crt_stdio_output@@@2@@__crt_stdio_output@@AEAA_NXZ 00000001801d90bc f i libucrt:output.obj
 0001:001d8128       ?state_case_normal_common@?$output_processor@DV?$stream_output_adapter@D@__crt_stdio_output@@V?$format_validation_base@DV?$stream_output_adapter@D@__crt_stdio_output@@@2@@__crt_stdio_output@@AEAA_NXZ 00000001801d9128 f i libucrt:output.obj
 0001:001d819c       ?state_case_normal_common@?$output_processor@DV?$stream_output_adapter@D@__crt_stdio_output@@V?$positional_parameter_base@DV?$stream_output_adapter@D@__crt_stdio_output@@@2@@__crt_stdio_output@@AEAA_NXZ 00000001801d919c f i libucrt:output.obj
 0001:001d8210       ?state_case_normal_common@?$output_processor@DV?$stream_output_adapter@D@__crt_stdio_output@@V?$standard_base@DV?$stream_output_adapter@D@__crt_stdio_output@@@2@@__crt_stdio_output@@AEAA_NXZ 00000001801d9210 f i libucrt:output.obj
 0001:001d8284       ?state_case_normal_common@?$output_processor@DV?$string_output_adapter@D@__crt_stdio_output@@V?$format_validation_base@DV?$string_output_adapter@D@__crt_stdio_output@@@2@@__crt_stdio_output@@AEAA_NXZ 00000001801d9284 f i libucrt:output.obj
 0001:001d82fc       ?state_case_normal_common@?$output_processor@DV?$string_output_adapter@D@__crt_stdio_output@@V?$positional_parameter_base@DV?$string_output_adapter@D@__crt_stdio_output@@@2@@__crt_stdio_output@@AEAA_NXZ 00000001801d92fc f i libucrt:output.obj
 0001:001d8374       ?state_case_normal_common@?$output_processor@DV?$string_output_adapter@D@__crt_stdio_output@@V?$standard_base@DV?$string_output_adapter@D@__crt_stdio_output@@@2@@__crt_stdio_output@@AEAA_NXZ 00000001801d9374 f i libucrt:output.obj
 0001:001d83ec       ?state_case_normal_common@?$output_processor@_WV?$stream_output_adapter@_W@__crt_stdio_output@@V?$format_validation_base@_WV?$stream_output_adapter@_W@__crt_stdio_output@@@2@@__crt_stdio_output@@AEAA_NXZ 00000001801d93ec f i libucrt:output.obj
 0001:001d845c       ?state_case_normal_common@?$output_processor@_WV?$stream_output_adapter@_W@__crt_stdio_output@@V?$positional_parameter_base@_WV?$stream_output_adapter@_W@__crt_stdio_output@@@2@@__crt_stdio_output@@AEAA_NXZ 00000001801d945c f i libucrt:output.obj
 0001:001d84cc       ?state_case_normal_common@?$output_processor@_WV?$stream_output_adapter@_W@__crt_stdio_output@@V?$standard_base@_WV?$stream_output_adapter@_W@__crt_stdio_output@@@2@@__crt_stdio_output@@AEAA_NXZ 00000001801d94cc f i libucrt:output.obj
 0001:001d853c       ?state_case_normal_common@?$output_processor@_WV?$string_output_adapter@_W@__crt_stdio_output@@V?$format_validation_base@_WV?$string_output_adapter@_W@__crt_stdio_output@@@2@@__crt_stdio_output@@AEAA_NXZ 00000001801d953c f i libucrt:output.obj
 0001:001d85a8       ?state_case_normal_common@?$output_processor@_WV?$string_output_adapter@_W@__crt_stdio_output@@V?$positional_parameter_base@_WV?$string_output_adapter@_W@__crt_stdio_output@@@2@@__crt_stdio_output@@AEAA_NXZ 00000001801d95a8 f i libucrt:output.obj
 0001:001d8614       ?state_case_normal_common@?$output_processor@_WV?$string_output_adapter@_W@__crt_stdio_output@@V?$standard_base@_WV?$string_output_adapter@_W@__crt_stdio_output@@@2@@__crt_stdio_output@@AEAA_NXZ 00000001801d9614 f i libucrt:output.obj
 0001:001d8680       ?state_case_normal_tchar@?$output_processor@DV?$stream_output_adapter@D@__crt_stdio_output@@V?$format_validation_base@DV?$stream_output_adapter@D@__crt_stdio_output@@@2@@__crt_stdio_output@@AEAA_ND@Z 00000001801d9680 f i libucrt:output.obj
 0001:001d8738       ?state_case_normal_tchar@?$output_processor@DV?$stream_output_adapter@D@__crt_stdio_output@@V?$positional_parameter_base@DV?$stream_output_adapter@D@__crt_stdio_output@@@2@@__crt_stdio_output@@AEAA_ND@Z 00000001801d9738 f i libucrt:output.obj
 0001:001d87f0       ?state_case_normal_tchar@?$output_processor@DV?$stream_output_adapter@D@__crt_stdio_output@@V?$standard_base@DV?$stream_output_adapter@D@__crt_stdio_output@@@2@@__crt_stdio_output@@AEAA_ND@Z 00000001801d97f0 f i libucrt:output.obj
 0001:001d88a8       ?state_case_normal_tchar@?$output_processor@DV?$string_output_adapter@D@__crt_stdio_output@@V?$format_validation_base@DV?$string_output_adapter@D@__crt_stdio_output@@@2@@__crt_stdio_output@@AEAA_ND@Z 00000001801d98a8 f i libucrt:output.obj
 0001:001d8964       ?state_case_normal_tchar@?$output_processor@DV?$string_output_adapter@D@__crt_stdio_output@@V?$positional_parameter_base@DV?$string_output_adapter@D@__crt_stdio_output@@@2@@__crt_stdio_output@@AEAA_ND@Z 00000001801d9964 f i libucrt:output.obj
 0001:001d8a20       ?state_case_normal_tchar@?$output_processor@DV?$string_output_adapter@D@__crt_stdio_output@@V?$standard_base@DV?$string_output_adapter@D@__crt_stdio_output@@@2@@__crt_stdio_output@@AEAA_ND@Z 00000001801d9a20 f i libucrt:output.obj
 0001:001d8adc       ?state_case_normal_tchar@?$output_processor@_WV?$stream_output_adapter@_W@__crt_stdio_output@@V?$format_validation_base@_WV?$stream_output_adapter@_W@__crt_stdio_output@@@2@@__crt_stdio_output@@AEAA_N_W@Z 00000001801d9adc f i libucrt:output.obj
 0001:001d8ae4       ?state_case_normal_tchar@?$output_processor@_WV?$stream_output_adapter@_W@__crt_stdio_output@@V?$positional_parameter_base@_WV?$stream_output_adapter@_W@__crt_stdio_output@@@2@@__crt_stdio_output@@AEAA_N_W@Z 00000001801d9ae4 f i libucrt:output.obj
 0001:001d8aec       ?state_case_normal_tchar@?$output_processor@_WV?$stream_output_adapter@_W@__crt_stdio_output@@V?$standard_base@_WV?$stream_output_adapter@_W@__crt_stdio_output@@@2@@__crt_stdio_output@@AEAA_N_W@Z 00000001801d9aec f i libucrt:output.obj
 0001:001d8af4       ?state_case_normal_tchar@?$output_processor@_WV?$string_output_adapter@_W@__crt_stdio_output@@V?$format_validation_base@_WV?$string_output_adapter@_W@__crt_stdio_output@@@2@@__crt_stdio_output@@AEAA_N_W@Z 00000001801d9af4 f i libucrt:output.obj
 0001:001d8afc       ?state_case_normal_tchar@?$output_processor@_WV?$string_output_adapter@_W@__crt_stdio_output@@V?$positional_parameter_base@_WV?$string_output_adapter@_W@__crt_stdio_output@@@2@@__crt_stdio_output@@AEAA_N_W@Z 00000001801d9afc f i libucrt:output.obj
 0001:001d8b04       ?state_case_normal_tchar@?$output_processor@_WV?$string_output_adapter@_W@__crt_stdio_output@@V?$standard_base@_WV?$string_output_adapter@_W@__crt_stdio_output@@@2@@__crt_stdio_output@@AEAA_N_W@Z 00000001801d9b04 f i libucrt:output.obj
 0001:001d8b0c       ?state_case_percent@?$output_processor@DV?$stream_output_adapter@D@__crt_stdio_output@@V?$format_validation_base@DV?$stream_output_adapter@D@__crt_stdio_output@@@2@@__crt_stdio_output@@AEAA_NXZ 00000001801d9b0c f i libucrt:output.obj
 0001:001d8b28       ?state_case_percent@?$output_processor@DV?$stream_output_adapter@D@__crt_stdio_output@@V?$positional_parameter_base@DV?$stream_output_adapter@D@__crt_stdio_output@@@2@@__crt_stdio_output@@AEAA_NXZ 00000001801d9b28 f i libucrt:output.obj
 0001:001d8b44       ?state_case_percent@?$output_processor@DV?$stream_output_adapter@D@__crt_stdio_output@@V?$standard_base@DV?$stream_output_adapter@D@__crt_stdio_output@@@2@@__crt_stdio_output@@AEAA_NXZ 00000001801d9b44 f i libucrt:output.obj
 0001:001d8b60       ?state_case_percent@?$output_processor@DV?$string_output_adapter@D@__crt_stdio_output@@V?$format_validation_base@DV?$string_output_adapter@D@__crt_stdio_output@@@2@@__crt_stdio_output@@AEAA_NXZ 00000001801d9b60 f i libucrt:output.obj
 0001:001d8b7c       ?state_case_percent@?$output_processor@DV?$string_output_adapter@D@__crt_stdio_output@@V?$positional_parameter_base@DV?$string_output_adapter@D@__crt_stdio_output@@@2@@__crt_stdio_output@@AEAA_NXZ 00000001801d9b7c f i libucrt:output.obj
 0001:001d8b98       ?state_case_percent@?$output_processor@DV?$string_output_adapter@D@__crt_stdio_output@@V?$standard_base@DV?$string_output_adapter@D@__crt_stdio_output@@@2@@__crt_stdio_output@@AEAA_NXZ 00000001801d9b98 f i libucrt:output.obj
 0001:001d8bb4       ?state_case_percent@?$output_processor@_WV?$stream_output_adapter@_W@__crt_stdio_output@@V?$format_validation_base@_WV?$stream_output_adapter@_W@__crt_stdio_output@@@2@@__crt_stdio_output@@AEAA_NXZ 00000001801d9bb4 f i libucrt:output.obj
 0001:001d8bd0       ?state_case_percent@?$output_processor@_WV?$stream_output_adapter@_W@__crt_stdio_output@@V?$positional_parameter_base@_WV?$stream_output_adapter@_W@__crt_stdio_output@@@2@@__crt_stdio_output@@AEAA_NXZ 00000001801d9bd0 f i libucrt:output.obj
 0001:001d8bec       ?state_case_percent@?$output_processor@_WV?$stream_output_adapter@_W@__crt_stdio_output@@V?$standard_base@_WV?$stream_output_adapter@_W@__crt_stdio_output@@@2@@__crt_stdio_output@@AEAA_NXZ 00000001801d9bec f i libucrt:output.obj
 0001:001d8c08       ?state_case_percent@?$output_processor@_WV?$string_output_adapter@_W@__crt_stdio_output@@V?$format_validation_base@_WV?$string_output_adapter@_W@__crt_stdio_output@@@2@@__crt_stdio_output@@AEAA_NXZ 00000001801d9c08 f i libucrt:output.obj
 0001:001d8c24       ?state_case_percent@?$output_processor@_WV?$string_output_adapter@_W@__crt_stdio_output@@V?$positional_parameter_base@_WV?$string_output_adapter@_W@__crt_stdio_output@@@2@@__crt_stdio_output@@AEAA_NXZ 00000001801d9c24 f i libucrt:output.obj
 0001:001d8c40       ?state_case_percent@?$output_processor@_WV?$string_output_adapter@_W@__crt_stdio_output@@V?$standard_base@_WV?$string_output_adapter@_W@__crt_stdio_output@@@2@@__crt_stdio_output@@AEAA_NXZ 00000001801d9c40 f i libucrt:output.obj
 0001:001d8c5c       ?state_case_precision@?$output_processor@DV?$stream_output_adapter@D@__crt_stdio_output@@V?$format_validation_base@DV?$stream_output_adapter@D@__crt_stdio_output@@@2@@__crt_stdio_output@@AEAA_NXZ 00000001801d9c5c f i libucrt:output.obj
 0001:001d8c94       ?state_case_precision@?$output_processor@DV?$stream_output_adapter@D@__crt_stdio_output@@V?$positional_parameter_base@DV?$stream_output_adapter@D@__crt_stdio_output@@@2@@__crt_stdio_output@@AEAA_NXZ 00000001801d9c94 f i libucrt:output.obj
 0001:001d8cf0       ?state_case_precision@?$output_processor@DV?$stream_output_adapter@D@__crt_stdio_output@@V?$standard_base@DV?$stream_output_adapter@D@__crt_stdio_output@@@2@@__crt_stdio_output@@AEAA_NXZ 00000001801d9cf0 f i libucrt:output.obj
 0001:001d8d28       ?state_case_precision@?$output_processor@DV?$string_output_adapter@D@__crt_stdio_output@@V?$format_validation_base@DV?$string_output_adapter@D@__crt_stdio_output@@@2@@__crt_stdio_output@@AEAA_NXZ 00000001801d9d28 f i libucrt:output.obj
 0001:001d8d60       ?state_case_precision@?$output_processor@DV?$string_output_adapter@D@__crt_stdio_output@@V?$positional_parameter_base@DV?$string_output_adapter@D@__crt_stdio_output@@@2@@__crt_stdio_output@@AEAA_NXZ 00000001801d9d60 f i libucrt:output.obj
 0001:001d8dbc       ?state_case_precision@?$output_processor@DV?$string_output_adapter@D@__crt_stdio_output@@V?$standard_base@DV?$string_output_adapter@D@__crt_stdio_output@@@2@@__crt_stdio_output@@AEAA_NXZ 00000001801d9dbc f i libucrt:output.obj
 0001:001d8df4       ?state_case_precision@?$output_processor@_WV?$stream_output_adapter@_W@__crt_stdio_output@@V?$format_validation_base@_WV?$stream_output_adapter@_W@__crt_stdio_output@@@2@@__crt_stdio_output@@AEAA_NXZ 00000001801d9df4 f i libucrt:output.obj
 0001:001d8e30       ?state_case_precision@?$output_processor@_WV?$stream_output_adapter@_W@__crt_stdio_output@@V?$positional_parameter_base@_WV?$stream_output_adapter@_W@__crt_stdio_output@@@2@@__crt_stdio_output@@AEAA_NXZ 00000001801d9e30 f i libucrt:output.obj
 0001:001d8e90       ?state_case_precision@?$output_processor@_WV?$stream_output_adapter@_W@__crt_stdio_output@@V?$standard_base@_WV?$stream_output_adapter@_W@__crt_stdio_output@@@2@@__crt_stdio_output@@AEAA_NXZ 00000001801d9e90 f i libucrt:output.obj
 0001:001d8ecc       ?state_case_precision@?$output_processor@_WV?$string_output_adapter@_W@__crt_stdio_output@@V?$format_validation_base@_WV?$string_output_adapter@_W@__crt_stdio_output@@@2@@__crt_stdio_output@@AEAA_NXZ 00000001801d9ecc f i libucrt:output.obj
 0001:001d8f08       ?state_case_precision@?$output_processor@_WV?$string_output_adapter@_W@__crt_stdio_output@@V?$positional_parameter_base@_WV?$string_output_adapter@_W@__crt_stdio_output@@@2@@__crt_stdio_output@@AEAA_NXZ 00000001801d9f08 f i libucrt:output.obj
 0001:001d8f68       ?state_case_precision@?$output_processor@_WV?$string_output_adapter@_W@__crt_stdio_output@@V?$standard_base@_WV?$string_output_adapter@_W@__crt_stdio_output@@@2@@__crt_stdio_output@@AEAA_NXZ 00000001801d9f68 f i libucrt:output.obj
 0001:001d8fa4       ?state_case_size@?$output_processor@DV?$stream_output_adapter@D@__crt_stdio_output@@V?$format_validation_base@DV?$stream_output_adapter@D@__crt_stdio_output@@@2@@__crt_stdio_output@@AEAA_NXZ 00000001801d9fa4 f i libucrt:output.obj
 0001:001d9180       ?state_case_size@?$output_processor@DV?$stream_output_adapter@D@__crt_stdio_output@@V?$positional_parameter_base@DV?$stream_output_adapter@D@__crt_stdio_output@@@2@@__crt_stdio_output@@AEAA_NXZ 00000001801da180 f i libucrt:output.obj
 0001:001d935c       ?state_case_size@?$output_processor@DV?$stream_output_adapter@D@__crt_stdio_output@@V?$standard_base@DV?$stream_output_adapter@D@__crt_stdio_output@@@2@@__crt_stdio_output@@AEAA_NXZ 00000001801da35c f i libucrt:output.obj
 0001:001d9538       ?state_case_size@?$output_processor@DV?$string_output_adapter@D@__crt_stdio_output@@V?$format_validation_base@DV?$string_output_adapter@D@__crt_stdio_output@@@2@@__crt_stdio_output@@AEAA_NXZ 00000001801da538 f i libucrt:output.obj
 0001:001d9714       ?state_case_size@?$output_processor@DV?$string_output_adapter@D@__crt_stdio_output@@V?$positional_parameter_base@DV?$string_output_adapter@D@__crt_stdio_output@@@2@@__crt_stdio_output@@AEAA_NXZ 00000001801da714 f i libucrt:output.obj
 0001:001d98f0       ?state_case_size@?$output_processor@DV?$string_output_adapter@D@__crt_stdio_output@@V?$standard_base@DV?$string_output_adapter@D@__crt_stdio_output@@@2@@__crt_stdio_output@@AEAA_NXZ 00000001801da8f0 f i libucrt:output.obj
 0001:001d9acc       ?state_case_size@?$output_processor@_WV?$stream_output_adapter@_W@__crt_stdio_output@@V?$format_validation_base@_WV?$stream_output_adapter@_W@__crt_stdio_output@@@2@@__crt_stdio_output@@AEAA_NXZ 00000001801daacc f i libucrt:output.obj
 0001:001d9cd8       ?state_case_size@?$output_processor@_WV?$stream_output_adapter@_W@__crt_stdio_output@@V?$positional_parameter_base@_WV?$stream_output_adapter@_W@__crt_stdio_output@@@2@@__crt_stdio_output@@AEAA_NXZ 00000001801dacd8 f i libucrt:output.obj
 0001:001d9ee4       ?state_case_size@?$output_processor@_WV?$stream_output_adapter@_W@__crt_stdio_output@@V?$standard_base@_WV?$stream_output_adapter@_W@__crt_stdio_output@@@2@@__crt_stdio_output@@AEAA_NXZ 00000001801daee4 f i libucrt:output.obj
 0001:001da0f0       ?state_case_size@?$output_processor@_WV?$string_output_adapter@_W@__crt_stdio_output@@V?$format_validation_base@_WV?$string_output_adapter@_W@__crt_stdio_output@@@2@@__crt_stdio_output@@AEAA_NXZ 00000001801db0f0 f i libucrt:output.obj
 0001:001da2fc       ?state_case_size@?$output_processor@_WV?$string_output_adapter@_W@__crt_stdio_output@@V?$positional_parameter_base@_WV?$string_output_adapter@_W@__crt_stdio_output@@@2@@__crt_stdio_output@@AEAA_NXZ 00000001801db2fc f i libucrt:output.obj
 0001:001da508       ?state_case_size@?$output_processor@_WV?$string_output_adapter@_W@__crt_stdio_output@@V?$standard_base@_WV?$string_output_adapter@_W@__crt_stdio_output@@@2@@__crt_stdio_output@@AEAA_NXZ 00000001801db508 f i libucrt:output.obj
 0001:001da714       ?state_case_type@?$output_processor@DV?$stream_output_adapter@D@__crt_stdio_output@@V?$format_validation_base@DV?$stream_output_adapter@D@__crt_stdio_output@@@2@@__crt_stdio_output@@AEAA_NXZ 00000001801db714 f i libucrt:output.obj
 0001:001daa2c       ?state_case_type@?$output_processor@DV?$stream_output_adapter@D@__crt_stdio_output@@V?$positional_parameter_base@DV?$stream_output_adapter@D@__crt_stdio_output@@@2@@__crt_stdio_output@@AEAA_NXZ 00000001801dba2c f i libucrt:output.obj
 0001:001dad60       ?state_case_type@?$output_processor@DV?$stream_output_adapter@D@__crt_stdio_output@@V?$standard_base@DV?$stream_output_adapter@D@__crt_stdio_output@@@2@@__crt_stdio_output@@AEAA_NXZ 00000001801dbd60 f i libucrt:output.obj
 0001:001db078       ?state_case_type@?$output_processor@DV?$string_output_adapter@D@__crt_stdio_output@@V?$format_validation_base@DV?$string_output_adapter@D@__crt_stdio_output@@@2@@__crt_stdio_output@@AEAA_NXZ 00000001801dc078 f i libucrt:output.obj
 0001:001db390       ?state_case_type@?$output_processor@DV?$string_output_adapter@D@__crt_stdio_output@@V?$positional_parameter_base@DV?$string_output_adapter@D@__crt_stdio_output@@@2@@__crt_stdio_output@@AEAA_NXZ 00000001801dc390 f i libucrt:output.obj
 0001:001db6c4       ?state_case_type@?$output_processor@DV?$string_output_adapter@D@__crt_stdio_output@@V?$standard_base@DV?$string_output_adapter@D@__crt_stdio_output@@@2@@__crt_stdio_output@@AEAA_NXZ 00000001801dc6c4 f i libucrt:output.obj
 0001:001db9dc       ?state_case_type@?$output_processor@_WV?$stream_output_adapter@_W@__crt_stdio_output@@V?$format_validation_base@_WV?$stream_output_adapter@_W@__crt_stdio_output@@@2@@__crt_stdio_output@@AEAA_NXZ 00000001801dc9dc f i libucrt:output.obj
 0001:001dbd58       ?state_case_type@?$output_processor@_WV?$stream_output_adapter@_W@__crt_stdio_output@@V?$positional_parameter_base@_WV?$stream_output_adapter@_W@__crt_stdio_output@@@2@@__crt_stdio_output@@AEAA_NXZ 00000001801dcd58 f i libucrt:output.obj
 0001:001dc0f0       ?state_case_type@?$output_processor@_WV?$stream_output_adapter@_W@__crt_stdio_output@@V?$standard_base@_WV?$stream_output_adapter@_W@__crt_stdio_output@@@2@@__crt_stdio_output@@AEAA_NXZ 00000001801dd0f0 f i libucrt:output.obj
 0001:001dc46c       ?state_case_type@?$output_processor@_WV?$string_output_adapter@_W@__crt_stdio_output@@V?$format_validation_base@_WV?$string_output_adapter@_W@__crt_stdio_output@@@2@@__crt_stdio_output@@AEAA_NXZ 00000001801dd46c f i libucrt:output.obj
 0001:001dc7e8       ?state_case_type@?$output_processor@_WV?$string_output_adapter@_W@__crt_stdio_output@@V?$positional_parameter_base@_WV?$string_output_adapter@_W@__crt_stdio_output@@@2@@__crt_stdio_output@@AEAA_NXZ 00000001801dd7e8 f i libucrt:output.obj
 0001:001dcb80       ?state_case_type@?$output_processor@_WV?$string_output_adapter@_W@__crt_stdio_output@@V?$standard_base@_WV?$string_output_adapter@_W@__crt_stdio_output@@@2@@__crt_stdio_output@@AEAA_NXZ 00000001801ddb80 f i libucrt:output.obj
 0001:001dcefc       ?state_case_width@?$output_processor@DV?$stream_output_adapter@D@__crt_stdio_output@@V?$format_validation_base@DV?$stream_output_adapter@D@__crt_stdio_output@@@2@@__crt_stdio_output@@AEAA_NXZ 00000001801ddefc f i libucrt:output.obj
 0001:001dcf38       ?state_case_width@?$output_processor@DV?$stream_output_adapter@D@__crt_stdio_output@@V?$positional_parameter_base@DV?$stream_output_adapter@D@__crt_stdio_output@@@2@@__crt_stdio_output@@AEAA_NXZ 00000001801ddf38 f i libucrt:output.obj
 0001:001dcf9c       ?state_case_width@?$output_processor@DV?$stream_output_adapter@D@__crt_stdio_output@@V?$standard_base@DV?$stream_output_adapter@D@__crt_stdio_output@@@2@@__crt_stdio_output@@AEAA_NXZ 00000001801ddf9c f i libucrt:output.obj
 0001:001dcfd8       ?state_case_width@?$output_processor@DV?$string_output_adapter@D@__crt_stdio_output@@V?$format_validation_base@DV?$string_output_adapter@D@__crt_stdio_output@@@2@@__crt_stdio_output@@AEAA_NXZ 00000001801ddfd8 f i libucrt:output.obj
 0001:001dd014       ?state_case_width@?$output_processor@DV?$string_output_adapter@D@__crt_stdio_output@@V?$positional_parameter_base@DV?$string_output_adapter@D@__crt_stdio_output@@@2@@__crt_stdio_output@@AEAA_NXZ 00000001801de014 f i libucrt:output.obj
 0001:001dd078       ?state_case_width@?$output_processor@DV?$string_output_adapter@D@__crt_stdio_output@@V?$standard_base@DV?$string_output_adapter@D@__crt_stdio_output@@@2@@__crt_stdio_output@@AEAA_NXZ 00000001801de078 f i libucrt:output.obj
 0001:001dd0b4       ?state_case_width@?$output_processor@_WV?$stream_output_adapter@_W@__crt_stdio_output@@V?$format_validation_base@_WV?$stream_output_adapter@_W@__crt_stdio_output@@@2@@__crt_stdio_output@@AEAA_NXZ 00000001801de0b4 f i libucrt:output.obj
 0001:001dd0f0       ?state_case_width@?$output_processor@_WV?$stream_output_adapter@_W@__crt_stdio_output@@V?$positional_parameter_base@_WV?$stream_output_adapter@_W@__crt_stdio_output@@@2@@__crt_stdio_output@@AEAA_NXZ 00000001801de0f0 f i libucrt:output.obj
 0001:001dd158       ?state_case_width@?$output_processor@_WV?$stream_output_adapter@_W@__crt_stdio_output@@V?$standard_base@_WV?$stream_output_adapter@_W@__crt_stdio_output@@@2@@__crt_stdio_output@@AEAA_NXZ 00000001801de158 f i libucrt:output.obj
 0001:001dd194       ?state_case_width@?$output_processor@_WV?$string_output_adapter@_W@__crt_stdio_output@@V?$format_validation_base@_WV?$string_output_adapter@_W@__crt_stdio_output@@@2@@__crt_stdio_output@@AEAA_NXZ 00000001801de194 f i libucrt:output.obj
 0001:001dd1d0       ?state_case_width@?$output_processor@_WV?$string_output_adapter@_W@__crt_stdio_output@@V?$positional_parameter_base@_WV?$string_output_adapter@_W@__crt_stdio_output@@@2@@__crt_stdio_output@@AEAA_NXZ 00000001801de1d0 f i libucrt:output.obj
 0001:001dd238       ?state_case_width@?$output_processor@_WV?$string_output_adapter@_W@__crt_stdio_output@@V?$standard_base@_WV?$string_output_adapter@_W@__crt_stdio_output@@@2@@__crt_stdio_output@@AEAA_NXZ 00000001801de238 f i libucrt:output.obj
 0001:001dd274       ?state_count@?$format_validation_base@DV?$stream_output_adapter@D@__crt_stdio_output@@@__crt_stdio_output@@KAIXZ 00000001801de274 f i libucrt:output.obj
 0001:001dd27c       ?state_count@?$format_validation_base@DV?$string_output_adapter@D@__crt_stdio_output@@@__crt_stdio_output@@KAIXZ 00000001801de27c f i libucrt:output.obj
 0001:001dd284       ?state_count@?$format_validation_base@_WV?$stream_output_adapter@_W@__crt_stdio_output@@@__crt_stdio_output@@KAIXZ 00000001801de284 f i libucrt:output.obj
 0001:001dd28c       ?state_count@?$format_validation_base@_WV?$string_output_adapter@_W@__crt_stdio_output@@@__crt_stdio_output@@KAIXZ 00000001801de28c f i libucrt:output.obj
 0001:001dd294       ?state_count@?$standard_base@DV?$stream_output_adapter@D@__crt_stdio_output@@@__crt_stdio_output@@KAIXZ 00000001801de294 f i libucrt:output.obj
 0001:001dd29c       ?state_count@?$standard_base@DV?$string_output_adapter@D@__crt_stdio_output@@@__crt_stdio_output@@KAIXZ 00000001801de29c f i libucrt:output.obj
 0001:001dd2a4       ?state_count@?$standard_base@_WV?$stream_output_adapter@_W@__crt_stdio_output@@@__crt_stdio_output@@KAIXZ 00000001801de2a4 f i libucrt:output.obj
 0001:001dd2ac       ?state_count@?$standard_base@_WV?$string_output_adapter@_W@__crt_stdio_output@@@__crt_stdio_output@@KAIXZ 00000001801de2ac f i libucrt:output.obj
 0001:001dd2b4       ?state_transition_table@?$format_validation_base@DV?$stream_output_adapter@D@__crt_stdio_output@@@__crt_stdio_output@@KAPEBEXZ 00000001801de2b4 f i libucrt:output.obj
 0001:001dd2c0       ?state_transition_table@?$format_validation_base@DV?$string_output_adapter@D@__crt_stdio_output@@@__crt_stdio_output@@KAPEBEXZ 00000001801de2c0 f i libucrt:output.obj
 0001:001dd2cc       ?state_transition_table@?$format_validation_base@_WV?$stream_output_adapter@_W@__crt_stdio_output@@@__crt_stdio_output@@KAPEBEXZ 00000001801de2cc f i libucrt:output.obj
 0001:001dd2d8       ?state_transition_table@?$format_validation_base@_WV?$string_output_adapter@_W@__crt_stdio_output@@@__crt_stdio_output@@KAPEBEXZ 00000001801de2d8 f i libucrt:output.obj
 0001:001dd2e4       ?state_transition_table@?$standard_base@DV?$stream_output_adapter@D@__crt_stdio_output@@@__crt_stdio_output@@KAPEBEXZ 00000001801de2e4 f i libucrt:output.obj
 0001:001dd2f0       ?state_transition_table@?$standard_base@DV?$string_output_adapter@D@__crt_stdio_output@@@__crt_stdio_output@@KAPEBEXZ 00000001801de2f0 f i libucrt:output.obj
 0001:001dd2fc       ?state_transition_table@?$standard_base@_WV?$stream_output_adapter@_W@__crt_stdio_output@@@__crt_stdio_output@@KAPEBEXZ 00000001801de2fc f i libucrt:output.obj
 0001:001dd308       ?state_transition_table@?$standard_base@_WV?$string_output_adapter@_W@__crt_stdio_output@@@__crt_stdio_output@@KAPEBEXZ 00000001801de308 f i libucrt:output.obj
 0001:001dd314       ?to_integer_size@__crt_stdio_output@@YA_KW4length_modifier@1@@Z 00000001801de314 f i libucrt:output.obj
 0001:001dd374       ?type_case_X@?$output_processor@DV?$stream_output_adapter@D@__crt_stdio_output@@V?$format_validation_base@DV?$stream_output_adapter@D@__crt_stdio_output@@@2@@__crt_stdio_output@@AEAA_NXZ 00000001801de374 f i libucrt:output.obj
 0001:001dd384       ?type_case_X@?$output_processor@DV?$stream_output_adapter@D@__crt_stdio_output@@V?$positional_parameter_base@DV?$stream_output_adapter@D@__crt_stdio_output@@@2@@__crt_stdio_output@@AEAA_NXZ 00000001801de384 f i libucrt:output.obj
 0001:001dd394       ?type_case_X@?$output_processor@DV?$stream_output_adapter@D@__crt_stdio_output@@V?$standard_base@DV?$stream_output_adapter@D@__crt_stdio_output@@@2@@__crt_stdio_output@@AEAA_NXZ 00000001801de394 f i libucrt:output.obj
 0001:001dd3a4       ?type_case_X@?$output_processor@DV?$string_output_adapter@D@__crt_stdio_output@@V?$format_validation_base@DV?$string_output_adapter@D@__crt_stdio_output@@@2@@__crt_stdio_output@@AEAA_NXZ 00000001801de3a4 f i libucrt:output.obj
 0001:001dd3b4       ?type_case_X@?$output_processor@DV?$string_output_adapter@D@__crt_stdio_output@@V?$positional_parameter_base@DV?$string_output_adapter@D@__crt_stdio_output@@@2@@__crt_stdio_output@@AEAA_NXZ 00000001801de3b4 f i libucrt:output.obj
 0001:001dd3c4       ?type_case_X@?$output_processor@DV?$string_output_adapter@D@__crt_stdio_output@@V?$standard_base@DV?$string_output_adapter@D@__crt_stdio_output@@@2@@__crt_stdio_output@@AEAA_NXZ 00000001801de3c4 f i libucrt:output.obj
 0001:001dd3d4       ?type_case_X@?$output_processor@_WV?$stream_output_adapter@_W@__crt_stdio_output@@V?$format_validation_base@_WV?$stream_output_adapter@_W@__crt_stdio_output@@@2@@__crt_stdio_output@@AEAA_NXZ 00000001801de3d4 f i libucrt:output.obj
 0001:001dd3e4       ?type_case_X@?$output_processor@_WV?$stream_output_adapter@_W@__crt_stdio_output@@V?$positional_parameter_base@_WV?$stream_output_adapter@_W@__crt_stdio_output@@@2@@__crt_stdio_output@@AEAA_NXZ 00000001801de3e4 f i libucrt:output.obj
 0001:001dd3f4       ?type_case_X@?$output_processor@_WV?$stream_output_adapter@_W@__crt_stdio_output@@V?$standard_base@_WV?$stream_output_adapter@_W@__crt_stdio_output@@@2@@__crt_stdio_output@@AEAA_NXZ 00000001801de3f4 f i libucrt:output.obj
 0001:001dd404       ?type_case_X@?$output_processor@_WV?$string_output_adapter@_W@__crt_stdio_output@@V?$format_validation_base@_WV?$string_output_adapter@_W@__crt_stdio_output@@@2@@__crt_stdio_output@@AEAA_NXZ 00000001801de404 f i libucrt:output.obj
 0001:001dd414       ?type_case_X@?$output_processor@_WV?$string_output_adapter@_W@__crt_stdio_output@@V?$positional_parameter_base@_WV?$string_output_adapter@_W@__crt_stdio_output@@@2@@__crt_stdio_output@@AEAA_NXZ 00000001801de414 f i libucrt:output.obj
 0001:001dd424       ?type_case_X@?$output_processor@_WV?$string_output_adapter@_W@__crt_stdio_output@@V?$standard_base@_WV?$string_output_adapter@_W@__crt_stdio_output@@@2@@__crt_stdio_output@@AEAA_NXZ 00000001801de424 f i libucrt:output.obj
 0001:001dd434       ?type_case_Z@?$output_processor@DV?$stream_output_adapter@D@__crt_stdio_output@@V?$format_validation_base@DV?$stream_output_adapter@D@__crt_stdio_output@@@2@@__crt_stdio_output@@AEAA_NXZ 00000001801de434 f i libucrt:output.obj
 0001:001dd4d4       ?type_case_Z@?$output_processor@DV?$stream_output_adapter@D@__crt_stdio_output@@V?$positional_parameter_base@DV?$stream_output_adapter@D@__crt_stdio_output@@@2@@__crt_stdio_output@@AEAA_NXZ 00000001801de4d4 f i libucrt:output.obj
 0001:001dd598       ?type_case_Z@?$output_processor@DV?$stream_output_adapter@D@__crt_stdio_output@@V?$standard_base@DV?$stream_output_adapter@D@__crt_stdio_output@@@2@@__crt_stdio_output@@AEAA_NXZ 00000001801de598 f i libucrt:output.obj
 0001:001dd638       ?type_case_Z@?$output_processor@DV?$string_output_adapter@D@__crt_stdio_output@@V?$format_validation_base@DV?$string_output_adapter@D@__crt_stdio_output@@@2@@__crt_stdio_output@@AEAA_NXZ 00000001801de638 f i libucrt:output.obj
 0001:001dd6d8       ?type_case_Z@?$output_processor@DV?$string_output_adapter@D@__crt_stdio_output@@V?$positional_parameter_base@DV?$string_output_adapter@D@__crt_stdio_output@@@2@@__crt_stdio_output@@AEAA_NXZ 00000001801de6d8 f i libucrt:output.obj
 0001:001dd79c       ?type_case_Z@?$output_processor@DV?$string_output_adapter@D@__crt_stdio_output@@V?$standard_base@DV?$string_output_adapter@D@__crt_stdio_output@@@2@@__crt_stdio_output@@AEAA_NXZ 00000001801de79c f i libucrt:output.obj
 0001:001dd83c       ?type_case_Z@?$output_processor@_WV?$stream_output_adapter@_W@__crt_stdio_output@@V?$format_validation_base@_WV?$stream_output_adapter@_W@__crt_stdio_output@@@2@@__crt_stdio_output@@AEAA_NXZ 00000001801de83c f i libucrt:output.obj
 0001:001dd8dc       ?type_case_Z@?$output_processor@_WV?$stream_output_adapter@_W@__crt_stdio_output@@V?$positional_parameter_base@_WV?$stream_output_adapter@_W@__crt_stdio_output@@@2@@__crt_stdio_output@@AEAA_NXZ 00000001801de8dc f i libucrt:output.obj
 0001:001dd9a0       ?type_case_Z@?$output_processor@_WV?$stream_output_adapter@_W@__crt_stdio_output@@V?$standard_base@_WV?$stream_output_adapter@_W@__crt_stdio_output@@@2@@__crt_stdio_output@@AEAA_NXZ 00000001801de9a0 f i libucrt:output.obj
 0001:001dda40       ?type_case_Z@?$output_processor@_WV?$string_output_adapter@_W@__crt_stdio_output@@V?$format_validation_base@_WV?$string_output_adapter@_W@__crt_stdio_output@@@2@@__crt_stdio_output@@AEAA_NXZ 00000001801dea40 f i libucrt:output.obj
 0001:001ddae0       ?type_case_Z@?$output_processor@_WV?$string_output_adapter@_W@__crt_stdio_output@@V?$positional_parameter_base@_WV?$string_output_adapter@_W@__crt_stdio_output@@@2@@__crt_stdio_output@@AEAA_NXZ 00000001801deae0 f i libucrt:output.obj
 0001:001ddba4       ?type_case_Z@?$output_processor@_WV?$string_output_adapter@_W@__crt_stdio_output@@V?$standard_base@_WV?$string_output_adapter@_W@__crt_stdio_output@@@2@@__crt_stdio_output@@AEAA_NXZ 00000001801deba4 f i libucrt:output.obj
 0001:001ddc44       ?type_case_a@?$output_processor@DV?$stream_output_adapter@D@__crt_stdio_output@@V?$format_validation_base@DV?$stream_output_adapter@D@__crt_stdio_output@@@2@@__crt_stdio_output@@AEAA_NXZ 00000001801dec44 f i libucrt:output.obj
 0001:001ddee4       ?type_case_a@?$output_processor@DV?$stream_output_adapter@D@__crt_stdio_output@@V?$positional_parameter_base@DV?$stream_output_adapter@D@__crt_stdio_output@@@2@@__crt_stdio_output@@AEAA_NXZ 00000001801deee4 f i libucrt:output.obj
 0001:001de1c0       ?type_case_a@?$output_processor@DV?$stream_output_adapter@D@__crt_stdio_output@@V?$standard_base@DV?$stream_output_adapter@D@__crt_stdio_output@@@2@@__crt_stdio_output@@AEAA_NXZ 00000001801df1c0 f i libucrt:output.obj
 0001:001de460       ?type_case_a@?$output_processor@DV?$string_output_adapter@D@__crt_stdio_output@@V?$format_validation_base@DV?$string_output_adapter@D@__crt_stdio_output@@@2@@__crt_stdio_output@@AEAA_NXZ 00000001801df460 f i libucrt:output.obj
 0001:001de700       ?type_case_a@?$output_processor@DV?$string_output_adapter@D@__crt_stdio_output@@V?$positional_parameter_base@DV?$string_output_adapter@D@__crt_stdio_output@@@2@@__crt_stdio_output@@AEAA_NXZ 00000001801df700 f i libucrt:output.obj
 0001:001de9dc       ?type_case_a@?$output_processor@DV?$string_output_adapter@D@__crt_stdio_output@@V?$standard_base@DV?$string_output_adapter@D@__crt_stdio_output@@@2@@__crt_stdio_output@@AEAA_NXZ 00000001801df9dc f i libucrt:output.obj
 0001:001dec7c       ?type_case_a@?$output_processor@_WV?$stream_output_adapter@_W@__crt_stdio_output@@V?$format_validation_base@_WV?$stream_output_adapter@_W@__crt_stdio_output@@@2@@__crt_stdio_output@@AEAA_NXZ 00000001801dfc7c f i libucrt:output.obj
 0001:001def50       ?type_case_a@?$output_processor@_WV?$stream_output_adapter@_W@__crt_stdio_output@@V?$positional_parameter_base@_WV?$stream_output_adapter@_W@__crt_stdio_output@@@2@@__crt_stdio_output@@AEAA_NXZ 00000001801dff50 f i libucrt:output.obj
 0001:001df25c       ?type_case_a@?$output_processor@_WV?$stream_output_adapter@_W@__crt_stdio_output@@V?$standard_base@_WV?$stream_output_adapter@_W@__crt_stdio_output@@@2@@__crt_stdio_output@@AEAA_NXZ 00000001801e025c f i libucrt:output.obj
 0001:001df530       ?type_case_a@?$output_processor@_WV?$string_output_adapter@_W@__crt_stdio_output@@V?$format_validation_base@_WV?$string_output_adapter@_W@__crt_stdio_output@@@2@@__crt_stdio_output@@AEAA_NXZ 00000001801e0530 f i libucrt:output.obj
 0001:001df804       ?type_case_a@?$output_processor@_WV?$string_output_adapter@_W@__crt_stdio_output@@V?$positional_parameter_base@_WV?$string_output_adapter@_W@__crt_stdio_output@@@2@@__crt_stdio_output@@AEAA_NXZ 00000001801e0804 f i libucrt:output.obj
 0001:001dfb10       ?type_case_a@?$output_processor@_WV?$string_output_adapter@_W@__crt_stdio_output@@V?$standard_base@_WV?$string_output_adapter@_W@__crt_stdio_output@@@2@@__crt_stdio_output@@AEAA_NXZ 00000001801e0b10 f i libucrt:output.obj
 0001:001dfde4       ?type_case_c@?$output_processor@DV?$stream_output_adapter@D@__crt_stdio_output@@V?$format_validation_base@DV?$stream_output_adapter@D@__crt_stdio_output@@@2@@__crt_stdio_output@@AEAA_NXZ 00000001801e0de4 f i libucrt:output.obj
 0001:001dfdec       ?type_case_c@?$output_processor@DV?$stream_output_adapter@D@__crt_stdio_output@@V?$positional_parameter_base@DV?$stream_output_adapter@D@__crt_stdio_output@@@2@@__crt_stdio_output@@AEAA_NXZ 00000001801e0dec f i libucrt:output.obj
 0001:001dfdf4       ?type_case_c@?$output_processor@DV?$stream_output_adapter@D@__crt_stdio_output@@V?$standard_base@DV?$stream_output_adapter@D@__crt_stdio_output@@@2@@__crt_stdio_output@@AEAA_NXZ 00000001801e0df4 f i libucrt:output.obj
 0001:001dfdfc       ?type_case_c@?$output_processor@DV?$string_output_adapter@D@__crt_stdio_output@@V?$format_validation_base@DV?$string_output_adapter@D@__crt_stdio_output@@@2@@__crt_stdio_output@@AEAA_NXZ 00000001801e0dfc f i libucrt:output.obj
 0001:001dfe04       ?type_case_c@?$output_processor@DV?$string_output_adapter@D@__crt_stdio_output@@V?$positional_parameter_base@DV?$string_output_adapter@D@__crt_stdio_output@@@2@@__crt_stdio_output@@AEAA_NXZ 00000001801e0e04 f i libucrt:output.obj
 0001:001dfe0c       ?type_case_c@?$output_processor@DV?$string_output_adapter@D@__crt_stdio_output@@V?$standard_base@DV?$string_output_adapter@D@__crt_stdio_output@@@2@@__crt_stdio_output@@AEAA_NXZ 00000001801e0e0c f i libucrt:output.obj
 0001:001dfe14       ?type_case_c@?$output_processor@_WV?$stream_output_adapter@_W@__crt_stdio_output@@V?$format_validation_base@_WV?$stream_output_adapter@_W@__crt_stdio_output@@@2@@__crt_stdio_output@@AEAA_NXZ 00000001801e0e14 f i libucrt:output.obj
 0001:001dfe1c       ?type_case_c@?$output_processor@_WV?$stream_output_adapter@_W@__crt_stdio_output@@V?$positional_parameter_base@_WV?$stream_output_adapter@_W@__crt_stdio_output@@@2@@__crt_stdio_output@@AEAA_NXZ 00000001801e0e1c f i libucrt:output.obj
 0001:001dfe24       ?type_case_c@?$output_processor@_WV?$stream_output_adapter@_W@__crt_stdio_output@@V?$standard_base@_WV?$stream_output_adapter@_W@__crt_stdio_output@@@2@@__crt_stdio_output@@AEAA_NXZ 00000001801e0e24 f i libucrt:output.obj
 0001:001dfe2c       ?type_case_c@?$output_processor@_WV?$string_output_adapter@_W@__crt_stdio_output@@V?$format_validation_base@_WV?$string_output_adapter@_W@__crt_stdio_output@@@2@@__crt_stdio_output@@AEAA_NXZ 00000001801e0e2c f i libucrt:output.obj
 0001:001dfe34       ?type_case_c@?$output_processor@_WV?$string_output_adapter@_W@__crt_stdio_output@@V?$positional_parameter_base@_WV?$string_output_adapter@_W@__crt_stdio_output@@@2@@__crt_stdio_output@@AEAA_NXZ 00000001801e0e34 f i libucrt:output.obj
 0001:001dfe3c       ?type_case_c@?$output_processor@_WV?$string_output_adapter@_W@__crt_stdio_output@@V?$standard_base@_WV?$string_output_adapter@_W@__crt_stdio_output@@@2@@__crt_stdio_output@@AEAA_NXZ 00000001801e0e3c f i libucrt:output.obj
 0001:001dfe44       ?type_case_c_tchar@?$output_processor@DV?$stream_output_adapter@D@__crt_stdio_output@@V?$format_validation_base@DV?$stream_output_adapter@D@__crt_stdio_output@@@2@@__crt_stdio_output@@AEAA_ND@Z 00000001801e0e44 f i libucrt:output.obj
 0001:001dff24       ?type_case_c_tchar@?$output_processor@DV?$stream_output_adapter@D@__crt_stdio_output@@V?$positional_parameter_base@DV?$stream_output_adapter@D@__crt_stdio_output@@@2@@__crt_stdio_output@@AEAA_ND@Z 00000001801e0f24 f i libucrt:output.obj
 0001:001e005c       ?type_case_c_tchar@?$output_processor@DV?$stream_output_adapter@D@__crt_stdio_output@@V?$standard_base@DV?$stream_output_adapter@D@__crt_stdio_output@@@2@@__crt_stdio_output@@AEAA_ND@Z 00000001801e105c f i libucrt:output.obj
 0001:001e013c       ?type_case_c_tchar@?$output_processor@DV?$string_output_adapter@D@__crt_stdio_output@@V?$format_validation_base@DV?$string_output_adapter@D@__crt_stdio_output@@@2@@__crt_stdio_output@@AEAA_ND@Z 00000001801e113c f i libucrt:output.obj
 0001:001e021c       ?type_case_c_tchar@?$output_processor@DV?$string_output_adapter@D@__crt_stdio_output@@V?$positional_parameter_base@DV?$string_output_adapter@D@__crt_stdio_output@@@2@@__crt_stdio_output@@AEAA_ND@Z 00000001801e121c f i libucrt:output.obj
 0001:001e0354       ?type_case_c_tchar@?$output_processor@DV?$string_output_adapter@D@__crt_stdio_output@@V?$standard_base@DV?$string_output_adapter@D@__crt_stdio_output@@@2@@__crt_stdio_output@@AEAA_ND@Z 00000001801e1354 f i libucrt:output.obj
 0001:001e0434       ?type_case_c_tchar@?$output_processor@_WV?$stream_output_adapter@_W@__crt_stdio_output@@V?$format_validation_base@_WV?$stream_output_adapter@_W@__crt_stdio_output@@@2@@__crt_stdio_output@@AEAA_N_W@Z 00000001801e1434 f i libucrt:output.obj
 0001:001e0504       ?type_case_c_tchar@?$output_processor@_WV?$stream_output_adapter@_W@__crt_stdio_output@@V?$positional_parameter_base@_WV?$stream_output_adapter@_W@__crt_stdio_output@@@2@@__crt_stdio_output@@AEAA_N_W@Z 00000001801e1504 f i libucrt:output.obj
 0001:001e0604       ?type_case_c_tchar@?$output_processor@_WV?$stream_output_adapter@_W@__crt_stdio_output@@V?$standard_base@_WV?$stream_output_adapter@_W@__crt_stdio_output@@@2@@__crt_stdio_output@@AEAA_N_W@Z 00000001801e1604 f i libucrt:output.obj
 0001:001e06d4       ?type_case_c_tchar@?$output_processor@_WV?$string_output_adapter@_W@__crt_stdio_output@@V?$format_validation_base@_WV?$string_output_adapter@_W@__crt_stdio_output@@@2@@__crt_stdio_output@@AEAA_N_W@Z 00000001801e16d4 f i libucrt:output.obj
 0001:001e07a4       ?type_case_c_tchar@?$output_processor@_WV?$string_output_adapter@_W@__crt_stdio_output@@V?$positional_parameter_base@_WV?$string_output_adapter@_W@__crt_stdio_output@@@2@@__crt_stdio_output@@AEAA_N_W@Z 00000001801e17a4 f i libucrt:output.obj
 0001:001e08a4       ?type_case_c_tchar@?$output_processor@_WV?$string_output_adapter@_W@__crt_stdio_output@@V?$standard_base@_WV?$string_output_adapter@_W@__crt_stdio_output@@@2@@__crt_stdio_output@@AEAA_N_W@Z 00000001801e18a4 f i libucrt:output.obj
 0001:001e0974       ?type_case_d@?$output_processor@DV?$stream_output_adapter@D@__crt_stdio_output@@V?$format_validation_base@DV?$stream_output_adapter@D@__crt_stdio_output@@@2@@__crt_stdio_output@@AEAA_NXZ 00000001801e1974 f i libucrt:output.obj
 0001:001e0988       ?type_case_d@?$output_processor@DV?$stream_output_adapter@D@__crt_stdio_output@@V?$positional_parameter_base@DV?$stream_output_adapter@D@__crt_stdio_output@@@2@@__crt_stdio_output@@AEAA_NXZ 00000001801e1988 f i libucrt:output.obj
 0001:001e099c       ?type_case_d@?$output_processor@DV?$stream_output_adapter@D@__crt_stdio_output@@V?$standard_base@DV?$stream_output_adapter@D@__crt_stdio_output@@@2@@__crt_stdio_output@@AEAA_NXZ 00000001801e199c f i libucrt:output.obj
 0001:001e09b0       ?type_case_d@?$output_processor@DV?$string_output_adapter@D@__crt_stdio_output@@V?$format_validation_base@DV?$string_output_adapter@D@__crt_stdio_output@@@2@@__crt_stdio_output@@AEAA_NXZ 00000001801e19b0 f i libucrt:output.obj
 0001:001e09c4       ?type_case_d@?$output_processor@DV?$string_output_adapter@D@__crt_stdio_output@@V?$positional_parameter_base@DV?$string_output_adapter@D@__crt_stdio_output@@@2@@__crt_stdio_output@@AEAA_NXZ 00000001801e19c4 f i libucrt:output.obj
 0001:001e09d8       ?type_case_d@?$output_processor@DV?$string_output_adapter@D@__crt_stdio_output@@V?$standard_base@DV?$string_output_adapter@D@__crt_stdio_output@@@2@@__crt_stdio_output@@AEAA_NXZ 00000001801e19d8 f i libucrt:output.obj
 0001:001e09ec       ?type_case_d@?$output_processor@_WV?$stream_output_adapter@_W@__crt_stdio_output@@V?$format_validation_base@_WV?$stream_output_adapter@_W@__crt_stdio_output@@@2@@__crt_stdio_output@@AEAA_NXZ 00000001801e19ec f i libucrt:output.obj
 0001:001e0a00       ?type_case_d@?$output_processor@_WV?$stream_output_adapter@_W@__crt_stdio_output@@V?$positional_parameter_base@_WV?$stream_output_adapter@_W@__crt_stdio_output@@@2@@__crt_stdio_output@@AEAA_NXZ 00000001801e1a00 f i libucrt:output.obj
 0001:001e0a14       ?type_case_d@?$output_processor@_WV?$stream_output_adapter@_W@__crt_stdio_output@@V?$standard_base@_WV?$stream_output_adapter@_W@__crt_stdio_output@@@2@@__crt_stdio_output@@AEAA_NXZ 00000001801e1a14 f i libucrt:output.obj
 0001:001e0a28       ?type_case_d@?$output_processor@_WV?$string_output_adapter@_W@__crt_stdio_output@@V?$format_validation_base@_WV?$string_output_adapter@_W@__crt_stdio_output@@@2@@__crt_stdio_output@@AEAA_NXZ 00000001801e1a28 f i libucrt:output.obj
 0001:001e0a3c       ?type_case_d@?$output_processor@_WV?$string_output_adapter@_W@__crt_stdio_output@@V?$positional_parameter_base@_WV?$string_output_adapter@_W@__crt_stdio_output@@@2@@__crt_stdio_output@@AEAA_NXZ 00000001801e1a3c f i libucrt:output.obj
 0001:001e0a50       ?type_case_d@?$output_processor@_WV?$string_output_adapter@_W@__crt_stdio_output@@V?$standard_base@_WV?$string_output_adapter@_W@__crt_stdio_output@@@2@@__crt_stdio_output@@AEAA_NXZ 00000001801e1a50 f i libucrt:output.obj
 0001:001e0a64       ?type_case_integer@?$output_processor@DV?$stream_output_adapter@D@__crt_stdio_output@@V?$format_validation_base@DV?$stream_output_adapter@D@__crt_stdio_output@@@2@@__crt_stdio_output@@AEAA_NI_N@Z 00000001801e1a64 f i libucrt:output.obj
 0001:001e0c6c       ?type_case_integer@?$output_processor@DV?$stream_output_adapter@D@__crt_stdio_output@@V?$positional_parameter_base@DV?$stream_output_adapter@D@__crt_stdio_output@@@2@@__crt_stdio_output@@AEAA_NI_N@Z 00000001801e1c6c f i libucrt:output.obj
 0001:001e0ef0       ?type_case_integer@?$output_processor@DV?$stream_output_adapter@D@__crt_stdio_output@@V?$standard_base@DV?$stream_output_adapter@D@__crt_stdio_output@@@2@@__crt_stdio_output@@AEAA_NI_N@Z 00000001801e1ef0 f i libucrt:output.obj
 0001:001e10f8       ?type_case_integer@?$output_processor@DV?$string_output_adapter@D@__crt_stdio_output@@V?$format_validation_base@DV?$string_output_adapter@D@__crt_stdio_output@@@2@@__crt_stdio_output@@AEAA_NI_N@Z 00000001801e20f8 f i libucrt:output.obj
 0001:001e1300       ?type_case_integer@?$output_processor@DV?$string_output_adapter@D@__crt_stdio_output@@V?$positional_parameter_base@DV?$string_output_adapter@D@__crt_stdio_output@@@2@@__crt_stdio_output@@AEAA_NI_N@Z 00000001801e2300 f i libucrt:output.obj
 0001:001e1584       ?type_case_integer@?$output_processor@DV?$string_output_adapter@D@__crt_stdio_output@@V?$standard_base@DV?$string_output_adapter@D@__crt_stdio_output@@@2@@__crt_stdio_output@@AEAA_NI_N@Z 00000001801e2584 f i libucrt:output.obj
 0001:001e178c       ?type_case_integer@?$output_processor@_WV?$stream_output_adapter@_W@__crt_stdio_output@@V?$format_validation_base@_WV?$stream_output_adapter@_W@__crt_stdio_output@@@2@@__crt_stdio_output@@AEAA_NI_N@Z 00000001801e278c f i libucrt:output.obj
 0001:001e1994       ?type_case_integer@?$output_processor@_WV?$stream_output_adapter@_W@__crt_stdio_output@@V?$positional_parameter_base@_WV?$stream_output_adapter@_W@__crt_stdio_output@@@2@@__crt_stdio_output@@AEAA_NI_N@Z 00000001801e2994 f i libucrt:output.obj
 0001:001e1c18       ?type_case_integer@?$output_processor@_WV?$stream_output_adapter@_W@__crt_stdio_output@@V?$standard_base@_WV?$stream_output_adapter@_W@__crt_stdio_output@@@2@@__crt_stdio_output@@AEAA_NI_N@Z 00000001801e2c18 f i libucrt:output.obj
 0001:001e1e20       ?type_case_integer@?$output_processor@_WV?$string_output_adapter@_W@__crt_stdio_output@@V?$format_validation_base@_WV?$string_output_adapter@_W@__crt_stdio_output@@@2@@__crt_stdio_output@@AEAA_NI_N@Z 00000001801e2e20 f i libucrt:output.obj
 0001:001e2028       ?type_case_integer@?$output_processor@_WV?$string_output_adapter@_W@__crt_stdio_output@@V?$positional_parameter_base@_WV?$string_output_adapter@_W@__crt_stdio_output@@@2@@__crt_stdio_output@@AEAA_NI_N@Z 00000001801e3028 f i libucrt:output.obj
 0001:001e22ac       ?type_case_integer@?$output_processor@_WV?$string_output_adapter@_W@__crt_stdio_output@@V?$standard_base@_WV?$string_output_adapter@_W@__crt_stdio_output@@@2@@__crt_stdio_output@@AEAA_NI_N@Z 00000001801e32ac f i libucrt:output.obj
 0001:001e24b4       ?type_case_n@?$output_processor@DV?$stream_output_adapter@D@__crt_stdio_output@@V?$format_validation_base@DV?$stream_output_adapter@D@__crt_stdio_output@@@2@@__crt_stdio_output@@AEAA_NXZ 00000001801e34b4 f i libucrt:output.obj
 0001:001e25c8       ?type_case_n@?$output_processor@DV?$stream_output_adapter@D@__crt_stdio_output@@V?$positional_parameter_base@DV?$stream_output_adapter@D@__crt_stdio_output@@@2@@__crt_stdio_output@@AEAA_NXZ 00000001801e35c8 f i libucrt:output.obj
 0001:001e2710       ?type_case_n@?$output_processor@DV?$stream_output_adapter@D@__crt_stdio_output@@V?$standard_base@DV?$stream_output_adapter@D@__crt_stdio_output@@@2@@__crt_stdio_output@@AEAA_NXZ 00000001801e3710 f i libucrt:output.obj
 0001:001e2824       ?type_case_n@?$output_processor@DV?$string_output_adapter@D@__crt_stdio_output@@V?$format_validation_base@DV?$string_output_adapter@D@__crt_stdio_output@@@2@@__crt_stdio_output@@AEAA_NXZ 00000001801e3824 f i libucrt:output.obj
 0001:001e2938       ?type_case_n@?$output_processor@DV?$string_output_adapter@D@__crt_stdio_output@@V?$positional_parameter_base@DV?$string_output_adapter@D@__crt_stdio_output@@@2@@__crt_stdio_output@@AEAA_NXZ 00000001801e3938 f i libucrt:output.obj
 0001:001e2a80       ?type_case_n@?$output_processor@DV?$string_output_adapter@D@__crt_stdio_output@@V?$standard_base@DV?$string_output_adapter@D@__crt_stdio_output@@@2@@__crt_stdio_output@@AEAA_NXZ 00000001801e3a80 f i libucrt:output.obj
 0001:001e2b94       ?type_case_n@?$output_processor@_WV?$stream_output_adapter@_W@__crt_stdio_output@@V?$format_validation_base@_WV?$stream_output_adapter@_W@__crt_stdio_output@@@2@@__crt_stdio_output@@AEAA_NXZ 00000001801e3b94 f i libucrt:output.obj
 0001:001e2ca8       ?type_case_n@?$output_processor@_WV?$stream_output_adapter@_W@__crt_stdio_output@@V?$positional_parameter_base@_WV?$stream_output_adapter@_W@__crt_stdio_output@@@2@@__crt_stdio_output@@AEAA_NXZ 00000001801e3ca8 f i libucrt:output.obj
 0001:001e2df0       ?type_case_n@?$output_processor@_WV?$stream_output_adapter@_W@__crt_stdio_output@@V?$standard_base@_WV?$stream_output_adapter@_W@__crt_stdio_output@@@2@@__crt_stdio_output@@AEAA_NXZ 00000001801e3df0 f i libucrt:output.obj
 0001:001e2f04       ?type_case_n@?$output_processor@_WV?$string_output_adapter@_W@__crt_stdio_output@@V?$format_validation_base@_WV?$string_output_adapter@_W@__crt_stdio_output@@@2@@__crt_stdio_output@@AEAA_NXZ 00000001801e3f04 f i libucrt:output.obj
 0001:001e3018       ?type_case_n@?$output_processor@_WV?$string_output_adapter@_W@__crt_stdio_output@@V?$positional_parameter_base@_WV?$string_output_adapter@_W@__crt_stdio_output@@@2@@__crt_stdio_output@@AEAA_NXZ 00000001801e4018 f i libucrt:output.obj
 0001:001e3160       ?type_case_n@?$output_processor@_WV?$string_output_adapter@_W@__crt_stdio_output@@V?$standard_base@_WV?$string_output_adapter@_W@__crt_stdio_output@@@2@@__crt_stdio_output@@AEAA_NXZ 00000001801e4160 f i libucrt:output.obj
 0001:001e3274       ?type_case_o@?$output_processor@DV?$stream_output_adapter@D@__crt_stdio_output@@V?$format_validation_base@DV?$stream_output_adapter@D@__crt_stdio_output@@@2@@__crt_stdio_output@@AEAA_NXZ 00000001801e4274 f i libucrt:output.obj
 0001:001e329c       ?type_case_o@?$output_processor@DV?$stream_output_adapter@D@__crt_stdio_output@@V?$positional_parameter_base@DV?$stream_output_adapter@D@__crt_stdio_output@@@2@@__crt_stdio_output@@AEAA_NXZ 00000001801e429c f i libucrt:output.obj
 0001:001e32c4       ?type_case_o@?$output_processor@DV?$stream_output_adapter@D@__crt_stdio_output@@V?$standard_base@DV?$stream_output_adapter@D@__crt_stdio_output@@@2@@__crt_stdio_output@@AEAA_NXZ 00000001801e42c4 f i libucrt:output.obj
 0001:001e32ec       ?type_case_o@?$output_processor@DV?$string_output_adapter@D@__crt_stdio_output@@V?$format_validation_base@DV?$string_output_adapter@D@__crt_stdio_output@@@2@@__crt_stdio_output@@AEAA_NXZ 00000001801e42ec f i libucrt:output.obj
 0001:001e3314       ?type_case_o@?$output_processor@DV?$string_output_adapter@D@__crt_stdio_output@@V?$positional_parameter_base@DV?$string_output_adapter@D@__crt_stdio_output@@@2@@__crt_stdio_output@@AEAA_NXZ 00000001801e4314 f i libucrt:output.obj
 0001:001e333c       ?type_case_o@?$output_processor@DV?$string_output_adapter@D@__crt_stdio_output@@V?$standard_base@DV?$string_output_adapter@D@__crt_stdio_output@@@2@@__crt_stdio_output@@AEAA_NXZ 00000001801e433c f i libucrt:output.obj
 0001:001e3364       ?type_case_o@?$output_processor@_WV?$stream_output_adapter@_W@__crt_stdio_output@@V?$format_validation_base@_WV?$stream_output_adapter@_W@__crt_stdio_output@@@2@@__crt_stdio_output@@AEAA_NXZ 00000001801e4364 f i libucrt:output.obj
 0001:001e338c       ?type_case_o@?$output_processor@_WV?$stream_output_adapter@_W@__crt_stdio_output@@V?$positional_parameter_base@_WV?$stream_output_adapter@_W@__crt_stdio_output@@@2@@__crt_stdio_output@@AEAA_NXZ 00000001801e438c f i libucrt:output.obj
 0001:001e33b4       ?type_case_o@?$output_processor@_WV?$stream_output_adapter@_W@__crt_stdio_output@@V?$standard_base@_WV?$stream_output_adapter@_W@__crt_stdio_output@@@2@@__crt_stdio_output@@AEAA_NXZ 00000001801e43b4 f i libucrt:output.obj
 0001:001e33dc       ?type_case_o@?$output_processor@_WV?$string_output_adapter@_W@__crt_stdio_output@@V?$format_validation_base@_WV?$string_output_adapter@_W@__crt_stdio_output@@@2@@__crt_stdio_output@@AEAA_NXZ 00000001801e43dc f i libucrt:output.obj
 0001:001e3404       ?type_case_o@?$output_processor@_WV?$string_output_adapter@_W@__crt_stdio_output@@V?$positional_parameter_base@_WV?$string_output_adapter@_W@__crt_stdio_output@@@2@@__crt_stdio_output@@AEAA_NXZ 00000001801e4404 f i libucrt:output.obj
 0001:001e342c       ?type_case_o@?$output_processor@_WV?$string_output_adapter@_W@__crt_stdio_output@@V?$standard_base@_WV?$string_output_adapter@_W@__crt_stdio_output@@@2@@__crt_stdio_output@@AEAA_NXZ 00000001801e442c f i libucrt:output.obj
 0001:001e3454       ?type_case_p@?$output_processor@DV?$stream_output_adapter@D@__crt_stdio_output@@V?$format_validation_base@DV?$stream_output_adapter@D@__crt_stdio_output@@@2@@__crt_stdio_output@@AEAA_NXZ 00000001801e4454 f i libucrt:output.obj
 0001:001e3470       ?type_case_p@?$output_processor@DV?$stream_output_adapter@D@__crt_stdio_output@@V?$positional_parameter_base@DV?$stream_output_adapter@D@__crt_stdio_output@@@2@@__crt_stdio_output@@AEAA_NXZ 00000001801e4470 f i libucrt:output.obj
 0001:001e348c       ?type_case_p@?$output_processor@DV?$stream_output_adapter@D@__crt_stdio_output@@V?$standard_base@DV?$stream_output_adapter@D@__crt_stdio_output@@@2@@__crt_stdio_output@@AEAA_NXZ 00000001801e448c f i libucrt:output.obj
 0001:001e34a8       ?type_case_p@?$output_processor@DV?$string_output_adapter@D@__crt_stdio_output@@V?$format_validation_base@DV?$string_output_adapter@D@__crt_stdio_output@@@2@@__crt_stdio_output@@AEAA_NXZ 00000001801e44a8 f i libucrt:output.obj
 0001:001e34c4       ?type_case_p@?$output_processor@DV?$string_output_adapter@D@__crt_stdio_output@@V?$positional_parameter_base@DV?$string_output_adapter@D@__crt_stdio_output@@@2@@__crt_stdio_output@@AEAA_NXZ 00000001801e44c4 f i libucrt:output.obj
 0001:001e34e0       ?type_case_p@?$output_processor@DV?$string_output_adapter@D@__crt_stdio_output@@V?$standard_base@DV?$string_output_adapter@D@__crt_stdio_output@@@2@@__crt_stdio_output@@AEAA_NXZ 00000001801e44e0 f i libucrt:output.obj
 0001:001e34fc       ?type_case_p@?$output_processor@_WV?$stream_output_adapter@_W@__crt_stdio_output@@V?$format_validation_base@_WV?$stream_output_adapter@_W@__crt_stdio_output@@@2@@__crt_stdio_output@@AEAA_NXZ 00000001801e44fc f i libucrt:output.obj
 0001:001e3518       ?type_case_p@?$output_processor@_WV?$stream_output_adapter@_W@__crt_stdio_output@@V?$positional_parameter_base@_WV?$stream_output_adapter@_W@__crt_stdio_output@@@2@@__crt_stdio_output@@AEAA_NXZ 00000001801e4518 f i libucrt:output.obj
 0001:001e3534       ?type_case_p@?$output_processor@_WV?$stream_output_adapter@_W@__crt_stdio_output@@V?$standard_base@_WV?$stream_output_adapter@_W@__crt_stdio_output@@@2@@__crt_stdio_output@@AEAA_NXZ 00000001801e4534 f i libucrt:output.obj
 0001:001e3550       ?type_case_p@?$output_processor@_WV?$string_output_adapter@_W@__crt_stdio_output@@V?$format_validation_base@_WV?$string_output_adapter@_W@__crt_stdio_output@@@2@@__crt_stdio_output@@AEAA_NXZ 00000001801e4550 f i libucrt:output.obj
 0001:001e356c       ?type_case_p@?$output_processor@_WV?$string_output_adapter@_W@__crt_stdio_output@@V?$positional_parameter_base@_WV?$string_output_adapter@_W@__crt_stdio_output@@@2@@__crt_stdio_output@@AEAA_NXZ 00000001801e456c f i libucrt:output.obj
 0001:001e3588       ?type_case_p@?$output_processor@_WV?$string_output_adapter@_W@__crt_stdio_output@@V?$standard_base@_WV?$string_output_adapter@_W@__crt_stdio_output@@@2@@__crt_stdio_output@@AEAA_NXZ 00000001801e4588 f i libucrt:output.obj
 0001:001e35a4       ?type_case_s@?$output_processor@DV?$stream_output_adapter@D@__crt_stdio_output@@V?$format_validation_base@DV?$stream_output_adapter@D@__crt_stdio_output@@@2@@__crt_stdio_output@@AEAA_NXZ 00000001801e45a4 f i libucrt:output.obj
 0001:001e3658       ?type_case_s@?$output_processor@DV?$stream_output_adapter@D@__crt_stdio_output@@V?$positional_parameter_base@DV?$stream_output_adapter@D@__crt_stdio_output@@@2@@__crt_stdio_output@@AEAA_NXZ 00000001801e4658 f i libucrt:output.obj
 0001:001e3728       ?type_case_s@?$output_processor@DV?$stream_output_adapter@D@__crt_stdio_output@@V?$standard_base@DV?$stream_output_adapter@D@__crt_stdio_output@@@2@@__crt_stdio_output@@AEAA_NXZ 00000001801e4728 f i libucrt:output.obj
 0001:001e37dc       ?type_case_s@?$output_processor@DV?$string_output_adapter@D@__crt_stdio_output@@V?$format_validation_base@DV?$string_output_adapter@D@__crt_stdio_output@@@2@@__crt_stdio_output@@AEAA_NXZ 00000001801e47dc f i libucrt:output.obj
 0001:001e3890       ?type_case_s@?$output_processor@DV?$string_output_adapter@D@__crt_stdio_output@@V?$positional_parameter_base@DV?$string_output_adapter@D@__crt_stdio_output@@@2@@__crt_stdio_output@@AEAA_NXZ 00000001801e4890 f i libucrt:output.obj
 0001:001e3960       ?type_case_s@?$output_processor@DV?$string_output_adapter@D@__crt_stdio_output@@V?$standard_base@DV?$string_output_adapter@D@__crt_stdio_output@@@2@@__crt_stdio_output@@AEAA_NXZ 00000001801e4960 f i libucrt:output.obj
 0001:001e3a14       ?type_case_s@?$output_processor@_WV?$stream_output_adapter@_W@__crt_stdio_output@@V?$format_validation_base@_WV?$stream_output_adapter@_W@__crt_stdio_output@@@2@@__crt_stdio_output@@AEAA_NXZ 00000001801e4a14 f i libucrt:output.obj
 0001:001e3b0c       ?type_case_s@?$output_processor@_WV?$stream_output_adapter@_W@__crt_stdio_output@@V?$positional_parameter_base@_WV?$stream_output_adapter@_W@__crt_stdio_output@@@2@@__crt_stdio_output@@AEAA_NXZ 00000001801e4b0c f i libucrt:output.obj
 0001:001e3c24       ?type_case_s@?$output_processor@_WV?$stream_output_adapter@_W@__crt_stdio_output@@V?$standard_base@_WV?$stream_output_adapter@_W@__crt_stdio_output@@@2@@__crt_stdio_output@@AEAA_NXZ 00000001801e4c24 f i libucrt:output.obj
 0001:001e3d1c       ?type_case_s@?$output_processor@_WV?$string_output_adapter@_W@__crt_stdio_output@@V?$format_validation_base@_WV?$string_output_adapter@_W@__crt_stdio_output@@@2@@__crt_stdio_output@@AEAA_NXZ 00000001801e4d1c f i libucrt:output.obj
 0001:001e3e14       ?type_case_s@?$output_processor@_WV?$string_output_adapter@_W@__crt_stdio_output@@V?$positional_parameter_base@_WV?$string_output_adapter@_W@__crt_stdio_output@@@2@@__crt_stdio_output@@AEAA_NXZ 00000001801e4e14 f i libucrt:output.obj
 0001:001e3f2c       ?type_case_s@?$output_processor@_WV?$string_output_adapter@_W@__crt_stdio_output@@V?$standard_base@_WV?$string_output_adapter@_W@__crt_stdio_output@@@2@@__crt_stdio_output@@AEAA_NXZ 00000001801e4f2c f i libucrt:output.obj
 0001:001e4024       ?type_case_s_compute_narrow_string_length@?$output_processor@DV?$stream_output_adapter@D@__crt_stdio_output@@V?$format_validation_base@DV?$stream_output_adapter@D@__crt_stdio_output@@@2@@__crt_stdio_output@@AEBAHHD@Z 00000001801e5024 f i libucrt:output.obj
 0001:001e4034       ?type_case_s_compute_narrow_string_length@?$output_processor@DV?$stream_output_adapter@D@__crt_stdio_output@@V?$positional_parameter_base@DV?$stream_output_adapter@D@__crt_stdio_output@@@2@@__crt_stdio_output@@AEBAHHD@Z 00000001801e5034 f i libucrt:output.obj
 0001:001e4044       ?type_case_s_compute_narrow_string_length@?$output_processor@DV?$stream_output_adapter@D@__crt_stdio_output@@V?$standard_base@DV?$stream_output_adapter@D@__crt_stdio_output@@@2@@__crt_stdio_output@@AEBAHHD@Z 00000001801e5044 f i libucrt:output.obj
 0001:001e4054       ?type_case_s_compute_narrow_string_length@?$output_processor@DV?$string_output_adapter@D@__crt_stdio_output@@V?$format_validation_base@DV?$string_output_adapter@D@__crt_stdio_output@@@2@@__crt_stdio_output@@AEBAHHD@Z 00000001801e5054 f i libucrt:output.obj
 0001:001e4064       ?type_case_s_compute_narrow_string_length@?$output_processor@DV?$string_output_adapter@D@__crt_stdio_output@@V?$positional_parameter_base@DV?$string_output_adapter@D@__crt_stdio_output@@@2@@__crt_stdio_output@@AEBAHHD@Z 00000001801e5064 f i libucrt:output.obj
 0001:001e4074       ?type_case_s_compute_narrow_string_length@?$output_processor@DV?$string_output_adapter@D@__crt_stdio_output@@V?$standard_base@DV?$string_output_adapter@D@__crt_stdio_output@@@2@@__crt_stdio_output@@AEBAHHD@Z 00000001801e5074 f i libucrt:output.obj
 0001:001e4084       ?type_case_s_compute_narrow_string_length@?$output_processor@_WV?$stream_output_adapter@_W@__crt_stdio_output@@V?$format_validation_base@_WV?$stream_output_adapter@_W@__crt_stdio_output@@@2@@__crt_stdio_output@@AEBAHH_W@Z 00000001801e5084 f i libucrt:output.obj
 0001:001e40d8       ?type_case_s_compute_narrow_string_length@?$output_processor@_WV?$stream_output_adapter@_W@__crt_stdio_output@@V?$positional_parameter_base@_WV?$stream_output_adapter@_W@__crt_stdio_output@@@2@@__crt_stdio_output@@AEBAHH_W@Z 00000001801e50d8 f i libucrt:output.obj
 0001:001e412c       ?type_case_s_compute_narrow_string_length@?$output_processor@_WV?$stream_output_adapter@_W@__crt_stdio_output@@V?$standard_base@_WV?$stream_output_adapter@_W@__crt_stdio_output@@@2@@__crt_stdio_output@@AEBAHH_W@Z 00000001801e512c f i libucrt:output.obj
 0001:001e4180       ?type_case_s_compute_narrow_string_length@?$output_processor@_WV?$string_output_adapter@_W@__crt_stdio_output@@V?$format_validation_base@_WV?$string_output_adapter@_W@__crt_stdio_output@@@2@@__crt_stdio_output@@AEBAHH_W@Z 00000001801e5180 f i libucrt:output.obj
 0001:001e41d4       ?type_case_s_compute_narrow_string_length@?$output_processor@_WV?$string_output_adapter@_W@__crt_stdio_output@@V?$positional_parameter_base@_WV?$string_output_adapter@_W@__crt_stdio_output@@@2@@__crt_stdio_output@@AEBAHH_W@Z 00000001801e51d4 f i libucrt:output.obj
 0001:001e4228       ?type_case_s_compute_narrow_string_length@?$output_processor@_WV?$string_output_adapter@_W@__crt_stdio_output@@V?$standard_base@_WV?$string_output_adapter@_W@__crt_stdio_output@@@2@@__crt_stdio_output@@AEBAHH_W@Z 00000001801e5228 f i libucrt:output.obj
 0001:001e427c       ?type_case_u@?$output_processor@DV?$stream_output_adapter@D@__crt_stdio_output@@V?$format_validation_base@DV?$stream_output_adapter@D@__crt_stdio_output@@@2@@__crt_stdio_output@@AEAA_NXZ 00000001801e527c f i libucrt:output.obj
 0001:001e428c       ?type_case_u@?$output_processor@DV?$stream_output_adapter@D@__crt_stdio_output@@V?$positional_parameter_base@DV?$stream_output_adapter@D@__crt_stdio_output@@@2@@__crt_stdio_output@@AEAA_NXZ 00000001801e528c f i libucrt:output.obj
 0001:001e429c       ?type_case_u@?$output_processor@DV?$stream_output_adapter@D@__crt_stdio_output@@V?$standard_base@DV?$stream_output_adapter@D@__crt_stdio_output@@@2@@__crt_stdio_output@@AEAA_NXZ 00000001801e529c f i libucrt:output.obj
 0001:001e42ac       ?type_case_u@?$output_processor@DV?$string_output_adapter@D@__crt_stdio_output@@V?$format_validation_base@DV?$string_output_adapter@D@__crt_stdio_output@@@2@@__crt_stdio_output@@AEAA_NXZ 00000001801e52ac f i libucrt:output.obj
 0001:001e42bc       ?type_case_u@?$output_processor@DV?$string_output_adapter@D@__crt_stdio_output@@V?$positional_parameter_base@DV?$string_output_adapter@D@__crt_stdio_output@@@2@@__crt_stdio_output@@AEAA_NXZ 00000001801e52bc f i libucrt:output.obj
 0001:001e42cc       ?type_case_u@?$output_processor@DV?$string_output_adapter@D@__crt_stdio_output@@V?$standard_base@DV?$string_output_adapter@D@__crt_stdio_output@@@2@@__crt_stdio_output@@AEAA_NXZ 00000001801e52cc f i libucrt:output.obj
 0001:001e42dc       ?type_case_u@?$output_processor@_WV?$stream_output_adapter@_W@__crt_stdio_output@@V?$format_validation_base@_WV?$stream_output_adapter@_W@__crt_stdio_output@@@2@@__crt_stdio_output@@AEAA_NXZ 00000001801e52dc f i libucrt:output.obj
 0001:001e42ec       ?type_case_u@?$output_processor@_WV?$stream_output_adapter@_W@__crt_stdio_output@@V?$positional_parameter_base@_WV?$stream_output_adapter@_W@__crt_stdio_output@@@2@@__crt_stdio_output@@AEAA_NXZ 00000001801e52ec f i libucrt:output.obj
 0001:001e42fc       ?type_case_u@?$output_processor@_WV?$stream_output_adapter@_W@__crt_stdio_output@@V?$standard_base@_WV?$stream_output_adapter@_W@__crt_stdio_output@@@2@@__crt_stdio_output@@AEAA_NXZ 00000001801e52fc f i libucrt:output.obj
 0001:001e430c       ?type_case_u@?$output_processor@_WV?$string_output_adapter@_W@__crt_stdio_output@@V?$format_validation_base@_WV?$string_output_adapter@_W@__crt_stdio_output@@@2@@__crt_stdio_output@@AEAA_NXZ 00000001801e530c f i libucrt:output.obj
 0001:001e431c       ?type_case_u@?$output_processor@_WV?$string_output_adapter@_W@__crt_stdio_output@@V?$positional_parameter_base@_WV?$string_output_adapter@_W@__crt_stdio_output@@@2@@__crt_stdio_output@@AEAA_NXZ 00000001801e531c f i libucrt:output.obj
 0001:001e432c       ?type_case_u@?$output_processor@_WV?$string_output_adapter@_W@__crt_stdio_output@@V?$standard_base@_WV?$string_output_adapter@_W@__crt_stdio_output@@@2@@__crt_stdio_output@@AEAA_NXZ 00000001801e532c f i libucrt:output.obj
 0001:001e433c       ?type_case_x@?$output_processor@DV?$stream_output_adapter@D@__crt_stdio_output@@V?$format_validation_base@DV?$stream_output_adapter@D@__crt_stdio_output@@@2@@__crt_stdio_output@@AEAA_NXZ 00000001801e533c f i libucrt:output.obj
 0001:001e434c       ?type_case_x@?$output_processor@DV?$stream_output_adapter@D@__crt_stdio_output@@V?$positional_parameter_base@DV?$stream_output_adapter@D@__crt_stdio_output@@@2@@__crt_stdio_output@@AEAA_NXZ 00000001801e534c f i libucrt:output.obj
 0001:001e435c       ?type_case_x@?$output_processor@DV?$stream_output_adapter@D@__crt_stdio_output@@V?$standard_base@DV?$stream_output_adapter@D@__crt_stdio_output@@@2@@__crt_stdio_output@@AEAA_NXZ 00000001801e535c f i libucrt:output.obj
 0001:001e436c       ?type_case_x@?$output_processor@DV?$string_output_adapter@D@__crt_stdio_output@@V?$format_validation_base@DV?$string_output_adapter@D@__crt_stdio_output@@@2@@__crt_stdio_output@@AEAA_NXZ 00000001801e536c f i libucrt:output.obj
 0001:001e437c       ?type_case_x@?$output_processor@DV?$string_output_adapter@D@__crt_stdio_output@@V?$positional_parameter_base@DV?$string_output_adapter@D@__crt_stdio_output@@@2@@__crt_stdio_output@@AEAA_NXZ 00000001801e537c f i libucrt:output.obj
 0001:001e438c       ?type_case_x@?$output_processor@DV?$string_output_adapter@D@__crt_stdio_output@@V?$standard_base@DV?$string_output_adapter@D@__crt_stdio_output@@@2@@__crt_stdio_output@@AEAA_NXZ 00000001801e538c f i libucrt:output.obj
 0001:001e439c       ?type_case_x@?$output_processor@_WV?$stream_output_adapter@_W@__crt_stdio_output@@V?$format_validation_base@_WV?$stream_output_adapter@_W@__crt_stdio_output@@@2@@__crt_stdio_output@@AEAA_NXZ 00000001801e539c f i libucrt:output.obj
 0001:001e43ac       ?type_case_x@?$output_processor@_WV?$stream_output_adapter@_W@__crt_stdio_output@@V?$positional_parameter_base@_WV?$stream_output_adapter@_W@__crt_stdio_output@@@2@@__crt_stdio_output@@AEAA_NXZ 00000001801e53ac f i libucrt:output.obj
 0001:001e43bc       ?type_case_x@?$output_processor@_WV?$stream_output_adapter@_W@__crt_stdio_output@@V?$standard_base@_WV?$stream_output_adapter@_W@__crt_stdio_output@@@2@@__crt_stdio_output@@AEAA_NXZ 00000001801e53bc f i libucrt:output.obj
 0001:001e43cc       ?type_case_x@?$output_processor@_WV?$string_output_adapter@_W@__crt_stdio_output@@V?$format_validation_base@_WV?$string_output_adapter@_W@__crt_stdio_output@@@2@@__crt_stdio_output@@AEAA_NXZ 00000001801e53cc f i libucrt:output.obj
 0001:001e43dc       ?type_case_x@?$output_processor@_WV?$string_output_adapter@_W@__crt_stdio_output@@V?$positional_parameter_base@_WV?$string_output_adapter@_W@__crt_stdio_output@@@2@@__crt_stdio_output@@AEAA_NXZ 00000001801e53dc f i libucrt:output.obj
 0001:001e43ec       ?type_case_x@?$output_processor@_WV?$string_output_adapter@_W@__crt_stdio_output@@V?$standard_base@_WV?$string_output_adapter@_W@__crt_stdio_output@@@2@@__crt_stdio_output@@AEAA_NXZ 00000001801e53ec f i libucrt:output.obj
 0001:001e43fc       ?unset_flag@?$output_processor@DV?$stream_output_adapter@D@__crt_stdio_output@@V?$format_validation_base@DV?$stream_output_adapter@D@__crt_stdio_output@@@2@@__crt_stdio_output@@AEAAXI@Z 00000001801e53fc f i libucrt:output.obj
 0001:001e4404       ?unset_flag@?$output_processor@DV?$stream_output_adapter@D@__crt_stdio_output@@V?$positional_parameter_base@DV?$stream_output_adapter@D@__crt_stdio_output@@@2@@__crt_stdio_output@@AEAAXI@Z 00000001801e5404 f i libucrt:output.obj
 0001:001e440c       ?unset_flag@?$output_processor@DV?$stream_output_adapter@D@__crt_stdio_output@@V?$standard_base@DV?$stream_output_adapter@D@__crt_stdio_output@@@2@@__crt_stdio_output@@AEAAXI@Z 00000001801e540c f i libucrt:output.obj
 0001:001e4414       ?unset_flag@?$output_processor@DV?$string_output_adapter@D@__crt_stdio_output@@V?$format_validation_base@DV?$string_output_adapter@D@__crt_stdio_output@@@2@@__crt_stdio_output@@AEAAXI@Z 00000001801e5414 f i libucrt:output.obj
 0001:001e441c       ?unset_flag@?$output_processor@DV?$string_output_adapter@D@__crt_stdio_output@@V?$positional_parameter_base@DV?$string_output_adapter@D@__crt_stdio_output@@@2@@__crt_stdio_output@@AEAAXI@Z 00000001801e541c f i libucrt:output.obj
 0001:001e4424       ?unset_flag@?$output_processor@DV?$string_output_adapter@D@__crt_stdio_output@@V?$standard_base@DV?$string_output_adapter@D@__crt_stdio_output@@@2@@__crt_stdio_output@@AEAAXI@Z 00000001801e5424 f i libucrt:output.obj
 0001:001e442c       ?unset_flag@?$output_processor@_WV?$stream_output_adapter@_W@__crt_stdio_output@@V?$format_validation_base@_WV?$stream_output_adapter@_W@__crt_stdio_output@@@2@@__crt_stdio_output@@AEAAXI@Z 00000001801e542c f i libucrt:output.obj
 0001:001e4434       ?unset_flag@?$output_processor@_WV?$stream_output_adapter@_W@__crt_stdio_output@@V?$positional_parameter_base@_WV?$stream_output_adapter@_W@__crt_stdio_output@@@2@@__crt_stdio_output@@AEAAXI@Z 00000001801e5434 f i libucrt:output.obj
 0001:001e443c       ?unset_flag@?$output_processor@_WV?$stream_output_adapter@_W@__crt_stdio_output@@V?$standard_base@_WV?$stream_output_adapter@_W@__crt_stdio_output@@@2@@__crt_stdio_output@@AEAAXI@Z 00000001801e543c f i libucrt:output.obj
 0001:001e4444       ?unset_flag@?$output_processor@_WV?$string_output_adapter@_W@__crt_stdio_output@@V?$format_validation_base@_WV?$string_output_adapter@_W@__crt_stdio_output@@@2@@__crt_stdio_output@@AEAAXI@Z 00000001801e5444 f i libucrt:output.obj
 0001:001e444c       ?unset_flag@?$output_processor@_WV?$string_output_adapter@_W@__crt_stdio_output@@V?$positional_parameter_base@_WV?$string_output_adapter@_W@__crt_stdio_output@@@2@@__crt_stdio_output@@AEAAXI@Z 00000001801e544c f i libucrt:output.obj
 0001:001e4454       ?unset_flag@?$output_processor@_WV?$string_output_adapter@_W@__crt_stdio_output@@V?$standard_base@_WV?$string_output_adapter@_W@__crt_stdio_output@@@2@@__crt_stdio_output@@AEAAXI@Z 00000001801e5454 f i libucrt:output.obj
 0001:001e445c       ?update_field_width@?$positional_parameter_base@DV?$stream_output_adapter@D@__crt_stdio_output@@@__crt_stdio_output@@IEAA_NXZ 00000001801e545c f i libucrt:output.obj
 0001:001e45b4       ?update_field_width@?$positional_parameter_base@DV?$string_output_adapter@D@__crt_stdio_output@@@__crt_stdio_output@@IEAA_NXZ 00000001801e55b4 f i libucrt:output.obj
 0001:001e470c       ?update_field_width@?$positional_parameter_base@_WV?$stream_output_adapter@_W@__crt_stdio_output@@@__crt_stdio_output@@IEAA_NXZ 00000001801e570c f i libucrt:output.obj
 0001:001e4868       ?update_field_width@?$positional_parameter_base@_WV?$string_output_adapter@_W@__crt_stdio_output@@@__crt_stdio_output@@IEAA_NXZ 00000001801e5868 f i libucrt:output.obj
 0001:001e49c4       ?update_field_width@?$standard_base@DV?$stream_output_adapter@D@__crt_stdio_output@@@__crt_stdio_output@@IEAA_NXZ 00000001801e59c4 f i libucrt:output.obj
 0001:001e49dc       ?update_field_width@?$standard_base@DV?$string_output_adapter@D@__crt_stdio_output@@@__crt_stdio_output@@IEAA_NXZ 00000001801e59dc f i libucrt:output.obj
 0001:001e49f4       ?update_field_width@?$standard_base@_WV?$stream_output_adapter@_W@__crt_stdio_output@@@__crt_stdio_output@@IEAA_NXZ 00000001801e59f4 f i libucrt:output.obj
 0001:001e4a0c       ?update_field_width@?$standard_base@_WV?$string_output_adapter@_W@__crt_stdio_output@@@__crt_stdio_output@@IEAA_NXZ 00000001801e5a0c f i libucrt:output.obj
 0001:001e4a24       ?update_precision@?$positional_parameter_base@DV?$stream_output_adapter@D@__crt_stdio_output@@@__crt_stdio_output@@IEAA_NXZ 00000001801e5a24 f i libucrt:output.obj
 0001:001e4b7c       ?update_precision@?$positional_parameter_base@DV?$string_output_adapter@D@__crt_stdio_output@@@__crt_stdio_output@@IEAA_NXZ 00000001801e5b7c f i libucrt:output.obj
 0001:001e4cd4       ?update_precision@?$positional_parameter_base@_WV?$stream_output_adapter@_W@__crt_stdio_output@@@__crt_stdio_output@@IEAA_NXZ 00000001801e5cd4 f i libucrt:output.obj
 0001:001e4e30       ?update_precision@?$positional_parameter_base@_WV?$string_output_adapter@_W@__crt_stdio_output@@@__crt_stdio_output@@IEAA_NXZ 00000001801e5e30 f i libucrt:output.obj
 0001:001e4f8c       ?update_precision@?$standard_base@DV?$stream_output_adapter@D@__crt_stdio_output@@@__crt_stdio_output@@IEAA_NXZ 00000001801e5f8c f i libucrt:output.obj
 0001:001e4fa4       ?update_precision@?$standard_base@DV?$string_output_adapter@D@__crt_stdio_output@@@__crt_stdio_output@@IEAA_NXZ 00000001801e5fa4 f i libucrt:output.obj
 0001:001e4fbc       ?update_precision@?$standard_base@_WV?$stream_output_adapter@_W@__crt_stdio_output@@@__crt_stdio_output@@IEAA_NXZ 00000001801e5fbc f i libucrt:output.obj
 0001:001e4fd4       ?update_precision@?$standard_base@_WV?$string_output_adapter@_W@__crt_stdio_output@@@__crt_stdio_output@@IEAA_NXZ 00000001801e5fd4 f i libucrt:output.obj
 0001:001e4fec       ?valid@__crt_stdio_stream@@QEBA_NXZ 00000001801e5fec f i libucrt:output.obj
 0001:001e4ff8       ?validate@?$stream_output_adapter@D@__crt_stdio_output@@QEBA_NXZ 00000001801e5ff8 f i libucrt:output.obj
 0001:001e5030       ?validate@?$stream_output_adapter@_W@__crt_stdio_output@@QEBA_NXZ 00000001801e6030 f i libucrt:output.obj
 0001:001e5060       ?validate@?$string_output_adapter@D@__crt_stdio_output@@QEBA_NXZ 00000001801e6060 f i libucrt:output.obj
 0001:001e5090       ?validate@?$string_output_adapter@_W@__crt_stdio_output@@QEBA_NXZ 00000001801e6090 f i libucrt:output.obj
 0001:001e50c0       ?validate_and_store_parameter_data@?$positional_parameter_base@DV?$stream_output_adapter@D@__crt_stdio_output@@@__crt_stdio_output@@AEAA_NAEAUparameter_data@12@W4parameter_type@12@DW4length_modifier@2@@Z 00000001801e60c0 f i libucrt:output.obj
 0001:001e5110       ?validate_and_store_parameter_data@?$positional_parameter_base@DV?$string_output_adapter@D@__crt_stdio_output@@@__crt_stdio_output@@AEAA_NAEAUparameter_data@12@W4parameter_type@12@DW4length_modifier@2@@Z 00000001801e6110 f i libucrt:output.obj
 0001:001e5160       ?validate_and_store_parameter_data@?$positional_parameter_base@_WV?$stream_output_adapter@_W@__crt_stdio_output@@@__crt_stdio_output@@AEAA_NAEAUparameter_data@12@W4parameter_type@12@_WW4length_modifier@2@@Z 00000001801e6160 f i libucrt:output.obj
 0001:001e51b0       ?validate_and_store_parameter_data@?$positional_parameter_base@_WV?$string_output_adapter@_W@__crt_stdio_output@@@__crt_stdio_output@@AEAA_NAEAUparameter_data@12@W4parameter_type@12@_WW4length_modifier@2@@Z 00000001801e61b0 f i libucrt:output.obj
 0001:001e5200       ?validate_and_update_state_at_beginning_of_format_character@?$positional_parameter_base@DV?$stream_output_adapter@D@__crt_stdio_output@@@__crt_stdio_output@@IEAA_NXZ 00000001801e6200 f i libucrt:output.obj
 0001:001e5348       ?validate_and_update_state_at_beginning_of_format_character@?$positional_parameter_base@DV?$string_output_adapter@D@__crt_stdio_output@@@__crt_stdio_output@@IEAA_NXZ 00000001801e6348 f i libucrt:output.obj
 0001:001e5490       ?validate_and_update_state_at_beginning_of_format_character@?$positional_parameter_base@_WV?$stream_output_adapter@_W@__crt_stdio_output@@@__crt_stdio_output@@IEAA_NXZ 00000001801e6490 f i libucrt:output.obj
 0001:001e55e0       ?validate_and_update_state_at_beginning_of_format_character@?$positional_parameter_base@_WV?$string_output_adapter@_W@__crt_stdio_output@@@__crt_stdio_output@@IEAA_NXZ 00000001801e65e0 f i libucrt:output.obj
 0001:001e5730       ?validate_and_update_state_at_beginning_of_format_character@?$standard_base@DV?$stream_output_adapter@D@__crt_stdio_output@@@__crt_stdio_output@@IEAA_NXZ 00000001801e6730 f i libucrt:output.obj
 0001:001e5734       ?validate_and_update_state_at_beginning_of_format_character@?$standard_base@DV?$string_output_adapter@D@__crt_stdio_output@@@__crt_stdio_output@@IEAA_NXZ 00000001801e6734 f i libucrt:output.obj
 0001:001e5738       ?validate_and_update_state_at_beginning_of_format_character@?$standard_base@_WV?$stream_output_adapter@_W@__crt_stdio_output@@@__crt_stdio_output@@IEAA_NXZ 00000001801e6738 f i libucrt:output.obj
 0001:001e573c       ?validate_and_update_state_at_beginning_of_format_character@?$standard_base@_WV?$string_output_adapter@_W@__crt_stdio_output@@@__crt_stdio_output@@IEAA_NXZ 00000001801e673c f i libucrt:output.obj
 0001:001e5740       ?validate_and_update_state_at_end_of_format_string@?$format_validation_base@DV?$stream_output_adapter@D@__crt_stdio_output@@@__crt_stdio_output@@IEBA_NXZ 00000001801e6740 f i libucrt:output.obj
 0001:001e5778       ?validate_and_update_state_at_end_of_format_string@?$format_validation_base@DV?$string_output_adapter@D@__crt_stdio_output@@@__crt_stdio_output@@IEBA_NXZ 00000001801e6778 f i libucrt:output.obj
 0001:001e57b0       ?validate_and_update_state_at_end_of_format_string@?$format_validation_base@_WV?$stream_output_adapter@_W@__crt_stdio_output@@@__crt_stdio_output@@IEBA_NXZ 00000001801e67b0 f i libucrt:output.obj
 0001:001e57e8       ?validate_and_update_state_at_end_of_format_string@?$format_validation_base@_WV?$string_output_adapter@_W@__crt_stdio_output@@@__crt_stdio_output@@IEBA_NXZ 00000001801e67e8 f i libucrt:output.obj
 0001:001e5820       ?validate_and_update_state_at_end_of_format_string@?$positional_parameter_base@DV?$stream_output_adapter@D@__crt_stdio_output@@@__crt_stdio_output@@IEAA_NXZ 00000001801e6820 f i libucrt:output.obj
 0001:001e58cc       ?validate_and_update_state_at_end_of_format_string@?$positional_parameter_base@DV?$string_output_adapter@D@__crt_stdio_output@@@__crt_stdio_output@@IEAA_NXZ 00000001801e68cc f i libucrt:output.obj
 0001:001e5978       ?validate_and_update_state_at_end_of_format_string@?$positional_parameter_base@_WV?$stream_output_adapter@_W@__crt_stdio_output@@@__crt_stdio_output@@IEAA_NXZ 00000001801e6978 f i libucrt:output.obj
 0001:001e5a24       ?validate_and_update_state_at_end_of_format_string@?$positional_parameter_base@_WV?$string_output_adapter@_W@__crt_stdio_output@@@__crt_stdio_output@@IEAA_NXZ 00000001801e6a24 f i libucrt:output.obj
 0001:001e5ad0       ?validate_and_update_state_at_end_of_format_string@?$standard_base@DV?$stream_output_adapter@D@__crt_stdio_output@@@__crt_stdio_output@@IEBA_NXZ 00000001801e6ad0 f i libucrt:output.obj
 0001:001e5ad4       ?validate_and_update_state_at_end_of_format_string@?$standard_base@DV?$string_output_adapter@D@__crt_stdio_output@@@__crt_stdio_output@@IEBA_NXZ 00000001801e6ad4 f i libucrt:output.obj
 0001:001e5ad8       ?validate_and_update_state_at_end_of_format_string@?$standard_base@_WV?$stream_output_adapter@_W@__crt_stdio_output@@@__crt_stdio_output@@IEBA_NXZ 00000001801e6ad8 f i libucrt:output.obj
 0001:001e5adc       ?validate_and_update_state_at_end_of_format_string@?$standard_base@_WV?$string_output_adapter@_W@__crt_stdio_output@@@__crt_stdio_output@@IEBA_NXZ 00000001801e6adc f i libucrt:output.obj
 0001:001e5ae0       ?validate_state_for_type_case_a@?$positional_parameter_base@DV?$stream_output_adapter@D@__crt_stdio_output@@@__crt_stdio_output@@IEAA_NXZ 00000001801e6ae0 f i libucrt:output.obj
 0001:001e5ba4       ?validate_state_for_type_case_a@?$positional_parameter_base@DV?$string_output_adapter@D@__crt_stdio_output@@@__crt_stdio_output@@IEAA_NXZ 00000001801e6ba4 f i libucrt:output.obj
 0001:001e5c68       ?validate_state_for_type_case_a@?$positional_parameter_base@_WV?$stream_output_adapter@_W@__crt_stdio_output@@@__crt_stdio_output@@IEAA_NXZ 00000001801e6c68 f i libucrt:output.obj
 0001:001e5d2c       ?validate_state_for_type_case_a@?$positional_parameter_base@_WV?$string_output_adapter@_W@__crt_stdio_output@@@__crt_stdio_output@@IEAA_NXZ 00000001801e6d2c f i libucrt:output.obj
 0001:001e5df0       ?validate_state_for_type_case_a@?$standard_base@DV?$stream_output_adapter@D@__crt_stdio_output@@@__crt_stdio_output@@IEBA_NXZ 00000001801e6df0 f i libucrt:output.obj
 0001:001e5df4       ?validate_state_for_type_case_a@?$standard_base@DV?$string_output_adapter@D@__crt_stdio_output@@@__crt_stdio_output@@IEBA_NXZ 00000001801e6df4 f i libucrt:output.obj
 0001:001e5df8       ?validate_state_for_type_case_a@?$standard_base@_WV?$stream_output_adapter@_W@__crt_stdio_output@@@__crt_stdio_output@@IEBA_NXZ 00000001801e6df8 f i libucrt:output.obj
 0001:001e5dfc       ?validate_state_for_type_case_a@?$standard_base@_WV?$string_output_adapter@_W@__crt_stdio_output@@@__crt_stdio_output@@IEBA_NXZ 00000001801e6dfc f i libucrt:output.obj
 0001:001e5e00       ?validate_stream_is_ansi_if_required@?$__acrt_stdio_char_traits@D@@SA_NQEAU_iobuf@@@Z 00000001801e6e00 f i libucrt:output.obj
 0001:001e5eb0       ?validate_stream_is_ansi_if_required@?$__acrt_stdio_char_traits@_W@@SA_NQEAU_iobuf@@@Z 00000001801e6eb0 f i libucrt:output.obj
 0001:001e5eb4       ?wide_null_string@?$output_processor@DV?$stream_output_adapter@D@__crt_stdio_output@@V?$format_validation_base@DV?$stream_output_adapter@D@__crt_stdio_output@@@2@@__crt_stdio_output@@CAPEA_WXZ 00000001801e6eb4 f i libucrt:output.obj
 0001:001e5ec0       ?wide_null_string@?$output_processor@DV?$stream_output_adapter@D@__crt_stdio_output@@V?$positional_parameter_base@DV?$stream_output_adapter@D@__crt_stdio_output@@@2@@__crt_stdio_output@@CAPEA_WXZ 00000001801e6ec0 f i libucrt:output.obj
 0001:001e5ecc       ?wide_null_string@?$output_processor@DV?$stream_output_adapter@D@__crt_stdio_output@@V?$standard_base@DV?$stream_output_adapter@D@__crt_stdio_output@@@2@@__crt_stdio_output@@CAPEA_WXZ 00000001801e6ecc f i libucrt:output.obj
 0001:001e5ed8       ?wide_null_string@?$output_processor@DV?$string_output_adapter@D@__crt_stdio_output@@V?$format_validation_base@DV?$string_output_adapter@D@__crt_stdio_output@@@2@@__crt_stdio_output@@CAPEA_WXZ 00000001801e6ed8 f i libucrt:output.obj
 0001:001e5ee4       ?wide_null_string@?$output_processor@DV?$string_output_adapter@D@__crt_stdio_output@@V?$positional_parameter_base@DV?$string_output_adapter@D@__crt_stdio_output@@@2@@__crt_stdio_output@@CAPEA_WXZ 00000001801e6ee4 f i libucrt:output.obj
 0001:001e5ef0       ?wide_null_string@?$output_processor@DV?$string_output_adapter@D@__crt_stdio_output@@V?$standard_base@DV?$string_output_adapter@D@__crt_stdio_output@@@2@@__crt_stdio_output@@CAPEA_WXZ 00000001801e6ef0 f i libucrt:output.obj
 0001:001e5efc       ?wide_null_string@?$output_processor@_WV?$stream_output_adapter@_W@__crt_stdio_output@@V?$format_validation_base@_WV?$stream_output_adapter@_W@__crt_stdio_output@@@2@@__crt_stdio_output@@CAPEA_WXZ 00000001801e6efc f i libucrt:output.obj
 0001:001e5f08       ?wide_null_string@?$output_processor@_WV?$stream_output_adapter@_W@__crt_stdio_output@@V?$positional_parameter_base@_WV?$stream_output_adapter@_W@__crt_stdio_output@@@2@@__crt_stdio_output@@CAPEA_WXZ 00000001801e6f08 f i libucrt:output.obj
 0001:001e5f14       ?wide_null_string@?$output_processor@_WV?$stream_output_adapter@_W@__crt_stdio_output@@V?$standard_base@_WV?$stream_output_adapter@_W@__crt_stdio_output@@@2@@__crt_stdio_output@@CAPEA_WXZ 00000001801e6f14 f i libucrt:output.obj
 0001:001e5f20       ?wide_null_string@?$output_processor@_WV?$string_output_adapter@_W@__crt_stdio_output@@V?$format_validation_base@_WV?$string_output_adapter@_W@__crt_stdio_output@@@2@@__crt_stdio_output@@CAPEA_WXZ 00000001801e6f20 f i libucrt:output.obj
 0001:001e5f2c       ?wide_null_string@?$output_processor@_WV?$string_output_adapter@_W@__crt_stdio_output@@V?$positional_parameter_base@_WV?$string_output_adapter@_W@__crt_stdio_output@@@2@@__crt_stdio_output@@CAPEA_WXZ 00000001801e6f2c f i libucrt:output.obj
 0001:001e5f38       ?wide_null_string@?$output_processor@_WV?$string_output_adapter@_W@__crt_stdio_output@@V?$standard_base@_WV?$string_output_adapter@_W@__crt_stdio_output@@@2@@__crt_stdio_output@@CAPEA_WXZ 00000001801e6f38 f i libucrt:output.obj
 0001:001e5f44       ?write_character@?$stream_output_adapter@D@__crt_stdio_output@@QEBAXDQEAH@Z 00000001801e6f44 f i libucrt:output.obj
 0001:001e5f9c       ?write_character@?$stream_output_adapter@_W@__crt_stdio_output@@QEBAX_WQEAH@Z 00000001801e6f9c f i libucrt:output.obj
 0001:001e5ffc       ?write_character@?$string_output_adapter@D@__crt_stdio_output@@QEBA_NDQEAH@Z 00000001801e6ffc f i libucrt:output.obj
 0001:001e6054       ?write_character@?$string_output_adapter@_W@__crt_stdio_output@@QEBA_N_WQEAH@Z 00000001801e7054 f i libucrt:output.obj
 0001:001e60b0       ?write_stored_string_tchar@?$output_processor@DV?$stream_output_adapter@D@__crt_stdio_output@@V?$format_validation_base@DV?$stream_output_adapter@D@__crt_stdio_output@@@2@@__crt_stdio_output@@AEAA_ND@Z 00000001801e70b0 f i libucrt:output.obj
 0001:001e61bc       ?write_stored_string_tchar@?$output_processor@DV?$stream_output_adapter@D@__crt_stdio_output@@V?$positional_parameter_base@DV?$stream_output_adapter@D@__crt_stdio_output@@@2@@__crt_stdio_output@@AEAA_ND@Z 00000001801e71bc f i libucrt:output.obj
 0001:001e62c8       ?write_stored_string_tchar@?$output_processor@DV?$stream_output_adapter@D@__crt_stdio_output@@V?$standard_base@DV?$stream_output_adapter@D@__crt_stdio_output@@@2@@__crt_stdio_output@@AEAA_ND@Z 00000001801e72c8 f i libucrt:output.obj
 0001:001e63d4       ?write_stored_string_tchar@?$output_processor@DV?$string_output_adapter@D@__crt_stdio_output@@V?$format_validation_base@DV?$string_output_adapter@D@__crt_stdio_output@@@2@@__crt_stdio_output@@AEAA_ND@Z 00000001801e73d4 f i libucrt:output.obj
 0001:001e64e0       ?write_stored_string_tchar@?$output_processor@DV?$string_output_adapter@D@__crt_stdio_output@@V?$positional_parameter_base@DV?$string_output_adapter@D@__crt_stdio_output@@@2@@__crt_stdio_output@@AEAA_ND@Z 00000001801e74e0 f i libucrt:output.obj
 0001:001e65ec       ?write_stored_string_tchar@?$output_processor@DV?$string_output_adapter@D@__crt_stdio_output@@V?$standard_base@DV?$string_output_adapter@D@__crt_stdio_output@@@2@@__crt_stdio_output@@AEAA_ND@Z 00000001801e75ec f i libucrt:output.obj
 0001:001e66f8       ?write_stored_string_tchar@?$output_processor@_WV?$stream_output_adapter@_W@__crt_stdio_output@@V?$format_validation_base@_WV?$stream_output_adapter@_W@__crt_stdio_output@@@2@@__crt_stdio_output@@AEAA_N_W@Z 00000001801e76f8 f i libucrt:output.obj
 0001:001e6820       ?write_stored_string_tchar@?$output_processor@_WV?$stream_output_adapter@_W@__crt_stdio_output@@V?$positional_parameter_base@_WV?$stream_output_adapter@_W@__crt_stdio_output@@@2@@__crt_stdio_output@@AEAA_N_W@Z 00000001801e7820 f i libucrt:output.obj
 0001:001e6948       ?write_stored_string_tchar@?$output_processor@_WV?$stream_output_adapter@_W@__crt_stdio_output@@V?$standard_base@_WV?$stream_output_adapter@_W@__crt_stdio_output@@@2@@__crt_stdio_output@@AEAA_N_W@Z 00000001801e7948 f i libucrt:output.obj
 0001:001e6a70       ?write_stored_string_tchar@?$output_processor@_WV?$string_output_adapter@_W@__crt_stdio_output@@V?$format_validation_base@_WV?$string_output_adapter@_W@__crt_stdio_output@@@2@@__crt_stdio_output@@AEAA_N_W@Z 00000001801e7a70 f i libucrt:output.obj
 0001:001e6b98       ?write_stored_string_tchar@?$output_processor@_WV?$string_output_adapter@_W@__crt_stdio_output@@V?$positional_parameter_base@_WV?$string_output_adapter@_W@__crt_stdio_output@@@2@@__crt_stdio_output@@AEAA_N_W@Z 00000001801e7b98 f i libucrt:output.obj
 0001:001e6cc0       ?write_stored_string_tchar@?$output_processor@_WV?$string_output_adapter@_W@__crt_stdio_output@@V?$standard_base@_WV?$string_output_adapter@_W@__crt_stdio_output@@@2@@__crt_stdio_output@@AEAA_N_W@Z 00000001801e7cc0 f i libucrt:output.obj
 0001:001e6de8       ?write_string@?$stream_output_adapter@D@__crt_stdio_output@@QEBAXQEBDHQEAH1@Z 00000001801e7de8 f i libucrt:output.obj
 0001:001e6f1c       ?write_string@?$stream_output_adapter@_W@__crt_stdio_output@@QEBAXQEB_WHQEAH1@Z 00000001801e7f1c f i libucrt:output.obj
 0001:001e7068       ?write_string@?$string_output_adapter@D@__crt_stdio_output@@QEBAXQEBDHQEAH1@Z 00000001801e8068 f i libucrt:output.obj
 0001:001e7150       ?write_string@?$string_output_adapter@_W@__crt_stdio_output@@QEBAXQEB_WHQEAH1@Z 00000001801e8150 f i libucrt:output.obj
 0001:001e7240       __acrt_isleadbyte_l_noupdate 00000001801e8240 f i libucrt:output.obj
 0001:001e725c       __acrt_locale_changed      00000001801e825c f i libucrt:output.obj
 0001:001e726c       __stdio_common_vfprintf    00000001801e826c f   libucrt:output.obj
 0001:001e731c       __stdio_common_vfprintf_p  00000001801e831c f   libucrt:output.obj
 0001:001e73cc       __stdio_common_vfprintf_s  00000001801e83cc f   libucrt:output.obj
 0001:001e747c       __stdio_common_vfwprintf   00000001801e847c f   libucrt:output.obj
 0001:001e752c       __stdio_common_vfwprintf_p 00000001801e852c f   libucrt:output.obj
 0001:001e75dc       __stdio_common_vfwprintf_s 00000001801e85dc f   libucrt:output.obj
 0001:001e768c       __stdio_common_vsnprintf_s 00000001801e868c f   libucrt:output.obj
 0001:001e7840       __stdio_common_vsnwprintf_s 00000001801e8840 f   libucrt:output.obj
 0001:001e7a08       __stdio_common_vsprintf    00000001801e8a08 f   libucrt:output.obj
 0001:001e7cc8       __stdio_common_vsprintf_p  00000001801e8cc8 f   libucrt:output.obj
 0001:001e7f88       __stdio_common_vsprintf_s  00000001801e8f88 f   libucrt:output.obj
 0001:001e8004       __stdio_common_vswprintf   00000001801e9004 f   libucrt:output.obj
 0001:001e82c8       __stdio_common_vswprintf_p 00000001801e92c8 f   libucrt:output.obj
 0001:001e858c       __stdio_common_vswprintf_s 00000001801e958c f   libucrt:output.obj
 0001:001e8618       ??$is_overflow_condition@K@__crt_strtox@@YA_NIK@Z 00000001801e9618 f i libucrt:atox.obj
 0001:001e864c       ??$is_overflow_condition@_K@__crt_strtox@@YA_NI_K@Z 00000001801e964c f i libucrt:atox.obj
 0001:001e8690       ??$make_c_string_character_source@D$$T@__crt_strtox@@YA?AV?$c_string_character_source@D@0@QEBD$$T@Z 00000001801e9690 f i libucrt:atox.obj
 0001:001e86a8       ??$make_c_string_character_source@_W$$T@__crt_strtox@@YA?AV?$c_string_character_source@_W@0@QEB_W$$T@Z 00000001801e96a8 f i libucrt:atox.obj
 0001:001e86c0       ??$parse_integer@KV?$c_string_character_source@D@__crt_strtox@@@__crt_strtox@@YAKQEAU__crt_locale_pointers@@V?$c_string_character_source@D@0@H_N@Z 00000001801e96c0 f i libucrt:atox.obj
 0001:001e8a98       ??$parse_integer@KV?$c_string_character_source@_W@__crt_strtox@@@__crt_strtox@@YAKQEAU__crt_locale_pointers@@V?$c_string_character_source@_W@0@H_N@Z 00000001801e9a98 f i libucrt:atox.obj
 0001:001e9324       ??$parse_integer@_KV?$c_string_character_source@D@__crt_strtox@@@__crt_strtox@@YA_KQEAU__crt_locale_pointers@@V?$c_string_character_source@D@0@H_N@Z 00000001801ea324 f i libucrt:atox.obj
 0001:001e9724       ??$parse_integer@_KV?$c_string_character_source@_W@__crt_strtox@@@__crt_strtox@@YA_KQEAU__crt_locale_pointers@@V?$c_string_character_source@_W@0@H_N@Z 00000001801ea724 f i libucrt:atox.obj
 0001:001ea0cc       ??$parse_integer_from_string@JD$$T@__crt_strtox@@YAJQEBD$$THQEAU__crt_locale_pointers@@@Z 00000001801eb0cc f i libucrt:atox.obj
 0001:001ea118       ??$parse_integer_from_string@J_W$$T@__crt_strtox@@YAJQEB_W$$THQEAU__crt_locale_pointers@@@Z 00000001801eb118 f i libucrt:atox.obj
 0001:001ea164       ??$parse_integer_from_string@_JD$$T@__crt_strtox@@YA_JQEBD$$THQEAU__crt_locale_pointers@@@Z 00000001801eb164 f i libucrt:atox.obj
 0001:001ea1b0       ??$parse_integer_from_string@_J_W$$T@__crt_strtox@@YA_JQEB_W$$THQEAU__crt_locale_pointers@@@Z 00000001801eb1b0 f i libucrt:atox.obj
 0001:001ea1fc       ??0?$c_string_character_source@D@__crt_strtox@@QEAA@QEBDQEAPEBD@Z 00000001801eb1fc f i libucrt:atox.obj
 0001:001ea214       ??0?$c_string_character_source@_W@__crt_strtox@@QEAA@QEB_WQEAPEB_W@Z 00000001801eb214 f i libucrt:atox.obj
 0001:001ea22c       ??1?$c_string_character_source@D@__crt_strtox@@QEAA@XZ 00000001801eb22c f i libucrt:atox.obj
 0001:001ea240       ??1?$c_string_character_source@_W@__crt_strtox@@QEAA@XZ 00000001801eb240 f i libucrt:atox.obj
 0001:001ea254       ?get@?$c_string_character_source@D@__crt_strtox@@QEAADXZ 00000001801eb254 f i libucrt:atox.obj
 0001:001ea264       ?get@?$c_string_character_source@_W@__crt_strtox@@QEAA_WXZ 00000001801eb264 f i libucrt:atox.obj
 0001:001ea278       ?is_space@__crt_strtox@@YA_NDQEAU__crt_locale_pointers@@@Z 00000001801eb278 f i libucrt:atox.obj
 0001:001ea2e4       ?is_space@__crt_strtox@@YA_N_WPEAU__crt_locale_pointers@@@Z 00000001801eb2e4 f i libucrt:atox.obj
 0001:001ea304       ?maximum_signed_value@__crt_strtox@@YAJK@Z 00000001801eb304 f i libucrt:atox.obj
 0001:001ea30c       ?maximum_signed_value@__crt_strtox@@YA_J_K@Z 00000001801eb30c f i libucrt:atox.obj
 0001:001ea31c       ?minimum_signed_value@__crt_strtox@@YAJK@Z 00000001801eb31c f i libucrt:atox.obj
 0001:001ea324       ?minimum_signed_value@__crt_strtox@@YA_J_K@Z 00000001801eb324 f i libucrt:atox.obj
 0001:001ea334       ?parse_digit@__crt_strtox@@YAID@Z 00000001801eb334 f i libucrt:atox.obj
 0001:001ea370       ?parse_digit@__crt_strtox@@YAI_W@Z 00000001801eb370 f i libucrt:atox.obj
 0001:001ea5bc       ?restore_state@?$c_string_character_source@D@__crt_strtox@@QEAA_NQEBD@Z 00000001801eb5bc f i libucrt:atox.obj
 0001:001ea5c4       ?restore_state@?$c_string_character_source@_W@__crt_strtox@@QEAA_NQEB_W@Z 00000001801eb5c4 f i libucrt:atox.obj
 0001:001ea5cc       ?save_state@?$c_string_character_source@D@__crt_strtox@@QEBAPEBDXZ 00000001801eb5cc f i libucrt:atox.obj
 0001:001ea5d0       ?save_state@?$c_string_character_source@_W@__crt_strtox@@QEBAPEB_WXZ 00000001801eb5d0 f i libucrt:atox.obj
 0001:001ea5d4       ?unget@?$c_string_character_source@D@__crt_strtox@@QEAAXD@Z 00000001801eb5d4 f i libucrt:atox.obj
 0001:001ea604       ?unget@?$c_string_character_source@_W@__crt_strtox@@QEAAX_W@Z 00000001801eb604 f i libucrt:atox.obj
 0001:001ea638       ?validate@?$c_string_character_source@D@__crt_strtox@@QEBA_NXZ 00000001801eb638 f i libucrt:atox.obj
 0001:001ea668       ?validate@?$c_string_character_source@_W@__crt_strtox@@QEBA_NXZ 00000001801eb668 f i libucrt:atox.obj
 0001:001ea698       ?wide_character_to_digit@__crt_strtox@@YAH_W@Z 00000001801eb698 f i libucrt:atox.obj
 0001:001ea894       __acrt_get_locale_data_prefix 00000001801eb894 f i libucrt:atox.obj
 0001:001ea898       _atoi64                    00000001801eb898 f   libucrt:atox.obj
 0001:001ea8cc       _atoi64_l                  00000001801eb8cc f   libucrt:atox.obj
 0001:001ea90c       _atoi_l                    00000001801eb90c f   libucrt:atox.obj
 0001:001ea94c       _atol_l                    00000001801eb94c f   libucrt:atox.obj
 0001:001ea98c       _atoll_l                   00000001801eb98c f   libucrt:atox.obj
 0001:001ea9cc       _chvalidchk_l              00000001801eb9cc f i libucrt:atox.obj
 0001:001eaa14       _ischartype_l              00000001801eba14 f i libucrt:atox.obj
 0001:001eaa6c       _wtoi                      00000001801eba6c f   libucrt:atox.obj
 0001:001eaaa0       _wtoi64                    00000001801ebaa0 f   libucrt:atox.obj
 0001:001eaad4       _wtoi64_l                  00000001801ebad4 f   libucrt:atox.obj
 0001:001eab14       _wtoi_l                    00000001801ebb14 f   libucrt:atox.obj
 0001:001eab54       _wtol                      00000001801ebb54 f   libucrt:atox.obj
 0001:001eab88       _wtol_l                    00000001801ebb88 f   libucrt:atox.obj
 0001:001eabc8       _wtoll                     00000001801ebbc8 f   libucrt:atox.obj
 0001:001eabfc       _wtoll_l                   00000001801ebbfc f   libucrt:atox.obj
 0001:001eac3c       atoi                       00000001801ebc3c f   libucrt:atox.obj
 0001:001eac70       atol                       00000001801ebc70 f   libucrt:atox.obj
 0001:001eaca4       atoll                      00000001801ebca4 f   libucrt:atox.obj
 0001:001eacd8       _calloc_base               00000001801ebcd8 f   libucrt:calloc_base.obj
 0001:001ead70       __remainder_piby2d2f_forAsm 00000001801ebd70 f   libucrt:remainder_piby2f_forasm.obj
 0001:001eaf10       __remainder_piby2_fma3     00000001801ebf10 f   libucrt:remainder_piby2_forfma3.obj
 0001:001eb100       __remainder_piby2_fma3_bdl 00000001801ec100 f   libucrt:remainder_piby2_forfma3.obj
 0001:001eb210       _cos_special               00000001801ec210 f   libucrt:sincos_special.obj
 0001:001eb228       _cosf_special              00000001801ec228 f   libucrt:sincos_special.obj
 0001:001eb240       _sin_special               00000001801ec240 f   libucrt:sincos_special.obj
 0001:001eb3d0       _sinf_special              00000001801ec3d0 f   libucrt:sincos_special.obj
 0001:001eb3e8       _tan_special               00000001801ec3e8 f   libucrt:sincos_special.obj
 0001:001eb400       _tanf_special              00000001801ec400 f   libucrt:sincos_special.obj
 0001:001eb418       _clrfp                     00000001801ec418 f   libucrt:fpctrl.obj
 0001:001eb43c       _ctrlfp                    00000001801ec43c f   libucrt:fpctrl.obj
 0001:001eb4d8       _set_statfp                00000001801ec4d8 f   libucrt:fpctrl.obj
 0001:001eb500       _statfp                    00000001801ec500 f   libucrt:fpctrl.obj
 0001:001eb520       __acrt_initialize_fma3     00000001801ec520 f   libucrt:fma3_available.obj
 0001:001eb5ac       _get_FMA3_enable           00000001801ec5ac f   libucrt:fma3_available.obj
 0001:001eb5b4       _set_FMA3_enable           00000001801ec5b4 f   libucrt:fma3_available.obj
 0001:001eb5d0       __remainder_piby2d2f_forC  00000001801ec5d0 f   libucrt:remainder_piby2f_forc.obj
 0001:001eb7c0       nextafter                  00000001801ec7c0 f   libucrt:nextafter.obj
 0001:001eb7c8       nextafterf                 00000001801ec7c8 f   libucrt:nextafterf.obj
 0001:001eb93c       _handle_error              00000001801ec93c f   libucrt:libm_error.obj
 0001:001ebaac       _handle_errorf             00000001801ecaac f   libucrt:libm_error.obj
 0001:001ebc2c       _handle_nan                00000001801ecc2c f   libucrt:libm_error.obj
 0001:001ebc4c       _handle_nanf               00000001801ecc4c f   libucrt:libm_error.obj
 0001:001ebc60       ??$?RU__acrt_ptd@@@__crt_internal_free_policy@@QEBAXQEBU__acrt_ptd@@@Z 00000001801ecc60 f i libucrt:per_thread_data.obj
 0001:001ebc6c       ??$?RV<lambda_46352004c1216016012b18bd6f87e700>@@AEAV<lambda_3bd07e1a1191394380780325891bf33f>@@V<lambda_334532d3f185bcaa59b5be82d7d22bff>@@@?$__crt_seh_guarded_call@X@@QEAAX$$QEAV<lambda_46352004c1216016012b18bd6f87e700>@@AEAV<lambda_3bd07e1a1191394380780325891bf33f>@@$$QEAV<lambda_334532d3f185bcaa59b5be82d7d22bff>@@@Z 00000001801ecc6c f i libucrt:per_thread_data.obj
 0001:001ebce4       ??$?RV<lambda_5e887d1dcbef67a5eb4283622ba103bf>@@AEAV<lambda_4466841279450cc726390878d4a41900>@@V<lambda_341c25c0346d94847f1f3c463c57e077>@@@?$__crt_seh_guarded_call@X@@QEAAX$$QEAV<lambda_5e887d1dcbef67a5eb4283622ba103bf>@@AEAV<lambda_4466841279450cc726390878d4a41900>@@$$QEAV<lambda_341c25c0346d94847f1f3c463c57e077>@@@Z 00000001801ecce4 f i libucrt:per_thread_data.obj
 0001:001ebd3c       ??$?RV<lambda_72d1df2b273a38828b1ce30cbf4cdab5>@@AEAV<lambda_876a65b173b8412d3a47c70a915b0cf4>@@V<lambda_41932305e351933ebe8f8be3ed8bb5dc>@@@?$__crt_seh_guarded_call@X@@QEAAX$$QEAV<lambda_72d1df2b273a38828b1ce30cbf4cdab5>@@AEAV<lambda_876a65b173b8412d3a47c70a915b0cf4>@@$$QEAV<lambda_41932305e351933ebe8f8be3ed8bb5dc>@@@Z 00000001801ecd3c f i libucrt:per_thread_data.obj
 0001:001ebd8c       ??$?RV<lambda_fb3a7dec4e47f37f22dae91bb15c9095>@@AEAV<lambda_698284760c8add0bfb0756c19673e34b>@@V<lambda_dfb8eca1e75fef3034a8fb18dd509707>@@@?$__crt_seh_guarded_call@X@@QEAAX$$QEAV<lambda_fb3a7dec4e47f37f22dae91bb15c9095>@@AEAV<lambda_698284760c8add0bfb0756c19673e34b>@@$$QEAV<lambda_dfb8eca1e75fef3034a8fb18dd509707>@@@Z 00000001801ecd8c f i libucrt:per_thread_data.obj
 0001:001ebdd8       ??$__acrt_lock_and_call@V<lambda_3bd07e1a1191394380780325891bf33f>@@@@YAXW4__acrt_lock_id@@$$QEAV<lambda_3bd07e1a1191394380780325891bf33f>@@@Z 00000001801ecdd8 f i libucrt:per_thread_data.obj
 0001:001ebe08       ??$__acrt_lock_and_call@V<lambda_4466841279450cc726390878d4a41900>@@@@YAXW4__acrt_lock_id@@$$QEAV<lambda_4466841279450cc726390878d4a41900>@@@Z 00000001801ece08 f i libucrt:per_thread_data.obj
 0001:001ebe38       ??$__acrt_lock_and_call@V<lambda_698284760c8add0bfb0756c19673e34b>@@@@YAXW4__acrt_lock_id@@$$QEAV<lambda_698284760c8add0bfb0756c19673e34b>@@@Z 00000001801ece38 f i libucrt:per_thread_data.obj
 0001:001ebe68       ??$__acrt_lock_and_call@V<lambda_876a65b173b8412d3a47c70a915b0cf4>@@@@YAXW4__acrt_lock_id@@$$QEAV<lambda_876a65b173b8412d3a47c70a915b0cf4>@@@Z 00000001801ece68 f i libucrt:per_thread_data.obj
 0001:001ebf20       ??0?$__crt_unique_heap_ptr@U__acrt_ptd@@U__crt_internal_free_policy@@@@QEAA@QEAU__acrt_ptd@@@Z 00000001801ecf20 f i libucrt:per_thread_data.obj
 0001:001ebf28       ??0__crt_scoped_get_last_error_reset@@QEAA@XZ 00000001801ecf28 f i libucrt:per_thread_data.obj
 0001:001ebf48       ??1?$__crt_unique_heap_ptr@U__acrt_ptd@@U__crt_internal_free_policy@@@@QEAA@XZ 00000001801ecf48 f i libucrt:per_thread_data.obj
 0001:001ebf6c       ??1__crt_scoped_get_last_error_reset@@QEAA@XZ 00000001801ecf6c f i libucrt:per_thread_data.obj
 0001:001ebf78       ??B?$__crt_unique_heap_ptr@U__acrt_ptd@@U__crt_internal_free_policy@@@@QEBA_NXZ 00000001801ecf78 f i libucrt:per_thread_data.obj
 0001:001ec248       ?dangerous_get_state_array@?$dual_state_global@PEAU__crt_locale_data@@@__crt_state_management@@QEAAPEAPEAU__crt_locale_data@@XZ 00000001801ed248 f i libucrt:per_thread_data.obj
 0001:001ec4dc       ?detach@?$__crt_unique_heap_ptr@U__acrt_ptd@@U__crt_internal_free_policy@@@@QEAAPEAU__acrt_ptd@@XZ 00000001801ed4dc f i libucrt:per_thread_data.obj
 0001:001ec4e8       ?get@?$__crt_unique_heap_ptr@U__acrt_ptd@@U__crt_internal_free_policy@@@@QEBAPEAU__acrt_ptd@@XZ 00000001801ed4e8 f i libucrt:per_thread_data.obj
 0001:001ec634       ?is_valid@?$__crt_unique_heap_ptr@U__acrt_ptd@@U__crt_internal_free_policy@@@@QEBA_NXZ 00000001801ed634 f i libucrt:per_thread_data.obj
 0001:001ec640       ?release@?$__crt_unique_heap_ptr@U__acrt_ptd@@U__crt_internal_free_policy@@@@QEAAXXZ 00000001801ed640 f i libucrt:per_thread_data.obj
 0001:001ec6fc       ?value@?$dual_state_global@PEAU__crt_locale_data@@@__crt_state_management@@QEAAAEAPEAU__crt_locale_data@@XZ 00000001801ed6fc f i libucrt:per_thread_data.obj
 0001:001ec700       __acrt_freeptd             00000001801ed700 f   libucrt:per_thread_data.obj
 0001:001ec754       __acrt_getptd              00000001801ed754 f   libucrt:per_thread_data.obj
 0001:001ec810       __acrt_getptd_noexit       00000001801ed810 f   libucrt:per_thread_data.obj
 0001:001ec8d8       __acrt_initialize_ptd      00000001801ed8d8 f   libucrt:per_thread_data.obj
 0001:001ec920       __acrt_uninitialize_ptd    00000001801ed920 f   libucrt:per_thread_data.obj
 0001:001ec94c       __threadhandle             00000001801ed94c f   libucrt:per_thread_data.obj
 0001:001ec954       __threadid                 00000001801ed954 f   libucrt:per_thread_data.obj
 0001:001ec95c       __acrt_initialize_locks    00000001801ed95c f   libucrt:locks.obj
 0001:001ec9b8       __acrt_lock                00000001801ed9b8 f   libucrt:locks.obj
 0001:001ec9d8       __acrt_uninitialize_locks  00000001801ed9d8 f   libucrt:locks.obj
 0001:001eca1c       __acrt_unlock              00000001801eda1c f   libucrt:locks.obj
 0001:001eca3c       _lock_locales              00000001801eda3c f   libucrt:locks.obj
 0001:001eca50       _unlock_locales            00000001801eda50 f   libucrt:locks.obj
 0001:001ecabc       ??$?B$$A6AHPEA_WK_J@Z@__crt_fast_encoded_nullptr_t@@QEBAP6AHPEA_WK_J@ZXZ 00000001801edabc f i libucrt:winapi_thunks.obj
 0001:001ecae0       ??$?RV<lambda_630b2aca97f6d20d5b5ea6529ea6b6af>@@AEAV<lambda_af91936f1d075d609f72d9d8cba980af>@@V<lambda_e82fa975f615b5c7c7b0e4d178fdae67>@@@?$__crt_seh_guarded_call@H@@QEAAH$$QEAV<lambda_630b2aca97f6d20d5b5ea6529ea6b6af>@@AEAV<lambda_af91936f1d075d609f72d9d8cba980af>@@$$QEAV<lambda_e82fa975f615b5c7c7b0e4d178fdae67>@@@Z 00000001801edae0 f i libucrt:winapi_thunks.obj
 0001:001ecb9c       ??$__acrt_lock_and_call@V<lambda_af91936f1d075d609f72d9d8cba980af>@@@@YAHW4__acrt_lock_id@@$$QEAV<lambda_af91936f1d075d609f72d9d8cba980af>@@@Z 00000001801edb9c f i libucrt:winapi_thunks.obj
 0001:001ecbcc       ??$__crt_fast_decode_pointer@P6AHPEA_WK_J@Z@@YAP6AHPEA_WK_J@ZQ6AH0K1@Z@Z 00000001801edbcc f i libucrt:winapi_thunks.obj
 0001:001ecbe8       ??$__crt_fast_encode_pointer@P6AHPEA_WK_J@Z@@YAP6AHPEA_WK_J@ZQ6AH0K1@Z@Z 00000001801edbe8 f i libucrt:winapi_thunks.obj
 0001:001ed810       __acrt_AreFileApisANSI     00000001801ee810 f   libucrt:winapi_thunks.obj
 0001:001ed86c       __acrt_CompareStringEx     00000001801ee86c f   libucrt:winapi_thunks.obj
 0001:001ed998       __acrt_EnumSystemLocalesEx 00000001801ee998 f   libucrt:winapi_thunks.obj
 0001:001eda68       __acrt_FlsAlloc            00000001801eea68 f   libucrt:winapi_thunks.obj
 0001:001edad4       __acrt_FlsFree             00000001801eead4 f   libucrt:winapi_thunks.obj
 0001:001edb40       __acrt_FlsGetValue         00000001801eeb40 f   libucrt:winapi_thunks.obj
 0001:001edbac       __acrt_FlsSetValue         00000001801eebac f   libucrt:winapi_thunks.obj
 0001:001edc30       __acrt_GetDateFormatEx     00000001801eec30 f   libucrt:winapi_thunks.obj
 0001:001edd2c       __acrt_GetEnabledXStateFeatures 00000001801eed2c f   libucrt:winapi_thunks.obj
 0001:001edd84       __acrt_GetFileInformationByHandleEx 00000001801eed84 f   libucrt:winapi_thunks.obj
 0001:001ede34       __acrt_GetLocaleInfoEx     00000001801eee34 f   libucrt:winapi_thunks.obj
 0001:001edef4       __acrt_GetSystemTimePreciseAsFileTime 00000001801eeef4 f   libucrt:winapi_thunks.obj
 0001:001edf64       __acrt_GetTimeFormatEx     00000001801eef64 f   libucrt:winapi_thunks.obj
 0001:001ee050       __acrt_GetUserDefaultLocaleName 00000001801ef050 f   libucrt:winapi_thunks.obj
 0001:001ee0e0       __acrt_GetXStateFeaturesMask 00000001801ef0e0 f   libucrt:winapi_thunks.obj
 0001:001ee160       __acrt_InitializeCriticalSectionEx 00000001801ef160 f   libucrt:winapi_thunks.obj
 0001:001ee1f8       __acrt_IsValidLocaleName   00000001801ef1f8 f   libucrt:winapi_thunks.obj
 0001:001ee278       __acrt_LCIDToLocaleName    00000001801ef278 f   libucrt:winapi_thunks.obj
 0001:001ee328       __acrt_LCMapStringEx       00000001801ef328 f   libucrt:winapi_thunks.obj
 0001:001ee454       __acrt_LocaleNameToLCID    00000001801ef454 f   libucrt:winapi_thunks.obj
 0001:001ee4d4       __acrt_LocateXStateFeature 00000001801ef4d4 f   libucrt:winapi_thunks.obj
 0001:001ee568       __acrt_MessageBoxA         00000001801ef568 f   libucrt:winapi_thunks.obj
 0001:001ee610       __acrt_MessageBoxW         00000001801ef610 f   libucrt:winapi_thunks.obj
 0001:001ee6b8       __acrt_RoInitialize        00000001801ef6b8 f   libucrt:winapi_thunks.obj
 0001:001ee718       __acrt_RoUninitialize      00000001801ef718 f   libucrt:winapi_thunks.obj
 0001:001ee768       __acrt_RtlGenRandom        00000001801ef768 f   libucrt:winapi_thunks.obj
 0001:001ee7e8       __acrt_SetThreadStackGuarantee 00000001801ef7e8 f   libucrt:winapi_thunks.obj
 0001:001ee848       __acrt_can_show_message_box 00000001801ef848 f   libucrt:winapi_thunks.obj
 0001:001ee8bc       __acrt_can_use_vista_locale_apis 00000001801ef8bc f   libucrt:winapi_thunks.obj
 0001:001ee8f8       __acrt_can_use_xstate_apis 00000001801ef8f8 f   libucrt:winapi_thunks.obj
 0001:001ee934       __acrt_get_parent_window   00000001801ef934 f   libucrt:winapi_thunks.obj
 0001:001ee9e4       __acrt_initialize_winapi_thunks 00000001801ef9e4 f   libucrt:winapi_thunks.obj
 0001:001eea28       __acrt_is_interactive      00000001801efa28 f   libucrt:winapi_thunks.obj
 0001:001eeb30       __acrt_is_packaged_app     00000001801efb30 f   libucrt:winapi_thunks.obj
 0001:001eebd8       __acrt_uninitialize_winapi_thunks 00000001801efbd8 f   libucrt:winapi_thunks.obj
 0001:001eec2c       ??$__crt_fast_decode_pointer@P6AXPEB_W00I_K@Z@@YAP6AXPEB_W00I_K@ZQ6AX000I1@Z@Z 00000001801efc2c f i libucrt:invalid_parameter.obj
 0001:001eec48       ??$__crt_fast_encode_pointer@P6AXPEB_W00I_K@Z@@YAP6AXPEB_W00I_K@ZQ6AX000I1@Z@Z 00000001801efc48 f i libucrt:invalid_parameter.obj
 0001:001eecf8       ?initialize@?$dual_state_global@P6AXPEB_W00I_K@Z@__crt_state_management@@QEAAXQ6AXPEB_W00I_K@Z@Z 00000001801efcf8 f i libucrt:invalid_parameter.obj
 0001:001eed38       ?value@?$dual_state_global@P6AXPEB_W00I_K@Z@__crt_state_management@@QEAAAEAP6AXPEB_W00I_K@ZXZ 00000001801efd38 f i libucrt:invalid_parameter.obj
 0001:001eed3c       __acrt_call_reportfault    00000001801efd3c f   libucrt:invalid_parameter.obj
 0001:001eeef0       __acrt_initialize_invalid_parameter_handler 00000001801efef0 f   libucrt:invalid_parameter.obj
 0001:001eeefc       _get_invalid_parameter_handler 00000001801efefc f   libucrt:invalid_parameter.obj
 0001:001eef18       _get_thread_local_invalid_parameter_handler 00000001801eff18 f   libucrt:invalid_parameter.obj
 0001:001eef38       _invalid_parameter         00000001801eff38 f   libucrt:invalid_parameter.obj
 0001:001ef008       _invalid_parameter_noinfo  00000001801f0008 f   libucrt:invalid_parameter.obj
 0001:001ef030       _invalid_parameter_noinfo_noreturn 00000001801f0030 f   libucrt:invalid_parameter.obj
 0001:001ef06c       _invoke_watson             00000001801f006c f   libucrt:invalid_parameter.obj
 0001:001ef0c4       _set_invalid_parameter_handler 00000001801f00c4 f   libucrt:invalid_parameter.obj
 0001:001ef108       _set_thread_local_invalid_parameter_handler 00000001801f0108 f   libucrt:invalid_parameter.obj
 0001:001ef138       __acrt_errno_from_os_error 00000001801f0138 f   libucrt:errno.obj
 0001:001ef190       __acrt_errno_map_os_error  00000001801f0190 f   libucrt:errno.obj
 0001:001ef1f4       __doserrno                 00000001801f01f4 f   libucrt:errno.obj
 0001:001ef21c       _errno                     00000001801f021c f   libucrt:errno.obj
 0001:001ef244       _get_doserrno              00000001801f0244 f   libucrt:errno.obj
 0001:001ef290       _get_errno                 00000001801f0290 f   libucrt:errno.obj
 0001:001ef2dc       _set_doserrno              00000001801f02dc f   libucrt:errno.obj
 0001:001ef324       _set_errno                 00000001801f0324 f   libucrt:errno.obj
 0001:001effc4       ??$find_first_file_ex@AEBQEADW4_FINDEX_INFO_LEVELS@@PEAU_WIN32_FIND_DATAA@@W4_FINDEX_SEARCH_OPS@@$$TH@?$__crt_char_traits@D@@SAPEAXAEBQEAD$$QEAW4_FINDEX_INFO_LEVELS@@$$QEAPEAU_WIN32_FIND_DATAA@@$$QEAW4_FINDEX_SEARCH_OPS@@$$QEA$$T$$QEAH@Z 00000001801f0fc4 f i libucrt:argv_wildcards.obj
 0001:001efffc       ??$find_first_file_ex@AEBQEA_WW4_FINDEX_INFO_LEVELS@@PEAU_WIN32_FIND_DATAW@@W4_FINDEX_SEARCH_OPS@@$$TH@?$__crt_char_traits@_W@@SAPEAXAEBQEA_W$$QEAW4_FINDEX_INFO_LEVELS@@$$QEAPEAU_WIN32_FIND_DATAW@@$$QEAW4_FINDEX_SEARCH_OPS@@$$QEA$$T$$QEAH@Z 00000001801f0ffc f i libucrt:argv_wildcards.obj
 0001:001f0034       ??$find_next_file@PEAXPEAU_WIN32_FIND_DATAA@@@?$__crt_char_traits@D@@SAH$$QEAPEAX$$QEAPEAU_WIN32_FIND_DATAA@@@Z 00000001801f1034 f i libucrt:argv_wildcards.obj
 0001:001f0044       ??$find_next_file@PEAXPEAU_WIN32_FIND_DATAW@@@?$__crt_char_traits@_W@@SAH$$QEAPEAX$$QEAPEAU_WIN32_FIND_DATAW@@@Z 00000001801f1044 f i libucrt:argv_wildcards.obj
 0001:001f0054       ??$tcslen@AEBQEBD@?$__crt_char_traits@D@@SA_KAEBQEBD@Z 00000001801f1054 f i libucrt:argv_wildcards.obj
 0001:001f006c       ??$tcslen@AEBQEB_W@?$__crt_char_traits@_W@@SA_KAEBQEB_W@Z 00000001801f106c f i libucrt:argv_wildcards.obj
 0001:001f0084       ??$tcsncpy_s@AEAPEAD_KAEAPEADAEB_K@?$__crt_char_traits@D@@SAHAEAPEAD$$QEA_K0AEB_K@Z 00000001801f1084 f i libucrt:argv_wildcards.obj
 0001:001f009c       ??$tcsncpy_s@AEAPEA_W_KAEAPEA_WAEB_K@?$__crt_char_traits@_W@@SAHAEAPEA_W$$QEA_K0AEB_K@Z 00000001801f109c f i libucrt:argv_wildcards.obj
 0001:001f00b4       ??$tcsncpy_s@PEAD$$CB_KAEBQEBDAEB_K@?$__crt_char_traits@D@@SAH$$QEAPEAD$$QEB_KAEBQEBDAEB_K@Z 00000001801f10b4 f i libucrt:argv_wildcards.obj
 0001:001f00cc       ??$tcsncpy_s@PEADAEB_KAEBQEBDAEB_K@?$__crt_char_traits@D@@SAH$$QEAPEADAEB_KAEBQEBD1@Z 00000001801f10cc f i libucrt:argv_wildcards.obj
 0001:001f00e4       ??$tcsncpy_s@PEA_W$$CB_KAEBQEB_WAEB_K@?$__crt_char_traits@_W@@SAH$$QEAPEA_W$$QEB_KAEBQEB_WAEB_K@Z 00000001801f10e4 f i libucrt:argv_wildcards.obj
 0001:001f00fc       ??$tcsncpy_s@PEA_WAEB_KAEBQEB_WAEB_K@?$__crt_char_traits@_W@@SAH$$QEAPEA_WAEB_KAEBQEB_W1@Z 00000001801f10fc f i libucrt:argv_wildcards.obj
 0001:001f0114       ??$tcspbrk@AEAPEADAEAY02$$CBD@?$__crt_char_traits@D@@SAPEADAEAPEADAEAY02$$CBD@Z 00000001801f1114 f i libucrt:argv_wildcards.obj
 0001:001f0120       ??$tcspbrk@AEAPEA_WAEAY02$$CB_W@?$__crt_char_traits@_W@@SAPEA_WAEAPEA_WAEAY02$$CB_W@Z 00000001801f1120 f i libucrt:argv_wildcards.obj
 0001:001f012c       ??0?$__crt_unique_handle_t@U__crt_findfile_traits@@@@QEAA@QEAX@Z 00000001801f112c f i libucrt:argv_wildcards.obj
 0001:001f0134       ??0?$argument_list@D@?A0xca0879c4@@QEAA@XZ 00000001801f1134 f i libucrt:argv_wildcards.obj
 0001:001f014c       ??0?$argument_list@_W@?A0xca0879c4@@QEAA@XZ 00000001801f114c f i libucrt:argv_wildcards.obj
 0001:001f0164       ??1?$__crt_unique_handle_t@U__crt_findfile_traits@@@@QEAA@XZ 00000001801f1164 f i libucrt:argv_wildcards.obj
 0001:001f0190       ??1?$argument_list@D@?A0xca0879c4@@QEAA@XZ 00000001801f1190 f i libucrt:argv_wildcards.obj
 0001:001f01d8       ??1?$argument_list@_W@?A0xca0879c4@@QEAA@XZ 00000001801f11d8 f i libucrt:argv_wildcards.obj
 0001:001f0290       ?append@?$argument_list@D@?A0xca0879c4@@QEAAHQEAD@Z 00000001801f1290 f i libucrt:argv_wildcards.obj
 0001:001f02ec       ?append@?$argument_list@_W@?A0xca0879c4@@QEAAHQEA_W@Z 00000001801f12ec f i libucrt:argv_wildcards.obj
 0001:001f0348       ?begin@?$argument_list@D@?A0xca0879c4@@QEBAPEAPEADXZ 00000001801f1348 f i libucrt:argv_wildcards.obj
 0001:001f034c       ?begin@?$argument_list@_W@?A0xca0879c4@@QEBAPEAPEA_WXZ 00000001801f134c f i libucrt:argv_wildcards.obj
 0001:001f0350       ?close@?$__crt_unique_handle_t@U__crt_findfile_traits@@@@QEAAXXZ 00000001801f1350 f i libucrt:argv_wildcards.obj
 0001:001f037c       ?close@__crt_findfile_traits@@SA_NPEAX@Z 00000001801f137c f i libucrt:argv_wildcards.obj
 0001:001f0398       ?end@?$argument_list@D@?A0xca0879c4@@QEBAPEAPEADXZ 00000001801f1398 f i libucrt:argv_wildcards.obj
 0001:001f03a0       ?end@?$argument_list@_W@?A0xca0879c4@@QEBAPEAPEA_WXZ 00000001801f13a0 f i libucrt:argv_wildcards.obj
 0001:001f03a8       ?expand_if_necessary@?$argument_list@D@?A0xca0879c4@@AEAAHXZ 00000001801f13a8 f i libucrt:argv_wildcards.obj
 0001:001f04a0       ?expand_if_necessary@?$argument_list@_W@?A0xca0879c4@@AEAAHXZ 00000001801f14a0 f i libucrt:argv_wildcards.obj
 0001:001f0598       ?get@?$__crt_unique_handle_t@U__crt_findfile_traits@@@@QEBAPEAXXZ 00000001801f1598 f i libucrt:argv_wildcards.obj
 0001:001f059c       ?get_invalid_value@__crt_findfile_traits@@SAPEAXXZ 00000001801f159c f i libucrt:argv_wildcards.obj
 0001:001f05b4       ?size@?$argument_list@D@?A0xca0879c4@@QEBA_KXZ 00000001801f15b4 f i libucrt:argv_wildcards.obj
 0001:001f05c4       ?size@?$argument_list@_W@?A0xca0879c4@@QEBA_KXZ 00000001801f15c4 f i libucrt:argv_wildcards.obj
 0001:001f05d4       ?strpbrk@@YAPEADQEADQEBD@Z 00000001801f15d4 f i libucrt:argv_wildcards.obj
 0001:001f05dc       ?wcspbrk@@YAPEA_WPEA_WPEB_W@Z 00000001801f15dc f i libucrt:argv_wildcards.obj
 0001:001f05e4       __acrt_expand_narrow_argv_wildcards 00000001801f15e4 f   libucrt:argv_wildcards.obj
 0001:001f05ec       __acrt_expand_wide_argv_wildcards 00000001801f15ec f   libucrt:argv_wildcards.obj
 0001:001f05f4       ??$?RU__crt_multibyte_data@@@__crt_internal_free_policy@@QEBAXQEBU__crt_multibyte_data@@@Z 00000001801f15f4 f i libucrt:mbctype.obj
 0001:001f0600       ??$?RV<lambda_99476a1ad63dd22509b5d3e65b0ffc95>@@AEAV<lambda_ad1ced32f4ac17aa236e5ef05d6b3b7c>@@V<lambda_f7424dd8d45958661754dc4f2697e9c3>@@@?$__crt_seh_guarded_call@X@@QEAAX$$QEAV<lambda_99476a1ad63dd22509b5d3e65b0ffc95>@@AEAV<lambda_ad1ced32f4ac17aa236e5ef05d6b3b7c>@@$$QEAV<lambda_f7424dd8d45958661754dc4f2697e9c3>@@@Z 00000001801f1600 f i libucrt:mbctype.obj
 0001:001f0648       ??$__acrt_lock_and_call@V<lambda_ad1ced32f4ac17aa236e5ef05d6b3b7c>@@@@YAXW4__acrt_lock_id@@$$QEAV<lambda_ad1ced32f4ac17aa236e5ef05d6b3b7c>@@@Z 00000001801f1648 f i libucrt:mbctype.obj
 0001:001f0698       ??0?$__crt_unique_heap_ptr@U__crt_multibyte_data@@U__crt_internal_free_policy@@@@QEAA@QEAU__crt_multibyte_data@@@Z 00000001801f1698 f i libucrt:mbctype.obj
 0001:001f06a0       ??1?$__crt_unique_heap_ptr@U__crt_multibyte_data@@U__crt_internal_free_policy@@@@QEAA@XZ 00000001801f16a0 f i libucrt:mbctype.obj
 0001:001f06c4       ??B?$__crt_unique_heap_ptr@U__crt_multibyte_data@@U__crt_internal_free_policy@@@@QEBA_NXZ 00000001801f16c4 f i libucrt:mbctype.obj
 0001:001f09c4       ?detach@?$__crt_unique_heap_ptr@U__crt_multibyte_data@@U__crt_internal_free_policy@@@@QEAAPEAU__crt_multibyte_data@@XZ 00000001801f19c4 f i libucrt:mbctype.obj
 0001:001f09d0       ?get@?$__crt_unique_heap_ptr@U__crt_multibyte_data@@U__crt_internal_free_policy@@@@QEBAPEAU__crt_multibyte_data@@XZ 00000001801f19d0 f i libucrt:mbctype.obj
 0001:001f0a70       ?is_valid@?$__crt_unique_heap_ptr@U__crt_multibyte_data@@U__crt_internal_free_policy@@@@QEBA_NXZ 00000001801f1a70 f i libucrt:mbctype.obj
 0001:001f0a7c       ?release@?$__crt_unique_heap_ptr@U__crt_multibyte_data@@U__crt_internal_free_policy@@@@QEAAXXZ 00000001801f1a7c f i libucrt:mbctype.obj
 0001:001f0fd4       __acrt_initialize_multibyte 00000001801f1fd4 f   libucrt:mbctype.obj
 0001:001f1004       __acrt_update_thread_multibyte_data 00000001801f2004 f   libucrt:mbctype.obj
 0001:001f10f4       __p__mbcasemap             00000001801f20f4 f   libucrt:mbctype.obj
 0001:001f1100       __p__mbctype               00000001801f2100 f   libucrt:mbctype.obj
 0001:001f110c       _getmbcp                   00000001801f210c f   libucrt:mbctype.obj
 0001:001f1154       _setmbcp                   00000001801f2154 f   libucrt:mbctype.obj
 0001:001f115c       _setmbcp_nolock            00000001801f215c f   libucrt:mbctype.obj
 0001:001f15e8       _ismbbalnum                00000001801f25e8 f   libucrt:ismbbyte.obj
 0001:001f1604       _ismbbalnum_l              00000001801f2604 f   libucrt:ismbbyte.obj
 0001:001f1624       _ismbbalpha                00000001801f2624 f   libucrt:ismbbyte.obj
 0001:001f1640       _ismbbalpha_l              00000001801f2640 f   libucrt:ismbbyte.obj
 0001:001f1660       _ismbbblank                00000001801f2660 f   libucrt:ismbbyte.obj
 0001:001f1684       _ismbbblank_l              00000001801f2684 f   libucrt:ismbbyte.obj
 0001:001f16ac       _ismbbgraph                00000001801f26ac f   libucrt:ismbbyte.obj
 0001:001f16c8       _ismbbgraph_l              00000001801f26c8 f   libucrt:ismbbyte.obj
 0001:001f16e8       _ismbbkalnum               00000001801f26e8 f   libucrt:ismbbyte.obj
 0001:001f1700       _ismbbkalnum_l             00000001801f2700 f   libucrt:ismbbyte.obj
 0001:001f171c       _ismbbkana                 00000001801f271c f   libucrt:ismbbyte.obj
 0001:001f1724       _ismbbkana_l               00000001801f2724 f   libucrt:ismbbyte.obj
 0001:001f17a4       _ismbbkprint               00000001801f27a4 f   libucrt:ismbbyte.obj
 0001:001f17bc       _ismbbkprint_l             00000001801f27bc f   libucrt:ismbbyte.obj
 0001:001f17d8       _ismbbkpunct               00000001801f27d8 f   libucrt:ismbbyte.obj
 0001:001f17f0       _ismbbkpunct_l             00000001801f27f0 f   libucrt:ismbbyte.obj
 0001:001f180c       _ismbblead                 00000001801f280c f   libucrt:ismbbyte.obj
 0001:001f1824       _ismbblead_l               00000001801f2824 f   libucrt:ismbbyte.obj
 0001:001f1840       _ismbbprint                00000001801f2840 f   libucrt:ismbbyte.obj
 0001:001f185c       _ismbbprint_l              00000001801f285c f   libucrt:ismbbyte.obj
 0001:001f187c       _ismbbpunct                00000001801f287c f   libucrt:ismbbyte.obj
 0001:001f1894       _ismbbpunct_l              00000001801f2894 f   libucrt:ismbbyte.obj
 0001:001f18b0       _ismbbtrail                00000001801f28b0 f   libucrt:ismbbyte.obj
 0001:001f18c8       _ismbbtrail_l              00000001801f28c8 f   libucrt:ismbbyte.obj
 0001:001f18e4       __acrt_initialize_command_line 00000001801f28e4 f   libucrt:argv_data.obj
 0001:001f1914       __acrt_uninitialize_command_line 00000001801f2914 f   libucrt:argv_data.obj
 0001:001f1918       __p___argc                 00000001801f2918 f   libucrt:argv_data.obj
 0001:001f1924       __p___argv                 00000001801f2924 f   libucrt:argv_data.obj
 0001:001f1930       __p___wargv                00000001801f2930 f   libucrt:argv_data.obj
 0001:001f193c       __p__acmdln                00000001801f293c f   libucrt:argv_data.obj
 0001:001f1948       __p__pgmptr                00000001801f2948 f   libucrt:argv_data.obj
 0001:001f1954       __p__wcmdln                00000001801f2954 f   libucrt:argv_data.obj
 0001:001f1960       __p__wpgmptr               00000001801f2960 f   libucrt:argv_data.obj
 0001:001f196c       _get_pgmptr                00000001801f296c f   libucrt:argv_data.obj
 0001:001f19b0       _get_wpgmptr               00000001801f29b0 f   libucrt:argv_data.obj
 0001:001f1a7c       wcscpy_s                   00000001801f2a7c f   libucrt:wcscpy_s.obj
 0001:001f1afc       ??0?$__crt_unique_handle_t@Uenvironment_strings_traits@?A0x17d69fb8@@@@QEAA@QEA_W@Z 00000001801f2afc f i libucrt:get_environment_from_os.obj
 0001:001f1b04       ??1?$__crt_unique_handle_t@Uenvironment_strings_traits@?A0x17d69fb8@@@@QEAA@XZ 00000001801f2b04 f i libucrt:get_environment_from_os.obj
 0001:001f1b30       ??B?$__crt_unique_handle_t@Uenvironment_strings_traits@?A0x17d69fb8@@@@QEBA_NXZ 00000001801f2b30 f i libucrt:get_environment_from_os.obj
 0001:001f1b3c       ?close@?$__crt_unique_handle_t@Uenvironment_strings_traits@?A0x17d69fb8@@@@QEAAXXZ 00000001801f2b3c f i libucrt:get_environment_from_os.obj
 0001:001f1b68       ?close@environment_strings_traits@?A0x17d69fb8@@SA_NPEA_W@Z 00000001801f2b68 f i libucrt:get_environment_from_os.obj
 0001:001f1bac       ?get@?$__crt_unique_handle_t@Uenvironment_strings_traits@?A0x17d69fb8@@@@QEBAPEA_WXZ 00000001801f2bac f i libucrt:get_environment_from_os.obj
 0001:001f1bb0       ?get_invalid_value@environment_strings_traits@?A0x17d69fb8@@SAPEA_WXZ 00000001801f2bb0 f i libucrt:get_environment_from_os.obj
 0001:001f1bb4       ?is_valid@?$__crt_unique_handle_t@Uenvironment_strings_traits@?A0x17d69fb8@@@@QEBA_NXZ 00000001801f2bb4 f i libucrt:get_environment_from_os.obj
 0001:001f1bc0       __dcrt_get_narrow_environment_from_os 00000001801f2bc0 f   libucrt:get_environment_from_os.obj
 0001:001f1d04       __dcrt_get_wide_environment_from_os 00000001801f2d04 f   libucrt:get_environment_from_os.obj
 0001:001f28b8       ??$get_or_create_environment_nolock@$$$V@?$__crt_char_traits@D@@SAPEAPEADXZ 00000001801f38b8 f i libucrt:setenv.obj
 0001:001f28c0       ??$get_or_create_environment_nolock@$$$V@?$__crt_char_traits@_W@@SAPEAPEA_WXZ 00000001801f38c0 f i libucrt:setenv.obj
 0001:001f28c8       ??$set_environment_variable@AEBQEADQEAD@?$__crt_char_traits@D@@SAHAEBQEAD$$QEBQEAD@Z 00000001801f38c8 f i libucrt:setenv.obj
 0001:001f28d8       ??$set_environment_variable@AEBQEA_WQEA_W@?$__crt_char_traits@_W@@SAHAEBQEA_W$$QEBQEA_W@Z 00000001801f38d8 f i libucrt:setenv.obj
 0001:001f28e8       ??$tcschr@AEBQEADD@?$__crt_char_traits@D@@SAPEADAEBQEAD$$QEAD@Z 00000001801f38e8 f i libucrt:setenv.obj
 0001:001f28f8       ??$tcschr@AEBQEA_WD@?$__crt_char_traits@_W@@SAPEA_WAEBQEA_W$$QEAD@Z 00000001801f38f8 f i libucrt:setenv.obj
 0001:001f2908       ??$tcscpy_s@AEAPEADAEB_KAEAPEAD@?$__crt_char_traits@D@@SAHAEAPEADAEB_K0@Z 00000001801f3908 f i libucrt:setenv.obj
 0001:001f291c       ??$tcscpy_s@AEAPEA_WAEB_KAEAPEA_W@?$__crt_char_traits@_W@@SAHAEAPEA_WAEB_K0@Z 00000001801f391c f i libucrt:setenv.obj
 0001:001f2930       ??$tcscpy_s@AEBQEADAEB_KAEBQEAD@?$__crt_char_traits@D@@SAHAEBQEADAEB_K0@Z 00000001801f3930 f i libucrt:setenv.obj
 0001:001f2944       ??$tcscpy_s@AEBQEA_WAEB_KAEBQEA_W@?$__crt_char_traits@_W@@SAHAEBQEA_WAEB_K0@Z 00000001801f3944 f i libucrt:setenv.obj
 0001:001f2958       ??$tcslen@AEBQEAD@?$__crt_char_traits@D@@SA_KAEBQEAD@Z 00000001801f3958 f i libucrt:setenv.obj
 0001:001f2970       ??$tcslen@AEBQEA_W@?$__crt_char_traits@_W@@SA_KAEBQEA_W@Z 00000001801f3970 f i libucrt:setenv.obj
 0001:001f2988       ??$tcsnicoll@AEBQEBDAEAPEADAEB_K@?$__crt_char_traits@D@@SAHAEBQEBDAEAPEADAEB_K@Z 00000001801f3988 f i libucrt:setenv.obj
 0001:001f299c       ??$tcsnicoll@AEBQEB_WAEAPEA_WAEB_K@?$__crt_char_traits@_W@@SAHAEBQEB_WAEAPEA_WAEB_K@Z 00000001801f399c f i libucrt:setenv.obj
 0001:001f29f8       ?strchr@@YAPEADQEADH@Z     00000001801f39f8 f i libucrt:setenv.obj
 0001:001f2a00       ?wcschr@@YAPEA_WPEA_W_W@Z  00000001801f3a00 f i libucrt:setenv.obj
 0001:001f2a08       __dcrt_set_variable_in_narrow_environment_nolock 00000001801f3a08 f   libucrt:setenv.obj
 0001:001f2a10       __dcrt_set_variable_in_wide_environment_nolock 00000001801f3a10 f   libucrt:setenv.obj
 0001:001f2a18       _recalloc                  00000001801f3a18 f   libucrt:recalloc.obj
 0001:001f2a20       _recalloc_base             00000001801f3a20 f   libucrt:recalloc.obj
 0001:001f2adc       __acrt_getheap             00000001801f3adc f   libucrt:heap_handle.obj
 0001:001f2ae8       __acrt_initialize_heap     00000001801f3ae8 f   libucrt:heap_handle.obj
 0001:001f2b0c       __acrt_uninitialize_heap   00000001801f3b0c f   libucrt:heap_handle.obj
 0001:001f2b1c       _get_heap_handle           00000001801f3b1c f   libucrt:heap_handle.obj
 0001:001f2db0       __acrt_initialize_lowio    00000001801f3db0 f   libucrt:ioinit.obj
 0001:001f2dfc       __acrt_uninitialize_lowio  00000001801f3dfc f   libucrt:ioinit.obj
 0001:001f2e4c       __acrt_execute_initializers 00000001801f3e4c f   libucrt:shared_initialization.obj
 0001:001f2f08       __acrt_execute_uninitializers 00000001801f3f08 f   libucrt:shared_initialization.obj
 0001:001f2f6c       ??$?B$$A6AH_K@Z@__crt_fast_encoded_nullptr_t@@QEBAP6AH_K@ZXZ 00000001801f3f6c f i libucrt:new_handler.obj
 0001:001f2f90       ??$__crt_fast_decode_pointer@P6AH_K@Z@@YAP6AH_K@ZQ6AH0@Z@Z 00000001801f3f90 f i libucrt:new_handler.obj
 0001:001f2fac       ??$__crt_fast_encode_pointer@P6AH_K@Z@@YAP6AH_K@ZQ6AH0@Z@Z 00000001801f3fac f i libucrt:new_handler.obj
 0001:001f2fd4       ?_set_new_handler@@YAP6AH_K@ZH@Z 00000001801f3fd4 f   libucrt:new_handler.obj
 0001:001f3000       ?initialize@?$dual_state_global@P6AH_K@Z@__crt_state_management@@QEAAXQ6AH_K@Z@Z 00000001801f4000 f i libucrt:new_handler.obj
 0001:001f3040       ?value@?$dual_state_global@P6AH_K@Z@__crt_state_management@@QEAAAEAP6AH_K@ZXZ 00000001801f4040 f i libucrt:new_handler.obj
 0001:001f3044       __acrt_initialize_new_handler 00000001801f4044 f   libucrt:new_handler.obj
 0001:001f3050       _callnewh                  00000001801f4050 f   libucrt:new_handler.obj
 0001:001f30a0       _query_new_handler         00000001801f40a0 f   libucrt:new_handler.obj
 0001:001f30e4       _set_new_handler           00000001801f40e4 f   libucrt:new_handler.obj
 0001:001f3154       ??$?B$$A6AXH@Z@__crt_fast_encoded_nullptr_t@@QEBAP6AXH@ZXZ 00000001801f4154 f i libucrt:signal.obj
 0001:001f3178       ??$?RV<lambda_c36588078e9f5dfd39652860aa6b3aaf>@@AEAV<lambda_ec61778202f4f5fc7e7711acc23c3bca>@@V<lambda_dc9d2797ccde5d239b4a0efae8ebd7db>@@@?$__crt_seh_guarded_call@P6AXH@Z@@QEAAP6AXH@Z$$QEAV<lambda_c36588078e9f5dfd39652860aa6b3aaf>@@AEAV<lambda_ec61778202f4f5fc7e7711acc23c3bca>@@$$QEAV<lambda_dc9d2797ccde5d239b4a0efae8ebd7db>@@@Z 00000001801f4178 f i libucrt:signal.obj
 0001:001f31d0       ??$__acrt_lock_and_call@V<lambda_ec61778202f4f5fc7e7711acc23c3bca>@@@@YAP6AXH@ZW4__acrt_lock_id@@$$QEAV<lambda_ec61778202f4f5fc7e7711acc23c3bca>@@@Z 00000001801f41d0 f i libucrt:signal.obj
 0001:001f3200       ??$__crt_fast_decode_pointer@P6AXH@Z@@YAP6AXH@ZQ6AXH@Z@Z 00000001801f4200 f i libucrt:signal.obj
 0001:001f321c       ??$__crt_fast_encode_pointer@P6AXH@Z@@YAP6AXH@ZQ6AXH@Z@Z 00000001801f421c f i libucrt:signal.obj
 0001:001f33a4       ?initialize@?$dual_state_global@P6AXH@Z@__crt_state_management@@QEAAXQ6AXH@Z@Z 00000001801f43a4 f i libucrt:signal.obj
 0001:001f3444       ?value@?$dual_state_global@P6AXH@Z@__crt_state_management@@QEAAAEAP6AXH@ZXZ 00000001801f4444 f i libucrt:signal.obj
 0001:001f3448       __acrt_get_sigabrt_handler 00000001801f4448 f   libucrt:signal.obj
 0001:001f3484       __acrt_initialize_signal_handlers 00000001801f4484 f   libucrt:signal.obj
 0001:001f34a8       __fpecode                  00000001801f44a8 f   libucrt:signal.obj
 0001:001f34c0       __pxcptinfoptrs            00000001801f44c0 f   libucrt:signal.obj
 0001:001f34d8       raise                      00000001801f44d8 f   libucrt:signal.obj
 0001:001f3818       signal                     00000001801f4818 f   libucrt:signal.obj
 0001:001f3a7c       ??$__crt_fast_decode_pointer@P6AHPEAU_exception@@@Z@@YAP6AHPEAU_exception@@@ZQ6AH0@Z@Z 00000001801f4a7c f i libucrt:matherr.obj
 0001:001f3a98       ??$__crt_fast_encode_pointer@P6AHPEAU_exception@@@Z@@YAP6AHPEAU_exception@@@ZQ6AH0@Z@Z 00000001801f4a98 f i libucrt:matherr.obj
 0001:001f3ac0       ?initialize@?$dual_state_global@P6AHPEAU_exception@@@Z@__crt_state_management@@QEAAXQ6AHPEAU_exception@@@Z@Z 00000001801f4ac0 f i libucrt:matherr.obj
 0001:001f3b00       ?value@?$dual_state_global@P6AHPEAU_exception@@@Z@__crt_state_management@@QEAAAEAP6AHPEAU_exception@@@ZXZ 00000001801f4b00 f i libucrt:matherr.obj
 0001:001f3b04       __acrt_has_user_matherr    00000001801f4b04 f   libucrt:matherr.obj
 0001:001f3b28       __acrt_initialize_user_matherr 00000001801f4b28 f   libucrt:matherr.obj
 0001:001f3b34       __acrt_invoke_user_matherr 00000001801f4b34 f   libucrt:matherr.obj
 0001:001f3b8c       __setusermatherr           00000001801f4b8c f   libucrt:matherr.obj
 0001:001f3bbc       __p___mb_cur_max           00000001801f4bbc f   libucrt:nlsdata.obj
 0001:001f3bf8       ?has_any_buffer@__crt_stdio_stream@@QEBA_NXZ 00000001801f4bf8 f i libucrt:_sftbuf.obj
 0001:001f3c0c       ?has_any_of@__crt_stdio_stream@@QEBA_NJ@Z 00000001801f4c0c f i libucrt:_sftbuf.obj
 0001:001f3c1c       ?has_temporary_buffer@__crt_stdio_stream@@QEBA_NXZ 00000001801f4c1c f i libucrt:_sftbuf.obj
 0001:001f3c2c       ?set_flags@__crt_stdio_stream@@QEBA_NJ@Z 00000001801f4c2c f i libucrt:_sftbuf.obj
 0001:001f3c54       ?unset_flags@__crt_stdio_stream@@QEBA_NJ@Z 00000001801f4c54 f i libucrt:_sftbuf.obj
 0001:001f3c84       __acrt_stdio_begin_temporary_buffering_nolock 00000001801f4c84 f   libucrt:_sftbuf.obj
 0001:001f3d88       __acrt_stdio_end_temporary_buffering_nolock 00000001801f4d88 f   libucrt:_sftbuf.obj
 0001:001f3dd0       ?value@?$dual_state_global@J@__crt_state_management@@QEAAAEAJXZ 00000001801f4dd0 f i libucrt:new_mode.obj
 0001:001f3dd4       _query_new_mode            00000001801f4dd4 f   libucrt:new_mode.obj
 0001:001f3ddc       _set_new_mode              00000001801f4ddc f   libucrt:new_mode.obj
 0001:001f3e2c       __isascii                  00000001801f4e2c f i libucrt:_ctype.obj
 0001:001f3e3c       __iscsym                   00000001801f4e3c f i libucrt:_ctype.obj
 0001:001f3e70       __iscsymf                  00000001801f4e70 f i libucrt:_ctype.obj
 0001:001f3ea0       __toascii                  00000001801f4ea0 f i libucrt:_ctype.obj
 0001:001f3ea8       _isalnum_l                 00000001801f4ea8 f i libucrt:_ctype.obj
 0001:001f3f1c       _isalpha_l                 00000001801f4f1c f i libucrt:_ctype.obj
 0001:001f3f90       _isblank_l                 00000001801f4f90 f i libucrt:_ctype.obj
 0001:001f4010       _iscntrl_l                 00000001801f5010 f i libucrt:_ctype.obj
 0001:001f4080       _iscsym_l                  00000001801f5080 f i libucrt:_ctype.obj
 0001:001f4104       _iscsymf_l                 00000001801f5104 f i libucrt:_ctype.obj
 0001:001f4188       _isdigit_l                 00000001801f5188 f i libucrt:_ctype.obj
 0001:001f41f8       _isgraph_l                 00000001801f51f8 f i libucrt:_ctype.obj
 0001:001f426c       _islower_l                 00000001801f526c f i libucrt:_ctype.obj
 0001:001f42dc       _isprint_l                 00000001801f52dc f i libucrt:_ctype.obj
 0001:001f4350       _ispunct_l                 00000001801f5350 f i libucrt:_ctype.obj
 0001:001f43c0       _isspace_l                 00000001801f53c0 f i libucrt:_ctype.obj
 0001:001f4430       _isupper_l                 00000001801f5430 f i libucrt:_ctype.obj
 0001:001f44a0       _isxdigit_l                00000001801f54a0 f i libucrt:_ctype.obj
 0001:001f4514       isalnum                    00000001801f5514 f i libucrt:_ctype.obj
 0001:001f45ac       isalpha                    00000001801f55ac f i libucrt:_ctype.obj
 0001:001f4644       isblank                    00000001801f5644 f i libucrt:_ctype.obj
 0001:001f46f4       iscntrl                    00000001801f56f4 f i libucrt:_ctype.obj
 0001:001f4788       isdigit                    00000001801f5788 f i libucrt:_ctype.obj
 0001:001f481c       isgraph                    00000001801f581c f i libucrt:_ctype.obj
 0001:001f48b4       islower                    00000001801f58b4 f i libucrt:_ctype.obj
 0001:001f4948       isprint                    00000001801f5948 f i libucrt:_ctype.obj
 0001:001f49e0       ispunct                    00000001801f59e0 f i libucrt:_ctype.obj
 0001:001f4a74       isspace                    00000001801f5a74 f i libucrt:_ctype.obj
 0001:001f4b08       isupper                    00000001801f5b08 f i libucrt:_ctype.obj
 0001:001f4b9c       isxdigit                   00000001801f5b9c f i libucrt:_ctype.obj
 0001:001f503c       _tolower                   00000001801f603c f   libucrt:tolower_toupper.obj
 0001:001f5040       _tolower_l                 00000001801f6040 f   libucrt:tolower_toupper.obj
 0001:001f51d0       _toupper                   00000001801f61d0 f   libucrt:tolower_toupper.obj
 0001:001f51d4       _toupper_l                 00000001801f61d4 f   libucrt:tolower_toupper.obj
 0001:001f5364       tolower                    00000001801f6364 f   libucrt:tolower_toupper.obj
 0001:001f539c       toupper                    00000001801f639c f   libucrt:tolower_toupper.obj
 0001:001f53d4       ??$make_c_string_character_source@DPEAPEAD@__crt_strtox@@YA?AV?$c_string_character_source@D@0@QEBDQEAPEAD@Z 00000001801f63d4 f i libucrt:strtox.obj
 0001:001f53ec       ??$make_c_string_character_source@_WPEAPEA_W@__crt_strtox@@YA?AV?$c_string_character_source@_W@0@QEB_WQEAPEA_W@Z 00000001801f63ec f i libucrt:strtox.obj
 0001:001f5404       ??$parse_integer_from_string@JDPEAPEAD@__crt_strtox@@YAJQEBDQEAPEADHQEAU__crt_locale_pointers@@@Z 00000001801f6404 f i libucrt:strtox.obj
 0001:001f5450       ??$parse_integer_from_string@J_WPEAPEA_W@__crt_strtox@@YAJQEB_WQEAPEA_WHQEAU__crt_locale_pointers@@@Z 00000001801f6450 f i libucrt:strtox.obj
 0001:001f549c       ??$parse_integer_from_string@KDPEAPEAD@__crt_strtox@@YAKQEBDQEAPEADHQEAU__crt_locale_pointers@@@Z 00000001801f649c f i libucrt:strtox.obj
 0001:001f54e8       ??$parse_integer_from_string@K_WPEAPEA_W@__crt_strtox@@YAKQEB_WQEAPEA_WHQEAU__crt_locale_pointers@@@Z 00000001801f64e8 f i libucrt:strtox.obj
 0001:001f5534       ??$parse_integer_from_string@_JDPEAPEAD@__crt_strtox@@YA_JQEBDQEAPEADHQEAU__crt_locale_pointers@@@Z 00000001801f6534 f i libucrt:strtox.obj
 0001:001f5580       ??$parse_integer_from_string@_J_WPEAPEA_W@__crt_strtox@@YA_JQEB_WQEAPEA_WHQEAU__crt_locale_pointers@@@Z 00000001801f6580 f i libucrt:strtox.obj
 0001:001f55cc       ??$parse_integer_from_string@_KDPEAPEAD@__crt_strtox@@YA_KQEBDQEAPEADHQEAU__crt_locale_pointers@@@Z 00000001801f65cc f i libucrt:strtox.obj
 0001:001f5618       ??$parse_integer_from_string@_K_WPEAPEA_W@__crt_strtox@@YA_KQEB_WQEAPEA_WHQEAU__crt_locale_pointers@@@Z 00000001801f6618 f i libucrt:strtox.obj
 0001:001f5664       _strtoi64                  00000001801f6664 f   libucrt:strtox.obj
 0001:001f56a0       _strtoi64_l                00000001801f66a0 f   libucrt:strtox.obj
 0001:001f56ec       _strtoimax_l               00000001801f66ec f   libucrt:strtox.obj
 0001:001f5738       _strtol_l                  00000001801f6738 f   libucrt:strtox.obj
 0001:001f5784       _strtoll_l                 00000001801f6784 f   libucrt:strtox.obj
 0001:001f57d0       _strtoui64                 00000001801f67d0 f   libucrt:strtox.obj
 0001:001f580c       _strtoui64_l               00000001801f680c f   libucrt:strtox.obj
 0001:001f5858       _strtoul_l                 00000001801f6858 f   libucrt:strtox.obj
 0001:001f58a4       _strtoull_l                00000001801f68a4 f   libucrt:strtox.obj
 0001:001f58f0       _strtoumax_l               00000001801f68f0 f   libucrt:strtox.obj
 0001:001f593c       _wcstoi64                  00000001801f693c f   libucrt:strtox.obj
 0001:001f5978       _wcstoi64_l                00000001801f6978 f   libucrt:strtox.obj
 0001:001f59c4       _wcstoimax_l               00000001801f69c4 f   libucrt:strtox.obj
 0001:001f5a10       _wcstol_l                  00000001801f6a10 f   libucrt:strtox.obj
 0001:001f5a5c       _wcstoll_l                 00000001801f6a5c f   libucrt:strtox.obj
 0001:001f5aa8       _wcstoui64                 00000001801f6aa8 f   libucrt:strtox.obj
 0001:001f5ae4       _wcstoui64_l               00000001801f6ae4 f   libucrt:strtox.obj
 0001:001f5b30       _wcstoul_l                 00000001801f6b30 f   libucrt:strtox.obj
 0001:001f5b7c       _wcstoull_l                00000001801f6b7c f   libucrt:strtox.obj
 0001:001f5bc8       _wcstoumax_l               00000001801f6bc8 f   libucrt:strtox.obj
 0001:001f5c14       strtoimax                  00000001801f6c14 f   libucrt:strtox.obj
 0001:001f5c50       strtol                     00000001801f6c50 f   libucrt:strtox.obj
 0001:001f5c8c       strtoll                    00000001801f6c8c f   libucrt:strtox.obj
 0001:001f5cc8       strtoul                    00000001801f6cc8 f   libucrt:strtox.obj
 0001:001f5d04       strtoull                   00000001801f6d04 f   libucrt:strtox.obj
 0001:001f5d40       strtoumax                  00000001801f6d40 f   libucrt:strtox.obj
 0001:001f5d7c       wcstoimax                  00000001801f6d7c f   libucrt:strtox.obj
 0001:001f5db8       wcstol                     00000001801f6db8 f   libucrt:strtox.obj
 0001:001f5df4       wcstoll                    00000001801f6df4 f   libucrt:strtox.obj
 0001:001f5e30       wcstoul                    00000001801f6e30 f   libucrt:strtox.obj
 0001:001f5e6c       wcstoull                   00000001801f6e6c f   libucrt:strtox.obj
 0001:001f5ea8       wcstoumax                  00000001801f6ea8 f   libucrt:strtox.obj
 0001:001f5ee4       _mbtowc_l                  00000001801f6ee4 f   libucrt:mbtowc.obj
 0001:001f6080       mbtowc                     00000001801f7080 f   libucrt:mbtowc.obj
 0001:001f608c       _wctomb_l                  00000001801f708c f   libucrt:wctomb.obj
 0001:001f611c       _wctomb_s_l                00000001801f711c f   libucrt:wctomb.obj
 0001:001f6304       wctomb                     00000001801f7304 f   libucrt:wctomb.obj
 0001:001f6364       wctomb_s                   00000001801f7364 f   libucrt:wctomb.obj
 0001:001f6b98       ??1?$__crt_simd_cleanup_guard@$00@@QEAA@XZ 00000001801f7b98 f i libucrt:strnlen.obj
 0001:001f6b9c       ??1?$__crt_simd_cleanup_guard@$0A@@@QEAA@XZ 00000001801f7b9c f i libucrt:strnlen.obj
 0001:001f6ba0       ?compare_equals@?$__crt_simd_traits@$00E@@SA?AT__m256i@@T2@0@Z 00000001801f7ba0 f i libucrt:strnlen.obj
 0001:001f6bc4       ?compare_equals@?$__crt_simd_traits@$00G@@SA?AT__m256i@@T2@0@Z 00000001801f7bc4 f i libucrt:strnlen.obj
 0001:001f6be8       ?compare_equals@?$__crt_simd_traits@$0A@E@@SA?AT__m128i@@T2@0@Z 00000001801f7be8 f i libucrt:strnlen.obj
 0001:001f6bf4       ?compare_equals@?$__crt_simd_traits@$0A@G@@SA?AT__m128i@@T2@0@Z 00000001801f7bf4 f i libucrt:strnlen.obj
 0001:001f6c00       ?compute_byte_mask@?$__crt_simd_pack_traits@$00@@SAHT__m256i@@@Z 00000001801f7c00 f i libucrt:strnlen.obj
 0001:001f6c0c       ?compute_byte_mask@?$__crt_simd_pack_traits@$0A@@@SAHT__m128i@@@Z 00000001801f7c0c f i libucrt:strnlen.obj
 0001:001f6c18       ?get_zero_pack@?$__crt_simd_pack_traits@$00@@SA?AT__m256i@@XZ 00000001801f7c18 f i libucrt:strnlen.obj
 0001:001f6c38       ?get_zero_pack@?$__crt_simd_pack_traits@$0A@@@SA?AT__m128i@@XZ 00000001801f7c38 f i libucrt:strnlen.obj
 0001:001f6c3c       strnlen                    00000001801f7c3c f   libucrt:strnlen.obj
 0001:001f6dec       wcsnlen                    00000001801f7dec f   libucrt:strnlen.obj
 0001:001f7058       __acrt_update_locale_info  00000001801f8058 f   libucrt:locale_update.obj
 0001:001f7098       __acrt_update_multibyte_info 00000001801f8098 f   libucrt:locale_update.obj
 0001:001f70d8       ?__acrt_fp_classify@@YA?AW4__acrt_fp_class@@AEBN@Z 00000001801f80d8 f i libucrt:cvt.obj
 0001:001f7158       ?__acrt_fp_is_negative@@YA_NAEBN@Z 00000001801f8158 f i libucrt:cvt.obj
 0001:001f7eb0       ?strrchr@@YAPEADQEADH@Z    00000001801f8eb0 f i libucrt:cvt.obj
 0001:001f7eb8       __acrt_fp_format           00000001801f8eb8 f   libucrt:cvt.obj
 0001:001f81d0       _fputwc_nolock             00000001801f91d0 f   libucrt:fputwc.obj
 0001:001f83a8       _fputwchar                 00000001801f93a8 f   libucrt:fputwc.obj
 0001:001f83d4       _putwc_nolock              00000001801f93d4 f   libucrt:fputwc.obj
 0001:001f83dc       fputwc                     00000001801f93dc f   libucrt:fputwc.obj
 0001:001f845c       putwc                      00000001801f945c f   libucrt:fputwc.obj
 0001:001f8464       putwchar                   00000001801f9464 f   libucrt:fputwc.obj
 0001:001f846c       ?lowio_handle@__crt_stdio_stream@@QEBAHXZ 00000001801f946c f i libucrt:fileno.obj
 0001:001f8474       _fileno                    00000001801f9474 f   libucrt:fileno.obj
 0001:001f84a4       ??$?RPEAU__crt_stdio_stream_data@@@__crt_internal_free_policy@@QEBAXQEBQEAU__crt_stdio_stream_data@@@Z 00000001801f94a4 f i libucrt:_file.obj
 0001:001f84b0       ??0?$__crt_unique_heap_ptr@PEAU__crt_stdio_stream_data@@U__crt_internal_free_policy@@@@QEAA@QEAPEAU__crt_stdio_stream_data@@@Z 00000001801f94b0 f i libucrt:_file.obj
 0001:001f84b8       ??1?$__crt_unique_heap_ptr@PEAU__crt_stdio_stream_data@@U__crt_internal_free_policy@@@@QEAA@XZ 00000001801f94b8 f i libucrt:_file.obj
 0001:001f84dc       ?detach@?$__crt_unique_heap_ptr@PEAU__crt_stdio_stream_data@@U__crt_internal_free_policy@@@@QEAAPEAPEAU__crt_stdio_stream_data@@XZ 00000001801f94dc f i libucrt:_file.obj
 0001:001f84e8       ?release@?$__crt_unique_heap_ptr@PEAU__crt_stdio_stream_data@@U__crt_internal_free_policy@@@@QEAAXXZ 00000001801f94e8 f i libucrt:_file.obj
 0001:001f850c       __acrt_initialize_stdio    00000001801f950c f   libucrt:_file.obj
 0001:001f8674       __acrt_iob_func            00000001801f9674 f   libucrt:_file.obj
 0001:001f868c       __acrt_uninitialize_stdio  00000001801f968c f   libucrt:_file.obj
 0001:001f8700       _get_stream_buffer_pointers 00000001801f9700 f   libucrt:_file.obj
 0001:001f8758       _lock_file                 00000001801f9758 f   libucrt:_file.obj
 0001:001f8768       _unlock_file               00000001801f9768 f   libucrt:_file.obj
 0001:001f8778       _fputc_nolock              00000001801f9778 f   libucrt:fputc.obj
 0001:001f8794       _fputchar                  00000001801f9794 f   libucrt:fputc.obj
 0001:001f87c0       _putc_nolock               00000001801f97c0 f   libucrt:fputc.obj
 0001:001f87dc       fputc                      00000001801f97dc f   libucrt:fputc.obj
 0001:001f8944       putc                       00000001801f9944 f   libucrt:fputc.obj
 0001:001f894c       putchar                    00000001801f994c f   libucrt:fputc.obj
 0001:001f8954       _get_printf_count_output   00000001801f9954 f   libucrt:printf_count_output.obj
 0001:001f8974       _set_printf_count_output   00000001801f9974 f   libucrt:printf_count_output.obj
 0001:001f89a8       ??$?RU__crt_locale_data@@@__crt_internal_free_policy@@QEBAXQEBU__crt_locale_data@@@Z 00000001801f99a8 f i libucrt:wsetlocale.obj
 0001:001f89b4       ??$?RU__crt_locale_pointers@@@__crt_internal_free_policy@@QEBAXQEBU__crt_locale_pointers@@@Z 00000001801f99b4 f i libucrt:wsetlocale.obj
 0001:001f89c0       ??$?RV<lambda_3e0436e1742da57cd73032a8c01babf8>@@AEAV<lambda_b7fb1a997d3ebc0cc0186c5835178808>@@V<lambda_eece23d6871d1810c6784d81edd5a05e>@@@?$__crt_seh_guarded_call@X@@QEAAX$$QEAV<lambda_3e0436e1742da57cd73032a8c01babf8>@@AEAV<lambda_b7fb1a997d3ebc0cc0186c5835178808>@@$$QEAV<lambda_eece23d6871d1810c6784d81edd5a05e>@@@Z 00000001801f99c0 f i libucrt:wsetlocale.obj
 0001:001f8a14       ??$?RV<lambda_5df02c53a8f32f81fd64e5bbb78039f1>@@AEAV<lambda_2af78c5f5901b1372d98f9ab3177dfa6>@@AEAV<lambda_f51fe5fd7c79a33db34fc9310f277369>@@@?$__crt_seh_guarded_call@X@@QEAAX$$QEAV<lambda_5df02c53a8f32f81fd64e5bbb78039f1>@@AEAV<lambda_2af78c5f5901b1372d98f9ab3177dfa6>@@AEAV<lambda_f51fe5fd7c79a33db34fc9310f277369>@@@Z 00000001801f9a14 f i libucrt:wsetlocale.obj
 0001:001f8a48       ??$?RV<lambda_d67e8342c384adda8f857579ab50b2ae>@@AEAV<lambda_30712929f77e709619002f448b6a9510>@@V<lambda_4525336fd7e478d965fb7ca7a337cad8>@@@?$__crt_seh_guarded_call@X@@QEAAX$$QEAV<lambda_d67e8342c384adda8f857579ab50b2ae>@@AEAV<lambda_30712929f77e709619002f448b6a9510>@@$$QEAV<lambda_4525336fd7e478d965fb7ca7a337cad8>@@@Z 00000001801f9a48 f i libucrt:wsetlocale.obj
 0001:001f8bd0       ??$?RV<lambda_ede63489d7330338e618311e15f0c366>@@AEAV<lambda_176e34f99554166dd2fac165c457248c>@@V<lambda_b0463272cb7667df9361a74a62ea8ca5>@@@?$__crt_seh_guarded_call@X@@QEAAX$$QEAV<lambda_ede63489d7330338e618311e15f0c366>@@AEAV<lambda_176e34f99554166dd2fac165c457248c>@@$$QEAV<lambda_b0463272cb7667df9361a74a62ea8ca5>@@@Z 00000001801f9bd0 f i libucrt:wsetlocale.obj
 0001:001f8c20       ??$__acrt_lock_and_call@V<lambda_176e34f99554166dd2fac165c457248c>@@@@YAXW4__acrt_lock_id@@$$QEAV<lambda_176e34f99554166dd2fac165c457248c>@@@Z 00000001801f9c20 f i libucrt:wsetlocale.obj
 0001:001f8c50       ??$__acrt_lock_and_call@V<lambda_30712929f77e709619002f448b6a9510>@@@@YAXW4__acrt_lock_id@@$$QEAV<lambda_30712929f77e709619002f448b6a9510>@@@Z 00000001801f9c50 f i libucrt:wsetlocale.obj
 0001:001f8c80       ??$__acrt_lock_and_call@V<lambda_b7fb1a997d3ebc0cc0186c5835178808>@@@@YAXW4__acrt_lock_id@@$$QEAV<lambda_b7fb1a997d3ebc0cc0186c5835178808>@@@Z 00000001801f9c80 f i libucrt:wsetlocale.obj
 0001:001f8cb0       ??$__crt_call_and_cleanup@V<lambda_2af78c5f5901b1372d98f9ab3177dfa6>@@V<lambda_f51fe5fd7c79a33db34fc9310f277369>@@@@YAX$$QEAV<lambda_2af78c5f5901b1372d98f9ab3177dfa6>@@$$QEAV<lambda_f51fe5fd7c79a33db34fc9310f277369>@@@Z 00000001801f9cb0 f i libucrt:wsetlocale.obj
 0001:001f8ccc       ??$__vcrt_va_start_verify_argument_type@H@@YAXXZ 00000001801f9ccc f i libucrt:wsetlocale.obj
 0001:001f8d88       ??0?$__crt_unique_heap_ptr@U__crt_locale_data@@U__crt_internal_free_policy@@@@QEAA@QEAU__crt_locale_data@@@Z 00000001801f9d88 f i libucrt:wsetlocale.obj
 0001:001f8d90       ??0?$__crt_unique_heap_ptr@U__crt_locale_pointers@@U__crt_internal_free_policy@@@@QEAA@QEAU__crt_locale_pointers@@@Z 00000001801f9d90 f i libucrt:wsetlocale.obj
 0001:001f8d98       ??1?$__crt_unique_heap_ptr@U__crt_locale_data@@U__crt_internal_free_policy@@@@QEAA@XZ 00000001801f9d98 f i libucrt:wsetlocale.obj
 0001:001f8dbc       ??1?$__crt_unique_heap_ptr@U__crt_locale_pointers@@U__crt_internal_free_policy@@@@QEAA@XZ 00000001801f9dbc f i libucrt:wsetlocale.obj
 0001:001f8de0       ??B?$__crt_unique_heap_ptr@U__crt_locale_data@@U__crt_internal_free_policy@@@@QEBA_NXZ 00000001801f9de0 f i libucrt:wsetlocale.obj
 0001:001f8dec       ??B?$__crt_unique_heap_ptr@U__crt_locale_pointers@@U__crt_internal_free_policy@@@@QEBA_NXZ 00000001801f9dec f i libucrt:wsetlocale.obj
 0001:001f9080       ?detach@?$__crt_unique_heap_ptr@U__crt_locale_data@@U__crt_internal_free_policy@@@@QEAAPEAU__crt_locale_data@@XZ 00000001801fa080 f i libucrt:wsetlocale.obj
 0001:001f908c       ?detach@?$__crt_unique_heap_ptr@U__crt_locale_pointers@@U__crt_internal_free_policy@@@@QEAAPEAU__crt_locale_pointers@@XZ 00000001801fa08c f i libucrt:wsetlocale.obj
 0001:001f9098       ?get@?$__crt_unique_heap_ptr@U__crt_locale_data@@U__crt_internal_free_policy@@@@QEBAPEAU__crt_locale_data@@XZ 00000001801fa098 f i libucrt:wsetlocale.obj
 0001:001f909c       ?get@?$__crt_unique_heap_ptr@U__crt_locale_pointers@@U__crt_internal_free_policy@@@@QEBAPEAU__crt_locale_pointers@@XZ 00000001801fa09c f i libucrt:wsetlocale.obj
 0001:001f90a0       ?is_valid@?$__crt_unique_heap_ptr@U__crt_locale_data@@U__crt_internal_free_policy@@@@QEBA_NXZ 00000001801fa0a0 f i libucrt:wsetlocale.obj
 0001:001f90ac       ?is_valid@?$__crt_unique_heap_ptr@U__crt_locale_pointers@@U__crt_internal_free_policy@@@@QEBA_NXZ 00000001801fa0ac f i libucrt:wsetlocale.obj
 0001:001f90b8       ?release@?$__crt_unique_heap_ptr@U__crt_locale_data@@U__crt_internal_free_policy@@@@QEAAXXZ 00000001801fa0b8 f i libucrt:wsetlocale.obj
 0001:001f90dc       ?release@?$__crt_unique_heap_ptr@U__crt_locale_pointers@@U__crt_internal_free_policy@@@@QEAAXXZ 00000001801fa0dc f i libucrt:wsetlocale.obj
 0001:001f9100       __acrt_copy_locale_name    00000001801fa100 f   libucrt:wsetlocale.obj
 0001:001f91a4       __acrt_set_locale_changed  00000001801fa1a4 f   libucrt:wsetlocale.obj
 0001:001f91b4       __acrt_uninitialize_locale 00000001801fa1b4 f   libucrt:wsetlocale.obj
 0001:001f920c       __lc_lctowcs               00000001801fa20c f   libucrt:wsetlocale.obj
 0001:001f92d8       __lc_wcstolc               00000001801fa2d8 f   libucrt:wsetlocale.obj
 0001:001f94fc       _configthreadlocale        00000001801fa4fc f   libucrt:wsetlocale.obj
 0001:001f9670       _create_locale             00000001801fa670 f   libucrt:wsetlocale.obj
 0001:001f9704       _expandlocale              00000001801fa704 f   libucrt:wsetlocale.obj
 0001:001f9c00       _free_locale               00000001801fac00 f   libucrt:wsetlocale.obj
 0001:001f9ccc       _get_current_locale        00000001801faccc f   libucrt:wsetlocale.obj
 0001:001f9db8       _wcreate_locale            00000001801fadb8 f   libucrt:wsetlocale.obj
 0001:001f9f54       _wcscats                   00000001801faf54 f   libucrt:wsetlocale.obj
 0001:001f9fd4       _wsetlocale                00000001801fafd4 f   libucrt:wsetlocale.obj
 0001:001faa64       __pctype_func              00000001801fba64 f   libucrt:ctype.obj
 0001:001faaa0       __pwctype_func             00000001801fbaa0 f   libucrt:ctype.obj
 0001:001faaac       _iswctype_l                00000001801fbaac f   libucrt:iswctype.obj
 0001:001faab4       iswctype                   00000001801fbab4 f   libucrt:iswctype.obj
 0001:001fab40       _isctype                   00000001801fbb40 f   libucrt:isctype.obj
 0001:001fab6c       _isctype_l                 00000001801fbb6c f   libucrt:isctype.obj
 0001:001facd0       _get_fpsr                  00000001801fbcd0 f   libucrt:fpsr.obj
 0001:001face0       _set_fpsr                  00000001801fbce0 f   libucrt:fpsr.obj
 0001:001facea       _fclrf                     00000001801fbcea f   libucrt:fpsr.obj
 0001:001facfe       _frnd                      00000001801fbcfe f   libucrt:fpsr.obj
 0001:001fad34       nexttoward                 00000001801fbd34 f   libucrt:nexttoward.obj
 0001:001faef0       nexttowardf                00000001801fbef0 f   libucrt:nexttowardf.obj
 0001:001fb074       _errcode                   00000001801fc074 f   libucrt:fpexcept.obj
 0001:001fb0c8       _except1                   00000001801fc0c8 f   libucrt:fpexcept.obj
 0001:001fb1f8       _except2                   00000001801fc1f8 f   libucrt:fpexcept.obj
 0001:001fb380       _handle_exc                00000001801fc380 f   libucrt:fpexcept.obj
 0001:001fb680       _handle_qnan2              00000001801fc680 f   libucrt:fpexcept.obj
 0001:001fb688       _raise_exc                 00000001801fc688 f   libucrt:fpexcept.obj
 0001:001fb6b8       _raise_exc_ex              00000001801fc6b8 f   libucrt:fpexcept.obj
 0001:001fba80       _raise_excf                00000001801fca80 f   libucrt:fpexcept.obj
 0001:001fbab4       _set_errno_from_matherr    00000001801fcab4 f   libucrt:fpexcept.obj
 0001:001fbaf0       _umatherr                  00000001801fcaf0 f   libucrt:fpexcept.obj
 0001:001fbbfc       __acrt_add_locale_ref      00000001801fcbfc f   libucrt:locale_refcounting.obj
 0001:001fbcac       __acrt_free_locale         00000001801fccac f   libucrt:locale_refcounting.obj
 0001:001fbe80       __acrt_locale_add_lc_time_reference 00000001801fce80 f   libucrt:locale_refcounting.obj
 0001:001fbeb0       __acrt_locale_free_lc_time_if_unreferenced 00000001801fceb0 f   libucrt:locale_refcounting.obj
 0001:001fbef4       __acrt_locale_release_lc_time_reference 00000001801fcef4 f   libucrt:locale_refcounting.obj
 0001:001fbf24       __acrt_release_locale_ref  00000001801fcf24 f   libucrt:locale_refcounting.obj
 0001:001fbff8       __acrt_update_thread_locale_data 00000001801fcff8 f   libucrt:locale_refcounting.obj
 0001:001fc084       _updatetlocinfoEx_nolock   00000001801fd084 f   libucrt:locale_refcounting.obj
 0001:001fc2c0       __acrt_DownlevelLCIDToLocaleName 00000001801fd2c0 f   libucrt:lcidtoname_downlevel.obj
 0001:001fc3dc       __acrt_DownlevelLocaleNameToLCID 00000001801fd3dc f   libucrt:lcidtoname_downlevel.obj
 0001:001fc41c       ??1scoped_global_state_reset@__crt_state_management@@QEAA@XZ 00000001801fd41c f i libucrt:qsort.obj
 0001:001fc560       qsort                      00000001801fd560 f   libucrt:qsort.obj
 0001:001fca74       wcsncpy_s                  00000001801fda74 f   libucrt:wcsncpy_s.obj
 0001:001fcb90       wcspbrk                    00000001801fdb90 f   libucrt:wcspbrk.obj
 0001:001fccc8       strncpy_s                  00000001801fdcc8 f   libucrt:strncpy_s.obj
 0001:001fcdd0       strpbrk                    00000001801fddd0 f   libucrt:strpbrk.obj
 0001:001fce98       _mbsdec                    00000001801fde98 f   libucrt:mbsdec.obj
 0001:001fcea4       _mbsdec_l                  00000001801fdea4 f   libucrt:mbsdec.obj
 0001:001fcf7c       ??0?$__crt_scoped_stack_ptr@_W@@QEAA@U?$__crt_scoped_stack_ptr_tag@_W@@@Z 00000001801fdf7c f i libucrt:getstringtypea.obj
 0001:001fcf84       ??0?$__crt_scoped_stack_ptr_tag@_W@@QEAA@QEA_W@Z 00000001801fdf84 f i libucrt:getstringtypea.obj
 0001:001fcf8c       ??1?$__crt_scoped_stack_ptr@_W@@QEAA@XZ 00000001801fdf8c f i libucrt:getstringtypea.obj
 0001:001fcfb8       ?get@?$__crt_scoped_stack_ptr@_W@@QEBAPEA_WXZ 00000001801fdfb8 f i libucrt:getstringtypea.obj
 0001:001fcfbc       _MallocaComputeSize        00000001801fdfbc f i libucrt:getstringtypea.obj
 0001:001fcfd0       _MarkAllocaS               00000001801fdfd0 f i libucrt:getstringtypea.obj
 0001:001fcfe4       __acrt_GetStringTypeA      00000001801fdfe4 f   libucrt:getstringtypea.obj
 0001:001fd204       _freea_crt                 00000001801fe204 f i libucrt:getstringtypea.obj
 0001:001fd22c       ??B?$__crt_scoped_stack_ptr@_W@@QEBA_NXZ 00000001801fe22c f i libucrt:lcmapstringa.obj
 0001:001fd66c       __acrt_LCMapStringA        00000001801fe66c f   libucrt:lcmapstringa.obj
 0001:001fd728       _wcsnicoll                 00000001801fe728 f   libucrt:wcsnicol.obj
 0001:001fd7e4       _wcsnicoll_l               00000001801fe7e4 f   libucrt:wcsnicol.obj
 0001:001fd964       _strnicoll                 00000001801fe964 f   libucrt:strnicol.obj
 0001:001fd980       _strnicoll_l               00000001801fe980 f   libucrt:strnicol.obj
 0001:001fdb08       _msize                     00000001801feb08 f   libucrt:msize.obj
 0001:001fdb50       _realloc_base              00000001801feb50 f   libucrt:realloc_base.obj
 0001:001fdbf4       ??$?RU__crt_lowio_handle_data@@@__crt_internal_free_policy@@QEBAXQEBU__crt_lowio_handle_data@@@Z 00000001801febf4 f i libucrt:osfinfo.obj
 0001:001fdc00       ??0?$__crt_unique_heap_ptr@U__crt_lowio_handle_data@@U__crt_internal_free_policy@@@@QEAA@QEAU__crt_lowio_handle_data@@@Z 00000001801fec00 f i libucrt:osfinfo.obj
 0001:001fdc08       ??1?$__crt_unique_heap_ptr@U__crt_lowio_handle_data@@U__crt_internal_free_policy@@@@QEAA@XZ 00000001801fec08 f i libucrt:osfinfo.obj
 0001:001fdc2c       ??B?$__crt_unique_heap_ptr@U__crt_lowio_handle_data@@U__crt_internal_free_policy@@@@QEBA_NXZ 00000001801fec2c f i libucrt:osfinfo.obj
 0001:001fdc38       ?detach@?$__crt_unique_heap_ptr@U__crt_lowio_handle_data@@U__crt_internal_free_policy@@@@QEAAPEAU__crt_lowio_handle_data@@XZ 00000001801fec38 f i libucrt:osfinfo.obj
 0001:001fdc44       ?get@?$__crt_unique_heap_ptr@U__crt_lowio_handle_data@@U__crt_internal_free_policy@@@@QEBAPEAU__crt_lowio_handle_data@@XZ 00000001801fec44 f i libucrt:osfinfo.obj
 0001:001fdc48       ?is_valid@?$__crt_unique_heap_ptr@U__crt_lowio_handle_data@@U__crt_internal_free_policy@@@@QEBA_NXZ 00000001801fec48 f i libucrt:osfinfo.obj
 0001:001fdc54       ?release@?$__crt_unique_heap_ptr@U__crt_lowio_handle_data@@U__crt_internal_free_policy@@@@QEAAXXZ 00000001801fec54 f i libucrt:osfinfo.obj
 0001:001fdc78       __acrt_lowio_create_handle_array 00000001801fec78 f   libucrt:osfinfo.obj
 0001:001fdd34       __acrt_lowio_destroy_handle_array 00000001801fed34 f   libucrt:osfinfo.obj
 0001:001fdd98       __acrt_lowio_ensure_fh_exists 00000001801fed98 f   libucrt:osfinfo.obj
 0001:001fde7c       __acrt_lowio_lock_fh       00000001801fee7c f   libucrt:osfinfo.obj
 0001:001fdea8       __acrt_lowio_set_os_handle 00000001801feea8 f   libucrt:osfinfo.obj
 0001:001fdf98       __acrt_lowio_unlock_fh     00000001801fef98 f   libucrt:osfinfo.obj
 0001:001fdfc4       _alloc_osfhnd              00000001801fefc4 f   libucrt:osfinfo.obj
 0001:001fe140       _free_osfhnd               00000001801ff140 f   libucrt:osfinfo.obj
 0001:001fe228       _get_osfhandle             00000001801ff228 f   libucrt:osfinfo.obj
 0001:001fe2bc       _open_osfhandle            00000001801ff2bc f   libucrt:osfinfo.obj
 0001:001fe3f8       localeconv                 00000001801ff3f8 f   libucrt:localeconv.obj
 0001:001fe438       _isatty                    00000001801ff438 f   libucrt:isatty.obj
 0001:001fe4b0       ??0__crt_stdio_stream@@QEAA@QEAU__crt_stdio_stream_data@@@Z 00000001801ff4b0 f i libucrt:fflush.obj
 0001:001fe4b8       ?__acrt_stdio_reset_buffer@@YAXV__crt_stdio_stream@@@Z 00000001801ff4b8 f i libucrt:fflush.obj
 0001:001fe4d4       ?has_all_of@__crt_stdio_stream@@QEBA_NJ@Z 00000001801ff4d4 f i libucrt:fflush.obj
 0001:001fe4e8       ?has_big_buffer@__crt_stdio_stream@@QEBA_NXZ 00000001801ff4e8 f i libucrt:fflush.obj
 0001:001fe4f8       ?is_in_use@__crt_stdio_stream@@QEBA_NXZ 00000001801ff4f8 f i libucrt:fflush.obj
 0001:001fe508       __acrt_stdio_flush_nolock  00000001801ff508 f   libucrt:fflush.obj
 0001:001fe59c       _fflush_nolock             00000001801ff59c f   libucrt:fflush.obj
 0001:001fe5fc       _flushall                  00000001801ff5fc f   libucrt:fflush.obj
 0001:001fe728       fflush                     00000001801ff728 f   libucrt:fflush.obj
 0001:001fe77c       __iswcsym                  00000001801ff77c f i libucrt:_wctype.obj
 0001:001fe7b4       __iswcsymf                 00000001801ff7b4 f i libucrt:_wctype.obj
 0001:001fe7ec       _isleadbyte_l              00000001801ff7ec f i libucrt:_wctype.obj
 0001:001fe83c       _iswalnum_l                00000001801ff83c f i libucrt:_wctype.obj
 0001:001fe848       _iswalpha_l                00000001801ff848 f i libucrt:_wctype.obj
 0001:001fe854       _iswblank_l                00000001801ff854 f i libucrt:_wctype.obj
 0001:001fe870       _iswcntrl_l                00000001801ff870 f i libucrt:_wctype.obj
 0001:001fe87c       _iswcsym_l                 00000001801ff87c f i libucrt:_wctype.obj
 0001:001fe8b4       _iswcsymf_l                00000001801ff8b4 f i libucrt:_wctype.obj
 0001:001fe8ec       _iswdigit_l                00000001801ff8ec f i libucrt:_wctype.obj
 0001:001fe8f8       _iswgraph_l                00000001801ff8f8 f i libucrt:_wctype.obj
 0001:001fe904       _iswlower_l                00000001801ff904 f i libucrt:_wctype.obj
 0001:001fe910       _iswprint_l                00000001801ff910 f i libucrt:_wctype.obj
 0001:001fe91c       _iswpunct_l                00000001801ff91c f i libucrt:_wctype.obj
 0001:001fe928       _iswspace_l                00000001801ff928 f i libucrt:_wctype.obj
 0001:001fe934       _iswupper_l                00000001801ff934 f i libucrt:_wctype.obj
 0001:001fe940       _iswxdigit_l               00000001801ff940 f i libucrt:_wctype.obj
 0001:001fe94c       isleadbyte                 00000001801ff94c f i libucrt:_wctype.obj
 0001:001fe9a0       iswalnum                   00000001801ff9a0 f i libucrt:_wctype.obj
 0001:001fe9ac       iswalpha                   00000001801ff9ac f i libucrt:_wctype.obj
 0001:001fe9b8       iswascii                   00000001801ff9b8 f i libucrt:_wctype.obj
 0001:001fe9cc       iswblank                   00000001801ff9cc f i libucrt:_wctype.obj
 0001:001fe9e8       iswcntrl                   00000001801ff9e8 f i libucrt:_wctype.obj
 0001:001fe9f4       iswdigit                   00000001801ff9f4 f i libucrt:_wctype.obj
 0001:001fea00       iswgraph                   00000001801ffa00 f i libucrt:_wctype.obj
 0001:001fea0c       iswlower                   00000001801ffa0c f i libucrt:_wctype.obj
 0001:001fea18       iswprint                   00000001801ffa18 f i libucrt:_wctype.obj
 0001:001fea24       iswpunct                   00000001801ffa24 f i libucrt:_wctype.obj
 0001:001fea30       iswspace                   00000001801ffa30 f i libucrt:_wctype.obj
 0001:001fea3c       iswupper                   00000001801ffa3c f i libucrt:_wctype.obj
 0001:001fea48       iswxdigit                  00000001801ffa48 f i libucrt:_wctype.obj
 0001:001fea54       ??$?RG@__crt_internal_free_policy@@QEBAXQEBG@Z 00000001801ffa54 f i libucrt:initctype.obj
 0001:001fea60       ??$?RJ@__crt_internal_free_policy@@QEBAXQEBJ@Z 00000001801ffa60 f i libucrt:initctype.obj
 0001:001fea6c       ??0?$__crt_unique_heap_ptr@GU__crt_internal_free_policy@@@@QEAA@QEAG@Z 00000001801ffa6c f i libucrt:initctype.obj
 0001:001fea74       ??0?$__crt_unique_heap_ptr@JU__crt_internal_free_policy@@@@QEAA@QEAJ@Z 00000001801ffa74 f i libucrt:initctype.obj
 0001:001fea7c       ??1?$__crt_unique_heap_ptr@GU__crt_internal_free_policy@@@@QEAA@XZ 00000001801ffa7c f i libucrt:initctype.obj
 0001:001feaa0       ??1?$__crt_unique_heap_ptr@JU__crt_internal_free_policy@@@@QEAA@XZ 00000001801ffaa0 f i libucrt:initctype.obj
 0001:001feac4       ?detach@?$__crt_unique_heap_ptr@GU__crt_internal_free_policy@@@@QEAAPEAGXZ 00000001801ffac4 f i libucrt:initctype.obj
 0001:001fead0       ?detach@?$__crt_unique_heap_ptr@JU__crt_internal_free_policy@@@@QEAAPEAJXZ 00000001801ffad0 f i libucrt:initctype.obj
 0001:001feadc       ?release@?$__crt_unique_heap_ptr@GU__crt_internal_free_policy@@@@QEAAXXZ 00000001801ffadc f i libucrt:initctype.obj
 0001:001feb00       ?release@?$__crt_unique_heap_ptr@JU__crt_internal_free_policy@@@@QEAAXXZ 00000001801ffb00 f i libucrt:initctype.obj
 0001:001feb24       ___lc_codepage_func        00000001801ffb24 f   libucrt:initctype.obj
 0001:001feb60       ___lc_collate_cp_func      00000001801ffb60 f   libucrt:initctype.obj
 0001:001feb9c       ___lc_locale_name_func     00000001801ffb9c f   libucrt:initctype.obj
 0001:001febdc       ___mb_cur_max_func         00000001801ffbdc f   libucrt:initctype.obj
 0001:001fec18       ___mb_cur_max_l_func       00000001801ffc18 f   libucrt:initctype.obj
 0001:001fec2c       __acrt_locale_initialize_ctype 00000001801ffc2c f   libucrt:initctype.obj
 0001:001ff378       __acrt_fp_strflt_to_string 0000000180200378 f   libucrt:_fptostr.obj
 0001:00200a40       ??0big_integer@__crt_strtox@@QEAA@AEBU01@@Z 0000000180201a40 f i libucrt:cfout.obj
 0001:00200a80       ??0big_integer@__crt_strtox@@QEAA@XZ 0000000180201a80 f i libucrt:cfout.obj
 0001:00200a8c       ??0scoped_fp_state_reset@?A0x202f3722@@QEAA@XZ 0000000180201a8c f i libucrt:cfout.obj
 0001:00200acc       ??1scoped_fp_state_reset@?A0x202f3722@@QEAA@XZ 0000000180201acc f i libucrt:cfout.obj
 0001:00200af0       ??4big_integer@__crt_strtox@@QEAAAEAU01@AEBU01@@Z 0000000180201af0 f i libucrt:cfout.obj
 0001:00200b30       ??8__crt_strtox@@YA_NAEBUbig_integer@0@0@Z 0000000180201b30 f i libucrt:cfout.obj
 0001:00200b80       ??9__crt_strtox@@YA_NAEBUbig_integer@0@0@Z 0000000180201b80 f i libucrt:cfout.obj
 0001:00200be0       ?add_carry@__crt_strtox@@YAIAEAIII@Z 0000000180201be0 f i libucrt:cfout.obj
 0001:00200c00       ?add_multiply_carry@__crt_strtox@@YAIAEAIIII@Z 0000000180201c00 f i libucrt:cfout.obj
 0001:00200c30       ?bit_scan_reverse@__crt_strtox@@YAII@Z 0000000180201c30 f i libucrt:cfout.obj
 0001:00200c50       ?count_sequential_high_zeroes@__crt_strtox@@YAII@Z 0000000180201c50 f i libucrt:cfout.obj
 0001:00200c70       ?divide@__crt_strtox@@YA_KAEAUbig_integer@1@AEBU21@@Z 0000000180201c70 f i libucrt:cfout.obj
 0001:00201280       ?is_zero@__crt_strtox@@YA_NAEBUbig_integer@1@@Z 0000000180202280 f i libucrt:cfout.obj
 0001:00201290       ?make_big_integer@__crt_strtox@@YA?AUbig_integer@1@_K@Z 0000000180202290 f i libucrt:cfout.obj
 0001:002012b0       ?make_big_integer_power_of_two@__crt_strtox@@YA?AUbig_integer@1@I@Z 00000001802022b0 f i libucrt:cfout.obj
 0001:00201330       ?multiply@__crt_strtox@@YA_NAEAUbig_integer@1@AEBU21@@Z 0000000180202330 f i libucrt:cfout.obj
 0001:00201780       ?multiply@__crt_strtox@@YA_NAEAUbig_integer@1@I@Z 0000000180202780 f i libucrt:cfout.obj
 0001:002018c0       ?multiply_64_32@__crt_strtox@@YA_K_KI@Z 00000001802028c0 f i libucrt:cfout.obj
 0001:002018d0       ?multiply_by_power_of_ten@__crt_strtox@@YA_NAEAUbig_integer@1@I@Z 00000001802028d0 f i libucrt:cfout.obj
 0001:00202000       ?multiply_core@__crt_strtox@@YAIQEAIII@Z 0000000180203000 f i libucrt:cfout.obj
 0001:00202060       ?shift_left@__crt_strtox@@YA_NAEAUbig_integer@1@I@Z 0000000180203060 f i libucrt:cfout.obj
 0001:0020223c       __acrt_fltout              000000018020323c f   libucrt:cfout.obj
 0001:002040d0       __acrt_stdio_flush_and_write_narrow_nolock 00000001802050d0 f   libucrt:_flsbuf.obj
 0001:002041f4       __acrt_stdio_flush_and_write_wide_nolock 00000001802051f4 f   libucrt:_flsbuf.obj
 0001:00204318       _fcloseall                 0000000180205318 f   libucrt:closeall.obj
 0001:002043f8       ?has_crt_buffer@__crt_stdio_stream@@QEBA_NXZ 00000001802053f8 f i libucrt:_freebuf.obj
 0001:00204408       __acrt_stdio_free_buffer_nolock 0000000180205408 f   libucrt:_freebuf.obj
 0001:00204458       ??$?RUlconv@@@__crt_internal_free_policy@@QEBAXQEBUlconv@@@Z 0000000180205458 f i libucrt:initmon.obj
 0001:00204464       ??0?$__crt_unique_heap_ptr@Ulconv@@U__crt_internal_free_policy@@@@QEAA@QEAUlconv@@@Z 0000000180205464 f i libucrt:initmon.obj
 0001:0020446c       ??1?$__crt_unique_heap_ptr@Ulconv@@U__crt_internal_free_policy@@@@QEAA@XZ 000000018020546c f i libucrt:initmon.obj
 0001:00204490       ?detach@?$__crt_unique_heap_ptr@Ulconv@@U__crt_internal_free_policy@@@@QEAAPEAUlconv@@XZ 0000000180205490 f i libucrt:initmon.obj
 0001:0020449c       ?release@?$__crt_unique_heap_ptr@Ulconv@@U__crt_internal_free_policy@@@@QEAAXXZ 000000018020549c f i libucrt:initmon.obj
 0001:002044c0       __acrt_locale_free_monetary 00000001802054c0 f   libucrt:initmon.obj
 0001:0020460c       __acrt_locale_initialize_monetary 000000018020560c f   libucrt:initmon.obj
 0001:00204ce0       __acrt_locale_free_numeric 0000000180205ce0 f   libucrt:initnum.obj
 0001:00204d68       __acrt_locale_initialize_numeric 0000000180205d68 f   libucrt:initnum.obj
 0001:0020514c       ??$?RU__crt_lc_time_data@@@__crt_internal_free_policy@@QEBAXQEBU__crt_lc_time_data@@@Z 000000018020614c f i libucrt:inittime.obj
 0001:002051a0       ??0?$__crt_unique_heap_ptr@U__crt_lc_time_data@@U__crt_internal_free_policy@@@@QEAA@QEAU__crt_lc_time_data@@@Z 00000001802061a0 f i libucrt:inittime.obj
 0001:002051a8       ??1?$__crt_unique_heap_ptr@U__crt_lc_time_data@@U__crt_internal_free_policy@@@@QEAA@XZ 00000001802061a8 f i libucrt:inittime.obj
 0001:002051cc       ??B?$__crt_unique_heap_ptr@U__crt_lc_time_data@@U__crt_internal_free_policy@@@@QEBA_NXZ 00000001802061cc f i libucrt:inittime.obj
 0001:002051d8       ?detach@?$__crt_unique_heap_ptr@U__crt_lc_time_data@@U__crt_internal_free_policy@@@@QEAAPEAU__crt_lc_time_data@@XZ 00000001802061d8 f i libucrt:inittime.obj
 0001:00205250       ?get@?$__crt_unique_heap_ptr@U__crt_lc_time_data@@U__crt_internal_free_policy@@@@QEBAPEAU__crt_lc_time_data@@XZ 0000000180206250 f i libucrt:inittime.obj
 0001:00205708       ?is_valid@?$__crt_unique_heap_ptr@U__crt_lc_time_data@@U__crt_internal_free_policy@@@@QEBA_NXZ 0000000180206708 f i libucrt:inittime.obj
 0001:00205714       ?release@?$__crt_unique_heap_ptr@U__crt_lc_time_data@@U__crt_internal_free_policy@@@@QEAAXXZ 0000000180206714 f i libucrt:inittime.obj
 0001:00205738       __acrt_locale_free_time    0000000180206738 f   libucrt:inittime.obj
 0001:00205884       __acrt_locale_initialize_time 0000000180206884 f   libucrt:inittime.obj
 0001:002059e4       wcscat_s                   00000001802069e4 f   libucrt:wcscat_s.obj
 0001:00205a84       wcscspn                    0000000180206a84 f   libucrt:wcscspn.obj
 0001:00205ad4       wcsncmp                    0000000180206ad4 f   libucrt:wcsncmp.obj
 0001:00206658       __acrt_get_qualified_locale 0000000180207658 f   libucrt:get_qualified_locale.obj
 0001:002073c4       __acrt_get_qualified_locale_downlevel 00000001802083c4 f   libucrt:getqloc_downlevel.obj
 0001:002076f4       _d_int                     00000001802086f4 f   libucrt:_test.obj
 0001:00207850       _dtest                     0000000180208850 f   libucrt:_test.obj
 0001:002078c8       _fd_int                    00000001802088c8 f   libucrt:_test.obj
 0001:002079d4       _fdtest                    00000001802089d4 f   libucrt:_test.obj
 0001:00207a2c       _fperrraise                0000000180208a2c f   libucrt:_test.obj
 0001:00207af4       _ld_int                    0000000180208af4 f   libucrt:_test.obj
 0001:00207afc       _ldtest                    0000000180208afc f   libucrt:_test.obj
 0001:00207bb0       _add_exp                   0000000180208bb0 f   libucrt:util.obj
 0001:00207c14       _decomp                    0000000180208c14 f   libucrt:util.obj
 0001:00207d98       _get_exp                   0000000180208d98 f   libucrt:util.obj
 0001:00207dc8       _set_bexp                  0000000180208dc8 f   libucrt:util.obj
 0001:00207e04       _set_exp                   0000000180208e04 f   libucrt:util.obj
 0001:00207e4c       _sptype                    0000000180208e4c f   libucrt:util.obj
 0001:00207ee0       __strncnt                  0000000180208ee0 f   libucrt:strncnt.obj
 0001:00207efc       __acrt_CompareStringW      0000000180208efc f   libucrt:comparestringw.obj
 0001:00207fe8       __ascii_strnicmp           0000000180208fe8 f   libucrt:strnicmp.obj
 0001:00208040       _strnicmp                  0000000180209040 f   libucrt:strnicmp.obj
 0001:002080a4       _strnicmp_l                00000001802090a4 f   libucrt:strnicmp.obj
 0001:0020862c       __acrt_CompareStringA      000000018020962c f   libucrt:comparestringa.obj
 0001:002087e8       __acrt_report_runtime_error 00000001802097e8 f   libucrt:report_runtime_error.obj
 0001:00208a14       _query_app_type            0000000180209a14 f   libucrt:report_runtime_error.obj
 0001:00208a1c       _set_app_type              0000000180209a1c f   libucrt:report_runtime_error.obj
 0001:00208a24       ??$?RV<lambda_b521505b218e5242e90febf6bfebc422>@@AEAV<lambda_6978c1fb23f02e42e1d9e99668cc68aa>@@V<lambda_314360699dd331753a4119843814e9a7>@@@?$__crt_seh_guarded_call@H@@QEAAH$$QEAV<lambda_b521505b218e5242e90febf6bfebc422>@@AEAV<lambda_6978c1fb23f02e42e1d9e99668cc68aa>@@$$QEAV<lambda_314360699dd331753a4119843814e9a7>@@@Z 0000000180209a24 f i libucrt:commit.obj
 0001:00208ad4       ??$__acrt_lowio_lock_fh_and_call@V<lambda_6978c1fb23f02e42e1d9e99668cc68aa>@@@@YAHH$$QEAV<lambda_6978c1fb23f02e42e1d9e99668cc68aa>@@@Z 0000000180209ad4 f i libucrt:commit.obj
 0001:00208bb8       _commit                    0000000180209bb8 f   libucrt:commit.obj
 0001:0020956c       _write                     000000018020a56c f   libucrt:write.obj
 0001:00209694       _write_nolock              000000018020a694 f   libucrt:write.obj
 0001:00209c34       __acrt_GetLocaleInfoA      000000018020ac34 f   libucrt:getlocaleinfoa.obj
 0001:00209e70       fegetenv                   000000018020ae70 f   libucrt:fegetenv.obj
 0001:00209e98       fesetenv                   000000018020ae98 f   libucrt:fesetenv.obj
 0001:00209ef8       feholdexcept               000000018020aef8 f   libucrt:feholdexcept.obj
 0001:00209f5c       ceil                       000000018020af5c f   libucrt:ceil.obj
 0001:0020a050       log10                      000000018020b050 f   libucrt:log10.obj
 0001:0020ac34       _lseek                     000000018020bc34 f   libucrt:lseek.obj
 0001:0020ac3c       _lseek_nolock              000000018020bc3c f   libucrt:lseek.obj
 0001:0020ac44       _lseeki64                  000000018020bc44 f   libucrt:lseek.obj
 0001:0020ac4c       _lseeki64_nolock           000000018020bc4c f   libucrt:lseek.obj
 0001:0020ac54       __acrt_stdio_allocate_buffer_nolock 000000018020bc54 f   libucrt:_getbuf.obj
 0001:0020acd0       _fclose_nolock             000000018020bcd0 f   libucrt:fclose.obj
 0001:0020ad74       fclose                     000000018020bd74 f   libucrt:fclose.obj
 0001:0020b380       _i64toa                    000000018020c380 f   libucrt:xtoa.obj
 0001:0020b3c0       _i64toa_s                  000000018020c3c0 f   libucrt:xtoa.obj
 0001:0020b3ec       _i64tow                    000000018020c3ec f   libucrt:xtoa.obj
 0001:0020b42c       _i64tow_s                  000000018020c42c f   libucrt:xtoa.obj
 0001:0020b458       _itoa                      000000018020c458 f   libucrt:xtoa.obj
 0001:0020b494       _itoa_s                    000000018020c494 f   libucrt:xtoa.obj
 0001:0020b4bc       _itow                      000000018020c4bc f   libucrt:xtoa.obj
 0001:0020b4f8       _itow_s                    000000018020c4f8 f   libucrt:xtoa.obj
 0001:0020b520       _ltoa                      000000018020c520 f   libucrt:xtoa.obj
 0001:0020b55c       _ltoa_s                    000000018020c55c f   libucrt:xtoa.obj
 0001:0020b584       _ltow                      000000018020c584 f   libucrt:xtoa.obj
 0001:0020b5c0       _ltow_s                    000000018020c5c0 f   libucrt:xtoa.obj
 0001:0020b5e8       _ui64toa                   000000018020c5e8 f   libucrt:xtoa.obj
 0001:0020b614       _ui64toa_s                 000000018020c614 f   libucrt:xtoa.obj
 0001:0020b62c       _ui64tow                   000000018020c62c f   libucrt:xtoa.obj
 0001:0020b658       _ui64tow_s                 000000018020c658 f   libucrt:xtoa.obj
 0001:0020b670       _ultoa                     000000018020c670 f   libucrt:xtoa.obj
 0001:0020b69c       _ultoa_s                   000000018020c69c f   libucrt:xtoa.obj
 0001:0020b6b4       _ultow                     000000018020c6b4 f   libucrt:xtoa.obj
 0001:0020b6e0       _ultow_s                   000000018020c6e0 f   libucrt:xtoa.obj
 0001:0020b6f8       _wcsicmp                   000000018020c6f8 f   libucrt:wcsicmp.obj
 0001:0020b7a0       _wcsicmp_l                 000000018020c7a0 f   libucrt:wcsicmp.obj
 0001:0020b8c8       _wcsnicmp                  000000018020c8c8 f   libucrt:wcsnicmp.obj
 0001:0020b988       _wcsnicmp_l                000000018020c988 f   libucrt:wcsnicmp.obj
 0001:0020bae8       wcscmp                     000000018020cae8 f   libucrt:wcscmp.obj
 0001:0020bb2c       fegetexceptflag            000000018020cb2c f   libucrt:fegetexceptflag.obj
 0001:0020bb80       fesetexceptflag            000000018020cb80 f   libucrt:fesetexceptflag.obj
 0001:0020bbfc       __acrt_fenv_get_fp_status_word_from_exception_mask 000000018020cbfc f   libucrt:_fenvutils.obj
 0001:0020bc44       _getfpcontrolword          000000018020cc44 f   libucrt:_fenvutils.obj
 0001:0020bc60       _getfpstatusword           000000018020cc60 f   libucrt:_fenvutils.obj
 0001:0020bc78       _setfpcontrolword          000000018020cc78 f   libucrt:_fenvutils.obj
 0001:0020bc84       _setfpstatusword           000000018020cc84 f   libucrt:_fenvutils.obj
 0001:0020bce8       _set_error_mode            000000018020cce8 f   libucrt:set_error_mode.obj
 0001:0020c000       ??$message_box@$$TAEAPEBDAEAPEBDAEAI@?$__crt_char_traits@D@@SAH$$QEA$$TAEAPEBD1AEAI@Z 000000018020d000 f i libucrt:crtmbox.obj
 0001:0020c018       ??$message_box@$$TAEAPEB_WAEAPEB_WAEAI@?$__crt_char_traits@_W@@SAH$$QEA$$TAEAPEB_W1AEAI@Z 000000018020d018 f i libucrt:crtmbox.obj
 0001:0020c030       ??$message_box@$$TAEBQEBDAEBQEBDK@?$__crt_char_traits@D@@SAH$$QEA$$TAEBQEBD1$$QEAK@Z 000000018020d030 f i libucrt:crtmbox.obj
 0001:0020c048       ??$message_box@$$TAEBQEB_WAEBQEB_WK@?$__crt_char_traits@_W@@SAH$$QEA$$TAEBQEB_W1$$QEAK@Z 000000018020d048 f i libucrt:crtmbox.obj
 0001:0020c060       ??$message_box@PEAUHWND__@@AEBQEBDAEBQEBDAEBI@?$__crt_char_traits@D@@SAH$$QEAPEAUHWND__@@AEBQEBD1AEBI@Z 000000018020d060 f i libucrt:crtmbox.obj
 0001:0020c078       ??$message_box@PEAUHWND__@@AEBQEB_WAEBQEB_WAEBI@?$__crt_char_traits@_W@@SAH$$QEAPEAUHWND__@@AEBQEB_W1AEBI@Z 000000018020d078 f i libucrt:crtmbox.obj
 0001:0020c0f0       ??$output_debug_string@AEBQEBD@?$__crt_char_traits@D@@SAXAEBQEBD@Z 000000018020d0f0 f i libucrt:crtmbox.obj
 0001:0020c0fc       ??$output_debug_string@AEBQEB_W@?$__crt_char_traits@_W@@SAXAEBQEB_W@Z 000000018020d0fc f i libucrt:crtmbox.obj
 0001:0020c108       ??0?$__crt_unique_handle_t@U__crt_handle_traits@@@@QEAA@QEAX@Z 000000018020d108 f i libucrt:crtmbox.obj
 0001:0020c110       ??1?$__crt_unique_handle_t@U__crt_handle_traits@@@@QEAA@XZ 000000018020d110 f i libucrt:crtmbox.obj
 0001:0020c13c       ??B?$__crt_unique_handle_t@U__crt_handle_traits@@@@QEBA_NXZ 000000018020d13c f i libucrt:crtmbox.obj
 0001:0020c148       ?close@?$__crt_unique_handle_t@U__crt_handle_traits@@@@QEAAXXZ 000000018020d148 f i libucrt:crtmbox.obj
 0001:0020c174       ?close@__crt_handle_traits@@SA_NPEAX@Z 000000018020d174 f i libucrt:crtmbox.obj
 0001:0020c190       ?get@?$__crt_unique_handle_t@U__crt_handle_traits@@@@QEBAPEAXXZ 000000018020d190 f i libucrt:crtmbox.obj
 0001:0020c194       ?get_invalid_value@__crt_handle_traits@@SAPEAXXZ 000000018020d194 f i libucrt:crtmbox.obj
 0001:0020c19c       ?is_valid@?$__crt_unique_handle_t@U__crt_handle_traits@@@@QEBA_NXZ 000000018020d19c f i libucrt:crtmbox.obj
 0001:0020c1a8       __acrt_show_narrow_message_box 000000018020d1a8 f   libucrt:crtmbox.obj
 0001:0020c308       __acrt_show_wide_message_box 000000018020d308 f   libucrt:crtmbox.obj
 0001:0020c468       ??$?RV<lambda_9fda798407f8391327e99fec20084266>@@AEAV<lambda_6e3e78bb6855d1e4040e022c1b427e22>@@V<lambda_5d54a80e00f5dcce6acfc22736ebf0cf>@@@?$__crt_seh_guarded_call@G@@QEAAG$$QEAV<lambda_9fda798407f8391327e99fec20084266>@@AEAV<lambda_6e3e78bb6855d1e4040e022c1b427e22>@@$$QEAV<lambda_5d54a80e00f5dcce6acfc22736ebf0cf>@@@Z 000000018020d468 f i libucrt:putwch.obj
 0001:0020c4b8       ??$__acrt_lock_and_call@V<lambda_6e3e78bb6855d1e4040e022c1b427e22>@@@@YAGW4__acrt_lock_id@@$$QEAV<lambda_6e3e78bb6855d1e4040e022c1b427e22>@@@Z 000000018020d4b8 f i libucrt:putwch.obj
 0001:0020c528       _putwch                    000000018020d528 f   libucrt:putwch.obj
 0001:0020c574       _putwch_nolock             000000018020d574 f   libucrt:putwch.obj
 0001:0020c700       _clearfp                   000000018020d700 f   libucrt:ieee.obj
 0001:0020c768       _control87                 000000018020d768 f   libucrt:ieee.obj
 0001:0020c770       _controlfp                 000000018020d770 f   libucrt:ieee.obj
 0001:0020c77c       _fpreset                   000000018020d77c f   libucrt:ieee.obj
 0001:0020c858       _set_controlfp             000000018020d858 f   libucrt:ieee.obj
 0001:0020c89c       _statusfp                  000000018020d89c f   libucrt:ieee.obj
 0001:0020cc40       _log10_special             000000018020dc40 f   libucrt:log_special.obj
 0001:0020cc68       _log10f_special            000000018020dc68 f   libucrt:log_special.obj
 0001:0020cc90       _log_special               000000018020dc90 f   libucrt:log_special.obj
 0001:0020cd74       _logf_special              000000018020dd74 f   libucrt:log_special.obj
 0001:0020ce60       ??$?RV<lambda_bfedae4ebbf01fab1bb6dcc6a9e276e0>@@AEAV<lambda_2fe9b910cf3cbf4a0ab98a02ba45b3ec>@@V<lambda_237c231691f317818eb88cc1d5d642d6>@@@?$__crt_seh_guarded_call@H@@QEAAH$$QEAV<lambda_bfedae4ebbf01fab1bb6dcc6a9e276e0>@@AEAV<lambda_2fe9b910cf3cbf4a0ab98a02ba45b3ec>@@$$QEAV<lambda_237c231691f317818eb88cc1d5d642d6>@@@Z 000000018020de60 f i libucrt:close.obj
 0001:0020cef0       ??$__acrt_lowio_lock_fh_and_call@V<lambda_2fe9b910cf3cbf4a0ab98a02ba45b3ec>@@@@YAHH$$QEAV<lambda_2fe9b910cf3cbf4a0ab98a02ba45b3ec>@@@Z 000000018020def0 f i libucrt:close.obj
 0001:0020d048       _close                     000000018020e048 f   libucrt:close.obj
 0001:0020d114       _close_nolock              000000018020e114 f   libucrt:close.obj
 0001:0020d1fc       ??$?RU__crt_stdio_stream_data@@@__crt_internal_free_policy@@QEBAXQEBU__crt_stdio_stream_data@@@Z 000000018020e1fc f i libucrt:stream.obj
 0001:0020d208       ??0?$__crt_unique_heap_ptr@U__crt_stdio_stream_data@@U__crt_internal_free_policy@@@@QEAA@QEAU__crt_stdio_stream_data@@@Z 000000018020e208 f i libucrt:stream.obj
 0001:0020d210       ??0__crt_stdio_stream@@QEAA@XZ 000000018020e210 f i libucrt:stream.obj
 0001:0020d21c       ??1?$__crt_unique_heap_ptr@U__crt_stdio_stream_data@@U__crt_internal_free_policy@@@@QEAA@XZ 000000018020e21c f i libucrt:stream.obj
 0001:0020d240       ?__acrt_stdio_allocate_stream@@YA?AV__crt_stdio_stream@@XZ 000000018020e240 f   libucrt:stream.obj
 0001:0020d2b0       ?__acrt_stdio_free_stream@@YAXV__crt_stdio_stream@@@Z 000000018020e2b0 f   libucrt:stream.obj
 0001:0020d304       ?deallocate@__crt_stdio_stream@@QEAAXXZ 000000018020e304 f i libucrt:stream.obj
 0001:0020d310       ?detach@?$__crt_unique_heap_ptr@U__crt_stdio_stream_data@@U__crt_internal_free_policy@@@@QEAAPEAU__crt_stdio_stream_data@@XZ 000000018020e310 f i libucrt:stream.obj
 0001:0020d440       ?lock@__crt_stdio_stream@@QEBAXXZ 000000018020e440 f i libucrt:stream.obj
 0001:0020d44c       ?release@?$__crt_unique_heap_ptr@U__crt_stdio_stream_data@@U__crt_internal_free_policy@@@@QEAAXXZ 000000018020e44c f i libucrt:stream.obj
 0001:0020d470       ?try_allocate@__crt_stdio_stream@@QEAA_NXZ 000000018020e470 f i libucrt:stream.obj
 0001:0020d498       ?unlock@__crt_stdio_stream@@QEBAXXZ 000000018020e498 f i libucrt:stream.obj
 0001:0020d4a4       _towlower_l                000000018020e4a4 f   libucrt:towlower.obj
 0001:0020d59c       towlower                   000000018020e59c f   libucrt:towlower.obj
 0001:0020d5a4       fetestexcept               000000018020e5a4 f   libucrt:fetestexcept.obj
 0001:0020d5d0       __dcrt_lowio_initialize_console_output 000000018020e5d0 f   libucrt:initcon.obj
 0001:0020d61c       __dcrt_terminate_console_output 000000018020e61c f   libucrt:initcon.obj
 0001:0020d644       __acrt_LCMapStringW        000000018020e644 f   libucrt:lcmapstringw.obj
 0001:0020d6ec       RaiseException             000000018020e6ec f   kernel32:KERNEL32.dll
 0001:0020d6f2       GetLastError               000000018020e6f2 f   kernel32:KERNEL32.dll
 0001:0020d6f8       GetSystemInfo              000000018020e6f8 f   kernel32:KERNEL32.dll
 0001:0020d6fe       VirtualProtect             000000018020e6fe f   kernel32:KERNEL32.dll
 0001:0020d704       VirtualQuery               000000018020e704 f   kernel32:KERNEL32.dll
 0001:0020d70a       GetModuleHandleW           000000018020e70a f   kernel32:KERNEL32.dll
 0001:0020d710       LoadLibraryExA             000000018020e710 f   kernel32:KERNEL32.dll
 0001:0020d716       InitializeSListHead        000000018020e716 f   kernel32:KERNEL32.dll
 0001:0020d71c       QueryPerformanceCounter    000000018020e71c f   kernel32:KERNEL32.dll
 0001:0020d722       GetCurrentProcessId        000000018020e722 f   kernel32:KERNEL32.dll
 0001:0020d728       GetCurrentThreadId         000000018020e728 f   kernel32:KERNEL32.dll
 0001:0020d72e       GetSystemTimeAsFileTime    000000018020e72e f   kernel32:KERNEL32.dll
 0001:0020d734       RtlCaptureContext          000000018020e734 f   kernel32:KERNEL32.dll
 0001:0020d73a       RtlLookupFunctionEntry     000000018020e73a f   kernel32:KERNEL32.dll
 0001:0020d740       RtlVirtualUnwind           000000018020e740 f   kernel32:KERNEL32.dll
 0001:0020d746       IsDebuggerPresent          000000018020e746 f   kernel32:KERNEL32.dll
 0001:0020d74c       UnhandledExceptionFilter   000000018020e74c f   kernel32:KERNEL32.dll
 0001:0020d752       SetUnhandledExceptionFilter 000000018020e752 f   kernel32:KERNEL32.dll
 0001:0020d758       GetStartupInfoW            000000018020e758 f   kernel32:KERNEL32.dll
 0001:0020d75e       IsProcessorFeaturePresent  000000018020e75e f   kernel32:KERNEL32.dll
 0001:0020d764       InterlockedPushEntrySList  000000018020e764 f   kernel32:KERNEL32.dll
 0001:0020d76a       InterlockedFlushSList      000000018020e76a f   kernel32:KERNEL32.dll
 0001:0020d770       RtlUnwindEx                000000018020e770 f   kernel32:KERNEL32.dll
 0001:0020d776       SetLastError               000000018020e776 f   kernel32:KERNEL32.dll
 0001:0020d77c       EnterCriticalSection       000000018020e77c f   kernel32:KERNEL32.dll
 0001:0020d782       LeaveCriticalSection       000000018020e782 f   kernel32:KERNEL32.dll
 0001:0020d788       DeleteCriticalSection      000000018020e788 f   kernel32:KERNEL32.dll
 0001:0020d78e       InitializeCriticalSectionAndSpinCount 000000018020e78e f   kernel32:KERNEL32.dll
 0001:0020d794       TlsAlloc                   000000018020e794 f   kernel32:KERNEL32.dll
 0001:0020d79a       TlsGetValue                000000018020e79a f   kernel32:KERNEL32.dll
 0001:0020d7a0       TlsSetValue                000000018020e7a0 f   kernel32:KERNEL32.dll
 0001:0020d7a6       TlsFree                    000000018020e7a6 f   kernel32:KERNEL32.dll
 0001:0020d7ac       LoadLibraryExW             000000018020e7ac f   kernel32:KERNEL32.dll
 0001:0020d7b2       GetCurrentProcess          000000018020e7b2 f   kernel32:KERNEL32.dll
 0001:0020d7b8       ExitProcess                000000018020e7b8 f   kernel32:KERNEL32.dll
 0001:0020d7be       TerminateProcess           000000018020e7be f   kernel32:KERNEL32.dll
 0001:0020d7c4       GetModuleHandleExW         000000018020e7c4 f   kernel32:KERNEL32.dll
 0001:0020d7ca       GetModuleFileNameA         000000018020e7ca f   kernel32:KERNEL32.dll
 0001:0020d7d0       GetModuleFileNameW         000000018020e7d0 f   kernel32:KERNEL32.dll
 0001:0020d7d6       MultiByteToWideChar        000000018020e7d6 f   kernel32:KERNEL32.dll
 0001:0020d7dc       WideCharToMultiByte        000000018020e7dc f   kernel32:KERNEL32.dll
 0001:0020d7e2       HeapFree                   000000018020e7e2 f   kernel32:KERNEL32.dll
 0001:0020d7e8       HeapAlloc                  000000018020e7e8 f   kernel32:KERNEL32.dll
 0001:0020d7ee       GetCurrentThread           000000018020e7ee f   kernel32:KERNEL32.dll
 0001:0020d7f4       GetDateFormatW             000000018020e7f4 f   kernel32:KERNEL32.dll
 0001:0020d7fa       GetTimeFormatW             000000018020e7fa f   kernel32:KERNEL32.dll
 0001:0020d800       CompareStringW             000000018020e800 f   kernel32:KERNEL32.dll
 0001:0020d806       LCMapStringW               000000018020e806 f   kernel32:KERNEL32.dll
 0001:0020d80c       GetLocaleInfoW             000000018020e80c f   kernel32:KERNEL32.dll
 0001:0020d812       IsValidLocale              000000018020e812 f   kernel32:KERNEL32.dll
 0001:0020d818       GetUserDefaultLCID         000000018020e818 f   kernel32:KERNEL32.dll
 0001:0020d81e       EnumSystemLocalesW         000000018020e81e f   kernel32:KERNEL32.dll
 0001:0020d824       FindClose                  000000018020e824 f   kernel32:KERNEL32.dll
 0001:0020d82a       FindFirstFileExA           000000018020e82a f   kernel32:KERNEL32.dll
 0001:0020d830       FindFirstFileExW           000000018020e830 f   kernel32:KERNEL32.dll
 0001:0020d836       FindNextFileA              000000018020e836 f   kernel32:KERNEL32.dll
 0001:0020d83c       FindNextFileW              000000018020e83c f   kernel32:KERNEL32.dll
 0001:0020d842       IsValidCodePage            000000018020e842 f   kernel32:KERNEL32.dll
 0001:0020d848       GetACP                     000000018020e848 f   kernel32:KERNEL32.dll
 0001:0020d84e       GetOEMCP                   000000018020e84e f   kernel32:KERNEL32.dll
 0001:0020d854       GetCPInfo                  000000018020e854 f   kernel32:KERNEL32.dll
 0001:0020d85a       GetCommandLineA            000000018020e85a f   kernel32:KERNEL32.dll
 0001:0020d860       GetCommandLineW            000000018020e860 f   kernel32:KERNEL32.dll
 0001:0020d866       GetEnvironmentStringsW     000000018020e866 f   kernel32:KERNEL32.dll
 0001:0020d86c       FreeEnvironmentStringsW    000000018020e86c f   kernel32:KERNEL32.dll
 0001:0020d872       SetEnvironmentVariableA    000000018020e872 f   kernel32:KERNEL32.dll
 0001:0020d878       SetEnvironmentVariableW    000000018020e878 f   kernel32:KERNEL32.dll
 0001:0020d87e       GetProcessHeap             000000018020e87e f   kernel32:KERNEL32.dll
 0001:0020d884       GetStdHandle               000000018020e884 f   kernel32:KERNEL32.dll
 0001:0020d88a       GetFileType                000000018020e88a f   kernel32:KERNEL32.dll
 0001:0020d890       SetConsoleCtrlHandler      000000018020e890 f   kernel32:KERNEL32.dll
 0001:0020d896       GetStringTypeW             000000018020e896 f   kernel32:KERNEL32.dll
 0001:0020d89c       HeapSize                   000000018020e89c f   kernel32:KERNEL32.dll
 0001:0020d8a2       HeapReAlloc                000000018020e8a2 f   kernel32:KERNEL32.dll
 0001:0020d8a8       SetStdHandle               000000018020e8a8 f   kernel32:KERNEL32.dll
 0001:0020d8ae       WriteFile                  000000018020e8ae f   kernel32:KERNEL32.dll
 0001:0020d8b4       FlushFileBuffers           000000018020e8b4 f   kernel32:KERNEL32.dll
 0001:0020d8ba       GetConsoleCP               000000018020e8ba f   kernel32:KERNEL32.dll
 0001:0020d8c0       GetConsoleMode             000000018020e8c0 f   kernel32:KERNEL32.dll
 0001:0020d8c6       SetFilePointerEx           000000018020e8c6 f   kernel32:KERNEL32.dll
 0001:0020d8cc       OutputDebugStringA         000000018020e8cc f   kernel32:KERNEL32.dll
 0001:0020d8d2       OutputDebugStringW         000000018020e8d2 f   kernel32:KERNEL32.dll
 0001:0020d8d8       CloseHandle                000000018020e8d8 f   kernel32:KERNEL32.dll
 0001:0020d8de       WaitForSingleObjectEx      000000018020e8de f   kernel32:KERNEL32.dll
 0001:0020d8e4       CreateThread               000000018020e8e4 f   kernel32:KERNEL32.dll
 0001:0020d8ea       WriteConsoleW              000000018020e8ea f   kernel32:KERNEL32.dll
 0001:0020d8f0       CreateFileW                000000018020e8f0 f   kernel32:KERNEL32.dll
 0001:0020d900       _FindPESection             000000018020e900 f   LIBCMT:pesect.obj
 0001:0020d960       _IsNonwritableInCurrentImage 000000018020e960 f   LIBCMT:pesect.obj
 0001:0020d9c0       _ValidateImageBase         000000018020e9c0 f   LIBCMT:pesect.obj
 0001:0020d9fc       __GSHandlerCheck           000000018020e9fc f   LIBCMT:_gshandler_.obj
 0001:0020da20       __GSHandlerCheckCommon     000000018020ea20 f   LIBCMT:_gshandler_.obj
 0001:0020daa0       __security_check_cookie    000000018020eaa0 f   LIBCMT:_amdsecgs_.obj
 0001:0020dad0       __raise_securityfailure    000000018020ead0 f   LIBCMT:gs_report.obj
 0001:0020db14       __report_gsfailure         000000018020eb14 f   LIBCMT:gs_report.obj
 0001:0020dc1c       __report_rangecheckfailure 000000018020ec1c f   LIBCMT:gs_report.obj
 0001:0020dc34       __report_securityfailure   000000018020ec34 f   LIBCMT:gs_report.obj
 0001:0020dcf8       __report_securityfailureEx 000000018020ecf8 f   LIBCMT:gs_report.obj
 0001:0020df64       strchr                     000000018020ef64 f   libvcruntime:strchr.obj
 0001:0020e010       wcschr                     000000018020f010 f   libvcruntime:wcschr.obj
 0001:0020e0c8       strrchr                    000000018020f0c8 f   libvcruntime:strrchr.obj
 0001:0020e270       memcmp                     000000018020f270 f   libvcruntime:memcmp.obj
 0001:002108c0       _guard_dispatch_icall_nop  00000001802118c0 f   LIBCMT:_guard_dispatch_.obj
 0002:00000000       __xc_a                     0000000180215000     LIBCMT:initializers.obj
 0002:00001dd8       __xc_z                     0000000180216dd8     LIBCMT:initializers.obj
 0002:00001ee8       __xi_a                     0000000180216ee8     LIBCMT:initializers.obj
 0002:00001ff8       __acrt_tran_fma3_initializer 0000000180216ff8     libucrt:fma3_initializer.obj
 0002:00002008       __acrt_multibyte_initializer 0000000180217008     libucrt:multibyte_initializer.obj
 0002:00002018       __acrt_stdio_initializer   0000000180217018     libucrt:stdio_initializer.obj
 0002:00002128       __xi_z                     0000000180217128     LIBCMT:initializers.obj
 0002:00002238       __xp_a                     0000000180217238     LIBCMT:initializers.obj
 0002:00002348       __acrt_locale_terminator   0000000180217348     libucrt:locale_initializer.obj
 0002:00002358       __dcrt_console_output_terminator 0000000180217358     libucrt:console_output_initializer.obj
 0002:00002468       __acrt_stdio_terminator    0000000180217468     libucrt:stdio_initializer.obj
 0002:00002578       __xp_z                     0000000180217578     LIBCMT:initializers.obj
 0002:00002688       __xt_a                     0000000180217688     LIBCMT:initializers.obj
 0002:00002798       __xt_z                     0000000180217798     LIBCMT:initializers.obj
 0002:000028b0       ??_C@_0N@PENLEBPP@PxFoundation?$AA@ 00000001802178b0     CmWindowsDelayLoadHook.obj
 0002:000028c0       ??_C@_05KOLFGEDA@DEBUG?$AA@ 00000001802178c0     CmWindowsDelayLoadHook.obj
 0002:000028c8       ??_C@_07KELMHNNG@CHECKED?$AA@ 00000001802178c8     CmWindowsDelayLoadHook.obj
 0002:000028d8       ??_C@_07EAJOOGMN@PROFILE?$AA@ 00000001802178d8     CmWindowsDelayLoadHook.obj
 0002:000028e8       ??_C@_0N@BBNMPFJK@PhysX3Common?$AA@ 00000001802178e8     CmWindowsDelayLoadHook.obj
 0002:000028f8       ??_C@_08DLKLOFHK@PxPvdSDK?$AA@ 00000001802178f8     CmWindowsDelayLoadHook.obj
 0002:00002908       ??_7PxFoundation@physx@@6B@ 0000000180217908     CmWindowsModuleUpdateLoader.obj
 0002:00002958       ??_C@_0BB@CPDDPFKD@GetUpdatedModule?$AA@ 0000000180217958     CmWindowsModuleUpdateLoader.obj
 0002:00002970       ??_C@_0BI@KOLOPPGM@Gu?3?3BipartiteBoxPruning?$AA@ 0000000180217970     CmBoxPruning.obj
 0002:00002990       ??_C@_0CC@EJLALBDJ@?4?4?2?4?4?2Common?2src?2CmBoxPruning?4cp@ 0000000180217990     CmBoxPruning.obj
 0002:000029b8       ??_C@_0BH@OCNEOEOP@Cm?3?3CompleteBoxPruning?$AA@ 00000001802179b8     CmBoxPruning.obj
 0002:000029d8       ??_C@_0DO@EPKGIDNE@G?3?2PhysX?93?44?9master?2PxShared?2src@ 00000001802179d8     CmBoxPruning.obj
 0002:00002a28       ??_7PxCollection@physx@@6B@ 0000000180217a28     CmCollection.obj
 0002:00002ac8       ??_C@_0BA@DLCJDKDM@NonTrackedAlloc?$AA@ 0000000180217ac8     CmCollection.obj
 0002:00002ae0       ??_7Collection@Cm@physx@@6B@ 0000000180217ae0     CmCollection.obj
 0002:00002b80       ??_C@_0GE@GBACBMOC@PxCollection?3?3add?5called?5for?5an?5@ 0000000180217b80     CmCollection.obj
 0002:00002bf8       ??_C@_0CC@IADNGPGM@?4?4?2?4?4?2Common?2src?2CmCollection?4cp@ 0000000180217bf8     CmCollection.obj
 0002:00002c20       ??_C@_0EM@OMMGDOMK@PxCollection?3?3add?5called?5with?5an@ 0000000180217c20     CmCollection.obj
 0002:00002c80       ??_C@_0EL@CBFFIHFG@PxCollection?3?3remove?5called?5for?5@ 0000000180217c80     CmCollection.obj
 0002:00002ce0       ??_C@_0EP@DBNENNLL@PxCollection?3?3addId?5called?5for?5o@ 0000000180217ce0     CmCollection.obj
 0002:00002d40       ??_C@_0FL@DACPFKDD@PxCollection?3?3addId?5called?5with?5@ 0000000180217d40     CmCollection.obj
 0002:00002db0       ??_C@_0EP@GMPAMDKI@PxCollection?3?3addId?5called?5with?5@ 0000000180217db0     CmCollection.obj
 0002:00002e10       ??_C@_0FO@DIHIGAFD@PxCollection?3?3removeId?5called?5wi@ 0000000180217e10     CmCollection.obj
 0002:00002e80       ??_C@_0FF@MENHIPMD@PxCollection?3?3removeId?5called?5wi@ 0000000180217e80     CmCollection.obj
 0002:00002ef0       ??_C@_0FK@BAFICJEM@PxCollection?3?3find?5called?5with?5P@ 0000000180217ef0     CmCollection.obj
 0002:00002f60       ??_C@_0DF@CLGAFPLL@PxCollection?3?3add?$CIPxCollection?$CG?$CJ@ 0000000180217f60     CmCollection.obj
 0002:00002fa0       ??_C@_0DN@DMJACFO@PxCollection?3?3add?$CIPxCollection?$CG?$CJ@ 0000000180217fa0     CmCollection.obj
 0002:00002ff0       ??_C@_0DI@DICAIAPC@PxCollection?3?3remove?$CIPxCollectio@ 0000000180217ff0     CmCollection.obj
 0002:00003038       ??_C@_0DG@LOILDLGN@PxCollection?3?3getObjects?5called?5@ 0000000180218038     CmCollection.obj
 0002:00003078       ??_C@_0DD@GMICJLDJ@PxCollection?3?3getObjects?5called?5@ 0000000180218078     CmCollection.obj
 0002:000030b8       ??_C@_0DC@GILGGBAI@PxCollection?3?3getIds?5called?5with@ 00000001802180b8     CmCollection.obj
 0002:000030f8       ??_C@_0CP@LFEKADKN@PxCollection?3?3getIds?5called?5with@ 00000001802180f8     CmCollection.obj
 0002:00003130       ??_C@_0BM@OIFKLHDN@?$DMallocation?5names?5disabled?$DO?$AA@ 0000000180218130     CmCollection.obj
 0002:00003160       ??_C@_0EG@NGBBCMGH@g?3?2physx?93?44?9master?2pxshared?2src@ 0000000180218160     CmCollection.obj
 0002:000031b4       __real@358637bd            00000001802181b4     CmMathUtils.obj
 0002:000031b8       __real@3f000000            00000001802181b8     CmMathUtils.obj
 0002:000031bc       __real@3f3504f3            00000001802181bc     CmMathUtils.obj
 0002:000031c0       __real@3f800000            00000001802181c0     CmMathUtils.obj
 0002:000031d0       __xmm@000000003f8000000000000000000000 00000001802181d0     CmMathUtils.obj
 0002:000031f0       __xmm@3f800000000000000000000000000000 00000001802181f0     CmMathUtils.obj
 0002:00003210       __xmm@80000000800000008000000080000000 0000000180218210     CmMathUtils.obj
 0002:00003228       ??_C@_08MDGMHCHN@PtrTable?$AA@ 0000000180218228     CmPtrTable.obj
 0002:00003234       ??_C@_04GKJNKENE@void?$AA@ 0000000180218234     CmPtrTable.obj
 0002:00003240       ??_C@_07DFEBJDHE@mSingle?$AA@ 0000000180218240     CmPtrTable.obj
 0002:0000324c       ??_C@_05NLHHBMOH@PxU16?$AA@ 000000018021824c     CmPtrTable.obj
 0002:00003254       ??_C@_06EPKHJPIM@mCount?$AA@ 0000000180218254     CmPtrTable.obj
 0002:0000325c       ??_C@_04DDKJGDCM@bool?$AA@ 000000018021825c     CmPtrTable.obj
 0002:00003268       ??_C@_0M@DAGELID@mOwnsMemory?$AA@ 0000000180218268     CmPtrTable.obj
 0002:00003278       ??_C@_0M@MMPOMMLP@mBufferUsed?$AA@ 0000000180218278     CmPtrTable.obj
 0002:00003288       ??_7RadixSort@Cm@physx@@6B@ 0000000180218288     CmRadixSort.obj
 0002:000032a0       __xmm@00000001000000010000000100000001 00000001802182a0     CmRadixSort.obj
 0002:000032c0       __xmm@00000003000000020000000100000000 00000001802182c0     CmRadixSort.obj
 0002:000032d8       ??_7RadixSortBuffered@Cm@physx@@6B@ 00000001802182d8     CmRadixSortBuffered.obj
 0002:000032e8       ??_C@_0BJ@LFNCOACD@RadixSortBuffered?3mRanks?$AA@ 00000001802182e8     CmRadixSortBuffered.obj
 0002:00003308       ??_C@_0CJ@HFKIANFO@?4?4?2?4?4?2Common?2src?2CmRadixSortBuff@ 0000000180218308     CmRadixSortBuffered.obj
 0002:00003340       ??_C@_0BK@EPKCPHOD@RadixSortBuffered?3mRanks2?$AA@ 0000000180218340     CmRadixSortBuffered.obj
 0002:00003360       ?sBufferSize@DebugText@Cm@physx@@2HB 0000000180218360     CmRenderOutput.obj
 0002:00003364       __real@3e19999a            0000000180218364     CmRenderOutput.obj
 0002:00003368       __real@3e800000            0000000180218368     CmRenderOutput.obj
 0002:0000336c       __real@3eddb3d7            000000018021836c     CmRenderOutput.obj
 0002:00003370       __real@40c90fdb            0000000180218370     CmRenderOutput.obj
 0002:00003380       __xmm@7fffffff7fffffff7fffffff7fffffff 0000000180218380     CmRenderOutput.obj
 0002:00003394       __real@3d4ccccd            0000000180218394     CmVisualization.obj
 0002:00003398       __real@3e490fdb            0000000180218398     CmVisualization.obj
 0002:0000339c       __real@3e99999a            000000018021839c     CmVisualization.obj
 0002:000033a0       __real@3fc00000            00000001802183a0     CmVisualization.obj
 0002:000033a4       __real@40000000            00000001802183a4     CmVisualization.obj
 0002:000033b0       ?g_PXSinCoefficients0@aos@shdfnd@physx@@3UPX_VECTORF32@123@B 00000001802183b0     GuContactBoxBox.obj
 0002:000033d0       ?g_PXSinCoefficients1@aos@shdfnd@physx@@3UPX_VECTORF32@123@B 00000001802183d0     GuContactBoxBox.obj
 0002:000033f0       ?g_PXSinCoefficients2@aos@shdfnd@physx@@3UPX_VECTORF32@123@B 00000001802183f0     GuContactBoxBox.obj
 0002:00003410       ?g_PXCosCoefficients0@aos@shdfnd@physx@@3UPX_VECTORF32@123@B 0000000180218410     GuContactBoxBox.obj
 0002:00003430       ?g_PXCosCoefficients1@aos@shdfnd@physx@@3UPX_VECTORF32@123@B 0000000180218430     GuContactBoxBox.obj
 0002:00003450       ?g_PXCosCoefficients2@aos@shdfnd@physx@@3UPX_VECTORF32@123@B 0000000180218450     GuContactBoxBox.obj
 0002:00003470       ?g_PXTanCoefficients0@aos@shdfnd@physx@@3UPX_VECTORF32@123@B 0000000180218470     GuContactBoxBox.obj
 0002:00003490       ?g_PXTanCoefficients1@aos@shdfnd@physx@@3UPX_VECTORF32@123@B 0000000180218490     GuContactBoxBox.obj
 0002:000034b0       ?g_PXTanCoefficients2@aos@shdfnd@physx@@3UPX_VECTORF32@123@B 00000001802184b0     GuContactBoxBox.obj
 0002:000034d0       ?g_PXASinCoefficients0@aos@shdfnd@physx@@3UPX_VECTORF32@123@B 00000001802184d0     GuContactBoxBox.obj
 0002:000034f0       ?g_PXASinCoefficients1@aos@shdfnd@physx@@3UPX_VECTORF32@123@B 00000001802184f0     GuContactBoxBox.obj
 0002:00003510       ?g_PXASinCoefficients2@aos@shdfnd@physx@@3UPX_VECTORF32@123@B 0000000180218510     GuContactBoxBox.obj
 0002:00003530       ?g_PXATanCoefficients0@aos@shdfnd@physx@@3UPX_VECTORF32@123@B 0000000180218530     GuContactBoxBox.obj
 0002:00003550       ?g_PXATanCoefficients1@aos@shdfnd@physx@@3UPX_VECTORF32@123@B 0000000180218550     GuContactBoxBox.obj
 0002:00003570       ?g_PXATanCoefficients2@aos@shdfnd@physx@@3UPX_VECTORF32@123@B 0000000180218570     GuContactBoxBox.obj
 0002:00003590       ?g_PXSinEstCoefficients@aos@shdfnd@physx@@3UPX_VECTORF32@123@B 0000000180218590     GuContactBoxBox.obj
 0002:000035b0       ?g_PXCosEstCoefficients@aos@shdfnd@physx@@3UPX_VECTORF32@123@B 00000001802185b0     GuContactBoxBox.obj
 0002:000035d0       ?g_PXTanEstCoefficients@aos@shdfnd@physx@@3UPX_VECTORF32@123@B 00000001802185d0     GuContactBoxBox.obj
 0002:000035f0       ?g_PXATanEstCoefficients@aos@shdfnd@physx@@3UPX_VECTORF32@123@B 00000001802185f0     GuContactBoxBox.obj
 0002:00003610       ?g_PXASinEstCoefficients@aos@shdfnd@physx@@3UPX_VECTORF32@123@B 0000000180218610     GuContactBoxBox.obj
 0002:00003630       ?g_PXASinEstConstants@aos@shdfnd@physx@@3UPX_VECTORF32@123@B 0000000180218630     GuContactBoxBox.obj
 0002:00003650       ?g_PXPiConstants0@aos@shdfnd@physx@@3UPX_VECTORF32@123@B 0000000180218650     GuContactBoxBox.obj
 0002:00003670       ?g_PXReciprocalTwoPi@aos@shdfnd@physx@@3UPX_VECTORF32@123@B 0000000180218670     GuContactBoxBox.obj
 0002:00003690       ?g_PXTwoPi@aos@shdfnd@physx@@3UPX_VECTORF32@123@B 0000000180218690     GuContactBoxBox.obj
 0002:000036d8       ??_C@_06EJKDJEDO@PxBase?$AA@ 00000001802186d8     GuContactBoxBox.obj
 0002:000036e0       ??_C@_0N@CDGINLLF@PxConvexMesh?$AA@ 00000001802186e0     GuContactBoxBox.obj
 0002:000036f0       ??_7PxBase@physx@@6B@      00000001802186f0     GuContactBoxBox.obj
 0002:00003720       ??_C@_0CA@KJFNONEO@MaterialIndicesStruct?3?3allocate?$AA@ 0000000180218720     GuContactBoxBox.obj
 0002:00003750       ??_C@_0EF@COHCMIJB@G?3?2PhysX?93?44?9master?2PhysX_3?44?2So@ 0000000180218750     GuContactBoxBox.obj
 0002:000038a4       __real@3a83126f            00000001802188a4     GuContactBoxBox.obj
 0002:000038a8       __real@3f7fbe77            00000001802188a8     GuContactBoxBox.obj
 0002:000038ac       __real@7f7fffff            00000001802188ac     GuContactBoxBox.obj
 0002:000038b0       __real@ba83126f            00000001802188b0     GuContactBoxBox.obj
 0002:000038b4       __real@bf800000            00000001802188b4     GuContactBoxBox.obj
 0002:000038c0       __xmm@000000003a83126f3a83126f3a83126f 00000001802188c0     GuContactBoxBox.obj
 0002:000038e0       __xmm@00000000ba83126fba83126fba83126f 00000001802188e0     GuContactBoxBox.obj
 0002:00003928       __real@3c23d70a            0000000180218928     GuContactCapsuleBox.obj
 0002:00003958       __real@3f7ff2e5            0000000180218958     GuContactCapsuleCapsule.obj
 0002:00003988       ??_7PxConvexMesh@physx@@6B@ 0000000180218988     GuContactCapsuleConvex.obj
 0002:00003a18       ??_7RefCountable@Cm@physx@@6B@ 0000000180218a18     GuContactCapsuleConvex.obj
 0002:00003a30       ??_7ConvexMesh@Gu@physx@@6BPxConvexMesh@2@@ 0000000180218a30     GuContactCapsuleConvex.obj
 0002:00003ad8       ??_7ConvexMesh@Gu@physx@@6BRefCountable@Cm@2@@ 0000000180218ad8     GuContactCapsuleConvex.obj
 0002:00003af0       ?absMask@?1??FAbs@aos@shdfnd@physx@@YA?AT__m128@@T5@@Z@4QBIB 0000000180218af0     GuContactCapsuleConvex.obj
 0002:00003b08       ??_7GjkConvexBase@Gu@physx@@6B@ 0000000180218b08     GuContactCapsuleConvex.obj
 0002:00003b38       ??_7GjkConvex@Gu@physx@@6B@ 0000000180218b38     GuContactCapsuleConvex.obj
 0002:00003b68       ??_7?$LocalConvex@VCapsuleV@Gu@physx@@@Gu@physx@@6B@ 0000000180218b68     GuContactCapsuleConvex.obj
 0002:00003b98       ??_7?$LocalConvex@VConvexHullV@Gu@physx@@@Gu@physx@@6B@ 0000000180218b98     GuContactCapsuleConvex.obj
 0002:00003bc8       ??_C@_0DO@CLHMOMEG@g?3?2physx?93?44?9master?2pxshared?2src@ 0000000180218bc8     GuContactCapsuleConvex.obj
 0002:00003c14       __real@33d6bf95            0000000180218c14     GuContactCapsuleConvex.obj
 0002:00003c18       __real@34000000            0000000180218c18     GuContactCapsuleConvex.obj
 0002:00003c1c       __real@3727c5ac            0000000180218c1c     GuContactCapsuleConvex.obj
 0002:00003c20       __real@396bedfa            0000000180218c20     GuContactCapsuleConvex.obj
 0002:00003c24       __real@3ccccccd            0000000180218c24     GuContactCapsuleConvex.obj
 0002:00003c28       __real@3dcccccd            0000000180218c28     GuContactCapsuleConvex.obj
 0002:00003c2c       __real@3e4ccccd            0000000180218c2c     GuContactCapsuleConvex.obj
 0002:00003c30       __real@b3d6bf95            0000000180218c30     GuContactCapsuleConvex.obj
 0002:00003c34       __real@ff7fffff            0000000180218c34     GuContactCapsuleConvex.obj
 0002:00003c40       __xmm@0000000000000000000000003f800000 0000000180218c40     GuContactCapsuleConvex.obj
 0002:00003c60       __xmm@00000000000000003f80000000000000 0000000180218c60     GuContactCapsuleConvex.obj
 0002:00003c80       __xmm@00000000000000003f8000003f800000 0000000180218c80     GuContactCapsuleConvex.obj
 0002:00003ca0       __xmm@000000003f8000003f8000003f800000 0000000180218ca0     GuContactCapsuleConvex.obj
 0002:00003cc0       __xmm@00000000ffffffffffffffffffffffff 0000000180218cc0     GuContactCapsuleConvex.obj
 0002:00003ce0       __xmm@ffffffffffffffffffffffffffffffff 0000000180218ce0     GuContactCapsuleConvex.obj
 0002:00003d40       ??_C@_0O@PBAKPCEC@PxHeightField?$AA@ 0000000180218d40     GuContactCapsuleMesh.obj
 0002:00003d50       ??_7?$MeshHitCallback@UPxRaycastHit@physx@@@Gu@physx@@6B@ 0000000180218d50     GuContactCapsuleMesh.obj
 0002:00003d68       ??_7CapsuleMeshContactGenerationCallback_NoScale@?A0x29ffeee2@@6B@ 0000000180218d68     GuContactCapsuleMesh.obj
 0002:00003d80       ??_7CapsuleMeshContactGenerationCallback_Scale@?A0x29ffeee2@@6B@ 0000000180218d80     GuContactCapsuleMesh.obj
 0002:00003d98       ??_7?$EntityReport@I@Gu@physx@@6B@ 0000000180218d98     GuContactCapsuleMesh.obj
 0002:00003db0       ??_7CapsuleHeightfieldContactGenerationCallback@?A0x29ffeee2@@6B@ 0000000180218db0     GuContactCapsuleMesh.obj
 0002:00003dc4       __real@28800000            0000000180218dc4     GuContactCapsuleMesh.obj
 0002:00003dc8       __real@358637be            0000000180218dc8     GuContactCapsuleMesh.obj
 0002:00003dcc       __real@3eaaaaab            0000000180218dcc     GuContactCapsuleMesh.obj
 0002:00003e40       ??_7ConvexMeshContactGenerationCallback@@6B@ 0000000180218e40     GuContactConvexMesh.obj
 0002:00003e58       ??_7ConvexVsHeightfieldContactGenerationCallback@?A0x4ec7b4c7@@6B@ 0000000180218e58     GuContactConvexMesh.obj
 0002:00003e6c       __real@38d1b717            0000000180218e6c     GuContactConvexMesh.obj
 0002:00003ef8       __real@3c8efa35            0000000180218ef8     GuContactPolygonPolygon.obj
 0002:00003efc       __real@3ec90fdb            0000000180218efc     GuContactPolygonPolygon.obj
 0002:00003f00       __real@3f7ff972            0000000180218f00     GuContactPolygonPolygon.obj
 0002:00003f04       __real@b58637bd            0000000180218f04     GuContactPolygonPolygon.obj
 0002:00003fb0       ??_C@_0DL@OAFGOMGB@Dropping?5contacts?5in?5sphere?5vs?5m@ 0000000180218fb0     GuContactSphereMesh.obj
 0002:00003ff8       ??_C@_0DE@ENPODGDE@?4?4?2?4?4?2GeomUtils?2src?2contact?2GuCo@ 0000000180218ff8     GuContactSphereMesh.obj
 0002:00004038       ??_7SphereMeshContactGenerationCallback_NoScale@?A0xb47d98d3@@6B@ 0000000180219038     GuContactSphereMesh.obj
 0002:00004050       ??_7SphereMeshContactGenerationCallback_Scale@?A0xb47d98d3@@6B@ 0000000180219050     GuContactSphereMesh.obj
 0002:00004068       ??_7SphereHeightfieldContactGenerationCallback@?A0xb47d98d3@@6B@ 0000000180219068     GuContactSphereMesh.obj
 0002:00004080       ??_C@_0DN@NNAGIEHA@G?3?2PhysX?93?44?9master?2PxShared?2src@ 0000000180219080     GuContactSphereMesh.obj
 0002:00004128       __real@bf000000            0000000180219128     GuContactSphereSphere.obj
 0002:000041e8       __real@2edbe6ff            00000001802191e8     GuLegacyContactBoxHeightField.obj
 0002:000041ec       __real@3f7ffffe            00000001802191ec     GuLegacyContactBoxHeightField.obj
 0002:000041f0       __real@80000000            00000001802191f0     GuLegacyContactBoxHeightField.obj
 0002:00004258       __real@00000000            0000000180219258     GuLegacyContactConvexHeightField.obj
 0002:000042b8       ??_C@_0BD@PGLLAGCI@BigConvexData?5data?$AA@ 00000001802192b8     GuBigConvexData.obj
 0002:000042d0       ??_C@_0CP@JIINMLKM@?4?4?2?4?4?2GeomUtils?2src?2convex?2GuBig@ 00000001802192d0     GuBigConvexData.obj
 0002:00004308       ??_C@_0BH@NIMDLCCM@BigConvex?5Samples?5Data?$AA@ 0000000180219308     GuBigConvexData.obj
 0002:00004358       ??_C@_0BE@EJGGFHND@ConvexHullData?5data?$AA@ 0000000180219358     GuConvexMesh.obj
 0002:00004370       ??_C@_0CM@DABFPBIC@?4?4?2?4?4?2GeomUtils?2src?2convex?2GuCon@ 0000000180219370     GuConvexMesh.obj
 0002:000043a8       ??_C@_0DM@NEJKOFIP@Loading?5convex?5mesh?5failed?3?5Depr@ 00000001802193a8     GuConvexMesh.obj
 0002:000043f0       ??_C@_0DD@GDAMDLJL@Gu?3?3ConvexMesh?3?3release?3?5double?5@ 00000001802193f0     GuConvexMesh.obj
 0002:00004460       __xmm@000000000000000000000000ffffffff 0000000180219460     GuConvexSupportTable.obj
 0002:00004480       __xmm@0000000000000000ffffffff00000000 0000000180219480     GuConvexSupportTable.obj
 0002:000044a0       __xmm@0000000000000000ffffffffffffffff 00000001802194a0     GuConvexSupportTable.obj
 0002:000044c0       __xmm@00000000ffffffff0000000000000000 00000001802194c0     GuConvexSupportTable.obj
 0002:000044e0       __xmm@00000000ffffffff00000000ffffffff 00000001802194e0     GuConvexSupportTable.obj
 0002:00004500       __xmm@00000000ffffffffffffffff00000000 0000000180219500     GuConvexSupportTable.obj
 0002:000045f8       __real@2b8cbccc            00000001802195f8     GuDistanceSegmentTriangle.obj
 0002:00004658       __real@41200000            0000000180219658     GuSweepBoxSphere.obj
 0002:0000465c       __real@b727c5ac            000000018021965c     GuSweepBoxSphere.obj
 0002:00004660       __real@c1200000            0000000180219660     GuSweepBoxSphere.obj
 0002:00004698       __real@3ca3d70a            0000000180219698     GuSweepBoxTriangle_FeatureBased.obj
 0002:000046f8       ??_C@_0DA@IFKKGIIO@?4?4?2?4?4?2GeomUtils?2src?2sweep?2GuSwee@ 00000001802196f8     GuSweepCapsuleBox.obj
 0002:00004768       __real@3b03126f            0000000180219768     GuSweepCapsuleTriangle.obj
 0002:0000476c       __real@3f7fff58            000000018021976c     GuSweepCapsuleTriangle.obj
 0002:00004770       __real@40800000            0000000180219770     GuSweepSphereSphere.obj
 0002:000047d8       ??_7?$LocalConvex@VTriangleV@Gu@physx@@@Gu@physx@@6B@ 00000001802197d8     GuSweepTriangleUtils.obj
 0002:00004808       ??_7?$LocalConvex@VBoxV@Gu@physx@@@Gu@physx@@6B@ 0000000180219808     GuSweepTriangleUtils.obj
 0002:00004838       __real@3eaaaa9f            0000000180219838     GuSweepTriangleUtils.obj
 0002:00004908       __real@3089705f            0000000180219908     GuIntersectionRayBox.obj
 0002:0000490c       __real@b4000000            000000018021990c     GuIntersectionRayBox.obj
 0002:00004910       __xmm@000000003089705f3089705f3089705f 0000000180219910     GuIntersectionRayBox.obj
 0002:00004958       ??_C@_0P@KDMGEHMF@BV32DataPacked?$AA@ 0000000180219958     GuBV32.obj
 0002:00004970       ??_C@_0CE@OMNHMEKG@?4?4?2?4?4?2GeomUtils?2src?2mesh?2GuBV32?4@ 0000000180219970     GuBV32.obj
 0002:000049c8       ??_C@_0CJ@BEAHBKOP@?4?4?2?4?4?2GeomUtils?2src?2mesh?2GuBV32B@ 00000001802199c8     GuBV32Build.obj
 0002:000049fc       ??_C@_04DONFFMAN@BV32?$AA@ 00000001802199fc     GuBV32Build.obj
 0002:00004a08       ??_C@_0CD@CLDICGAP@?4?4?2?4?4?2GeomUtils?2src?2mesh?2GuBV4?4c@ 0000000180219a08     GuBV4.obj
 0002:00004a34       ??_C@_04LHNPKPDA@OPC2?$AA@ 0000000180219a34     GuBV4.obj
 0002:00004a40       ??_C@_09JOJONBOP@BV4?5nodes?$AA@ 0000000180219a40     GuBV4.obj
 0002:00004a78       ??_C@_03DMLNBBKA@BV4?$AA@  0000000180219a78     GuBV4Build.obj
 0002:00004a80       ??_C@_0CI@DDEDLIKP@?4?4?2?4?4?2GeomUtils?2src?2mesh?2GuBV4Bu@ 0000000180219a80     GuBV4Build.obj
 0002:00004ab0       ??_C@_0M@FLGHAIDC@BV4?5indices?$AA@ 0000000180219ab0     GuBV4Build.obj
 0002:00004ac0       __real@38000100            0000000180219ac0     GuBV4Build.obj
 0002:00004ac4       __real@3fddb3d7            0000000180219ac4     GuBV4Build.obj
 0002:00004ac8       __real@46fffe00            0000000180219ac8     GuBV4Build.obj
 0002:00004b00       __xmm@0000ffff0000ffff0000ffff0000ffff 0000000180219b00     GuBV4_AABBSweep.obj
 0002:00004ce8       ??_7HfTrianglesEntityReport2@?A0x1b4ba57a@@6B@ 0000000180219ce8     GuMeshQuery.obj
 0002:00004d00       ??_C@_0DK@FFHPKGEP@PxMeshQuery?3?3getTriangle?3?5triang@ 0000000180219d00     GuMeshQuery.obj
 0002:00004d48       ??_C@_0CJ@EBMNMENK@?4?4?2?4?4?2GeomUtils?2src?2mesh?2GuMeshQ@ 0000000180219d48     GuMeshQuery.obj
 0002:00004d80       ??_C@_0FD@EHCCILIF@Adjacency?5information?5not?5create@ 0000000180219d80     GuMeshQuery.obj
 0002:00004df0       ??_C@_0FA@MCAAGAGM@findOverlapTriangleMesh?3?5Only?5bo@ 0000000180219df0     GuMeshQuery.obj
 0002:00004e50       ??_C@_0EM@BEFNLPHI@findOverlapHeightField?3?5Only?5box@ 0000000180219e50     GuMeshQuery.obj
 0002:00004eb0       ??_C@_0CJ@NLNHIMDM@PxMeshQuery?3?3sweep?$CI?$CJ?3?5pose?5is?5no@ 0000000180219eb0     GuMeshQuery.obj
 0002:00004ee8       ??_C@_0CM@BFKJPOOO@PxMeshQuery?3?3sweep?$CI?$CJ?3?5unitDir?5is@ 0000000180219ee8     GuMeshQuery.obj
 0002:00004f20       ??_C@_0CN@JKBDLLPP@PxMeshQuery?3?3sweep?$CI?$CJ?3?5distance?5i@ 0000000180219f20     GuMeshQuery.obj
 0002:00004f58       ??_C@_0DN@DPNNFGGF@PxMeshQuery?3?3sweep?$CI?$CJ?3?5sweep?5dist@ 0000000180219f58     GuMeshQuery.obj
 0002:00004fa8       ??_C@_0BA@MBAFFELP@MeshQuery?4sweep?$AA@ 0000000180219fa8     GuMeshQuery.obj
 0002:00004fc0       ??_C@_0FJ@GNAHJJCM@PxMeshQuery?3?3sweep?$CI?$CJ?3?5geometry?5o@ 0000000180219fc0     GuMeshQuery.obj
 0002:0000502c       __real@4cbebc20            000000018021a02c     GuMeshQuery.obj
 0002:00005058       __real@1e3ce508            000000018021a058     GuMidphaseBV4.obj
 0002:0000505c       __real@3f8147ae            000000018021a05c     GuMidphaseBV4.obj
 0002:00005060       __xmm@00000000000000007f7fffff00000000 000000018021a060     GuMidphaseBV4.obj
 0002:000050a8       ??_7Callback@RTree@Gu@physx@@6B@ 000000018021a0a8     GuMidphaseRTree.obj
 0002:000050c8       ??_7CallbackRaycast@RTree@Gu@physx@@6B@ 000000018021a0c8     GuMidphaseRTree.obj
 0002:000050e0       ??_7?$RayRTreeCallback@$0A@$0A@@@6BCallbackRaycast@RTree@Gu@physx@@@ 000000018021a0e0     GuMidphaseRTree.obj
 0002:000050f8       ??_7?$RayRTreeCallback@$0A@$0A@@@6BCallback@RTree@Gu@physx@@@ 000000018021a0f8     GuMidphaseRTree.obj
 0002:00005118       ??_7RayMeshColliderCallback@@6B@ 000000018021a118     GuMidphaseRTree.obj
 0002:00005130       ??_7IntersectShapeVsMeshCallback@?A0x7a9a12d2@@6B@ 000000018021a130     GuMidphaseRTree.obj
 0002:00005148       ??_7?$RayRTreeCallback@$00$0A@@@6BCallbackRaycast@RTree@Gu@physx@@@ 000000018021a148     GuMidphaseRTree.obj
 0002:00005160       ??_7?$RayRTreeCallback@$00$0A@@@6BCallback@RTree@Gu@physx@@@ 000000018021a160     GuMidphaseRTree.obj
 0002:00005180       ??_7?$RayRTreeCallback@$0A@$00@@6BCallbackRaycast@RTree@Gu@physx@@@ 000000018021a180     GuMidphaseRTree.obj
 0002:00005198       ??_7?$RayRTreeCallback@$0A@$00@@6BCallback@RTree@Gu@physx@@@ 000000018021a198     GuMidphaseRTree.obj
 0002:000051b8       ??_7?$RayRTreeCallback@$00$00@@6BCallbackRaycast@RTree@Gu@physx@@@ 000000018021a1b8     GuMidphaseRTree.obj
 0002:000051d0       ??_7?$RayRTreeCallback@$00$00@@6BCallback@RTree@Gu@physx@@@ 000000018021a1d0     GuMidphaseRTree.obj
 0002:000051f0       ??_7?$IntersectSphereVsMeshCallback@$00@?A0x7a9a12d2@@6B@ 000000018021a1f0     GuMidphaseRTree.obj
 0002:00005208       ??_7?$IntersectCapsuleVsMeshCallback@$00@?A0x7a9a12d2@@6B@ 000000018021a208     GuMidphaseRTree.obj
 0002:00005220       ??_7?$IntersectBoxVsMeshCallback@$00@?A0x7a9a12d2@@6B@ 000000018021a220     GuMidphaseRTree.obj
 0002:00005238       ??_7?$IntersectSphereVsMeshCallback@$0A@@?A0x7a9a12d2@@6B@ 000000018021a238     GuMidphaseRTree.obj
 0002:00005250       ??_7?$IntersectCapsuleVsMeshCallback@$0A@@?A0x7a9a12d2@@6B@ 000000018021a250     GuMidphaseRTree.obj
 0002:00005268       ??_7?$IntersectBoxVsMeshCallback@$0A@@?A0x7a9a12d2@@6B@ 000000018021a268     GuMidphaseRTree.obj
 0002:000052f8       ??_7ConvexVsMeshOverlapCallback@@6B@ 000000018021a2f8     GuOverlapTestsMesh.obj
 0002:00005310       ??_7?$RelativeConvex@VTriangleV@Gu@physx@@@Gu@physx@@6B@ 000000018021a310     GuOverlapTestsMesh.obj
 0002:00005360       ?MN@RTreePage@Gu@physx@@2MB 000000018021a360     GuRTree.obj
 0002:00005364       ?MX@RTreePage@Gu@physx@@2MB 000000018021a364     GuRTree.obj
 0002:00005370       ??_C@_0CF@JNCLIKON@?4?4?2?4?4?2GeomUtils?2src?2mesh?2GuRTree@ 000000018021a370     GuRTree.obj
 0002:00005430       ??_7SweepShapeMeshHitCallback@Gu@physx@@6B@ 000000018021a430     GuSweepsMesh.obj
 0002:00005448       ??_7SweepCapsuleMeshHitCallback@Gu@physx@@6B@ 000000018021a448     GuSweepsMesh.obj
 0002:00005460       ??_7SweepBoxMeshHitCallback@Gu@physx@@6B@ 000000018021a460     GuSweepsMesh.obj
 0002:00005478       ??_7SweepConvexMeshHitCallback@Gu@physx@@6B@ 000000018021a478     GuSweepsMesh.obj
 0002:00005490       ??_7?$LocalConvex@VShrunkConvexHullV@Gu@physx@@@Gu@physx@@6B@ 000000018021a490     GuSweepsMesh.obj
 0002:000054c0       ??_7?$LocalConvex@VShrunkBoxV@Gu@physx@@@Gu@physx@@6B@ 000000018021a4c0     GuSweepsMesh.obj
 0002:000054f0       __real@42c80000            000000018021a4f0     GuSweepsMesh.obj
 0002:00005528       ??_C@_0P@GGNFNHKF@PxTriangleMesh?$AA@ 000000018021a528     GuTriangleMesh.obj
 0002:00005540       ??_7PxTriangleMesh@physx@@6B@ 000000018021a540     GuTriangleMesh.obj
 0002:000055e8       ??_7TriangleMesh@Gu@physx@@6BPxTriangleMesh@2@@ 000000018021a5e8     GuTriangleMesh.obj
 0002:000056a8       ??_7TriangleMesh@Gu@physx@@6BRefCountable@Cm@2@@ 000000018021a6a8     GuTriangleMesh.obj
 0002:000056c0       ??_C@_0DF@DNLKAHAL@Gu?3?3TriangleMesh?3?3release?3?5doubl@ 000000018021a6c0     GuTriangleMesh.obj
 0002:00005700       ??_C@_0CM@OEFFOGD@?4?4?2?4?4?2GeomUtils?2src?2mesh?2GuTrian@ 000000018021a700     GuTriangleMesh.obj
 0002:00005740       ??_C@_0GM@JCNNENJM@PxTriangleMesh?3?3getVerticesForMo@ 000000018021a740     GuTriangleMesh.obj
 0002:000057d0       ??_C@_0FK@NFHEMBEA@PxTriangleMesh?3?3refitBVH?$CI?$CJ?5is?5on@ 000000018021a7d0     GuTriangleMesh.obj
 0002:00005868       ??_C@_0BE@CNJKIINO@PxBVH34TriangleMesh?$AA@ 000000018021a868     GuTriangleMeshBV4.obj
 0002:00005880       ??_7BV4TriangleMesh@Gu@physx@@6BPxTriangleMesh@2@@ 000000018021a880     GuTriangleMeshBV4.obj
 0002:00005940       ??_7BV4TriangleMesh@Gu@physx@@6BRefCountable@Cm@2@@ 000000018021a940     GuTriangleMeshBV4.obj
 0002:00005988       ??_C@_0BE@EIFHCCBO@PxBVH33TriangleMesh?$AA@ 000000018021a988     GuTriangleMeshRTree.obj
 0002:000059a0       ??_7CallbackRefit@RTree@Gu@physx@@6B@ 000000018021a9a0     GuTriangleMeshRTree.obj
 0002:000059b8       ??_7RTreeTriangleMesh@Gu@physx@@6BPxTriangleMesh@2@@ 000000018021a9b8     GuTriangleMeshRTree.obj
 0002:00005a78       ??_7RTreeTriangleMesh@Gu@physx@@6BRefCountable@Cm@2@@ 000000018021aa78     GuTriangleMeshRTree.obj
 0002:00005a90       ??_7?$RefitCallback@G@physx@@6B@ 000000018021aa90     GuTriangleMeshRTree.obj
 0002:00005aa8       ??_7?$RefitCallback@I@physx@@6B@ 000000018021aaa8     GuTriangleMeshRTree.obj
 0002:00005ac0       __xmm@38383838383838383838383838383838 000000018021aac0     GuTriangleMeshRTree.obj
 0002:00005ad8       ??_7PxHeightField@physx@@6B@ 000000018021aad8     GuHeightField.obj
 0002:00005b98       ??_7HeightField@Gu@physx@@6BPxHeightField@2@@ 000000018021ab98     GuHeightField.obj
 0002:00005c70       ??_7HeightField@Gu@physx@@6BRefCountable@Cm@2@@ 000000018021ac70     GuHeightField.obj
 0002:00005c88       ??_C@_0DL@DNGFPCEG@Gu?3?3HeightField?3?3onRefCountZero?3@ 000000018021ac88     GuHeightField.obj
 0002:00005cd0       ??_C@_0CJ@ECCFDMLB@?4?4?2?4?4?2GeomUtils?2src?2hf?2GuHeightF@ 000000018021acd0     GuHeightField.obj
 0002:00005d08       ??_C@_0DF@LLAFPPKJ@Gu?3?3HeightField?3?3modifySamples?3?5@ 000000018021ad08     GuHeightField.obj
 0002:00005d48       ??_C@_0BE@CJJAMAMK@PxHeightFieldSample?$AA@ 000000018021ad48     GuHeightField.obj
 0002:00005d60       ??_C@_0CI@DMKEKGNK@Gu?3?3HeightField?3?3load?3?5PX_ALLOC?5@ 000000018021ad60     GuHeightField.obj
 0002:00005d90       ??_C@_0DG@LACOBMDE@Gu?3?3HeightField?3?3loadFromDesc?3?5d@ 000000018021ad90     GuHeightField.obj
 0002:00005dd0       ??_C@_0DL@DHOBBMOM@G?3?2PhysX?93?44?9master?2PhysX_3?44?2So@ 000000018021add0     GuHeightField.obj
 0002:00005e18       __real@7e7fffff            000000018021ae18     GuHeightField.obj
 0002:00005e1c       __real@fe7fffff            000000018021ae1c     GuHeightField.obj
 0002:00005e48       ??_C@_0DH@EJDJIMCB@HeightFieldShape?3?3getTriangle?3?5I@ 000000018021ae48     GuHeightFieldUtil.obj
 0002:00005e90       ??_C@_0CN@FGOIGDLJ@?4?4?2?4?4?2GeomUtils?2src?2hf?2GuHeightF@ 000000018021ae90     GuHeightFieldUtil.obj
 0002:00005f14       __real@3f800347            000000018021af14     GuOverlapTestsHF.obj
 0002:00005f18       __real@b8d1b717            000000018021af18     GuOverlapTestsHF.obj
 0002:00005f48       ??_7HeightFieldTraceSegmentReport@@6B@ 000000018021af48     GuSweepsHF.obj
 0002:00005f60       ??_7CapsuleTraceSegmentReport@@6B@ 000000018021af60     GuSweepsHF.obj
 0002:00005f78       ??_7ConvexTraceSegmentReport@@6B@ 000000018021af78     GuSweepsHF.obj
 0002:00005f90       ??_7BoxTraceSegmentReport@@6B@ 000000018021af90     GuSweepsHF.obj
 0002:00005fd8       ??_7?$RelativeConvex@VShrunkBoxV@Gu@physx@@@Gu@physx@@6B@ 000000018021afd8     GuPCMContactBoxBox.obj
 0002:00006008       ??_7?$RelativeConvex@VBoxV@Gu@physx@@@Gu@physx@@6B@ 000000018021b008     GuPCMContactBoxBox.obj
 0002:00006038       __real@3f4ccccd            000000018021b038     GuPCMContactBoxBox.obj
 0002:0000603c       __real@40400000            000000018021b03c     GuPCMContactBoxBox.obj
 0002:00006040       __xmm@00000000358637bd358637bd358637bd 000000018021b040     GuPCMContactBoxBox.obj
 0002:00006060       __xmm@ffffffff00000000ffffffffffffffff 000000018021b060     GuPCMContactBoxBox.obj
 0002:000060a8       ??_7SupportLocal@Gu@physx@@6B@ 000000018021b0a8     GuPCMContactBoxConvex.obj
 0002:000060d0       ??_7?$SupportLocalImpl@VBoxV@Gu@physx@@@Gu@physx@@6B@ 000000018021b0d0     GuPCMContactBoxConvex.obj
 0002:000060f8       ??_7?$SupportLocalImpl@VConvexHullV@Gu@physx@@@Gu@physx@@6B@ 000000018021b0f8     GuPCMContactBoxConvex.obj
 0002:00006120       ??_7?$SupportLocalImpl@VConvexHullNoScaleV@Gu@physx@@@Gu@physx@@6B@ 000000018021b120     GuPCMContactBoxConvex.obj
 0002:00006148       ??_7?$LocalConvex@VShrunkConvexHullNoScaleV@Gu@physx@@@Gu@physx@@6B@ 000000018021b148     GuPCMContactBoxConvex.obj
 0002:000061e0       __xmm@ffffffffffffffffffffffff00000000 000000018021b1e0     GuPCMContactCapsuleCapsule.obj
 0002:00006228       ??_7?$LocalConvex@VConvexHullNoScaleV@Gu@physx@@@Gu@physx@@6B@ 000000018021b228     GuPCMContactCapsuleConvex.obj
 0002:00006258       __real@3fa00000            000000018021b258     GuPCMContactCapsuleConvex.obj
 0002:00006288       ??_7?$PCMHeightfieldContactGenerationCallback@UPCMCapsuleVsHeightfieldContactGenerationCallback@physx@@@Gu@physx@@6B@ 000000018021b288     GuPCMContactCapsuleHeightField.obj
 0002:000062a0       ??_7PCMCapsuleVsHeightfieldContactGenerationCallback@physx@@6B@ 000000018021b2a0     GuPCMContactCapsuleHeightField.obj
 0002:000062b4       __real@3f7ef9db            000000018021b2b4     GuPCMContactCapsuleHeightField.obj
 0002:000062b8       __real@3f7f3b64            000000018021b2b8     GuPCMContactCapsuleHeightField.obj
 0002:00006300       ??_7?$PCMMeshContactGenerationCallback@UPCMCapsuleVsMeshContactGenerationCallback@physx@@@Gu@physx@@6B@ 000000018021b300     GuPCMContactCapsuleMesh.obj
 0002:00006318       ??_7PCMCapsuleVsMeshContactGenerationCallback@physx@@6B@ 000000018021b318     GuPCMContactCapsuleMesh.obj
 0002:00006358       ??_7?$SupportLocalImpl@VTriangleV@Gu@physx@@@Gu@physx@@6B@ 000000018021b358     GuPCMContactConvexCommon.obj
 0002:00006380       __real@3f7fffef            000000018021b380     GuPCMContactConvexCommon.obj
 0002:000063b8       ??_7?$RelativeConvex@VShrunkConvexHullNoScaleV@Gu@physx@@@Gu@physx@@6B@ 000000018021b3b8     GuPCMContactConvexConvex.obj
 0002:000063e8       ??_7?$RelativeConvex@VShrunkConvexHullV@Gu@physx@@@Gu@physx@@6B@ 000000018021b3e8     GuPCMContactConvexConvex.obj
 0002:00006418       ??_7?$RelativeConvex@VConvexHullV@Gu@physx@@@Gu@physx@@6B@ 000000018021b418     GuPCMContactConvexConvex.obj
 0002:00006478       ??_7?$PCMHeightfieldContactGenerationCallback@UPCMConvexVsHeightfieldContactGenerationCallback@physx@@@Gu@physx@@6B@ 000000018021b478     GuPCMContactConvexHeightField.obj
 0002:00006490       ??_7PCMConvexVsHeightfieldContactGenerationCallback@physx@@6B@ 000000018021b490     GuPCMContactConvexHeightField.obj
 0002:000064a8       ??_7?$SupportLocalShrunkImpl@VConvexHullNoScaleV@Gu@physx@@VShrunkConvexHullNoScaleV@23@@Gu@physx@@6B@ 000000018021b4a8     GuPCMContactConvexHeightField.obj
 0002:000064d0       ??_7?$SupportLocalShrunkImpl@VConvexHullV@Gu@physx@@VShrunkConvexHullV@23@@Gu@physx@@6B@ 000000018021b4d0     GuPCMContactConvexHeightField.obj
 0002:000064f8       ??_7?$SupportLocalShrunkImpl@VBoxV@Gu@physx@@VShrunkBoxV@23@@Gu@physx@@6B@ 000000018021b4f8     GuPCMContactConvexHeightField.obj
 0002:00006520       __real@3f19999a            000000018021b520     GuPCMContactConvexHeightField.obj
 0002:00006570       ??_7?$PCMMeshContactGenerationCallback@UPCMConvexVsMeshContactGenerationCallback@physx@@@Gu@physx@@6B@ 000000018021b570     GuPCMContactConvexMesh.obj
 0002:00006588       ??_7PCMConvexVsMeshContactGenerationCallback@physx@@6B@ 000000018021b588     GuPCMContactConvexMesh.obj
 0002:000065f8       __real@3ba3d70a            000000018021b5f8     GuPCMContactGenSphereCapsule.obj
 0002:00006748       ??_7?$PCMHeightfieldContactGenerationCallback@UPCMSphereVsHeightfieldContactGenerationCallback@physx@@@Gu@physx@@6B@ 000000018021b748     GuPCMContactSphereHeightField.obj
 0002:00006760       ??_7PCMSphereVsHeightfieldContactGenerationCallback@physx@@6B@ 000000018021b760     GuPCMContactSphereHeightField.obj
 0002:000067c0       ??_7?$PCMMeshContactGenerationCallback@UPCMSphereVsMeshContactGenerationCallback@physx@@@Gu@physx@@6B@ 000000018021b7c0     GuPCMContactSphereMesh.obj
 0002:000067d8       ??_7PCMSphereVsMeshContactGenerationCallback@physx@@6B@ 000000018021b7d8     GuPCMContactSphereMesh.obj
 0002:00006850       ?gPCMBoxPolygonData@Gu@physx@@3QBEB 000000018021b850     GuPCMShapeConvex.obj
 0002:000068c8       __real@3f350481            000000018021b8c8     GuPCMTriangleContactGen.obj
 0002:000068d0       ?invalidateThresholds@Gu@physx@@3QBMB 000000018021b8d0     GuPersistentContactManifold.obj
 0002:000068e8       ?invalidateQuatThresholds@Gu@physx@@3QBMB 000000018021b8e8     GuPersistentContactManifold.obj
 0002:00006900       ?invalidateThresholds2@Gu@physx@@3QBMB 000000018021b900     GuPersistentContactManifold.obj
 0002:00006910       ?invalidateQuatThresholds2@Gu@physx@@3QBMB 000000018021b910     GuPersistentContactManifold.obj
 0002:00006960       __xmm@000000003f8000003f80000000000000 000000018021b960     GuPersistentContactManifold.obj
 0002:00006980       __xmm@00000000bf8000003f80000000000000 000000018021b980     GuPersistentContactManifold.obj
 0002:000069a0       __xmm@ffffffffffffffff00000000ffffffff 000000018021b9a0     GuPersistentContactManifold.obj
 0002:00006a00       ??_7AccumCallback@?A0x54bc49bb@Gu@physx@@6B@ 000000018021ba00     GuCCDSweepConvexMesh.obj
 0002:00006a18       ??_7EntityReportContainerCallback@?A0x54bc49bb@Gu@physx@@6B@ 000000018021ba18     GuCCDSweepConvexMesh.obj
 0002:00006a30       ??_7CB@?1??SweepEstimateAnyShapeMesh@Gu@physx@@YAMAEBUCCDShape@23@0AEBVPxTransform@3@111MM@Z@6B@ 000000018021ba30     GuCCDSweepConvexMesh.obj
 0002:00006a44       __real@3f8ccccd            000000018021ba44     GuCCDSweepConvexMesh.obj
 0002:00006a50       __xmm@000000000000000000000000fe7fffff 000000018021ba50     GuCCDSweepConvexMesh.obj
 0002:00006a70       __xmm@fe7ffffffe7fffff7e7fffff7e7fffff 000000018021ba70     GuCCDSweepConvexMesh.obj
 0002:00006ab8       ??_7?$RelativeConvex@VCapsuleV@Gu@physx@@@Gu@physx@@6B@ 000000018021bab8     GuCCDSweepPrimitives.obj
 0002:00006ae8       __real@501502f9            000000018021bae8     GuCCDSweepPrimitives.obj
 0002:00006b18       ??_C@_0DG@DFOCGHP@Gu?3?3GeometryUnion?3?3computeBounds@ 000000018021bb18     GuBounds.obj
 0002:00006b58       ??_C@_0CB@CPLEKHFC@?4?4?2?4?4?2GeomUtils?2src?2GuBounds?4cpp@ 000000018021bb58     GuBounds.obj
 0002:00006b80       __real@3f400000            000000018021bb80     GuBounds.obj
 0002:00006be8       ??_7LocalReport@?1??sweepBox_HeightFieldGeom_Precise@@YA_NAEBVPxGeometry@physx@@AEBVPxTransform@3@AEBVPxBoxGeometry@3@1AEBVBox@Gu@3@AEBVPxVec3@3@MAEAUPxSweepHit@3@V?$PxFlags@W4Enum@PxHitFlag@physx@@G@3@M@Z@6B@ 000000018021bbe8     GuCCTSweepTests.obj
 0002:00006c28       ??_C@_0CD@CGJJEFHC@Gu?3?3overlap?$CI?$CJ?3?5pose0?5is?5not?5vali@ 000000018021bc28     GuGeometryQuery.obj
 0002:00006c60       ??_C@_0EE@FLFHOHMP@g?3?2physx?93?44?9master?2physx_3?44?2so@ 000000018021bc60     GuGeometryQuery.obj
 0002:00006cb8       ??_C@_0CD@IIPBNEOD@Gu?3?3overlap?$CI?$CJ?3?5pose1?5is?5not?5vali@ 000000018021bcb8     GuGeometryQuery.obj
 0002:00006ce8       ??_C@_0CO@DGHGHPPJ@PxGeometryQuery?3?3sweep?$CI?$CJ?3?5pose0?5@ 000000018021bce8     GuGeometryQuery.obj
 0002:00006d20       ??_C@_0CI@OEFLDCLG@?4?4?2?4?4?2GeomUtils?2src?2GuGeometryQu@ 000000018021bd20     GuGeometryQuery.obj
 0002:00006d50       ??_C@_0CO@JIBOOOGI@PxGeometryQuery?3?3sweep?$CI?$CJ?3?5pose1?5@ 000000018021bd50     GuGeometryQuery.obj
 0002:00006d88       ??_C@_0DA@JEEBDBEM@PxGeometryQuery?3?3sweep?$CI?$CJ?3?5unitDi@ 000000018021bd88     GuGeometryQuery.obj
 0002:00006dc8       ??_C@_0DB@KCEKJBPE@PxGeometryQuery?3?3sweep?$CI?$CJ?3?5distan@ 000000018021bdc8     GuGeometryQuery.obj
 0002:00006e10       ??_C@_0FM@HAJNNJNC@PxGeometryQuery?3?3sweep?$CI?$CJ?3?5sweep?5@ 000000018021be10     GuGeometryQuery.obj
 0002:00006e80       ??_C@_0CB@JDDBKCNL@Provided?5geometry?50?5is?5not?5valid@ 000000018021be80     GuGeometryQuery.obj
 0002:00006ea8       ??_C@_0CB@CKMKHJDD@Provided?5geometry?51?5is?5not?5valid@ 000000018021bea8     GuGeometryQuery.obj
 0002:00006ed0       ??_C@_0GL@GJKJELMB@PxGeometryQuery?3?3sweep?$CI?$CJ?3?5first?5@ 000000018021bed0     GuGeometryQuery.obj
 0002:00006f50       ??_C@_0DB@OMDGMOND@PxGeometryQuery?3?3raycast?$CI?$CJ?3?5rayD@ 000000018021bf50     GuGeometryQuery.obj
 0002:00006f90       ??_C@_0DE@MGFNMBNA@PxGeometryQuery?3?3raycast?$CI?$CJ?3?5rayO@ 000000018021bf90     GuGeometryQuery.obj
 0002:00006fd0       ??_C@_0CP@NHLDPNEB@PxGeometryQuery?3?3raycast?$CI?$CJ?3?5pose@ 000000018021bfd0     GuGeometryQuery.obj
 0002:00007008       ??_C@_0DB@HPNPNEMP@PxGeometryQuery?3?3raycast?$CI?$CJ?3?5maxD@ 000000018021c008     GuGeometryQuery.obj
 0002:00007048       ??_C@_0DC@BLMIOBO@PxGeometryQuery?3?3raycast?$CI?$CJ?3?5maxD@ 000000018021c048     GuGeometryQuery.obj
 0002:00007088       ??_C@_0DP@IPJGHFJE@PxGeometryQuery?3?3raycast?$CI?$CJ?3?5ray?5@ 000000018021c088     GuGeometryQuery.obj
 0002:000070d8       ??_C@_0DF@BMEFDPAL@PxGeometryQuery?3?3pointDistance?$CI?$CJ@ 000000018021c0d8     GuGeometryQuery.obj
 0002:00007120       ??_C@_0GM@KKKGKIEH@PxGeometryQuery?3?3pointDistance?$CI?$CJ@ 000000018021c120     GuGeometryQuery.obj
 0002:000071a8       ??_C@_0DG@IHHENNM@PxGeometryQuery?3?3getWorldBounds?$CI@ 000000018021c1a8     GuGeometryQuery.obj
 0002:000071e8       ??_C@_0DL@LECAKFBF@PxGeometryQuery?3?3computePenetrat@ 000000018021c1e8     GuGeometryQuery.obj
 0002:00007230       ??_C@_0DL@BKEIDEIE@PxGeometryQuery?3?3computePenetrat@ 000000018021c230     GuGeometryQuery.obj
 0002:00007278       __real@49742400            000000018021c278     GuGeometryQuery.obj
 0002:000072b0       ??_C@_0EF@ICDECBEP@g?3?2physx?93?44?9master?2physx_3?44?2so@ 000000018021c2b0     GuGeometryUnion.obj
 0002:00007368       ??_7GuMeshFactory@physx@@6B@ 000000018021c368     GuMeshFactory.obj
 0002:00007390       ??_7TriangleMeshData@Gu@physx@@6B@ 000000018021c390     GuMeshFactory.obj
 0002:0000739c       ??_C@_06KDGGGLIJ@PxVec3?$AA@ 000000018021c39c     GuMeshFactory.obj
 0002:000073b0       ??_C@_0EF@IEHBGOOF@g?3?2physx?93?44?9master?2physx_3?44?2so@ 000000018021c3b0     GuMeshFactory.obj
 0002:00007408       ??_C@_0L@KBOFAKLO@mTriangles?$AA@ 000000018021c408     GuMeshFactory.obj
 0002:00007418       ??_C@_0BA@OCOIGPII@mGRB_triIndices?$AA@ 000000018021c418     GuMeshFactory.obj
 0002:00007430       ??_7RTreeTriangleData@Gu@physx@@6B@ 000000018021c430     GuMeshFactory.obj
 0002:00007440       ??_7BV4TriangleData@Gu@physx@@6B@ 000000018021c440     GuMeshFactory.obj
 0002:00007450       ??_C@_0BB@PAEMNLHP@FactoryListeners?$AA@ 000000018021c450     GuMeshFactory.obj
 0002:00007468       ??_C@_0CG@GABGHALN@?4?4?2?4?4?2GeomUtils?2src?2GuMeshFactor@ 000000018021c468     GuMeshFactory.obj
 0002:000074a0       ??_C@_0GP@NHELMDAL@Loading?5triangle?5mesh?5failed?3?5De@ 000000018021c4a0     GuMeshFactory.obj
 0002:00007528       ??_C@_0BP@CDOKDACA@RTree?5binary?5image?5load?5error?4?$AA@ 000000018021c528     GuMeshFactory.obj
 0002:00007550       ??_C@_0BN@MJPNIELF@BV4?5binary?5image?5load?5error?4?$AA@ 000000018021c550     GuMeshFactory.obj
 0002:00007578       ??_C@_0BO@JDPABAOF@BV32?5binary?5image?5load?5error?4?$AA@ 000000018021c578     GuMeshFactory.obj
 0002:000075a0       ??_C@_0DO@EGMLIKKN@G?3?2PhysX?93?44?9master?2PxShared?2src@ 000000018021c5a0     GuMeshFactory.obj
 0002:00007618       ??_C@_07GFCEJNGM@Valency?$AA@ 000000018021c618     GuMetaData.obj
 0002:00007628       ??_C@_07NHGKEEIN@mOffset?$AA@ 000000018021c628     GuMetaData.obj
 0002:00007638       ??_C@_0BB@BAGHBMNJ@BigConvexRawData?$AA@ 000000018021c638     GuMetaData.obj
 0002:00007650       ??_C@_07PBDEJAAC@mSubdiv?$AA@ 000000018021c650     GuMetaData.obj
 0002:00007660       ??_C@_0L@HNPACPGH@mNbSamples?$AA@ 000000018021c660     GuMetaData.obj
 0002:00007670       ??_C@_04NCKNBPPK@PxU8?$AA@ 000000018021c670     GuMetaData.obj
 0002:00007678       ??_C@_08DEPEKJNI@mSamples?$AA@ 000000018021c678     GuMetaData.obj
 0002:00007684       ??_C@_05LMJPANIN@PxU32?$AA@ 000000018021c684     GuMetaData.obj
 0002:00007690       ??_C@_08IJDNJBMI@mNbVerts?$AA@ 000000018021c690     GuMetaData.obj
 0002:000076a0       ??_C@_0M@MMKMIJAF@mNbAdjVerts?$AA@ 000000018021c6a0     GuMetaData.obj
 0002:000076b0       ??_C@_0L@EOKMNILC@mValencies?$AA@ 000000018021c6b0     GuMetaData.obj
 0002:000076c0       ??_C@_0P@DLGEAMHJ@mAdjacentVerts?$AA@ 000000018021c6c0     GuMetaData.obj
 0002:000076d8       ??_C@_0O@PFOPBKAM@BigConvexData?$AA@ 000000018021c6d8     GuMetaData.obj
 0002:000076e8       ??_C@_05PLKALGFN@mData?$AA@ 000000018021c6e8     GuMetaData.obj
 0002:000076f0       ??_C@_08PEMCLHEM@mVBuffer?$AA@ 000000018021c6f0     GuMetaData.obj
 0002:00007700       ??_C@_09FBMAGD@Alignment?$AA@ 000000018021c700     GuMetaData.obj
 0002:00007710       ??_C@_0BE@KFHIBEEA@InternalObjectsData?$AA@ 000000018021c710     GuMetaData.obj
 0002:00007728       ??_C@_06GIEBFILM@PxReal?$AA@ 000000018021c728     GuMetaData.obj
 0002:00007730       ??_C@_07NKGFFIBH@mRadius?$AA@ 000000018021c730     GuMetaData.obj
 0002:00007740       ??_C@_08EHFCACAE@mExtents?$AA@ 000000018021c740     GuMetaData.obj
 0002:00007750       ??_C@_0BA@LFMGGCBK@HullPolygonData?$AA@ 000000018021c750     GuMetaData.obj
 0002:00007764       ??_C@_06BOHHGLB@mPlane?$AA@ 000000018021c764     GuMetaData.obj
 0002:0000776c       ??_C@_06EHMLHGLN@mVRef8?$AA@ 000000018021c76c     GuMetaData.obj
 0002:00007778       ??_C@_09BAHHHINI@mMinIndex?$AA@ 000000018021c778     GuMetaData.obj
 0002:00007788       ??_C@_0P@GBLBPIPB@ConvexHullData?$AA@ 000000018021c788     GuMetaData.obj
 0002:000077a0       ??_C@_09JDCJAPKD@PxBounds3?$AA@ 000000018021c7a0     GuMetaData.obj
 0002:000077ac       ??_C@_05NDNHIFA@mAABB?$AA@ 000000018021c7ac     GuMetaData.obj
 0002:000077b8       ??_C@_0O@LNOGEMJI@mCenterOfMass?$AA@ 000000018021c7b8     GuMetaData.obj
 0002:000077c8       ??_C@_09CNMCBBKH@mPolygons?$AA@ 000000018021c7c8     GuMetaData.obj
 0002:000077d8       ??_C@_0BC@KKPDCFJC@mBigConvexRawData?$AA@ 000000018021c7d8     GuMetaData.obj
 0002:000077f0       ??_C@_08ELDMKGKH@mNbEdges?$AA@ 000000018021c7f0     GuMetaData.obj
 0002:00007800       ??_C@_0BA@CGLOHBAC@mNbHullVertices?$AA@ 000000018021c800     GuMetaData.obj
 0002:00007818       ??_C@_0M@HGFFLLDM@mNbPolygons?$AA@ 000000018021c818     GuMetaData.obj
 0002:00007828       ??_C@_09BHJEMDGO@mInternal?$AA@ 000000018021c828     GuMetaData.obj
 0002:00007838       ??_C@_0L@GMFHOMKA@ConvexMesh?$AA@ 000000018021c838     GuMetaData.obj
 0002:00007848       ??_C@_0N@KECKKFLK@RefCountable?$AA@ 000000018021c848     GuMetaData.obj
 0002:00007858       ??_C@_09ILEBDLJH@mHullData?$AA@ 000000018021c858     GuMetaData.obj
 0002:00007864       ??_C@_03DKDIKGNC@mNb?$AA@  000000018021c864     GuMetaData.obj
 0002:00007868       ??_C@_0P@ENLHFHMD@mBigConvexData?$AA@ 000000018021c868     GuMetaData.obj
 0002:0000787c       ??_C@_05ILALLCHK@mMass?$AA@ 000000018021c87c     GuMetaData.obj
 0002:00007888       ??_C@_07DBPDADGB@PxMat33?$AA@ 000000018021c888     GuMetaData.obj
 0002:00007898       ??_C@_08FNBHNDBI@mInertia?$AA@ 000000018021c898     GuMetaData.obj
 0002:000078a8       ??_C@_0O@FCKNKLMJ@GuMeshFactory?$AA@ 000000018021c8a8     GuMetaData.obj
 0002:000078b8       ??_C@_0N@EGBCLMAK@mMeshFactory?$AA@ 000000018021c8b8     GuMetaData.obj
 0002:000078c8       ??_C@_05MBLIPEMA@PxI16?$AA@ 000000018021c8c8     GuMetaData.obj
 0002:000078d0       ??_C@_06LNLHEAAG@height?$AA@ 000000018021c8d0     GuMetaData.obj
 0002:000078d8       ??_C@_0N@HHDGHJN@PxBitAndByte?$AA@ 000000018021c8d8     GuMetaData.obj
 0002:000078e8       ??_C@_0P@MBBMLBO@materialIndex0?$AA@ 000000018021c8e8     GuMetaData.obj
 0002:00007900       ??_C@_0P@BFAKPKFP@materialIndex1?$AA@ 000000018021c900     GuMetaData.obj
 0002:00007918       ??_C@_0BD@EBLPJEOE@PxHeightFieldFlags?$AA@ 000000018021c918     GuMetaData.obj
 0002:00007930       ??_C@_0BK@FNNCFFCN@PxHeightFieldFormat?3?3Enum?$AA@ 000000018021c930     GuMetaData.obj
 0002:00007950       ??_C@_0BA@CLNFMAAA@HeightFieldData?$AA@ 000000018021c950     GuMetaData.obj
 0002:00007964       ??_C@_04IMCGAIPI@rows?$AA@ 000000018021c964     GuMetaData.obj
 0002:00007970       ??_C@_07HIFEPIJN@columns?$AA@ 000000018021c970     GuMetaData.obj
 0002:00007980       ??_C@_08MOAGOABI@rowLimit?$AA@ 000000018021c980     GuMetaData.obj
 0002:00007990       ??_C@_08BAGEHOBO@colLimit?$AA@ 000000018021c990     GuMetaData.obj
 0002:000079a0       ??_C@_09LKDBLADF@nbColumns?$AA@ 000000018021c9a0     GuMetaData.obj
 0002:000079b0       ??_C@_07ODIFGGLK@samples?$AA@ 000000018021c9b0     GuMetaData.obj
 0002:000079c0       ??_C@_09GLPKLBIH@thickness?$AA@ 000000018021c9c0     GuMetaData.obj
 0002:000079d0       ??_C@_0BE@POHEGOJG@convexEdgeThreshold?$AA@ 000000018021c9d0     GuMetaData.obj
 0002:000079e8       ??_C@_05GECEPKB@flags?$AA@ 000000018021c9e8     GuMetaData.obj
 0002:000079f0       ??_C@_06DLEPGFEF@format?$AA@ 000000018021c9f0     GuMetaData.obj
 0002:000079f8       ??_C@_0BF@MOGDNMPL@PxMaterialTableIndex?$AA@ 000000018021c9f8     GuMetaData.obj
 0002:00007a18       ??_C@_0M@JMJICJJO@HeightField?$AA@ 000000018021ca18     GuMetaData.obj
 0002:00007a28       ??_C@_0O@ENGHMLJP@mSampleStride?$AA@ 000000018021ca28     GuMetaData.obj
 0002:00007a38       ??_C@_0L@EBEEMFFB@mMinHeight?$AA@ 000000018021ca38     GuMetaData.obj
 0002:00007a48       ??_C@_0L@EAEIFPOF@mMaxHeight?$AA@ 000000018021ca48     GuMetaData.obj
 0002:00007a58       ??_C@_0N@FEFJOKKE@mModifyCount?$AA@ 000000018021ca58     GuMetaData.obj
 0002:00007a68       ??_C@_09PHDKHCK@RTreePage?$AA@ 000000018021ca68     GuMetaData.obj
 0002:00007a74       ??_C@_04LLPOBGED@minx?$AA@ 000000018021ca74     GuMetaData.obj
 0002:00007a7c       ??_C@_04KCOFCHAC@miny?$AA@ 000000018021ca7c     GuMetaData.obj
 0002:00007a84       ??_C@_04IJMIHEMB@minz?$AA@ 000000018021ca84     GuMetaData.obj
 0002:00007a8c       ??_C@_04GGOBOBGO@maxx?$AA@ 000000018021ca8c     GuMetaData.obj
 0002:00007a94       ??_C@_04HPPKNACP@maxy?$AA@ 000000018021ca94     GuMetaData.obj
 0002:00007a9c       ??_C@_04FENHIDOM@maxz?$AA@ 000000018021ca9c     GuMetaData.obj
 0002:00007aa4       ??_C@_04HHDFEJON@ptrs?$AA@ 000000018021caa4     GuMetaData.obj
 0002:00007aac       ??_C@_05FFEIGAJF@RTree?$AA@ 000000018021caac     GuMetaData.obj
 0002:00007ab4       ??_C@_06OMCHPNEO@PxVec4?$AA@ 000000018021cab4     GuMetaData.obj
 0002:00007ac0       ??_C@_0L@NBIFEFLN@mBoundsMin?$AA@ 000000018021cac0     GuMetaData.obj
 0002:00007ad0       ??_C@_0L@MDAOKBNC@mBoundsMax?$AA@ 000000018021cad0     GuMetaData.obj
 0002:00007ae0       ??_C@_0N@NJEHLCOF@mInvDiagonal?$AA@ 000000018021cae0     GuMetaData.obj
 0002:00007af0       ??_C@_0BA@BEFIGPFG@mDiagonalScaler?$AA@ 000000018021caf0     GuMetaData.obj
 0002:00007b08       ??_C@_09DICGGKGO@mPageSize?$AA@ 000000018021cb08     GuMetaData.obj
 0002:00007b18       ??_C@_0O@BOFFCNOL@mNumRootPages?$AA@ 000000018021cb18     GuMetaData.obj
 0002:00007b28       ??_C@_0L@JKLGBKAE@mNumLevels?$AA@ 000000018021cb28     GuMetaData.obj
 0002:00007b38       ??_C@_0M@PHDOHJGK@mTotalNodes?$AA@ 000000018021cb38     GuMetaData.obj
 0002:00007b48       ??_C@_0M@GDGHALAO@mTotalPages?$AA@ 000000018021cb48     GuMetaData.obj
 0002:00007b58       ??_C@_06MHCBBJGP@mFlags?$AA@ 000000018021cb58     GuMetaData.obj
 0002:00007b60       ??_C@_06MMNBLHOK@mPages?$AA@ 000000018021cb60     GuMetaData.obj
 0002:00007b68       ??_C@_0L@LEOGNOEC@SourceMesh?$AA@ 000000018021cb68     GuMetaData.obj
 0002:00007b78       ??_C@_06JFCLJMNN@mVerts?$AA@ 000000018021cb78     GuMetaData.obj
 0002:00007b80       ??_C@_07MPIKOOAP@mNbTris?$AA@ 000000018021cb80     GuMetaData.obj
 0002:00007b90       ??_C@_0N@FBMOMEHF@mTriangles32?$AA@ 000000018021cb90     GuMetaData.obj
 0002:00007ba0       ??_C@_0N@DGCGNFBP@mTriangles16?$AA@ 000000018021cba0     GuMetaData.obj
 0002:00007bb0       ??_C@_06DHAAKLFK@mRemap?$AA@ 000000018021cbb0     GuMetaData.obj
 0002:00007bb8       ??_C@_0O@NLNHFNO@QuantizedAABB?$AA@ 000000018021cbb8     GuMetaData.obj
 0002:00007bc8       ??_C@_0BC@OOGBEMHH@mData?$FL0?$FN?4mExtents?$AA@ 000000018021cbc8     GuMetaData.obj
 0002:00007be0       ??_C@_0BB@OCEDKIEF@mData?$FL0?$FN?4mCenter?$AA@ 000000018021cbe0     GuMetaData.obj
 0002:00007bf8       ??_C@_0BC@HFMEAABI@mData?$FL1?$FN?4mExtents?$AA@ 000000018021cbf8     GuMetaData.obj
 0002:00007c10       ??_C@_0BB@CDMNHHIF@mData?$FL1?$FN?4mCenter?$AA@ 000000018021cc10     GuMetaData.obj
 0002:00007c28       ??_C@_0BC@CFKNCOI@mData?$FL2?$FN?4mExtents?$AA@ 000000018021cc28     GuMetaData.obj
 0002:00007c40       ??_C@_0BB@LKCPBBIE@mData?$FL2?$FN?4mCenter?$AA@ 000000018021cc40     GuMetaData.obj
 0002:00007c58       ??_C@_0N@IKODLKBB@BVDataPacked?$AA@ 000000018021cc58     GuMetaData.obj
 0002:00007c68       ??_C@_0M@PNCEBOG@LocalBounds?$AA@ 000000018021cc68     GuMetaData.obj
 0002:00007c78       ??_C@_07GNKDIIKJ@mCenter?$AA@ 000000018021cc78     GuMetaData.obj
 0002:00007c84       ??_C@_05KNFBNCOH@float?$AA@ 000000018021cc84     GuMetaData.obj
 0002:00007c90       ??_C@_0BC@LADJKHPL@mExtentsMagnitude?$AA@ 000000018021cc90     GuMetaData.obj
 0002:00007ca8       ??_C@_07HELIOLAF@BV4Tree?$AA@ 000000018021cca8     GuMetaData.obj
 0002:00007cb8       ??_C@_0P@EMMDNPMH@mMeshInterface?$AA@ 000000018021ccb8     GuMetaData.obj
 0002:00007cd0       ??_C@_0N@DCKMHLCL@mLocalBounds?$AA@ 000000018021ccd0     GuMetaData.obj
 0002:00007ce0       ??_C@_08EEJOMIJL@mNbNodes?$AA@ 000000018021cce0     GuMetaData.obj
 0002:00007cec       ??_C@_06FIIIMFIO@mNodes?$AA@ 000000018021ccec     GuMetaData.obj
 0002:00007cf8       ??_C@_09FGKNPI@mInitData?$AA@ 000000018021ccf8     GuMetaData.obj
 0002:00007d08       ??_C@_0BC@CLDEHKCO@mCenterOrMinCoeff?$AA@ 000000018021cd08     GuMetaData.obj
 0002:00007d20       ??_C@_0BD@LAOLBNJ@mExtentsOrMaxCoeff?$AA@ 000000018021cd20     GuMetaData.obj
 0002:00007d38       ??_C@_0P@JEECKKBL@mUserAllocated?$AA@ 000000018021cd38     GuMetaData.obj
 0002:00007d50       ??_C@_08BNDBAGDH@mPadding?$AA@ 000000018021cd50     GuMetaData.obj
 0002:00007d60       ??_C@_0N@OJNNNLIB@TriangleMesh?$AA@ 000000018021cd60     GuMetaData.obj
 0002:00007d70       ??_C@_0M@OGEDMEAL@mNbVertices?$AA@ 000000018021cd70     GuMetaData.obj
 0002:00007d80       ??_C@_0N@MGGDNHNI@mNbTriangles?$AA@ 000000018021cd80     GuMetaData.obj
 0002:00007d90       ??_C@_09LNNEGOJA@mVertices?$AA@ 000000018021cd90     GuMetaData.obj
 0002:00007da0       ??_C@_0P@MHDFIHLD@mExtraTrigData?$AA@ 000000018021cda0     GuMetaData.obj
 0002:00007db8       ??_C@_0N@MGIKKCI@mGeomEpsilon?$AA@ 000000018021cdb8     GuMetaData.obj
 0002:00007dc8       ??_C@_0BB@IFLOOCNA@mMaterialIndices?$AA@ 000000018021cdc8     GuMetaData.obj
 0002:00007de0       ??_C@_0L@OPJMBFMI@mFaceRemap?$AA@ 000000018021cde0     GuMetaData.obj
 0002:00007df0       ??_C@_0N@BIOECAPM@mAdjacencies?$AA@ 000000018021cdf0     GuMetaData.obj
 0002:00007e00       ??_C@_0BE@JPINNDAH@mGRB_triAdjacencies?$AA@ 000000018021ce00     GuMetaData.obj
 0002:00007e18       ??_C@_0BB@GGAABEIC@mGRB_vertValency?$AA@ 000000018021ce18     GuMetaData.obj
 0002:00007e30       ??_C@_0BC@KKFJBAOL@mGRB_adjVertStart?$AA@ 000000018021ce30     GuMetaData.obj
 0002:00007e48       ??_C@_0BB@DMHJFHNH@mGRB_adjVertices?$AA@ 000000018021ce48     GuMetaData.obj
 0002:00007e60       ??_C@_0BL@FILGDAG@mGRB_meshAdjVerticiesTotal?$AA@ 000000018021ce60     GuMetaData.obj
 0002:00007e80       ??_C@_0P@EDFJJHEF@mGRB_faceRemap?$AA@ 000000018021ce80     GuMetaData.obj
 0002:00007e98       ??_C@_0O@CKMBAIFN@mGRB_BV32Tree?$AA@ 000000018021ce98     GuMetaData.obj
 0002:00007ea8       ??_C@_0BC@IFGECKF@RTreeTriangleMesh?$AA@ 000000018021cea8     GuMetaData.obj
 0002:00007ec0       ??_C@_06JDIHDDGN@mRTree?$AA@ 000000018021cec0     GuMetaData.obj
 0002:00007ec8       ??_C@_0BA@LNNFPOKA@BV4TriangleMesh?$AA@ 000000018021cec8     GuMetaData.obj
 0002:00007ee0       ??_C@_08FKLPEGDB@mBV4Tree?$AA@ 000000018021cee0     GuMetaData.obj
 0002:00007ef0       ??_C@_0BG@EAPGHGEI@MaterialIndicesStruct?$AA@ 000000018021cef0     GuMetaData.obj
 0002:00007f10       ??_C@_07OKCKIPNN@indices?$AA@ 000000018021cf10     GuMetaData.obj
 0002:00007f20       ??_C@_0L@KCBHBGBP@numIndices?$AA@ 000000018021cf20     GuMetaData.obj
 0002:00007f30       ??_C@_03PNAAIPML@pad?$AA@  000000018021cf30     GuMetaData.obj
 0002:00007f34       ??_C@_05MOMFAHOB@pad64?$AA@ 000000018021cf34     GuMetaData.obj
 0002:00007f40       ??_C@_0BK@GNJGHDGO@PxConvexMeshGeometryFlags?$AA@ 000000018021cf40     GuMetaData.obj
 0002:00007f60       ??_C@_0BJ@LIOOOKID@ShadowConvexMeshGeometry?$AA@ 000000018021cf60     GuMetaData.obj
 0002:00007f80       ??_C@_0BF@PJFPGDNP@PxGeometryType?3?3Enum?$AA@ 000000018021cf80     GuMetaData.obj
 0002:00007f9c       ??_C@_05GNIIDDHH@mType?$AA@ 000000018021cf9c     GuMetaData.obj
 0002:00007fa8       ??_C@_0M@JFNDEGCE@PxMeshScale?$AA@ 000000018021cfa8     GuMetaData.obj
 0002:00007fb8       ??_C@_05MHMEBBGO@scale?$AA@ 000000018021cfb8     GuMetaData.obj
 0002:00007fc0       ??_C@_0L@OKMLGDHH@convexMesh?$AA@ 000000018021cfc0     GuMetaData.obj
 0002:00007fd0       ??_C@_09PLMNFMJI@meshFlags?$AA@ 000000018021cfd0     GuMetaData.obj
 0002:00007fe0       ??_C@_0BB@EINMAHMD@paddingFromFlags?$AA@ 000000018021cfe0     GuMetaData.obj
 0002:00007ff8       ??_C@_08CICKEKCM@hullData?$AA@ 000000018021cff8     GuMetaData.obj
 0002:00008008       ??_C@_0O@EOELHBFF@gpuCompatible?$AA@ 000000018021d008     GuMetaData.obj
 0002:00008018       ??_C@_0BE@FFPGAPHN@PxMeshGeometryFlags?$AA@ 000000018021d018     GuMetaData.obj
 0002:00008030       ??_C@_0BL@KABFLNEB@ShadowTriangleMeshGeometry?$AA@ 000000018021d030     GuMetaData.obj
 0002:00008050       ??_C@_0N@FKKDJAHE@triangleMesh?$AA@ 000000018021d050     GuMetaData.obj
 0002:00008060       ??_C@_08BEABJAHJ@meshData?$AA@ 000000018021d060     GuMetaData.obj
 0002:00008070       ??_C@_0BA@NGIONHFJ@materialIndices?$AA@ 000000018021d070     GuMetaData.obj
 0002:00008088       ??_C@_09JGGNEAGH@materials?$AA@ 000000018021d088     GuMetaData.obj
 0002:00008098       ??_C@_0BK@OIFEOHNJ@ShadowHeightFieldGeometry?$AA@ 000000018021d098     GuMetaData.obj
 0002:000080b8       ??_C@_0M@IEKJPCGG@heightField?$AA@ 000000018021d0b8     GuMetaData.obj
 0002:000080c8       ??_C@_0M@LHLNPPJ@heightScale?$AA@ 000000018021d0c8     GuMetaData.obj
 0002:000080d8       ??_C@_08GJPCBGLE@rowScale?$AA@ 000000018021d0d8     GuMetaData.obj
 0002:000080e8       ??_C@_0M@HHBHEPCE@columnScale?$AA@ 000000018021d0e8     GuMetaData.obj
 0002:000080f8       ??_C@_0BB@PMIIHDKK@heightFieldFlags?$AA@ 000000018021d0f8     GuMetaData.obj
 0002:00008110       ??_C@_0BA@DMOKLLHN@heightFieldData?$AA@ 000000018021d110     GuMetaData.obj
 0002:00008128       ??_C@_0BE@IKADPPC@ShadowPlaneGeometry?$AA@ 000000018021d128     GuMetaData.obj
 0002:00008140       ??_C@_0BF@PIKLLBGN@ShadowSphereGeometry?$AA@ 000000018021d140     GuMetaData.obj
 0002:0000815c       ??_C@_06KGHINEPG@radius?$AA@ 000000018021d15c     GuMetaData.obj
 0002:00008168       ??_C@_0BG@OBHJHKMO@ShadowCapsuleGeometry?$AA@ 000000018021d168     GuMetaData.obj
 0002:00008188       ??_C@_0L@PMAANELH@halfHeight?$AA@ 000000018021d188     GuMetaData.obj
 0002:00008198       ??_C@_0BC@DMJNHLLO@ShadowBoxGeometry?$AA@ 000000018021d198     GuMetaData.obj
 0002:000081b0       ??_C@_0M@CMAEPJOI@halfExtents?$AA@ 000000018021d1b0     GuMetaData.obj
 0002:000081c0       ??_C@_0BH@PKALDLFA@PxConvexMeshGeometryLL?$AA@ 000000018021d1c0     GuMetaData.obj
 0002:000081e0       ??_C@_0BJ@GAFBNAAE@PxTriangleMeshGeometryLL?$AA@ 000000018021d1e0     GuMetaData.obj
 0002:00008200       ??_C@_0BI@IIFLCNOC@PxHeightFieldGeometryLL?$AA@ 000000018021d200     GuMetaData.obj
 0002:00008220       ??_C@_0BA@NAHKMBFO@PxPlaneGeometry?$AA@ 000000018021d220     GuMetaData.obj
 0002:00008238       ??_C@_0BB@CHBDIEFA@PxSphereGeometry?$AA@ 000000018021d238     GuMetaData.obj
 0002:00008250       ??_C@_0BC@LJMOIOOK@PxCapsuleGeometry?$AA@ 000000018021d250     GuMetaData.obj
 0002:00008268       ??_C@_0O@OEDJDNFP@PxBoxGeometry?$AA@ 000000018021d268     GuMetaData.obj
 0002:00008278       ??_C@_0BC@ICOOCLFG@Gu?3?3GeometryUnion?$AA@ 000000018021d278     GuMetaData.obj
 0002:000082c0       ??_C@_0EC@MLIJOGHA@Height?5Field?5Overlap?5test?5called@ 000000018021d2c0     GuOverlapTests.obj
 0002:00008310       ??_C@_0CH@MIKFAPPP@?4?4?2?4?4?2GeomUtils?2src?2GuOverlapTes@ 000000018021d310     GuOverlapTests.obj
 0002:000083b0       ??_C@_0EC@GJLDADPE@Height?5Field?5Raycast?5test?5called@ 000000018021d3b0     GuRaycastTests.obj
 0002:00008400       ??_C@_0CH@DLGIHIFF@?4?4?2?4?4?2GeomUtils?2src?2GuRaycastTes@ 000000018021d400     GuRaycastTests.obj
 0002:00008470       ??_7MeshMTDGenerationCallback@@6B@ 000000018021d470     GuSweepMTD.obj
 0002:00008488       ??_7MidPhaseQueryLocalReport@@6B@ 000000018021d488     GuSweepMTD.obj
 0002:0000849c       __real@3f933333            000000018021d49c     GuSweepMTD.obj
 0002:00008500       ??_C@_0EA@GNDJNJGB@Height?5Field?5Sweep?5test?5called?5w@ 000000018021d500     GuSweepTests.obj
 0002:00008550       ??_C@_0CF@DGAJDDIC@?4?4?2?4?4?2GeomUtils?2src?2GuSweepTests@ 000000018021d550     GuSweepTests.obj
 0002:00008580       __sz_PxFoundationCHECKED_x64_dll 000000018021d580     PxFoundationCHECKED_x64:PxFoundationCHECKED_x64.dll
 0002:000085a0       ??_C@_1BK@DBDEIDLH@?$AAK?$AAE?$AAR?$AAN?$AAE?$AAL?$AA3?$AA2?$AA?4?$AAD?$AAL?$AAL?$AA?$AA@ 000000018021d5a0     delayimp:delayhlp.obj
 0002:000085c0       ??_C@_0BI@OMNLIJDB@AcquireSRWLockExclusive?$AA@ 000000018021d5c0     delayimp:delayhlp.obj
 0002:000085e0       ??_C@_0BI@HMIEPCNJ@ReleaseSRWLockExclusive?$AA@ 000000018021d5e0     delayimp:delayhlp.obj
 0002:00008600       __pfnDliFailureHook2       000000018021d600     delayimp:delayhk1.obj
 0002:00008618       ??_7type_info@@6B@         000000018021d618     LIBCMT:std_type_info_static.obj
 0002:00008628       _pDefaultRawDllMain        000000018021d628     LIBCMT:dll_dllmain.obj
 0002:00008628       _pRawDllMain               000000018021d628     LIBCMT:dll_dllmain.obj
 0002:00008640       _load_config_used          000000018021d640     LIBCMT:loadcfg.obj
 0002:00008ac0       ??_C@_08EHJDFFNH@__based?$CI?$AA@ 000000018021dac0     libvcruntime:undname.obj
 0002:00008ad0       ??_C@_07KOLFKCDI@__cdecl?$AA@ 000000018021dad0     libvcruntime:undname.obj
 0002:00008ae0       ??_C@_08GHMPAG@__pascal?$AA@ 000000018021dae0     libvcruntime:undname.obj
 0002:00008af0       ??_C@_09IFJBGAPI@__stdcall?$AA@ 000000018021daf0     libvcruntime:undname.obj
 0002:00008b00       ??_C@_0L@NPHFGOKO@__thiscall?$AA@ 000000018021db00     libvcruntime:undname.obj
 0002:00008b10       ??_C@_0L@JMKHOMEK@__fastcall?$AA@ 000000018021db10     libvcruntime:undname.obj
 0002:00008b20       ??_C@_0N@BCKKPABJ@__vectorcall?$AA@ 000000018021db20     libvcruntime:undname.obj
 0002:00008b30       ??_C@_09HIJEGCPM@__clrcall?$AA@ 000000018021db30     libvcruntime:undname.obj
 0002:00008b3c       ??_C@_06GHPCKEAG@__eabi?$AA@ 000000018021db3c     libvcruntime:undname.obj
 0002:00008b48       ??_C@_07JOMMBBKO@__ptr64?$AA@ 000000018021db48     libvcruntime:undname.obj
 0002:00008b58       ??_C@_0L@PILCLIHE@__restrict?$AA@ 000000018021db58     libvcruntime:undname.obj
 0002:00008b68       ??_C@_0M@GFIIJFMG@__unaligned?$AA@ 000000018021db68     libvcruntime:undname.obj
 0002:00008b78       ??_C@_09DHDLOLLB@restrict?$CI?$AA@ 000000018021db78     libvcruntime:undname.obj
 0002:00008b84       ??_C@_00CNPNBAHC@?$AA@     000000018021db84     libvcruntime:undname.obj
 0002:00008b88       ??_C@_04NIHEBCM@?5new?$AA@ 000000018021db88     libvcruntime:undname.obj
 0002:00008b90       ??_C@_07FPCDHGMM@?5delete?$AA@ 000000018021db90     libvcruntime:undname.obj
 0002:00008b9c       ??_C@_01NEMOKFLO@?$DN?$AA@ 000000018021db9c     libvcruntime:undname.obj
 0002:00008ba0       ??_C@_02GPIOPFAK@?$DO?$DO?$AA@ 000000018021dba0     libvcruntime:undname.obj
 0002:00008ba4       ??_C@_02FODMEDOG@?$DM?$DM?$AA@ 000000018021dba4     libvcruntime:undname.obj
 0002:00008ba8       ??_C@_01DCLJPIOD@?$CB?$AA@ 000000018021dba8     libvcruntime:undname.obj
 0002:00008bac       ??_C@_02EGOFBIJA@?$DN?$DN?$AA@ 000000018021dbac     libvcruntime:undname.obj
 0002:00008bb0       ??_C@_02FDNJECIE@?$CB?$DN?$AA@ 000000018021dbb0     libvcruntime:undname.obj
 0002:00008bb4       ??_C@_02GPECMEKF@?$FL?$FN?$AA@ 000000018021dbb4     libvcruntime:undname.obj
 0002:00008bb8       ??_C@_08LHJFAFGD@operator?$AA@ 000000018021dbb8     libvcruntime:undname.obj
 0002:00008bc4       ??_C@_02HBOOOICD@?9?$DO?$AA@ 000000018021dbc4     libvcruntime:undname.obj
 0002:00008bc8       ??_C@_01NBENCBCI@?$CK?$AA@ 000000018021dbc8     libvcruntime:undname.obj
 0002:00008bcc       ??_C@_02ECNGHCIF@?$CL?$CL?$AA@ 000000018021dbcc     libvcruntime:undname.obj
 0002:00008bd0       ??_C@_02BAABKJLB@?9?9?$AA@ 000000018021dbd0     libvcruntime:undname.obj
 0002:00008bd4       ??_C@_01JOAMLHOP@?9?$AA@   000000018021dbd4     libvcruntime:undname.obj
 0002:00008bd8       ??_C@_01MIFGBAGJ@?$CL?$AA@ 000000018021dbd8     libvcruntime:undname.obj
 0002:00008bdc       ??_C@_01HNPIGOCE@?$CG?$AA@ 000000018021dbdc     libvcruntime:undname.obj
 0002:00008be0       ??_C@_03MNHNFDLC@?9?$DO?$CK?$AA@ 000000018021dbe0     libvcruntime:undname.obj
 0002:00008be4       ??_C@_01KMDKNFGN@?1?$AA@   000000018021dbe4     libvcruntime:undname.obj
 0002:00008be8       ??_C@_01FGNFDNOH@?$CF?$AA@ 000000018021dbe8     libvcruntime:undname.obj
 0002:00008bec       ??_C@_01MNNFJEPP@?$DM?$AA@ 000000018021dbec     libvcruntime:undname.obj
 0002:00008bf0       ??_C@_02EHCHHCKH@?$DM?$DN?$AA@ 000000018021dbf0     libvcruntime:undname.obj
 0002:00008bf4       ??_C@_01PPODPGHN@?$DO?$AA@ 000000018021dbf4     libvcruntime:undname.obj
 0002:00008bf8       ??_C@_02EEKDKGMJ@?$DO?$DN?$AA@ 000000018021dbf8     libvcruntime:undname.obj
 0002:00008bfc       ??_C@_01IHBHIGKO@?0?$AA@   000000018021dbfc     libvcruntime:undname.obj
 0002:00008c00       ??_C@_02HCKGKOFO@?$CI?$CJ?$AA@ 000000018021dc00     libvcruntime:undname.obj
 0002:00008c04       ??_C@_01PJKLJHI@?$HO?$AA@  000000018021dc04     libvcruntime:undname.obj
 0002:00008c08       ??_C@_01JKBOJNNK@?$FO?$AA@ 000000018021dc08     libvcruntime:undname.obj
 0002:00008c0c       ??_C@_01DNKMNLPK@?$HM?$AA@ 000000018021dc0c     libvcruntime:undname.obj
 0002:00008c10       ??_C@_02PPKAJPJL@?$CG?$CG?$AA@ 000000018021dc10     libvcruntime:undname.obj
 0002:00008c14       ??_C@_02NONPIBCD@?$HM?$HM?$AA@ 000000018021dc14     libvcruntime:undname.obj
 0002:00008c18       ??_C@_02FPIMKNGF@?$CK?$DN?$AA@ 000000018021dc18     libvcruntime:undname.obj
 0002:00008c1c       ??_C@_02FOEOMHFC@?$CL?$DN?$AA@ 000000018021dc1c     libvcruntime:undname.obj
 0002:00008c20       ??_C@_02FKMDLLOA@?9?$DN?$AA@ 000000018021dc20     libvcruntime:undname.obj
 0002:00008c24       ??_C@_02FJEHGPIO@?1?$DN?$AA@ 000000018021dc24     libvcruntime:undname.obj
 0002:00008c28       ??_C@_02FENAOKFI@?$CF?$DN?$AA@ 000000018021dc28     libvcruntime:undname.obj
 0002:00008c2c       ??_C@_03IKFCCPFF@?$DO?$DO?$DN?$AA@ 000000018021dc2c     libvcruntime:undname.obj
 0002:00008c30       ??_C@_03CDNPDDLA@?$DM?$DM?$DN?$AA@ 000000018021dc30     libvcruntime:undname.obj
 0002:00008c34       ??_C@_02FGJGFEAB@?$CG?$DN?$AA@ 000000018021dc34     libvcruntime:undname.obj
 0002:00008c38       ??_C@_02DHLNPPGH@?$HM?$DN?$AA@ 000000018021dc38     libvcruntime:undname.obj
 0002:00008c3c       ??_C@_02MHEGNOJ@?$FO?$DN?$AA@ 000000018021dc3c     libvcruntime:undname.obj
 0002:00008c40       ??_C@_09IFPLHPGF@?$GAvftable?8?$AA@ 000000018021dc40     libvcruntime:undname.obj
 0002:00008c50       ??_C@_09BLBHBJP@?$GAvbtable?8?$AA@ 000000018021dc50     libvcruntime:undname.obj
 0002:00008c60       ??_C@_07FEEIOKP@?$GAvcall?8?$AA@ 000000018021dc60     libvcruntime:undname.obj
 0002:00008c70       ??_C@_08LLFFHHDJ@?$GAtypeof?8?$AA@ 000000018021dc70     libvcruntime:undname.obj
 0002:00008c80       ??_C@_0BF@KDPPACIK@?$GAlocal?5static?5guard?8?$AA@ 000000018021dc80     libvcruntime:undname.obj
 0002:00008ca0       ??_C@_08OBABFOLI@?$GAstring?8?$AA@ 000000018021dca0     libvcruntime:undname.obj
 0002:00008cb0       ??_C@_0BD@JDLKDPAB@?$GAvbase?5destructor?8?$AA@ 000000018021dcb0     libvcruntime:undname.obj
 0002:00008cc8       ??_C@_0BN@DEGPLNFK@?$GAvector?5deleting?5destructor?8?$AA@ 000000018021dcc8     libvcruntime:undname.obj
 0002:00008cf0       ??_C@_0BO@OBMKPJIG@?$GAdefault?5constructor?5closure?8?$AA@ 000000018021dcf0     libvcruntime:undname.obj
 0002:00008d18       ??_C@_0BN@IMDCHIKM@?$GAscalar?5deleting?5destructor?8?$AA@ 000000018021dd18     libvcruntime:undname.obj
 0002:00008d40       ??_C@_0BO@PFGOCPJJ@?$GAvector?5constructor?5iterator?8?$AA@ 000000018021dd40     libvcruntime:undname.obj
 0002:00008d68       ??_C@_0BN@LFPFMEDL@?$GAvector?5destructor?5iterator?8?$AA@ 000000018021dd68     libvcruntime:undname.obj
 0002:00008d90       ??_C@_0CE@IKBNEHA@?$GAvector?5vbase?5constructor?5iterat@ 000000018021dd90     libvcruntime:undname.obj
 0002:00008dc0       ??_C@_0BL@NILFHHPC@?$GAvirtual?5displacement?5map?8?$AA@ 000000018021ddc0     libvcruntime:undname.obj
 0002:00008de0       ??_C@_0CB@JONCMFFK@?$GAeh?5vector?5constructor?5iterator?8@ 000000018021dde0     libvcruntime:undname.obj
 0002:00008e08       ??_C@_0CA@GCEOPDGL@?$GAeh?5vector?5destructor?5iterator?8?$AA@ 000000018021de08     libvcruntime:undname.obj
 0002:00008e30       ??_C@_0CH@OOJPLCPH@?$GAeh?5vector?5vbase?5constructor?5ite@ 000000018021de30     libvcruntime:undname.obj
 0002:00008e60       ??_C@_0BL@LLKPOHJI@?$GAcopy?5constructor?5closure?8?$AA@ 000000018021de60     libvcruntime:undname.obj
 0002:00008e80       ??_C@_0BA@KBCDOMBN@?$GAudt?5returning?8?$AA@ 000000018021de80     libvcruntime:undname.obj
 0002:00008e94       ??_C@_03KLGMFNMG@?$GAEH?$AA@ 000000018021de94     libvcruntime:undname.obj
 0002:00008e98       ??_C@_05KHLCHHI@?$GARTTI?$AA@ 000000018021de98     libvcruntime:undname.obj
 0002:00008ea0       ??_C@_0BA@KKLDJDLB@?$GAlocal?5vftable?8?$AA@ 000000018021dea0     libvcruntime:undname.obj
 0002:00008eb8       ??_C@_0CE@IIHCMGGL@?$GAlocal?5vftable?5constructor?5closu@ 000000018021deb8     libvcruntime:undname.obj
 0002:00008ee4       ??_C@_06FHBGPFGH@?5new?$FL?$FN?$AA@ 000000018021dee4     libvcruntime:undname.obj
 0002:00008ef0       ??_C@_09LBNFPBCA@?5delete?$FL?$FN?$AA@ 000000018021def0     libvcruntime:undname.obj
 0002:00008f00       ??_C@_0P@HJKNJFNN@?$GAomni?5callsig?8?$AA@ 000000018021df00     libvcruntime:undname.obj
 0002:00008f18       ??_C@_0BL@CNOONJFP@?$GAplacement?5delete?5closure?8?$AA@ 000000018021df18     libvcruntime:undname.obj
 0002:00008f38       ??_C@_0BN@CKNJLHMB@?$GAplacement?5delete?$FL?$FN?5closure?8?$AA@ 000000018021df38     libvcruntime:undname.obj
 0002:00008f60       ??_C@_0CG@CFDHKGGD@?$GAmanaged?5vector?5constructor?5iter@ 000000018021df60     libvcruntime:undname.obj
 0002:00008f90       ??_C@_0CF@IMGKMJNO@?$GAmanaged?5vector?5destructor?5itera@ 000000018021df90     libvcruntime:undname.obj
 0002:00008fc0       ??_C@_0CG@HLDDJMAG@?$GAeh?5vector?5copy?5constructor?5iter@ 000000018021dfc0     libvcruntime:undname.obj
 0002:00008ff0       ??_C@_0CM@FCBBDIGB@?$GAeh?5vector?5vbase?5copy?5constructo@ 000000018021dff0     libvcruntime:undname.obj
 0002:00009028       ??_C@_0BL@CLIPGLGB@?$GAdynamic?5initializer?5for?5?8?$AA@ 000000018021e028     libvcruntime:undname.obj
 0002:00009048       ??_C@_0CB@PDBIFEP@?$GAdynamic?5atexit?5destructor?5for?5?8@ 000000018021e048     libvcruntime:undname.obj
 0002:00009070       ??_C@_0CD@CGAJBKEJ@?$GAvector?5copy?5constructor?5iterato@ 000000018021e070     libvcruntime:undname.obj
 0002:000090a0       ??_C@_0CJ@GJELGAMM@?$GAvector?5vbase?5copy?5constructor?5i@ 000000018021e0a0     libvcruntime:undname.obj
 0002:000090d8       ??_C@_0CL@FGIJHLCE@?$GAmanaged?5vector?5copy?5constructor@ 000000018021e0d8     libvcruntime:undname.obj
 0002:00009110       ??_C@_0BM@PMGGMLDN@?$GAlocal?5static?5thread?5guard?8?$AA@ 000000018021e110     libvcruntime:undname.obj
 0002:00009138       ??_C@_0N@BDNMDMOL@operator?5?$CC?$CC?5?$AA@ 000000018021e138     libvcruntime:undname.obj
 0002:00009148       ??_C@_0BC@DAFEJGAK@?5Type?5Descriptor?8?$AA@ 000000018021e148     libvcruntime:undname.obj
 0002:00009160       ??_C@_0BM@LDKODKLH@?5Base?5Class?5Descriptor?5at?5?$CI?$AA@ 000000018021e160     libvcruntime:undname.obj
 0002:00009188       ??_C@_0BD@LGICGFMM@?5Base?5Class?5Array?8?$AA@ 000000018021e188     libvcruntime:undname.obj
 0002:000091a0       ??_C@_0BN@MECKDCOJ@?5Class?5Hierarchy?5Descriptor?8?$AA@ 000000018021e1a0     libvcruntime:undname.obj
 0002:000091c8       ??_C@_0BK@CFCOFLF@?5Complete?5Object?5Locator?8?$AA@ 000000018021e1c8     libvcruntime:undname.obj
 0002:000091e8       ??_C@_04HEJADOOB@CV?3?5?$AA@ 000000018021e1e8     libvcruntime:undname.obj
 0002:000091f0       ??_C@_02MOLJINC@?3?3?$AA@  000000018021e1f0     libvcruntime:undname.obj
 0002:000091f8       ??_C@_0BE@JAEOCHPE@template?9parameter?9?$AA@ 000000018021e1f8     libvcruntime:undname.obj
 0002:00009210       ??_C@_0O@KHGCOMHP@generic?9type?9?$AA@ 000000018021e210     libvcruntime:undname.obj
 0002:00009220       ??_C@_01NLNLIGKH@?$GA?$AA@ 000000018021e220     libvcruntime:undname.obj
 0002:00009224       ??_C@_01GEODFPGF@?8?$AA@   000000018021e224     libvcruntime:undname.obj
 0002:00009228       ??_C@_0BG@JNJLAMPM@?$GAanonymous?5namespace?8?$AA@ 000000018021e228     libvcruntime:undname.obj
 0002:00009244       ??_C@_02OHHJMEON@?8?8?$AA@ 000000018021e244     libvcruntime:undname.obj
 0002:00009248       ??_C@_0BN@IBLMMFAP@?$GAnon?9type?9template?9parameter?$AA@ 000000018021e248     libvcruntime:undname.obj
 0002:00009270       ??_C@_0BE@EODMJLIF@?$GAtemplate?9parameter?$AA@ 000000018021e270     libvcruntime:undname.obj
 0002:00009288       ??_C@_03KHICJKCI@?4?4?4?$AA@ 000000018021e288     libvcruntime:undname.obj
 0002:0000928c       ??_C@_04HIBGFPH@NULL?$AA@  000000018021e28c     libvcruntime:undname.obj
 0002:00009294       ??_C@_02DPKJAMEF@?$CFd?$AA@ 000000018021e294     libvcruntime:undname.obj
 0002:00009298       ??_C@_0BK@IHCCFNEL@?$GAtemplate?9type?9parameter?9?$AA@ 000000018021e298     libvcruntime:undname.obj
 0002:000092b8       ??_C@_0BK@OFCNNNKO@?$GAgeneric?9class?9parameter?9?$AA@ 000000018021e2b8     libvcruntime:undname.obj
 0002:000092d8       ??_C@_0BL@NGJBLFIL@?$GAgeneric?9method?9parameter?9?$AA@ 000000018021e2d8     libvcruntime:undname.obj
 0002:000092f8       ??_C@_03OPGICMGF@?$HN?8?5?$AA@ 000000018021e2f8     libvcruntime:undname.obj
 0002:000092fc       ??_C@_02IGFCGPIL@?$HN?8?$AA@ 000000018021e2fc     libvcruntime:undname.obj
 0002:00009300       ??_C@_01CLKCMJKC@?5?$AA@   000000018021e300     libvcruntime:undname.obj
 0002:00009308       ??_C@_0N@CBHHHENL@?$GAvtordispex?$HL?$AA@ 000000018021e308     libvcruntime:undname.obj
 0002:00009318       ??_C@_0L@GHPFDFH@?$GAvtordisp?$HL?$AA@ 000000018021e318     libvcruntime:undname.obj
 0002:00009328       ??_C@_0L@HNGCOGAE@?$GAadjustor?$HL?$AA@ 000000018021e328     libvcruntime:undname.obj
 0002:00009338       ??_C@_0CB@KJDOOODE@?$GAlocal?5static?5destructor?5helper?8@ 000000018021e338     libvcruntime:undname.obj
 0002:00009360       ??_C@_0DB@ILEFOCIJ@?$GAtemplate?5static?5data?5member?5con@ 000000018021e360     libvcruntime:undname.obj
 0002:000093a0       ??_C@_0DA@HGFJFBBE@?$GAtemplate?5static?5data?5member?5des@ 000000018021e3a0     libvcruntime:undname.obj
 0002:000093e0       ??_C@_07PGOEDBHP@static?5?$AA@ 000000018021e3e0     libvcruntime:undname.obj
 0002:000093f0       ??_C@_08NIEOINHE@virtual?5?$AA@ 000000018021e3f0     libvcruntime:undname.obj
 0002:00009400       ??_C@_09LAPHOOG@private?3?5?$AA@ 000000018021e400     libvcruntime:undname.obj
 0002:00009410       ??_C@_0M@GAIFPFIP@protected?3?5?$AA@ 000000018021e410     libvcruntime:undname.obj
 0002:00009420       ??_C@_08GPDDCMKI@public?3?5?$AA@ 000000018021e420     libvcruntime:undname.obj
 0002:00009430       ??_C@_08KJLFOPNE@?$FLthunk?$FN?3?$AA@ 000000018021e430     libvcruntime:undname.obj
 0002:00009440       ??_C@_0M@DHNBOJMP@extern?5?$CCC?$CC?5?$AA@ 000000018021e440     libvcruntime:undname.obj
 0002:00009450       ??_C@_02KCKGHPCA@?$CJ?5?$AA@ 000000018021e450     libvcruntime:undname.obj
 0002:00009454       ??_C@_05CIHEBHNO@char?5?$AA@ 000000018021e454     libvcruntime:undname.obj
 0002:0000945c       ??_C@_06EHJMALKF@short?5?$AA@ 000000018021e45c     libvcruntime:undname.obj
 0002:00009464       ??_C@_04LAHKHJMA@int?5?$AA@ 000000018021e464     libvcruntime:undname.obj
 0002:0000946c       ??_C@_05CJIMAING@long?5?$AA@ 000000018021e46c     libvcruntime:undname.obj
 0002:00009478       ??_C@_09EBBEKKIH@unsigned?5?$AA@ 000000018021e478     libvcruntime:undname.obj
 0002:00009484       ??_C@_05BEFAKPML@void?5?$AA@ 000000018021e484     libvcruntime:undname.obj
 0002:00009490       ??_C@_08PABEKFH@volatile?$AA@ 000000018021e490     libvcruntime:undname.obj
 0002:000094a0       ??_C@_0BA@LKIJLKPP@std?3?3nullptr_t?5?$AA@ 000000018021e4a0     libvcruntime:undname.obj
 0002:000094b8       ??_C@_0P@GCOCNKDM@std?3?3nullptr_t?$AA@ 000000018021e4b8     libvcruntime:undname.obj
 0002:000094d0       ??_C@_0L@EGPHHEKN@?$DMellipsis?$DO?$AA@ 000000018021e4d0     libvcruntime:undname.obj
 0002:000094e0       ??_C@_04EENFHACM@?0?4?4?4?$AA@ 000000018021e4e0     libvcruntime:undname.obj
 0002:000094e8       ??_C@_0M@ELJOJFFH@?0?$DMellipsis?$DO?$AA@ 000000018021e4e8     libvcruntime:undname.obj
 0002:000094f8       ??_C@_07HDJPLPEK@?5throw?$CI?$AA@ 000000018021e4f8     libvcruntime:undname.obj
 0002:00009504       ??_C@_03PBJBJNON@cpu?$AA@  000000018021e504     libvcruntime:undname.obj
 0002:00009508       ??_C@_03DCBBJBAA@amp?$AA@  000000018021e508     libvcruntime:undname.obj
 0002:0000950c       ??_C@_02KEGNLNML@?0?5?$AA@ 000000018021e50c     libvcruntime:undname.obj
 0002:00009510       ??_C@_04ENMBGAPA@char?$AA@ 000000018021e510     libvcruntime:undname.obj
 0002:00009518       ??_C@_05BFKKPKCG@short?$AA@ 000000018021e518     libvcruntime:undname.obj
 0002:00009520       ??_C@_03JBIPMCLC@int?$AA@  000000018021e520     libvcruntime:undname.obj
 0002:00009524       ??_C@_04GOKPGOLB@long?$AA@ 000000018021e524     libvcruntime:undname.obj
 0002:0000952c       ??_C@_06BNJCAIGJ@double?$AA@ 000000018021e52c     libvcruntime:undname.obj
 0002:00009534       ??_C@_06EBGKOKIG@__int8?$AA@ 000000018021e534     libvcruntime:undname.obj
 0002:00009540       ??_C@_07ICFHOGAF@__int16?$AA@ 000000018021e540     libvcruntime:undname.obj
 0002:00009550       ??_C@_07OFLPPHGP@__int32?$AA@ 000000018021e550     libvcruntime:undname.obj
 0002:00009560       ??_C@_07LFCOJCAC@__int64?$AA@ 000000018021e560     libvcruntime:undname.obj
 0002:00009570       ??_C@_08GAHOLHEO@__int128?$AA@ 000000018021e570     libvcruntime:undname.obj
 0002:00009580       ??_C@_09EEKGDCPH@?$DMunknown?$DO?$AA@ 000000018021e580     libvcruntime:undname.obj
 0002:00009590       ??_C@_08HBIPOFJB@char16_t?$AA@ 000000018021e590     libvcruntime:undname.obj
 0002:000095a0       ??_C@_08IECNCBKG@char32_t?$AA@ 000000018021e5a0     libvcruntime:undname.obj
 0002:000095b0       ??_C@_07CLGGIAMF@wchar_t?$AA@ 000000018021e5b0     libvcruntime:undname.obj
 0002:000095bc       ??_C@_06GCICPBLB@__w64?5?$AA@ 000000018021e5bc     libvcruntime:undname.obj
 0002:000095c8       ??_C@_07NFANNNEC@UNKNOWN?$AA@ 000000018021e5c8     libvcruntime:undname.obj
 0002:000095d8       ??_C@_07EDHNAJHC@signed?5?$AA@ 000000018021e5d8     libvcruntime:undname.obj
 0002:000095e4       ??_C@_05BNCCCJPP@const?$AA@ 000000018021e5e4     libvcruntime:undname.obj
 0002:000095f0       ??_C@_09EFNPDFFP@?5volatile?$AA@ 000000018021e5f0     libvcruntime:undname.obj
 0002:00009600       ??_C@_0P@GCIFDJCJ@?$GAunknown?5ecsu?8?$AA@ 000000018021e600     libvcruntime:undname.obj
 0002:00009614       ??_C@_06MOJHIBMG@union?5?$AA@ 000000018021e614     libvcruntime:undname.obj
 0002:00009620       ??_C@_07DIBCDNGL@struct?5?$AA@ 000000018021e620     libvcruntime:undname.obj
 0002:0000962c       ??_C@_06LJBABKPM@class?5?$AA@ 000000018021e62c     libvcruntime:undname.obj
 0002:00009638       ??_C@_08KOFANOFK@coclass?5?$AA@ 000000018021e638     libvcruntime:undname.obj
 0002:00009648       ??_C@_0N@DLIEFKNA@cointerface?5?$AA@ 000000018021e648     libvcruntime:undname.obj
 0002:00009658       ??_C@_05LJGMCFOG@enum?5?$AA@ 000000018021e658     libvcruntime:undname.obj
 0002:00009660       ??_C@_09GAIEOBLP@volatile?5?$AA@ 000000018021e660     libvcruntime:undname.obj
 0002:0000966c       ??_C@_06LIJLOJAG@const?5?$AA@ 000000018021e66c     libvcruntime:undname.obj
 0002:00009674       ??_C@_02KJPKDIBN@?$CG?5?$AA@ 000000018021e674     libvcruntime:undname.obj
 0002:00009678       ??_C@_03PCKGMOPB@?$CG?$CG?5?$AA@ 000000018021e678     libvcruntime:undname.obj
 0002:00009680       ??_C@_0M@EALIELKG@cli?3?3array?$DM?$AA@ 000000018021e680     libvcruntime:undname.obj
 0002:00009690       ??_C@_0O@GKABPPIF@cli?3?3pin_ptr?$DM?$AA@ 000000018021e690     libvcruntime:undname.obj
 0002:000096a0       ??_C@_02GOGNNPBN@?$CJ?$FL?$AA@ 000000018021e6a0     libvcruntime:undname.obj
 0002:000096a4       ??_C@_06EEGAIFAK@?$HLflat?$HN?$AA@ 000000018021e6a4     libvcruntime:undname.obj
 0002:000096ac       ??_C@_05JIBOFOHK@?$HLfor?5?$AA@ 000000018021e6ac     libvcruntime:undname.obj
 0002:000096b4       ??_C@_02MDINNEEG@s?5?$AA@  000000018021e6b4     libvcruntime:undname.obj
 0002:000096c0       ??_7DNameNode@@6B@         000000018021e6c0     libvcruntime:undname.obj
 0002:000096e8       ??_7charNode@@6B@          000000018021e6e8     libvcruntime:undname.obj
 0002:00009710       ??_7pcharNode@@6B@         000000018021e710     libvcruntime:undname.obj
 0002:00009738       ??_7pDNameNode@@6B@        000000018021e738     libvcruntime:undname.obj
 0002:00009760       ??_7DNameStatusNode@@6B@   000000018021e760     libvcruntime:undname.obj
 0002:00009788       ??_7pairNode@@6B@          000000018021e788     libvcruntime:undname.obj
 0002:000097a8       ??_C@_04OKOHEJBO@?5?$DP?$DP?5?$AA@ 000000018021e7a8     libvcruntime:undname.obj
 0002:000097d8       ??_C@_1BC@DNHGCMLG@?$AAa?$AAd?$AAv?$AAa?$AAp?$AAi?$AA3?$AA2?$AA?$AA@ 000000018021e7d8     libvcruntime:winapi_downlevel.obj
 0002:000097f0       ??_C@_1DM@KHCHBNEB@?$AAa?$AAp?$AAi?$AA?9?$AAm?$AAs?$AA?9?$AAw?$AAi?$AAn?$AA?9?$AAc?$AAo?$AAr?$AAe?$AA?9?$AAf?$AAi?$AAb?$AAe?$AAr?$AAs?$AA?9?$AAl?$AA1?$AA?9?$AA1?$AA?9?$AA1?$AA?$AA@ 000000018021e7f0     libvcruntime:winapi_downlevel.obj
 0002:00009838       ??_C@_1DK@LPPGFMPP@?$AAa?$AAp?$AAi?$AA?9?$AAm?$AAs?$AA?9?$AAw?$AAi?$AAn?$AA?9?$AAc?$AAo?$AAr?$AAe?$AA?9?$AAs?$AAy?$AAn?$AAc?$AAh?$AA?9?$AAl?$AA1?$AA?9?$AA2?$AA?9?$AA0?$AA?$AA@ 000000018021e838     libvcruntime:winapi_downlevel.obj
 0002:00009880       ??_C@_1BC@GDMECMAK@?$AAk?$AAe?$AAr?$AAn?$AAe?$AAl?$AA3?$AA2?$AA?$AA@ 000000018021e880     libvcruntime:winapi_downlevel.obj
 0002:000098a0       ??_C@_0O@BAMBGLIE@EventRegister?$AA@ 000000018021e8a0     libvcruntime:winapi_downlevel.obj
 0002:000098b8       ??_C@_0BE@BJEEGHGK@EventSetInformation?$AA@ 000000018021e8b8     libvcruntime:winapi_downlevel.obj
 0002:000098d8       ??_C@_0BA@FAKLIPIC@EventUnregister?$AA@ 000000018021e8d8     libvcruntime:winapi_downlevel.obj
 0002:000098f0       ??_C@_0BD@PKLHJPHD@EventWriteTransfer?$AA@ 000000018021e8f0     libvcruntime:winapi_downlevel.obj
 0002:00009918       ??_C@_08KNHFBNJ@FlsAlloc?$AA@ 000000018021e918     libvcruntime:winapi_downlevel.obj
 0002:00009938       ??_C@_07PEJMOBNF@FlsFree?$AA@ 000000018021e938     libvcruntime:winapi_downlevel.obj
 0002:00009958       ??_C@_0M@GDNOONDI@FlsGetValue?$AA@ 000000018021e958     libvcruntime:winapi_downlevel.obj
 0002:00009978       ??_C@_0M@JCPCPOEF@FlsSetValue?$AA@ 000000018021e978     libvcruntime:winapi_downlevel.obj
 0002:00009998       ??_C@_0BM@HCFOFFN@InitializeCriticalSectionEx?$AA@ 000000018021e998     libvcruntime:winapi_downlevel.obj
 0002:00009c8c       ??_C@_06HBLGGACK@_scalb?$AA@ 000000018021ec8c     libucrt:ieeemisc.obj
 0002:00009c98       ??_C@_07OIGNLDJH@_scalbf?$AA@ 000000018021ec98     libucrt:ieeemisc.obj
 0002:00009cb0       __acrt_exception_action_table 000000018021ecb0     libucrt:exception_filter.obj
 0002:00009d98       __acrt_signal_action_table_count 000000018021ed98     libucrt:exception_filter.obj
 0002:00009da8       __acrt_signal_action_table_size 000000018021eda8     libucrt:exception_filter.obj
 0002:00009db8       __acrt_signal_action_first_fpe_index 000000018021edb8     libucrt:exception_filter.obj
 0002:00009dc8       __acrt_signal_action_fpe_count 000000018021edc8     libucrt:exception_filter.obj
 0002:00009dd8       RtlNtPathSeperatorString   000000018021edd8     libucrt:exit.obj
 0002:00009dec       ??_C@_13FPGAJAPJ@?$AA?2?$AA?$AA@ 000000018021edec     libucrt:exit.obj
 0002:00009df0       RtlDosPathSeperatorsString 000000018021edf0     libucrt:exit.obj
 0002:00009e04       ??_C@_15MNCACJLI@?$AA?2?$AA?1?$AA?$AA@ 000000018021ee04     libucrt:exit.obj
 0002:00009e10       RtlAlternateDosPathSeperatorString 000000018021ee10     libucrt:exit.obj
 0002:00009e24       ??_C@_13CGOKJPIL@?$AA?1?$AA?$AA@ 000000018021ee24     libucrt:exit.obj
 0002:00009e28       ??_C@_1BI@BGOHAHKC@?$AAm?$AAs?$AAc?$AAo?$AAr?$AAe?$AAe?$AA?4?$AAd?$AAl?$AAl?$AA?$AA@ 000000018021ee28     libucrt:exit.obj
 0002:00009e48       ??_C@_0P@MIGLKIOC@CorExitProcess?$AA@ 000000018021ee48     libucrt:exit.obj
 0002:00009f80       ??_C@_1BG@HHIFPOEK@?$AAm?$AAs?$AAv?$AAc?$AAr?$AAt?$AA?4?$AAd?$AAl?$AAl?$AA?$AA@ 000000018021ef80     libucrt:free_base.obj
 0002:00009fa0       standard_lookup_table      000000018021efa0     libucrt:output.obj
 0002:0000a010       format_validation_lookup_table 000000018021f010     libucrt:output.obj
 0002:0000a080       ??_C@_06OJHGLDPL@?$CInull?$CJ?$AA@ 000000018021f080     libucrt:output.obj
 0002:0000a088       ??_C@_1O@CEDCILHN@?$AA?$CI?$AAn?$AAu?$AAl?$AAl?$AA?$CJ?$AA?$AA@ 000000018021f088     libucrt:output.obj
 0002:0000a098       _Fenv0                     000000018021f098     libucrt:atox.obj
 0002:0000a268       ??_C@_04LAGPAAHP@sinf?$AA@ 000000018021f268     libucrt:sincos_special.obj
 0002:0000a270       ??_C@_03BLEJJJBH@sin?$AA@  000000018021f270     libucrt:sincos_special.obj
 0002:0000a274       ??_C@_04OBBKPIAC@cosf?$AA@ 000000018021f274     libucrt:sincos_special.obj
 0002:0000a27c       ??_C@_03LALBNOCG@cos?$AA@  000000018021f27c     libucrt:sincos_special.obj
 0002:0000a280       ??_C@_03IIINPABG@tan?$AA@  000000018021f280     libucrt:sincos_special.obj
 0002:0000a284       ??_C@_04MHPLPEIA@tanf?$AA@ 000000018021f284     libucrt:sincos_special.obj
 0002:0000a290       __Lcosfarray               000000018021f290     libucrt:lsincosf_array.obj
 0002:0000a2c0       __Lsinfarray               000000018021f2c0     libucrt:lsincosf_array.obj
 0002:0000a2f0       __L_2_by_pi_bits           000000018021f2f0     libucrt:l2_by_pi_bits.obj
 0002:0000a540       ??_C@_1EG@CNNIPFIM@?$AAa?$AAp?$AAi?$AA?9?$AAm?$AAs?$AA?9?$AAw?$AAi?$AAn?$AA?9?$AAa?$AAp?$AAp?$AAm?$AAo?$AAd?$AAe?$AAl?$AA?9?$AAr?$AAu?$AAn?$AAt?$AAi?$AAm?$AAe?$AA?9?$AAl?$AA1?$AA?9?$AA1@ 000000018021f540     libucrt:winapi_thunks.obj
 0002:0000a5a0       ??_C@_1EA@JGEFHKEI@?$AAa?$AAp?$AAi?$AA?9?$AAm?$AAs?$AA?9?$AAw?$AAi?$AAn?$AA?9?$AAc?$AAo?$AAr?$AAe?$AA?9?$AAd?$AAa?$AAt?$AAe?$AAt?$AAi?$AAm?$AAe?$AA?9?$AAl?$AA1?$AA?9?$AA1?$AA?9?$AA1?$AA?$AA@ 000000018021f5a0     libucrt:winapi_thunks.obj
 0002:0000a5f0       ??_C@_1DI@GCIAAENM@?$AAa?$AAp?$AAi?$AA?9?$AAm?$AAs?$AA?9?$AAw?$AAi?$AAn?$AA?9?$AAc?$AAo?$AAr?$AAe?$AA?9?$AAf?$AAi?$AAl?$AAe?$AA?9?$AAl?$AA2?$AA?9?$AA1?$AA?9?$AA1?$AA?$AA@ 000000018021f5f0     libucrt:winapi_thunks.obj
 0002:0000a640       ??_C@_1EI@MPIAOHOC@?$AAa?$AAp?$AAi?$AA?9?$AAm?$AAs?$AA?9?$AAw?$AAi?$AAn?$AA?9?$AAc?$AAo?$AAr?$AAe?$AA?9?$AAl?$AAo?$AAc?$AAa?$AAl?$AAi?$AAz?$AAa?$AAt?$AAi?$AAo?$AAn?$AA?9?$AAl?$AA1?$AA?9@ 000000018021f640     libucrt:winapi_thunks.obj
 0002:0000a6a0       ??_C@_1FK@FPHCKFIE@?$AAa?$AAp?$AAi?$AA?9?$AAm?$AAs?$AA?9?$AAw?$AAi?$AAn?$AA?9?$AAc?$AAo?$AAr?$AAe?$AA?9?$AAl?$AAo?$AAc?$AAa?$AAl?$AAi?$AAz?$AAa?$AAt?$AAi?$AAo?$AAn?$AA?9?$AAo?$AAb?$AAs@ 000000018021f6a0     libucrt:winapi_thunks.obj
 0002:0000a710       ??_C@_1EM@DILCGIIO@?$AAa?$AAp?$AAi?$AA?9?$AAm?$AAs?$AA?9?$AAw?$AAi?$AAn?$AA?9?$AAc?$AAo?$AAr?$AAe?$AA?9?$AAp?$AAr?$AAo?$AAc?$AAe?$AAs?$AAs?$AAt?$AAh?$AAr?$AAe?$AAa?$AAd?$AAs?$AA?9?$AAl@ 000000018021f710     libucrt:winapi_thunks.obj
 0002:0000a770       ??_C@_1DM@LNCGDDPN@?$AAa?$AAp?$AAi?$AA?9?$AAm?$AAs?$AA?9?$AAw?$AAi?$AAn?$AA?9?$AAc?$AAo?$AAr?$AAe?$AA?9?$AAs?$AAt?$AAr?$AAi?$AAn?$AAg?$AA?9?$AAl?$AA1?$AA?9?$AA1?$AA?9?$AA0?$AA?$AA@ 000000018021f770     libucrt:winapi_thunks.obj
 0002:0000a7b8       ??_C@_1DO@FPAPJEMD@?$AAa?$AAp?$AAi?$AA?9?$AAm?$AAs?$AA?9?$AAw?$AAi?$AAn?$AA?9?$AAc?$AAo?$AAr?$AAe?$AA?9?$AAs?$AAy?$AAs?$AAi?$AAn?$AAf?$AAo?$AA?9?$AAl?$AA1?$AA?9?$AA2?$AA?9?$AA1?$AA?$AA@ 000000018021f7b8     libucrt:winapi_thunks.obj
 0002:0000a808       ??_C@_1DK@NDHNAHIO@?$AAa?$AAp?$AAi?$AA?9?$AAm?$AAs?$AA?9?$AAw?$AAi?$AAn?$AA?9?$AAc?$AAo?$AAr?$AAe?$AA?9?$AAw?$AAi?$AAn?$AAr?$AAt?$AA?9?$AAl?$AA1?$AA?9?$AA1?$AA?9?$AA0?$AA?$AA@ 000000018021f808     libucrt:winapi_thunks.obj
 0002:0000a850       ??_C@_1DM@KGHDGBCM@?$AAa?$AAp?$AAi?$AA?9?$AAm?$AAs?$AA?9?$AAw?$AAi?$AAn?$AA?9?$AAc?$AAo?$AAr?$AAe?$AA?9?$AAx?$AAs?$AAt?$AAa?$AAt?$AAe?$AA?9?$AAl?$AA2?$AA?9?$AA1?$AA?9?$AA0?$AA?$AA@ 000000018021f850     libucrt:winapi_thunks.obj
 0002:0000a8a0       ??_C@_1EO@IJIOEFOH@?$AAa?$AAp?$AAi?$AA?9?$AAm?$AAs?$AA?9?$AAw?$AAi?$AAn?$AA?9?$AAr?$AAt?$AAc?$AAo?$AAr?$AAe?$AA?9?$AAn?$AAt?$AAu?$AAs?$AAe?$AAr?$AA?9?$AAw?$AAi?$AAn?$AAd?$AAo?$AAw?$AA?9@ 000000018021f8a0     libucrt:winapi_thunks.obj
 0002:0000a900       ??_C@_1FG@HHGEKANL@?$AAa?$AAp?$AAi?$AA?9?$AAm?$AAs?$AA?9?$AAw?$AAi?$AAn?$AA?9?$AAs?$AAe?$AAc?$AAu?$AAr?$AAi?$AAt?$AAy?$AA?9?$AAs?$AAy?$AAs?$AAt?$AAe?$AAm?$AAf?$AAu?$AAn?$AAc?$AAt?$AAi@ 000000018021f900     libucrt:winapi_thunks.obj
 0002:0000a970       ??_C@_1FG@NCKKOLKO@?$AAe?$AAx?$AAt?$AA?9?$AAm?$AAs?$AA?9?$AAw?$AAi?$AAn?$AA?9?$AAk?$AAe?$AAr?$AAn?$AAe?$AAl?$AA3?$AA2?$AA?9?$AAp?$AAa?$AAc?$AAk?$AAa?$AAg?$AAe?$AA?9?$AAc?$AAu?$AAr?$AAr@ 000000018021f970     libucrt:winapi_thunks.obj
 0002:0000a9e0       ??_C@_1EG@DBIOJECG@?$AAe?$AAx?$AAt?$AA?9?$AAm?$AAs?$AA?9?$AAw?$AAi?$AAn?$AA?9?$AAn?$AAt?$AAu?$AAs?$AAe?$AAr?$AA?9?$AAd?$AAi?$AAa?$AAl?$AAo?$AAg?$AAb?$AAo?$AAx?$AA?9?$AAl?$AA1?$AA?9?$AA1@ 000000018021f9e0     libucrt:winapi_thunks.obj
 0002:0000aa40       ??_C@_1EO@FIHMJCLF@?$AAe?$AAx?$AAt?$AA?9?$AAm?$AAs?$AA?9?$AAw?$AAi?$AAn?$AA?9?$AAn?$AAt?$AAu?$AAs?$AAe?$AAr?$AA?9?$AAw?$AAi?$AAn?$AAd?$AAo?$AAw?$AAs?$AAt?$AAa?$AAt?$AAi?$AAo?$AAn?$AA?9@ 000000018021fa40     libucrt:winapi_thunks.obj
 0002:0000aaa0       ??_C@_1O@BCCLBEOE@?$AAu?$AAs?$AAe?$AAr?$AA3?$AA2?$AA?$AA@ 000000018021faa0     libucrt:winapi_thunks.obj
 0002:0000aab8       ??_C@_0BA@FHFNEAED@AreFileApisANSI?$AA@ 000000018021fab8     libucrt:winapi_thunks.obj
 0002:0000aae0       ??_C@_0BA@IHGNDAEB@CompareStringEx?$AA@ 000000018021fae0     libucrt:winapi_thunks.obj
 0002:0000ab08       ??_C@_0BE@LJANKFHF@EnumSystemLocalesEx?$AA@ 000000018021fb08     libucrt:winapi_thunks.obj
 0002:0000ab70       ??_C@_0BA@HNOPNCHB@GetActiveWindow?$AA@ 000000018021fb70     libucrt:winapi_thunks.obj
 0002:0000ab98       ??_C@_0BE@JOGNEJCI@GetCurrentPackageId?$AA@ 000000018021fb98     libucrt:winapi_thunks.obj
 0002:0000abc0       ??_C@_0BA@EPCJIIPD@GetDateFormatEx?$AA@ 000000018021fbc0     libucrt:winapi_thunks.obj
 0002:0000abe8       ??_C@_0BJ@DIBIJBHA@GetEnabledXStateFeatures?$AA@ 000000018021fbe8     libucrt:winapi_thunks.obj
 0002:0000ac18       ??_C@_0BN@NEEHBBPO@GetFileInformationByHandleEx?$AA@ 000000018021fc18     libucrt:winapi_thunks.obj
 0002:0000ac50       ??_C@_0BD@HHGDFDBJ@GetLastActivePopup?$AA@ 000000018021fc50     libucrt:winapi_thunks.obj
 0002:0000ac78       ??_C@_0BA@ONOKGCMP@GetLocaleInfoEx?$AA@ 000000018021fc78     libucrt:winapi_thunks.obj
 0002:0000aca0       ??_C@_0BI@DFKBFLJE@GetProcessWindowStation?$AA@ 000000018021fca0     libucrt:winapi_thunks.obj
 0002:0000acc0       ??_C@_0BP@FPNJPEJC@GetSystemTimePreciseAsFileTime?$AA@ 000000018021fcc0     libucrt:winapi_thunks.obj
 0002:0000acf8       ??_C@_0BA@CIJJKCJJ@GetTimeFormatEx?$AA@ 000000018021fcf8     libucrt:winapi_thunks.obj
 0002:0000ad20       ??_C@_0BJ@PBCCBIPI@GetUserDefaultLocaleName?$AA@ 000000018021fd20     libucrt:winapi_thunks.obj
 0002:0000ad50       ??_C@_0BK@DEKFELLI@GetUserObjectInformationW?$AA@ 000000018021fd50     libucrt:winapi_thunks.obj
 0002:0000ad80       ??_C@_0BG@IKLDMBLM@GetXStateFeaturesMask?$AA@ 000000018021fd80     libucrt:winapi_thunks.obj
 0002:0000adc0       ??_C@_0BC@CELBKLLA@IsValidLocaleName?$AA@ 000000018021fdc0     libucrt:winapi_thunks.obj
 0002:0000ade8       ??_C@_0O@KKBNKAPF@LCMapStringEx?$AA@ 000000018021fde8     libucrt:winapi_thunks.obj
 0002:0000ae08       ??_C@_0BB@CDHDDLLP@LCIDToLocaleName?$AA@ 000000018021fe08     libucrt:winapi_thunks.obj
 0002:0000ae30       ??_C@_0BB@HBDEELFH@LocaleNameToLCID?$AA@ 000000018021fe30     libucrt:winapi_thunks.obj
 0002:0000ae58       ??_C@_0BE@KINNKFDA@LocateXStateFeature?$AA@ 000000018021fe58     libucrt:winapi_thunks.obj
 0002:0000ae80       ??_C@_0M@CHKKJDAI@MessageBoxA?$AA@ 000000018021fe80     libucrt:winapi_thunks.obj
 0002:0000aea0       ??_C@_0M@DLDCCGNP@MessageBoxW?$AA@ 000000018021fea0     libucrt:winapi_thunks.obj
 0002:0000aeb8       ??_C@_0N@PPOMPGGK@RoInitialize?$AA@ 000000018021feb8     libucrt:winapi_thunks.obj
 0002:0000aed0       ??_C@_0P@LLFHBIJD@RoUninitialize?$AA@ 000000018021fed0     libucrt:winapi_thunks.obj
 0002:0000aef8       ??_C@_0BI@BKLFFAPO@SetThreadStackGuarantee?$AA@ 000000018021fef8     libucrt:winapi_thunks.obj
 0002:0000af28       ??_C@_0BC@JEAENNKH@SystemFunction036?$AA@ 000000018021ff28     libucrt:winapi_thunks.obj
 0002:0000b118       ??_C@_1M@HPNHIDJI@?$AAj?$AAa?$AA?9?$AAJ?$AAP?$AA?$AA@ 0000000180220118     libucrt:mbctype.obj
 0002:0000b128       ??_C@_1M@BIBDDEMK@?$AAz?$AAh?$AA?9?$AAC?$AAN?$AA?$AA@ 0000000180220128     libucrt:mbctype.obj
 0002:0000b138       ??_C@_1M@JLOOOEGK@?$AAk?$AAo?$AA?9?$AAK?$AAR?$AA?$AA@ 0000000180220138     libucrt:mbctype.obj
 0002:0000b148       ??_C@_1M@CLNBBOPM@?$AAz?$AAh?$AA?9?$AAT?$AAW?$AA?$AA@ 0000000180220148     libucrt:mbctype.obj
 0002:0000b160       __lc_time_c                0000000180220160     libucrt:nlsdata.obj
 0002:0000b4ac       ??_C@_03KOEHGMDN@Sun?$AA@  00000001802204ac     libucrt:nlsdata.obj
 0002:0000b4b0       ??_C@_03PDAGKDH@Mon?$AA@   00000001802204b0     libucrt:nlsdata.obj
 0002:0000b4b4       ??_C@_03NAGEINEP@Tue?$AA@  00000001802204b4     libucrt:nlsdata.obj
 0002:0000b4b8       ??_C@_03MHOMLAJA@Wed?$AA@  00000001802204b8     libucrt:nlsdata.obj
 0002:0000b4bc       ??_C@_03IOFIKPDN@Thu?$AA@  00000001802204bc     libucrt:nlsdata.obj
 0002:0000b4c0       ??_C@_03IDIOELNC@Fri?$AA@  00000001802204c0     libucrt:nlsdata.obj
 0002:0000b4c4       ??_C@_03FEFJNEK@Sat?$AA@   00000001802204c4     libucrt:nlsdata.obj
 0002:0000b4c8       ??_C@_06OOPIFAJ@Sunday?$AA@ 00000001802204c8     libucrt:nlsdata.obj
 0002:0000b4d0       ??_C@_06JLEDEDGH@Monday?$AA@ 00000001802204d0     libucrt:nlsdata.obj
 0002:0000b4d8       ??_C@_07BAAGCFCM@Tuesday?$AA@ 00000001802204d8     libucrt:nlsdata.obj
 0002:0000b4e8       ??_C@_09DLIGFAKA@Wednesday?$AA@ 00000001802204e8     libucrt:nlsdata.obj
 0002:0000b4f8       ??_C@_08HACCIKIA@Thursday?$AA@ 00000001802204f8     libucrt:nlsdata.obj
 0002:0000b504       ??_C@_06JECMNKMI@Friday?$AA@ 0000000180220504     libucrt:nlsdata.obj
 0002:0000b510       ??_C@_08INBOOONO@Saturday?$AA@ 0000000180220510     libucrt:nlsdata.obj
 0002:0000b51c       ??_C@_03JIHJHPIE@Jan?$AA@  000000018022051c     libucrt:nlsdata.obj
 0002:0000b520       ??_C@_03HJBDCHOM@Feb?$AA@  0000000180220520     libucrt:nlsdata.obj
 0002:0000b524       ??_C@_03ODNJBKGA@Mar?$AA@  0000000180220524     libucrt:nlsdata.obj
 0002:0000b528       ??_C@_03LEOLGMJP@Apr?$AA@  0000000180220528     libucrt:nlsdata.obj
 0002:0000b52c       ??_C@_03CNMDKL@May?$AA@    000000018022052c     libucrt:nlsdata.obj
 0002:0000b530       ??_C@_03IDFGHECI@Jun?$AA@  0000000180220530     libucrt:nlsdata.obj
 0002:0000b534       ??_C@_03LBGABGKK@Jul?$AA@  0000000180220534     libucrt:nlsdata.obj
 0002:0000b538       ??_C@_03IFJFEIGA@Aug?$AA@  0000000180220538     libucrt:nlsdata.obj
 0002:0000b53c       ??_C@_03GGCAPAJC@Sep?$AA@  000000018022053c     libucrt:nlsdata.obj
 0002:0000b540       ??_C@_03BMAOKBAD@Oct?$AA@  0000000180220540     libucrt:nlsdata.obj
 0002:0000b544       ??_C@_03JPJOFNIA@Nov?$AA@  0000000180220544     libucrt:nlsdata.obj
 0002:0000b548       ??_C@_03MKABNOCG@Dec?$AA@  0000000180220548     libucrt:nlsdata.obj
 0002:0000b550       ??_C@_07CGJPFGJA@January?$AA@ 0000000180220550     libucrt:nlsdata.obj
 0002:0000b560       ??_C@_08GNJGEPFN@February?$AA@ 0000000180220560     libucrt:nlsdata.obj
 0002:0000b56c       ??_C@_05HPCKOFNC@March?$AA@ 000000018022056c     libucrt:nlsdata.obj
 0002:0000b574       ??_C@_05DMJDNLEJ@April?$AA@ 0000000180220574     libucrt:nlsdata.obj
 0002:0000b57c       ??_C@_04CNLMGBGM@June?$AA@ 000000018022057c     libucrt:nlsdata.obj
 0002:0000b584       ??_C@_04MIEPOIFP@July?$AA@ 0000000180220584     libucrt:nlsdata.obj
 0002:0000b58c       ??_C@_06LBBHFDDG@August?$AA@ 000000018022058c     libucrt:nlsdata.obj
 0002:0000b598       ??_C@_09BHHEALKD@September?$AA@ 0000000180220598     libucrt:nlsdata.obj
 0002:0000b5a8       ??_C@_07JJNFCEND@October?$AA@ 00000001802205a8     libucrt:nlsdata.obj
 0002:0000b5b8       ??_C@_08HCHEGEOA@November?$AA@ 00000001802205b8     libucrt:nlsdata.obj
 0002:0000b5c8       ??_C@_08EDHMEBNP@December?$AA@ 00000001802205c8     libucrt:nlsdata.obj
 0002:0000b5d4       ??_C@_02DEDBPAFC@AM?$AA@   00000001802205d4     libucrt:nlsdata.obj
 0002:0000b5d8       ??_C@_02CJNFDJBF@PM?$AA@   00000001802205d8     libucrt:nlsdata.obj
 0002:0000b5e0       ??_C@_08BPBNCDIB@MM?1dd?1yy?$AA@ 00000001802205e0     libucrt:nlsdata.obj
 0002:0000b5f0       ??_C@_0BE@CKGJFCPC@dddd?0?5MMMM?5dd?0?5yyyy?$AA@ 00000001802205f0     libucrt:nlsdata.obj
 0002:0000b608       ??_C@_08JCCMCCIL@HH?3mm?3ss?$AA@ 0000000180220608     libucrt:nlsdata.obj
 0002:0000b618       ??_C@_17MBGCMIPB@?$AAS?$AAu?$AAn?$AA?$AA@ 0000000180220618     libucrt:nlsdata.obj
 0002:0000b628       ??_C@_17KBOMKBF@?$AAM?$AAo?$AAn?$AA?$AA@ 0000000180220628     libucrt:nlsdata.obj
 0002:0000b638       ??_C@_17BMKGEGOJ@?$AAT?$AAu?$AAe?$AA?$AA@ 0000000180220638     libucrt:nlsdata.obj
 0002:0000b648       ??_C@_17CJEDCEPE@?$AAW?$AAe?$AAd?$AA?$AA@ 0000000180220648     libucrt:nlsdata.obj
 0002:0000b658       ??_C@_17PDPHAADD@?$AAT?$AAh?$AAu?$AA?$AA@ 0000000180220658     libucrt:nlsdata.obj
 0002:0000b668       ??_C@_17HFOLPPLP@?$AAF?$AAr?$AAi?$AA?$AA@ 0000000180220668     libucrt:nlsdata.obj
 0002:0000b678       ??_C@_17GGIBDPIH@?$AAS?$AAa?$AAt?$AA?$AA@ 0000000180220678     libucrt:nlsdata.obj
 0002:0000b688       ??_C@_1O@IHNHDHPB@?$AAS?$AAu?$AAn?$AAd?$AAa?$AAy?$AA?$AA@ 0000000180220688     libucrt:nlsdata.obj
 0002:0000b698       ??_C@_1O@MMNBFLIA@?$AAM?$AAo?$AAn?$AAd?$AAa?$AAy?$AA?$AA@ 0000000180220698     libucrt:nlsdata.obj
 0002:0000b6a8       ??_C@_1BA@ENFBFFEK@?$AAT?$AAu?$AAe?$AAs?$AAd?$AAa?$AAy?$AA?$AA@ 00000001802206a8     libucrt:nlsdata.obj
 0002:0000b6c0       ??_C@_1BE@EBOGMDOH@?$AAW?$AAe?$AAd?$AAn?$AAe?$AAs?$AAd?$AAa?$AAy?$AA?$AA@ 00000001802206c0     libucrt:nlsdata.obj
 0002:0000b6d8       ??_C@_1BC@HHMNLIHE@?$AAT?$AAh?$AAu?$AAr?$AAs?$AAd?$AAa?$AAy?$AA?$AA@ 00000001802206d8     libucrt:nlsdata.obj
 0002:0000b6f0       ??_C@_1O@PDICJHAG@?$AAF?$AAr?$AAi?$AAd?$AAa?$AAy?$AA?$AA@ 00000001802206f0     libucrt:nlsdata.obj
 0002:0000b700       ??_C@_1BC@ENMNNPAJ@?$AAS?$AAa?$AAt?$AAu?$AAr?$AAd?$AAa?$AAy?$AA?$AA@ 0000000180220700     libucrt:nlsdata.obj
 0002:0000b718       ??_C@_17DKNBKCHM@?$AAJ?$AAa?$AAn?$AA?$AA@ 0000000180220718     libucrt:nlsdata.obj
 0002:0000b728       ??_C@_17LMDJEKJN@?$AAF?$AAe?$AAb?$AA?$AA@ 0000000180220728     libucrt:nlsdata.obj
 0002:0000b738       ??_C@_17CKNLEDEC@?$AAM?$AAa?$AAr?$AA?$AA@ 0000000180220738     libucrt:nlsdata.obj
 0002:0000b748       ??_C@_17LFPOIHDD@?$AAA?$AAp?$AAr?$AA?$AA@ 0000000180220748     libucrt:nlsdata.obj
 0002:0000b758       ??_C@_17PNNKMEED@?$AAM?$AAa?$AAy?$AA?$AA@ 0000000180220758     libucrt:nlsdata.obj
 0002:0000b768       ??_C@_17KCJGOCPB@?$AAJ?$AAu?$AAn?$AA?$AA@ 0000000180220768     libucrt:nlsdata.obj
 0002:0000b778       ??_C@_17IJPCKHK@?$AAJ?$AAu?$AAl?$AA?$AA@ 0000000180220778     libucrt:nlsdata.obj
 0002:0000b788       ??_C@_17ICPELBCN@?$AAA?$AAu?$AAg?$AA?$AA@ 0000000180220788     libucrt:nlsdata.obj
 0002:0000b798       ??_C@_17HCHCOKMG@?$AAS?$AAe?$AAp?$AA?$AA@ 0000000180220798     libucrt:nlsdata.obj
 0002:0000b7a8       ??_C@_17FNLKOI@?$AAO?$AAc?$AAt?$AA?$AA@ 00000001802207a8     libucrt:nlsdata.obj
 0002:0000b7b8       ??_C@_17BBDMLCIG@?$AAN?$AAo?$AAv?$AA?$AA@ 00000001802207b8     libucrt:nlsdata.obj
 0002:0000b7c8       ??_C@_17EGKACKIF@?$AAD?$AAe?$AAc?$AA?$AA@ 00000001802207c8     libucrt:nlsdata.obj
 0002:0000b7d8       ??_C@_1BA@EFMEIEBA@?$AAJ?$AAa?$AAn?$AAu?$AAa?$AAr?$AAy?$AA?$AA@ 00000001802207d8     libucrt:nlsdata.obj
 0002:0000b7f0       ??_C@_1BC@JGDDFFAM@?$AAF?$AAe?$AAb?$AAr?$AAu?$AAa?$AAr?$AAy?$AA?$AA@ 00000001802207f0     libucrt:nlsdata.obj
 0002:0000b808       ??_C@_1M@IKEENEDF@?$AAM?$AAa?$AAr?$AAc?$AAh?$AA?$AA@ 0000000180220808     libucrt:nlsdata.obj
 0002:0000b818       ??_C@_1M@GJNLMHFD@?$AAA?$AAp?$AAr?$AAi?$AAl?$AA?$AA@ 0000000180220818     libucrt:nlsdata.obj
 0002:0000b828       ??_C@_19EPFLPGAP@?$AAJ?$AAu?$AAn?$AAe?$AA?$AA@ 0000000180220828     libucrt:nlsdata.obj
 0002:0000b838       ??_C@_19BIFMLPCD@?$AAJ?$AAu?$AAl?$AAy?$AA?$AA@ 0000000180220838     libucrt:nlsdata.obj
 0002:0000b848       ??_C@_1O@PAHLKOAC@?$AAA?$AAu?$AAg?$AAu?$AAs?$AAt?$AA?$AA@ 0000000180220848     libucrt:nlsdata.obj
 0002:0000b858       ??_C@_1BE@DKAAMBJL@?$AAS?$AAe?$AAp?$AAt?$AAe?$AAm?$AAb?$AAe?$AAr?$AA?$AA@ 0000000180220858     libucrt:nlsdata.obj
 0002:0000b870       ??_C@_1BA@EPANDLNG@?$AAO?$AAc?$AAt?$AAo?$AAb?$AAe?$AAr?$AA?$AA@ 0000000180220870     libucrt:nlsdata.obj
 0002:0000b888       ??_C@_1BC@BGLIFPF@?$AAN?$AAo?$AAv?$AAe?$AAm?$AAb?$AAe?$AAr?$AA?$AA@ 0000000180220888     libucrt:nlsdata.obj
 0002:0000b8a0       ??_C@_1BC@FEMKIFH@?$AAD?$AAe?$AAc?$AAe?$AAm?$AAb?$AAe?$AAr?$AA?$AA@ 00000001802208a0     libucrt:nlsdata.obj
 0002:0000b8b8       ??_C@_15ODEHAHHF@?$AAA?$AAM?$AA?$AA@ 00000001802208b8     libucrt:nlsdata.obj
 0002:0000b8c0       ??_C@_15CLMNNGEL@?$AAP?$AAM?$AA?$AA@ 00000001802208c0     libucrt:nlsdata.obj
 0002:0000b8c8       ??_C@_1BC@IEBCMHCM@?$AAM?$AAM?$AA?1?$AAd?$AAd?$AA?1?$AAy?$AAy?$AA?$AA@ 00000001802208c8     libucrt:nlsdata.obj
 0002:0000b8e0       ??_C@_1CI@KNAKOEBC@?$AAd?$AAd?$AAd?$AAd?$AA?0?$AA?5?$AAM?$AAM?$AAM?$AAM?$AA?5?$AAd?$AAd?$AA?0?$AA?5?$AAy?$AAy?$AAy?$AAy?$AA?$AA@ 00000001802208e0     libucrt:nlsdata.obj
 0002:0000b910       ??_C@_1BC@GDGBMEMK@?$AAH?$AAH?$AA?3?$AAm?$AAm?$AA?3?$AAs?$AAs?$AA?$AA@ 0000000180220910     libucrt:nlsdata.obj
 0002:0000b928       ??_C@_1M@BMHNFIME@?$AAe?$AAn?$AA?9?$AAU?$AAS?$AA?$AA@ 0000000180220928     libucrt:nlsdata.obj
 0002:0000b938       ??_C@_03OEIAHPBN@INF?$AA@  0000000180220938     libucrt:cvt.obj
 0002:0000b93c       ??_C@_03OJHLLCGB@inf?$AA@  000000018022093c     libucrt:cvt.obj
 0002:0000b940       ??_C@_03LKNCIKJB@NAN?$AA@  0000000180220940     libucrt:cvt.obj
 0002:0000b944       ??_C@_03LHCJEHON@nan?$AA@  0000000180220944     libucrt:cvt.obj
 0002:0000b948       ??_C@_09OFJJIMPC@NAN?$CISNAN?$CJ?$AA@ 0000000180220948     libucrt:cvt.obj
 0002:0000b958       ??_C@_09IPFBKMDL@nan?$CIsnan?$CJ?$AA@ 0000000180220958     libucrt:cvt.obj
 0002:0000b968       ??_C@_08IKHNHAJ@NAN?$CIIND?$CJ?$AA@ 0000000180220968     libucrt:cvt.obj
 0002:0000b978       ??_C@_08OFCDMILK@nan?$CIind?$CJ?$AA@ 0000000180220978     libucrt:cvt.obj
 0002:0000b984       ??_C@_05KLBDPFGC@e?$CL000?$AA@ 0000000180220984     libucrt:cvt.obj
 0002:0000b990       __lc_category              0000000180220990     libucrt:wsetlocale.obj
 0002:0000ba40       ??_C@_1O@GIFLHMA@?$AAL?$AAC?$AA_?$AAA?$AAL?$AAL?$AA?$AA@ 0000000180220a40     libucrt:wsetlocale.obj
 0002:0000ba50       ??_C@_1BG@PPOMIBNJ@?$AAL?$AAC?$AA_?$AAC?$AAO?$AAL?$AAL?$AAA?$AAT?$AAE?$AA?$AA@ 0000000180220a50     libucrt:wsetlocale.obj
 0002:0000ba70       ??_C@_1BC@FFJGAPJM@?$AAL?$AAC?$AA_?$AAC?$AAT?$AAY?$AAP?$AAE?$AA?$AA@ 0000000180220a70     libucrt:wsetlocale.obj
 0002:0000ba88       ??_C@_1BI@PCKFNJFB@?$AAL?$AAC?$AA_?$AAM?$AAO?$AAN?$AAE?$AAT?$AAA?$AAR?$AAY?$AA?$AA@ 0000000180220a88     libucrt:wsetlocale.obj
 0002:0000baa8       ??_C@_1BG@ENIEDKID@?$AAL?$AAC?$AA_?$AAN?$AAU?$AAM?$AAE?$AAR?$AAI?$AAC?$AA?$AA@ 0000000180220aa8     libucrt:wsetlocale.obj
 0002:0000bac8       ??_C@_1BA@HAAOMIIG@?$AAL?$AAC?$AA_?$AAT?$AAI?$AAM?$AAE?$AA?$AA@ 0000000180220ac8     libucrt:wsetlocale.obj
 0002:0000bb78       ??_C@_15NBPDDFIP@?$AA?$DN?$AA?$DL?$AA?$AA@ 0000000180220b78     libucrt:wsetlocale.obj
 0002:0000bb80       ??_C@_13PJJBFPED@?$AA?$DL?$AA?$AA@ 0000000180220b80     libucrt:wsetlocale.obj
 0002:0000bb84       ??_C@_13NMPKAAJP@?$AA?$DN?$AA?$AA@ 0000000180220b84     libucrt:wsetlocale.obj
 0002:0000bb88       ??_C@_13FHBKNHDA@?$AAC?$AA?$AA@ 0000000180220b88     libucrt:wsetlocale.obj
 0002:0000bb90       ??_C@_17MBJJLFDM@?$AA_?$AA?4?$AA?0?$AA?$AA@ 0000000180220b90     libucrt:wsetlocale.obj
 0002:0000bb9c       ??_C@_13ENNFDPBH@?$AA_?$AA?$AA@ 0000000180220b9c     libucrt:wsetlocale.obj
 0002:0000bba0       ??_C@_13JOFGPIOO@?$AA?4?$AA?$AA@ 0000000180220ba0     libucrt:wsetlocale.obj
 0002:0000bbb0       __newctype                 0000000180220bb0     libucrt:ctype.obj
 0002:0000bf50       __newclmap                 0000000180220f50     libucrt:ctype.obj
 0002:0000c120       __newcumap                 0000000180221120     libucrt:ctype.obj
 0002:0000c2f0       _wctype                    00000001802212f0     libucrt:ctype.obj
 0002:0000c7ac       ??_C@_03KHJOGHMM@exp?$AA@  00000001802217ac     libucrt:fpexcept.obj
 0002:0000c7b0       ??_C@_03JGHBODFD@pow?$AA@  00000001802217b0     libucrt:fpexcept.obj
 0002:0000c7b4       ??_C@_03MGHMBJCF@log?$AA@  00000001802217b4     libucrt:fpexcept.obj
 0002:0000c7b8       ??_C@_05HGHHAHAP@log10?$AA@ 00000001802217b8     libucrt:fpexcept.obj
 0002:0000c7c0       ??_C@_04COOMCNPB@sinh?$AA@ 00000001802217c0     libucrt:fpexcept.obj
 0002:0000c7c8       ??_C@_04HPJJNFIM@cosh?$AA@ 00000001802217c8     libucrt:fpexcept.obj
 0002:0000c7d0       ??_C@_04FJHINJAO@tanh?$AA@ 00000001802217d0     libucrt:fpexcept.obj
 0002:0000c7d8       ??_C@_04FIHNOPOL@asin?$AA@ 00000001802217d8     libucrt:fpexcept.obj
 0002:0000c7e0       ??_C@_04PDIFKINK@acos?$AA@ 00000001802217e0     libucrt:fpexcept.obj
 0002:0000c7e8       ??_C@_04MLLJIGOK@atan?$AA@ 00000001802217e8     libucrt:fpexcept.obj
 0002:0000c7f0       ??_C@_05KNGEOGJB@atan2?$AA@ 00000001802217f0     libucrt:fpexcept.obj
 0002:0000c7f8       ??_C@_04EIAKFFMI@sqrt?$AA@ 00000001802217f8     libucrt:fpexcept.obj
 0002:0000c800       ??_C@_04GFPJNGEK@ceil?$AA@ 0000000180221800     libucrt:fpexcept.obj
 0002:0000c808       ??_C@_05PBJFFIGL@floor?$AA@ 0000000180221808     libucrt:fpexcept.obj
 0002:0000c810       ??_C@_04ODHECPBC@fabs?$AA@ 0000000180221810     libucrt:fpexcept.obj
 0002:0000c818       ??_C@_04EHEDPDJG@modf?$AA@ 0000000180221818     libucrt:fpexcept.obj
 0002:0000c820       ??_C@_05CEJMAHNP@ldexp?$AA@ 0000000180221820     libucrt:fpexcept.obj
 0002:0000c828       ??_C@_05KBKMEMPO@_cabs?$AA@ 0000000180221828     libucrt:fpexcept.obj
 0002:0000c830       ??_C@_06MEIMCGCF@_hypot?$AA@ 0000000180221830     libucrt:fpexcept.obj
 0002:0000c838       ??_C@_04KEPJIHGP@fmod?$AA@ 0000000180221838     libucrt:fpexcept.obj
 0002:0000c840       ??_C@_05GKKHEGJL@frexp?$AA@ 0000000180221840     libucrt:fpexcept.obj
 0002:0000c848       ??_C@_03MJLDFKDL@_y0?$AA@  0000000180221848     libucrt:fpexcept.obj
 0002:0000c84c       ??_C@_03NAKIGLHK@_y1?$AA@  000000018022184c     libucrt:fpexcept.obj
 0002:0000c850       ??_C@_03ONILCKOB@_yn?$AA@  0000000180221850     libucrt:fpexcept.obj
 0002:0000c854       ??_C@_05JGDBENOH@_logb?$AA@ 0000000180221854     libucrt:fpexcept.obj
 0002:0000c860       ??_C@_0L@KDOEJCKC@_nextafter?$AA@ 0000000180221860     libucrt:fpexcept.obj
 0002:0000c870       __real@0000000000000000    0000000180221870     libucrt:fpexcept.obj
 0002:0000c880       __xmm@80000000000000008000000000000000 0000000180221880     libucrt:fpexcept.obj
 0002:0000d9bc       ??_C@_15EMKDOKLE@?$AAa?$AAr?$AA?$AA@ 00000001802229bc     libucrt:lcidtoname_downlevel.obj
 0002:0000d9c4       ??_C@_15KNPADPLH@?$AAb?$AAg?$AA?$AA@ 00000001802229c4     libucrt:lcidtoname_downlevel.obj
 0002:0000d9cc       ??_C@_15EDMHLDMO@?$AAc?$AAa?$AA?$AA@ 00000001802229cc     libucrt:lcidtoname_downlevel.obj
 0002:0000d9d8       ??_C@_1O@BPEAJADD@?$AAz?$AAh?$AA?9?$AAC?$AAH?$AAS?$AA?$AA@ 00000001802229d8     libucrt:lcidtoname_downlevel.obj
 0002:0000d9e8       ??_C@_15LJNHCMNK@?$AAc?$AAs?$AA?$AA@ 00000001802229e8     libucrt:lcidtoname_downlevel.obj
 0002:0000d9f0       ??_C@_15FOMCIDHG@?$AAd?$AAa?$AA?$AA@ 00000001802229f0     libucrt:lcidtoname_downlevel.obj
 0002:0000d9f8       ??_C@_15NBKABECB@?$AAd?$AAe?$AA?$AA@ 00000001802229f8     libucrt:lcidtoname_downlevel.obj
 0002:0000da00       ??_C@_15GHPEIIAO@?$AAe?$AAl?$AA?$AA@ 0000000180222a00     libucrt:lcidtoname_downlevel.obj
 0002:0000da08       ??_C@_15MNPNEAIF@?$AAe?$AAn?$AA?$AA@ 0000000180222a08     libucrt:lcidtoname_downlevel.obj
 0002:0000da10       ??_C@_15GPIOMPMH@?$AAe?$AAs?$AA?$AA@ 0000000180222a10     libucrt:lcidtoname_downlevel.obj
 0002:0000da18       ??_C@_15NGLOAKJC@?$AAf?$AAi?$AA?$AA@ 0000000180222a18     libucrt:lcidtoname_downlevel.obj
 0002:0000da20       ??_C@_15FBKGNKAM@?$AAf?$AAr?$AA?$AA@ 0000000180222a20     libucrt:lcidtoname_downlevel.obj
 0002:0000da28       ??_C@_15KGGCNEFK@?$AAh?$AAe?$AA?$AA@ 0000000180222a28     libucrt:lcidtoname_downlevel.obj
 0002:0000da30       ??_C@_15PGHLIDMF@?$AAh?$AAu?$AA?$AA@ 0000000180222a30     libucrt:lcidtoname_downlevel.obj
 0002:0000da38       ??_C@_15BIEMAPLM@?$AAi?$AAs?$AA?$AA@ 0000000180222a38     libucrt:lcidtoname_downlevel.obj
 0002:0000da40       ??_C@_15IFJLDHAF@?$AAi?$AAt?$AA?$AA@ 0000000180222a40     libucrt:lcidtoname_downlevel.obj
 0002:0000da48       ??_C@_15GEMIOCAG@?$AAj?$AAa?$AA?$AA@ 0000000180222a48     libucrt:lcidtoname_downlevel.obj
 0002:0000da50       ??_C@_15EPELEGJA@?$AAk?$AAo?$AA?$AA@ 0000000180222a50     libucrt:lcidtoname_downlevel.obj
 0002:0000da58       ??_C@_15NDDHIMN@?$AAn?$AAl?$AA?$AA@ 0000000180222a58     libucrt:lcidtoname_downlevel.obj
 0002:0000da60       ??_C@_15BPIGNHCD@?$AAn?$AAo?$AA?$AA@ 0000000180222a60     libucrt:lcidtoname_downlevel.obj
 0002:0000da68       ??_C@_15DEOPBLCG@?$AAp?$AAl?$AA?$AA@ 0000000180222a68     libucrt:lcidtoname_downlevel.obj
 0002:0000da70       ??_C@_15KBECGEFG@?$AAp?$AAt?$AA?$AA@ 0000000180222a70     libucrt:lcidtoname_downlevel.obj
 0002:0000da78       ??_C@_15GLJCBFMD@?$AAr?$AAo?$AA?$AA@ 0000000180222a78     libucrt:lcidtoname_downlevel.obj
 0002:0000da80       ??_C@_15FEDGKCDI@?$AAr?$AAu?$AA?$AA@ 0000000180222a80     libucrt:lcidtoname_downlevel.obj
 0002:0000da88       ??_C@_15GLKMLLHM@?$AAh?$AAr?$AA?$AA@ 0000000180222a88     libucrt:lcidtoname_downlevel.obj
 0002:0000da90       ??_C@_15CPKMFBDB@?$AAs?$AAk?$AA?$AA@ 0000000180222a90     libucrt:lcidtoname_downlevel.obj
 0002:0000da98       ??_C@_15BAAIOGMK@?$AAs?$AAq?$AA?$AA@ 0000000180222a98     libucrt:lcidtoname_downlevel.obj
 0002:0000daa0       ??_C@_15INNPNOHD@?$AAs?$AAv?$AA?$AA@ 0000000180222aa0     libucrt:lcidtoname_downlevel.obj
 0002:0000daa8       ??_C@_15CABMMOGH@?$AAt?$AAh?$AA?$AA@ 0000000180222aa8     libucrt:lcidtoname_downlevel.obj
 0002:0000dab0       ??_C@_15BPLIHJJM@?$AAt?$AAr?$AA?$AA@ 0000000180222ab0     libucrt:lcidtoname_downlevel.obj
 0002:0000dab8       ??_C@_15NEOEKKDJ@?$AAu?$AAr?$AA?$AA@ 0000000180222ab8     libucrt:lcidtoname_downlevel.obj
 0002:0000dac0       ??_C@_15NFICGAJK@?$AAi?$AAd?$AA?$AA@ 0000000180222ac0     libucrt:lcidtoname_downlevel.obj
 0002:0000dac8       ??_C@_15PJPFLCCM@?$AAu?$AAk?$AA?$AA@ 0000000180222ac8     libucrt:lcidtoname_downlevel.obj
 0002:0000dad0       ??_C@_15HPJPHDM@?$AAb?$AAe?$AA?$AA@ 0000000180222ad0     libucrt:lcidtoname_downlevel.obj
 0002:0000dad8       ??_C@_15LCHLGJII@?$AAs?$AAl?$AA?$AA@ 0000000180222ad8     libucrt:lcidtoname_downlevel.obj
 0002:0000dae0       ??_C@_15PCFJPHHO@?$AAe?$AAt?$AA?$AA@ 0000000180222ae0     libucrt:lcidtoname_downlevel.obj
 0002:0000dae8       ??_C@_15HPFPGODN@?$AAl?$AAv?$AA?$AA@ 0000000180222ae8     libucrt:lcidtoname_downlevel.obj
 0002:0000daf0       ??_C@_15NFFGKGLG@?$AAl?$AAt?$AA?$AA@ 0000000180222af0     libucrt:lcidtoname_downlevel.obj
 0002:0000daf8       ??_C@_15BDAKCCHN@?$AAf?$AAa?$AA?$AA@ 0000000180222af8     libucrt:lcidtoname_downlevel.obj
 0002:0000db00       ??_C@_15NFGIAIAJ@?$AAv?$AAi?$AA?$AA@ 0000000180222b00     libucrt:lcidtoname_downlevel.obj
 0002:0000db08       ??_C@_15LMKNDMHN@?$AAh?$AAy?$AA?$AA@ 0000000180222b08     libucrt:lcidtoname_downlevel.obj
 0002:0000db10       ??_C@_15IJBHMCFL@?$AAa?$AAz?$AA?$AA@ 0000000180222b10     libucrt:lcidtoname_downlevel.obj
 0002:0000db18       ??_C@_15EKOFJABL@?$AAe?$AAu?$AA?$AA@ 0000000180222b18     libucrt:lcidtoname_downlevel.obj
 0002:0000db20       ??_C@_15BGHADCNK@?$AAm?$AAk?$AA?$AA@ 0000000180222b20     libucrt:lcidtoname_downlevel.obj
 0002:0000db28       ??_C@_15JDNICKHM@?$AAa?$AAf?$AA?$AA@ 0000000180222b28     libucrt:lcidtoname_downlevel.obj
 0002:0000db30       ??_C@_15KPJEDBKD@?$AAk?$AAa?$AA?$AA@ 0000000180222b30     libucrt:lcidtoname_downlevel.obj
 0002:0000db38       ??_C@_15PDNFFFEO@?$AAf?$AAo?$AA?$AA@ 0000000180222b38     libucrt:lcidtoname_downlevel.obj
 0002:0000db40       ??_C@_15OMLEGLOC@?$AAh?$AAi?$AA?$AA@ 0000000180222b40     libucrt:lcidtoname_downlevel.obj
 0002:0000db48       ??_C@_15IDNNENKK@?$AAm?$AAs?$AA?$AA@ 0000000180222b48     libucrt:lcidtoname_downlevel.obj
 0002:0000db50       ??_C@_15MACJNBMH@?$AAk?$AAk?$AA?$AA@ 0000000180222b50     libucrt:lcidtoname_downlevel.obj
 0002:0000db58       ??_C@_15DKDJEOND@?$AAk?$AAy?$AA?$AA@ 0000000180222b58     libucrt:lcidtoname_downlevel.obj
 0002:0000db60       ??_C@_15DFGDLJBG@?$AAs?$AAw?$AA?$AA@ 0000000180222b60     libucrt:lcidtoname_downlevel.obj
 0002:0000db68       ??_C@_15BBFAICNG@?$AAu?$AAz?$AA?$AA@ 0000000180222b68     libucrt:lcidtoname_downlevel.obj
 0002:0000db70       ??_C@_15DKNDCGEA@?$AAt?$AAt?$AA?$AA@ 0000000180222b70     libucrt:lcidtoname_downlevel.obj
 0002:0000db78       ??_C@_15MGIFMDPL@?$AAp?$AAa?$AA?$AA@ 0000000180222b78     libucrt:lcidtoname_downlevel.obj
 0002:0000db80       ??_C@_15HCNDBBA@?$AAg?$AAu?$AA?$AA@ 0000000180222b80     libucrt:lcidtoname_downlevel.obj
 0002:0000db88       ??_C@_15FNBEIBON@?$AAt?$AAa?$AA?$AA@ 0000000180222b88     libucrt:lcidtoname_downlevel.obj
 0002:0000db90       ??_C@_15NCHGBGLK@?$AAt?$AAe?$AA?$AA@ 0000000180222b90     libucrt:lcidtoname_downlevel.obj
 0002:0000db98       ??_C@_15PHPHCBPF@?$AAk?$AAn?$AA?$AA@ 0000000180222b98     libucrt:lcidtoname_downlevel.obj
 0002:0000dba0       ??_C@_15DLGBCKMP@?$AAm?$AAr?$AA?$AA@ 0000000180222ba0     libucrt:lcidtoname_downlevel.obj
 0002:0000dba8       ??_C@_15EABBLBFF@?$AAs?$AAa?$AA?$AA@ 0000000180222ba8     libucrt:lcidtoname_downlevel.obj
 0002:0000dbb0       ??_C@_15CBKOMCOI@?$AAm?$AAn?$AA?$AA@ 0000000180222bb0     libucrt:lcidtoname_downlevel.obj
 0002:0000dbb8       ??_C@_15CKDMCJAF@?$AAg?$AAl?$AA?$AA@ 0000000180222bb8     libucrt:lcidtoname_downlevel.obj
 0002:0000dbc0       ??_C@_17CNJFBPG@?$AAk?$AAo?$AAk?$AA?$AA@ 0000000180222bc0     libucrt:lcidtoname_downlevel.obj
 0002:0000dbd0       ??_C@_17FFBJICPL@?$AAs?$AAy?$AAr?$AA?$AA@ 0000000180222bd0     libucrt:lcidtoname_downlevel.obj
 0002:0000dbe0       ??_C@_17KPNDCPAF@?$AAd?$AAi?$AAv?$AA?$AA@ 0000000180222be0     libucrt:lcidtoname_downlevel.obj
 0002:0000dbec       ??_C@_11LOCGONAA@?$AA?$AA@ 0000000180222bec     libucrt:lcidtoname_downlevel.obj
 0002:0000dbf0       ??_C@_1M@OKAHONE@?$AAa?$AAr?$AA?9?$AAS?$AAA?$AA?$AA@ 0000000180222bf0     libucrt:lcidtoname_downlevel.obj
 0002:0000dc00       ??_C@_1M@FFFIGIGK@?$AAb?$AAg?$AA?9?$AAB?$AAG?$AA?$AA@ 0000000180222c00     libucrt:lcidtoname_downlevel.obj
 0002:0000dc10       ??_C@_1M@BJNKEDC@?$AAc?$AAa?$AA?9?$AAE?$AAS?$AA?$AA@ 0000000180222c10     libucrt:lcidtoname_downlevel.obj
 0002:0000dc20       ??_C@_1M@IJJHFJHA@?$AAc?$AAs?$AA?9?$AAC?$AAZ?$AA?$AA@ 0000000180222c20     libucrt:lcidtoname_downlevel.obj
 0002:0000dc30       ??_C@_1M@CLPEOBGI@?$AAd?$AAa?$AA?9?$AAD?$AAK?$AA?$AA@ 0000000180222c30     libucrt:lcidtoname_downlevel.obj
 0002:0000dc40       ??_C@_1M@MCMADGCB@?$AAd?$AAe?$AA?9?$AAD?$AAE?$AA?$AA@ 0000000180222c40     libucrt:lcidtoname_downlevel.obj
 0002:0000dc50       ??_C@_1M@OOCKEMAM@?$AAe?$AAl?$AA?9?$AAG?$AAR?$AA?$AA@ 0000000180222c50     libucrt:lcidtoname_downlevel.obj
 0002:0000dc60       ??_C@_1M@DDNJFGID@?$AAf?$AAi?$AA?9?$AAF?$AAI?$AA?$AA@ 0000000180222c60     libucrt:lcidtoname_downlevel.obj
 0002:0000dc70       ??_C@_1M@GLIPPMAC@?$AAf?$AAr?$AA?9?$AAF?$AAR?$AA?$AA@ 0000000180222c70     libucrt:lcidtoname_downlevel.obj
 0002:0000dc80       ??_C@_1M@GFMCHPE@?$AAh?$AAe?$AA?9?$AAI?$AAL?$AA?$AA@ 0000000180222c80     libucrt:lcidtoname_downlevel.obj
 0002:0000dc90       ??_C@_1M@MHLPGNKM@?$AAh?$AAu?$AA?9?$AAH?$AAU?$AA?$AA@ 0000000180222c90     libucrt:lcidtoname_downlevel.obj
 0002:0000dca0       ??_C@_1M@LPDDNNPN@?$AAi?$AAs?$AA?9?$AAI?$AAS?$AA?$AA@ 0000000180222ca0     libucrt:lcidtoname_downlevel.obj
 0002:0000dcb0       ??_C@_1M@MADIPODN@?$AAi?$AAt?$AA?9?$AAI?$AAT?$AA?$AA@ 0000000180222cb0     libucrt:lcidtoname_downlevel.obj
 0002:0000dcc0       ??_C@_1M@IHBJJGG@?$AAn?$AAl?$AA?9?$AAN?$AAL?$AA?$AA@ 0000000180222cc0     libucrt:lcidtoname_downlevel.obj
 0002:0000dcd0       ??_C@_1M@EANAGDL@?$AAn?$AAb?$AA?9?$AAN?$AAO?$AA?$AA@ 0000000180222cd0     libucrt:lcidtoname_downlevel.obj
 0002:0000dce0       ??_C@_1M@NEIEMEGP@?$AAp?$AAl?$AA?9?$AAP?$AAL?$AA?$AA@ 0000000180222ce0     libucrt:lcidtoname_downlevel.obj
 0002:0000dcf0       ??_C@_1M@BOCFIGEP@?$AAp?$AAt?$AA?9?$AAB?$AAR?$AA?$AA@ 0000000180222cf0     libucrt:lcidtoname_downlevel.obj
 0002:0000dd00       ??_C@_1M@IMPFOPBG@?$AAr?$AAo?$AA?9?$AAR?$AAO?$AA?$AA@ 0000000180222d00     libucrt:lcidtoname_downlevel.obj
 0002:0000dd10       ??_C@_1M@IDNNEJMM@?$AAr?$AAu?$AA?9?$AAR?$AAU?$AA?$AA@ 0000000180222d10     libucrt:lcidtoname_downlevel.obj
 0002:0000dd20       ??_C@_1M@LILEEOGM@?$AAh?$AAr?$AA?9?$AAH?$AAR?$AA?$AA@ 0000000180222d20     libucrt:lcidtoname_downlevel.obj
 0002:0000dd30       ??_C@_1M@FKIFEHPB@?$AAs?$AAk?$AA?9?$AAS?$AAK?$AA?$AA@ 0000000180222d30     libucrt:lcidtoname_downlevel.obj
 0002:0000dd40       ??_C@_1M@LJMAMNPJ@?$AAs?$AAq?$AA?9?$AAA?$AAL?$AA?$AA@ 0000000180222d40     libucrt:lcidtoname_downlevel.obj
 0002:0000dd50       ??_C@_1M@GIAKDKJK@?$AAs?$AAv?$AA?9?$AAS?$AAE?$AA?$AA@ 0000000180222d50     libucrt:lcidtoname_downlevel.obj
 0002:0000dd60       ??_C@_1M@MKJKIKCL@?$AAt?$AAh?$AA?9?$AAT?$AAH?$AA?$AA@ 0000000180222d60     libucrt:lcidtoname_downlevel.obj
 0002:0000dd70       ??_C@_1M@MFLCCMPB@?$AAt?$AAr?$AA?9?$AAT?$AAR?$AA?$AA@ 0000000180222d70     libucrt:lcidtoname_downlevel.obj
 0002:0000dd80       ??_C@_1M@OIJHDKJN@?$AAu?$AAr?$AA?9?$AAP?$AAK?$AA?$AA@ 0000000180222d80     libucrt:lcidtoname_downlevel.obj
 0002:0000dd90       ??_C@_1M@LHIPCIEK@?$AAi?$AAd?$AA?9?$AAI?$AAD?$AA?$AA@ 0000000180222d90     libucrt:lcidtoname_downlevel.obj
 0002:0000dda0       ??_C@_1M@MFMOBGI@?$AAu?$AAk?$AA?9?$AAU?$AAA?$AA?$AA@ 0000000180222da0     libucrt:lcidtoname_downlevel.obj
 0002:0000ddb0       ??_C@_1M@OBGLJIPL@?$AAb?$AAe?$AA?9?$AAB?$AAY?$AA?$AA@ 0000000180222db0     libucrt:lcidtoname_downlevel.obj
 0002:0000ddc0       ??_C@_1M@BCFAJEAD@?$AAs?$AAl?$AA?9?$AAS?$AAI?$AA?$AA@ 0000000180222dc0     libucrt:lcidtoname_downlevel.obj
 0002:0000ddd0       ??_C@_1M@FKFFEDDN@?$AAe?$AAt?$AA?9?$AAE?$AAE?$AA?$AA@ 0000000180222dd0     libucrt:lcidtoname_downlevel.obj
 0002:0000dde0       ??_C@_1M@KGKKAACI@?$AAl?$AAv?$AA?9?$AAL?$AAV?$AA?$AA@ 0000000180222de0     libucrt:lcidtoname_downlevel.obj
 0002:0000ddf0       ??_C@_1M@IFGBIJO@?$AAl?$AAt?$AA?9?$AAL?$AAT?$AA?$AA@ 0000000180222df0     libucrt:lcidtoname_downlevel.obj
 0002:0000de00       ??_C@_1M@FGEAHEDM@?$AAf?$AAa?$AA?9?$AAI?$AAR?$AA?$AA@ 0000000180222e00     libucrt:lcidtoname_downlevel.obj
 0002:0000de10       ??_C@_1M@KBMAIBFN@?$AAv?$AAi?$AA?9?$AAV?$AAN?$AA?$AA@ 0000000180222e10     libucrt:lcidtoname_downlevel.obj
 0002:0000de20       ??_C@_1M@GPCBKDJK@?$AAh?$AAy?$AA?9?$AAA?$AAM?$AA?$AA@ 0000000180222e20     libucrt:lcidtoname_downlevel.obj
 0002:0000de30       ??_C@_1BG@BECMDDJB@?$AAa?$AAz?$AA?9?$AAA?$AAZ?$AA?9?$AAL?$AAa?$AAt?$AAn?$AA?$AA@ 0000000180222e30     libucrt:lcidtoname_downlevel.obj
 0002:0000de50       ??_C@_1M@MAOFCAEA@?$AAe?$AAu?$AA?9?$AAE?$AAS?$AA?$AA@ 0000000180222e50     libucrt:lcidtoname_downlevel.obj
 0002:0000de60       ??_C@_1M@IGHABKPI@?$AAm?$AAk?$AA?9?$AAM?$AAK?$AA?$AA@ 0000000180222e60     libucrt:lcidtoname_downlevel.obj
 0002:0000de70       ??_C@_1M@IAIGNEJG@?$AAt?$AAn?$AA?9?$AAZ?$AAA?$AA?$AA@ 0000000180222e70     libucrt:lcidtoname_downlevel.obj
 0002:0000de80       ??_C@_1M@IIJCOJFA@?$AAx?$AAh?$AA?9?$AAZ?$AAA?$AA?$AA@ 0000000180222e80     libucrt:lcidtoname_downlevel.obj
 0002:0000de90       ??_C@_1M@LGPJHNJH@?$AAz?$AAu?$AA?9?$AAZ?$AAA?$AA?$AA@ 0000000180222e90     libucrt:lcidtoname_downlevel.obj
 0002:0000dea0       ??_C@_1M@HOKAOIO@?$AAa?$AAf?$AA?9?$AAZ?$AAA?$AA?$AA@ 0000000180222ea0     libucrt:lcidtoname_downlevel.obj
 0002:0000deb0       ??_C@_1M@DPCLHLIE@?$AAk?$AAa?$AA?9?$AAG?$AAE?$AA?$AA@ 0000000180222eb0     libucrt:lcidtoname_downlevel.obj
 0002:0000dec0       ??_C@_1M@BLKMHJBI@?$AAf?$AAo?$AA?9?$AAF?$AAO?$AA?$AA@ 0000000180222ec0     libucrt:lcidtoname_downlevel.obj
 0002:0000ded0       ??_C@_1M@LGGJAPPB@?$AAh?$AAi?$AA?9?$AAI?$AAN?$AA?$AA@ 0000000180222ed0     libucrt:lcidtoname_downlevel.obj
 0002:0000dee0       ??_C@_1M@FIKPIHFE@?$AAm?$AAt?$AA?9?$AAM?$AAT?$AA?$AA@ 0000000180222ee0     libucrt:lcidtoname_downlevel.obj
 0002:0000def0       ??_C@_1M@HEGGPBFA@?$AAs?$AAe?$AA?9?$AAN?$AAO?$AA?$AA@ 0000000180222ef0     libucrt:lcidtoname_downlevel.obj
 0002:0000df00       ??_C@_1M@EIBJEEPA@?$AAm?$AAs?$AA?9?$AAM?$AAY?$AA?$AA@ 0000000180222f00     libucrt:lcidtoname_downlevel.obj
 0002:0000df10       ??_C@_1M@FHLBGMPP@?$AAk?$AAk?$AA?9?$AAK?$AAZ?$AA?$AA@ 0000000180222f10     libucrt:lcidtoname_downlevel.obj
 0002:0000df20       ??_C@_1M@NGJJLCGI@?$AAk?$AAy?$AA?9?$AAK?$AAG?$AA?$AA@ 0000000180222f20     libucrt:lcidtoname_downlevel.obj
 0002:0000df30       ??_C@_1M@GIENNBFC@?$AAs?$AAw?$AA?9?$AAK?$AAE?$AA?$AA@ 0000000180222f30     libucrt:lcidtoname_downlevel.obj
 0002:0000df40       ??_C@_1BG@NDGMJIMJ@?$AAu?$AAz?$AA?9?$AAU?$AAZ?$AA?9?$AAL?$AAa?$AAt?$AAn?$AA?$AA@ 0000000180222f40     libucrt:lcidtoname_downlevel.obj
 0002:0000df60       ??_C@_1M@IDCCIHBC@?$AAt?$AAt?$AA?9?$AAR?$AAU?$AA?$AA@ 0000000180222f60     libucrt:lcidtoname_downlevel.obj
 0002:0000df70       ??_C@_1M@LOICPMOJ@?$AAb?$AAn?$AA?9?$AAI?$AAN?$AA?$AA@ 0000000180222f70     libucrt:lcidtoname_downlevel.obj
 0002:0000df80       ??_C@_1M@KPKKNEAH@?$AAp?$AAa?$AA?9?$AAI?$AAN?$AA?$AA@ 0000000180222f80     libucrt:lcidtoname_downlevel.obj
 0002:0000df90       ??_C@_1M@PJGPPBOG@?$AAg?$AAu?$AA?9?$AAI?$AAN?$AA?$AA@ 0000000180222f90     libucrt:lcidtoname_downlevel.obj
 0002:0000dfa0       ??_C@_1M@KMKMOPHI@?$AAt?$AAa?$AA?9?$AAI?$AAN?$AA?$AA@ 0000000180222fa0     libucrt:lcidtoname_downlevel.obj
 0002:0000dfb0       ??_C@_1M@KFEHEPAC@?$AAt?$AAe?$AA?9?$AAI?$AAN?$AA?$AA@ 0000000180222fb0     libucrt:lcidtoname_downlevel.obj
 0002:0000dfc0       ??_C@_1M@CDCLMGHI@?$AAk?$AAn?$AA?9?$AAI?$AAN?$AA?$AA@ 0000000180222fc0     libucrt:lcidtoname_downlevel.obj
 0002:0000dfd0       ??_C@_1M@MIODLDKF@?$AAm?$AAl?$AA?9?$AAI?$AAN?$AA?$AA@ 0000000180222fd0     libucrt:lcidtoname_downlevel.obj
 0002:0000dfe0       ??_C@_1M@PBIEACPO@?$AAm?$AAr?$AA?9?$AAI?$AAN?$AA?$AA@ 0000000180222fe0     libucrt:lcidtoname_downlevel.obj
 0002:0000dff0       ??_C@_1M@NIDEAGPH@?$AAs?$AAa?$AA?9?$AAI?$AAN?$AA?$AA@ 0000000180222ff0     libucrt:lcidtoname_downlevel.obj
 0002:0000e000       ??_C@_1M@FHIHCBIO@?$AAm?$AAn?$AA?9?$AAM?$AAN?$AA?$AA@ 0000000180223000     libucrt:lcidtoname_downlevel.obj
 0002:0000e010       ??_C@_1M@JAIJPENP@?$AAc?$AAy?$AA?9?$AAG?$AAB?$AA?$AA@ 0000000180223010     libucrt:lcidtoname_downlevel.obj
 0002:0000e020       ??_C@_1M@PHGFBEPN@?$AAg?$AAl?$AA?9?$AAE?$AAS?$AA?$AA@ 0000000180223020     libucrt:lcidtoname_downlevel.obj
 0002:0000e030       ??_C@_1O@KPIPDNCP@?$AAk?$AAo?$AAk?$AA?9?$AAI?$AAN?$AA?$AA@ 0000000180223030     libucrt:lcidtoname_downlevel.obj
 0002:0000e040       ??_C@_1O@KNHJLDJA@?$AAs?$AAy?$AAr?$AA?9?$AAS?$AAY?$AA?$AA@ 0000000180223040     libucrt:lcidtoname_downlevel.obj
 0002:0000e050       ??_C@_1O@MKEKBLAH@?$AAd?$AAi?$AAv?$AA?9?$AAM?$AAV?$AA?$AA@ 0000000180223050     libucrt:lcidtoname_downlevel.obj
 0002:0000e060       ??_C@_1O@OHDCKDDF@?$AAq?$AAu?$AAz?$AA?9?$AAB?$AAO?$AA?$AA@ 0000000180223060     libucrt:lcidtoname_downlevel.obj
 0002:0000e070       ??_C@_1M@LEPJNLFD@?$AAn?$AAs?$AA?9?$AAZ?$AAA?$AA?$AA@ 0000000180223070     libucrt:lcidtoname_downlevel.obj
 0002:0000e080       ??_C@_1M@OMLEIIJB@?$AAm?$AAi?$AA?9?$AAN?$AAZ?$AA?$AA@ 0000000180223080     libucrt:lcidtoname_downlevel.obj
 0002:0000e090       ??_C@_1M@PMPEAILG@?$AAa?$AAr?$AA?9?$AAI?$AAQ?$AA?$AA@ 0000000180223090     libucrt:lcidtoname_downlevel.obj
 0002:0000e0a0       ??_C@_1M@CNKPNOEE@?$AAd?$AAe?$AA?9?$AAC?$AAH?$AA?$AA@ 00000001802230a0     libucrt:lcidtoname_downlevel.obj
 0002:0000e0b0       ??_C@_1M@LKMGMLKO@?$AAe?$AAn?$AA?9?$AAG?$AAB?$AA?$AA@ 00000001802230b0     libucrt:lcidtoname_downlevel.obj
 0002:0000e0c0       ??_C@_1M@PGKJFFGL@?$AAe?$AAs?$AA?9?$AAM?$AAX?$AA?$AA@ 00000001802230c0     libucrt:lcidtoname_downlevel.obj
 0002:0000e0d0       ??_C@_1M@DNNANBDC@?$AAf?$AAr?$AA?9?$AAB?$AAE?$AA?$AA@ 00000001802230d0     libucrt:lcidtoname_downlevel.obj
 0002:0000e0e0       ??_C@_1M@HLGMDFHM@?$AAi?$AAt?$AA?9?$AAC?$AAH?$AA?$AA@ 00000001802230e0     libucrt:lcidtoname_downlevel.obj
 0002:0000e0f0       ??_C@_1M@CLLBGJH@?$AAn?$AAl?$AA?9?$AAB?$AAE?$AA?$AA@ 00000001802230f0     libucrt:lcidtoname_downlevel.obj
 0002:0000e100       ??_C@_1M@BODBOGLF@?$AAn?$AAn?$AA?9?$AAN?$AAO?$AA?$AA@ 0000000180223100     libucrt:lcidtoname_downlevel.obj
 0002:0000e110       ??_C@_1M@HFFAHKAD@?$AAp?$AAt?$AA?9?$AAP?$AAT?$AA?$AA@ 0000000180223110     libucrt:lcidtoname_downlevel.obj
 0002:0000e120       ??_C@_1BG@LNOAKHIE@?$AAs?$AAr?$AA?9?$AAS?$AAP?$AA?9?$AAL?$AAa?$AAt?$AAn?$AA?$AA@ 0000000180223120     libucrt:lcidtoname_downlevel.obj
 0002:0000e140       ??_C@_1M@HBMHBGAK@?$AAs?$AAv?$AA?9?$AAF?$AAI?$AA?$AA@ 0000000180223140     libucrt:lcidtoname_downlevel.obj
 0002:0000e150       ??_C@_1BG@DGCJGJBE@?$AAa?$AAz?$AA?9?$AAA?$AAZ?$AA?9?$AAC?$AAy?$AAr?$AAl?$AA?$AA@ 0000000180223150     libucrt:lcidtoname_downlevel.obj
 0002:0000e170       ??_C@_1M@KEJDAAHB@?$AAs?$AAe?$AA?9?$AAS?$AAE?$AA?$AA@ 0000000180223170     libucrt:lcidtoname_downlevel.obj
 0002:0000e180       ??_C@_1M@HEIBJJAD@?$AAm?$AAs?$AA?9?$AAB?$AAN?$AA?$AA@ 0000000180223180     libucrt:lcidtoname_downlevel.obj
 0002:0000e190       ??_C@_1BG@PBGJMCEM@?$AAu?$AAz?$AA?9?$AAU?$AAZ?$AA?9?$AAC?$AAy?$AAr?$AAl?$AA?$AA@ 0000000180223190     libucrt:lcidtoname_downlevel.obj
 0002:0000e1b0       ??_C@_1O@LAOBCMDF@?$AAq?$AAu?$AAz?$AA?9?$AAE?$AAC?$AA?$AA@ 00000001802231b0     libucrt:lcidtoname_downlevel.obj
 0002:0000e1c0       ??_C@_1M@POEEMAIO@?$AAa?$AAr?$AA?9?$AAE?$AAG?$AA?$AA@ 00000001802231c0     libucrt:lcidtoname_downlevel.obj
 0002:0000e1d0       ??_C@_1M@EFAKDEDL@?$AAz?$AAh?$AA?9?$AAH?$AAK?$AA?$AA@ 00000001802231d0     libucrt:lcidtoname_downlevel.obj
 0002:0000e1e0       ??_C@_1M@HKKIJHGI@?$AAd?$AAe?$AA?9?$AAA?$AAT?$AA?$AA@ 00000001802231e0     libucrt:lcidtoname_downlevel.obj
 0002:0000e1f0       ??_C@_1M@KBFBEHJF@?$AAe?$AAn?$AA?9?$AAA?$AAU?$AA?$AA@ 00000001802231f0     libucrt:lcidtoname_downlevel.obj
 0002:0000e200       ??_C@_1M@MNPLFAAH@?$AAe?$AAs?$AA?9?$AAE?$AAS?$AA?$AA@ 0000000180223200     libucrt:lcidtoname_downlevel.obj
 0002:0000e210       ??_C@_1M@HJOOJFMA@?$AAf?$AAr?$AA?9?$AAC?$AAA?$AA?$AA@ 0000000180223210     libucrt:lcidtoname_downlevel.obj
 0002:0000e220       ??_C@_1BG@JPOFPNAB@?$AAs?$AAr?$AA?9?$AAS?$AAP?$AA?9?$AAC?$AAy?$AAr?$AAl?$AA?$AA@ 0000000180223220     libucrt:lcidtoname_downlevel.obj
 0002:0000e240       ??_C@_1M@LNFOCMOB@?$AAs?$AAe?$AA?9?$AAF?$AAI?$AA?$AA@ 0000000180223240     libucrt:lcidtoname_downlevel.obj
 0002:0000e250       ??_C@_1O@MGJBOAMB@?$AAq?$AAu?$AAz?$AA?9?$AAP?$AAE?$AA?$AA@ 0000000180223250     libucrt:lcidtoname_downlevel.obj
 0002:0000e260       ??_C@_1M@GJINLBOK@?$AAa?$AAr?$AA?9?$AAL?$AAY?$AA?$AA@ 0000000180223260     libucrt:lcidtoname_downlevel.obj
 0002:0000e270       ??_C@_1M@GGMNHJNL@?$AAz?$AAh?$AA?9?$AAS?$AAG?$AA?$AA@ 0000000180223270     libucrt:lcidtoname_downlevel.obj
 0002:0000e280       ??_C@_1M@HOIKODND@?$AAd?$AAe?$AA?9?$AAL?$AAU?$AA?$AA@ 0000000180223280     libucrt:lcidtoname_downlevel.obj
 0002:0000e290       ??_C@_1M@DDOCCGFG@?$AAe?$AAn?$AA?9?$AAC?$AAA?$AA?$AA@ 0000000180223290     libucrt:lcidtoname_downlevel.obj
 0002:0000e2a0       ??_C@_1M@BNOEMJLF@?$AAe?$AAs?$AA?9?$AAG?$AAT?$AA?$AA@ 00000001802232a0     libucrt:lcidtoname_downlevel.obj
 0002:0000e2b0       ??_C@_1M@EOGNKEK@?$AAf?$AAr?$AA?9?$AAC?$AAH?$AA?$AA@ 00000001802232b0     libucrt:lcidtoname_downlevel.obj
 0002:0000e2c0       ??_C@_1M@FLIDJFHL@?$AAh?$AAr?$AA?9?$AAB?$AAA?$AA?$AA@ 00000001802232c0     libucrt:lcidtoname_downlevel.obj
 0002:0000e2d0       ??_C@_1O@FMCELNAJ@?$AAs?$AAm?$AAj?$AA?9?$AAN?$AAO?$AA?$AA@ 00000001802232d0     libucrt:lcidtoname_downlevel.obj
 0002:0000e2e0       ??_C@_1M@JHGLJMGJ@?$AAa?$AAr?$AA?9?$AAD?$AAZ?$AA?$AA@ 00000001802232e0     libucrt:lcidtoname_downlevel.obj
 0002:0000e2f0       ??_C@_1M@JKKFDCNP@?$AAz?$AAh?$AA?9?$AAM?$AAO?$AA?$AA@ 00000001802232f0     libucrt:lcidtoname_downlevel.obj
 0002:0000e300       ??_C@_1M@GEEFALPE@?$AAd?$AAe?$AA?9?$AAL?$AAI?$AA?$AA@ 0000000180223300     libucrt:lcidtoname_downlevel.obj
 0002:0000e310       ??_C@_1M@IGEOFBG@?$AAe?$AAn?$AA?9?$AAN?$AAZ?$AA?$AA@ 0000000180223310     libucrt:lcidtoname_downlevel.obj
 0002:0000e320       ??_C@_1M@KDBONEHP@?$AAe?$AAs?$AA?9?$AAC?$AAR?$AA?$AA@ 0000000180223320     libucrt:lcidtoname_downlevel.obj
 0002:0000e330       ??_C@_1M@FHMDOHNN@?$AAf?$AAr?$AA?9?$AAL?$AAU?$AA?$AA@ 0000000180223330     libucrt:lcidtoname_downlevel.obj
 0002:0000e340       ??_C@_1BG@NFKKMAFG@?$AAb?$AAs?$AA?9?$AAB?$AAA?$AA?9?$AAL?$AAa?$AAt?$AAn?$AA?$AA@ 0000000180223340     libucrt:lcidtoname_downlevel.obj
 0002:0000e360       ??_C@_1O@IMNBEMCI@?$AAs?$AAm?$AAj?$AA?9?$AAS?$AAE?$AA?$AA@ 0000000180223360     libucrt:lcidtoname_downlevel.obj
 0002:0000e370       ??_C@_1M@DHHMBNDP@?$AAa?$AAr?$AA?9?$AAM?$AAA?$AA?$AA@ 0000000180223370     libucrt:lcidtoname_downlevel.obj
 0002:0000e380       ??_C@_1M@BNBLJCGH@?$AAe?$AAn?$AA?9?$AAI?$AAE?$AA?$AA@ 0000000180223380     libucrt:lcidtoname_downlevel.obj
 0002:0000e390       ??_C@_1M@GEPAFMDL@?$AAe?$AAs?$AA?9?$AAP?$AAA?$AA?$AA@ 0000000180223390     libucrt:lcidtoname_downlevel.obj
 0002:0000e3a0       ??_C@_1M@OJONDMDL@?$AAf?$AAr?$AA?9?$AAM?$AAC?$AA?$AA@ 00000001802233a0     libucrt:lcidtoname_downlevel.obj
 0002:0000e3b0       ??_C@_1BG@OBCNFJB@?$AAs?$AAr?$AA?9?$AAB?$AAA?$AA?9?$AAL?$AAa?$AAt?$AAn?$AA?$AA@ 00000001802233b0     libucrt:lcidtoname_downlevel.obj
 0002:0000e3d0       ??_C@_1O@KEMEEGPO@?$AAs?$AAm?$AAa?$AA?9?$AAN?$AAO?$AA?$AA@ 00000001802233d0     libucrt:lcidtoname_downlevel.obj
 0002:0000e3e0       ??_C@_1M@ELMGFODK@?$AAa?$AAr?$AA?9?$AAT?$AAN?$AA?$AA@ 00000001802233e0     libucrt:lcidtoname_downlevel.obj
 0002:0000e3f0       ??_C@_1M@BHDLHFAF@?$AAe?$AAn?$AA?9?$AAZ?$AAA?$AA?$AA@ 00000001802233f0     libucrt:lcidtoname_downlevel.obj
 0002:0000e400       ??_C@_1M@BMGIGLIF@?$AAe?$AAs?$AA?9?$AAD?$AAO?$AA?$AA@ 0000000180223400     libucrt:lcidtoname_downlevel.obj
 0002:0000e410       ??_C@_1BG@CMBHIPBE@?$AAs?$AAr?$AA?9?$AAB?$AAA?$AA?9?$AAC?$AAy?$AAr?$AAl?$AA?$AA@ 0000000180223410     libucrt:lcidtoname_downlevel.obj
 0002:0000e430       ??_C@_1O@HEDBLHNP@?$AAs?$AAm?$AAa?$AA?9?$AAS?$AAE?$AA?$AA@ 0000000180223430     libucrt:lcidtoname_downlevel.obj
 0002:0000e440       ??_C@_1M@DAGCADIM@?$AAa?$AAr?$AA?9?$AAO?$AAM?$AA?$AA@ 0000000180223440     libucrt:lcidtoname_downlevel.obj
 0002:0000e450       ??_C@_1M@FODLMICG@?$AAe?$AAn?$AA?9?$AAJ?$AAM?$AA?$AA@ 0000000180223450     libucrt:lcidtoname_downlevel.obj
 0002:0000e460       ??_C@_1M@DNMLCIHB@?$AAe?$AAs?$AA?9?$AAV?$AAE?$AA?$AA@ 0000000180223460     libucrt:lcidtoname_downlevel.obj
 0002:0000e470       ??_C@_1O@EOKHMKJK@?$AAs?$AAm?$AAs?$AA?9?$AAF?$AAI?$AA?$AA@ 0000000180223470     libucrt:lcidtoname_downlevel.obj
 0002:0000e480       ??_C@_1M@CAFJMKOF@?$AAa?$AAr?$AA?9?$AAY?$AAE?$AA?$AA@ 0000000180223480     libucrt:lcidtoname_downlevel.obj
 0002:0000e490       ??_C@_1M@CBFHIJLI@?$AAe?$AAn?$AA?9?$AAC?$AAB?$AA?$AA@ 0000000180223490     libucrt:lcidtoname_downlevel.obj
 0002:0000e4a0       ??_C@_1M@BGNFLDN@?$AAe?$AAs?$AA?9?$AAC?$AAO?$AA?$AA@ 00000001802234a0     libucrt:lcidtoname_downlevel.obj
 0002:0000e4b0       ??_C@_1O@JMPHMAMC@?$AAs?$AAm?$AAn?$AA?9?$AAF?$AAI?$AA?$AA@ 00000001802234b0     libucrt:lcidtoname_downlevel.obj
 0002:0000e4c0       ??_C@_1M@JLANABKE@?$AAa?$AAr?$AA?9?$AAS?$AAY?$AA?$AA@ 00000001802234c0     libucrt:lcidtoname_downlevel.obj
 0002:0000e4d0       ??_C@_1M@HPKGCFGN@?$AAe?$AAn?$AA?9?$AAB?$AAZ?$AA?$AA@ 00000001802234d0     libucrt:lcidtoname_downlevel.obj
 0002:0000e4e0       ??_C@_1M@OLJCMLGM@?$AAe?$AAs?$AA?9?$AAP?$AAE?$AA?$AA@ 00000001802234e0     libucrt:lcidtoname_downlevel.obj
 0002:0000e4f0       ??_C@_1M@MKKGFKLE@?$AAa?$AAr?$AA?9?$AAJ?$AAO?$AA?$AA@ 00000001802234f0     libucrt:lcidtoname_downlevel.obj
 0002:0000e500       ??_C@_1M@EKPGLDNI@?$AAe?$AAn?$AA?9?$AAT?$AAT?$AA?$AA@ 0000000180223500     libucrt:lcidtoname_downlevel.obj
 0002:0000e510       ??_C@_1M@OONGHFHE@?$AAe?$AAs?$AA?9?$AAA?$AAR?$AA?$AA@ 0000000180223510     libucrt:lcidtoname_downlevel.obj
 0002:0000e520       ??_C@_1M@OOJFGBHE@?$AAa?$AAr?$AA?9?$AAL?$AAB?$AA?$AA@ 0000000180223520     libucrt:lcidtoname_downlevel.obj
 0002:0000e530       ??_C@_1M@GCEJHNEG@?$AAe?$AAn?$AA?9?$AAZ?$AAW?$AA?$AA@ 0000000180223530     libucrt:lcidtoname_downlevel.obj
 0002:0000e540       ??_C@_1M@JNOCAHJI@?$AAe?$AAs?$AA?9?$AAE?$AAC?$AA?$AA@ 0000000180223540     libucrt:lcidtoname_downlevel.obj
 0002:0000e550       ??_C@_1M@JEFHPGGB@?$AAa?$AAr?$AA?9?$AAK?$AAW?$AA?$AA@ 0000000180223550     libucrt:lcidtoname_downlevel.obj
 0002:0000e560       ??_C@_1M@MLKIBJOJ@?$AAe?$AAn?$AA?9?$AAP?$AAH?$AA?$AA@ 0000000180223560     libucrt:lcidtoname_downlevel.obj
 0002:0000e570       ??_C@_1M@BDNIPEND@?$AAe?$AAs?$AA?9?$AAC?$AAL?$AA?$AA@ 0000000180223570     libucrt:lcidtoname_downlevel.obj
 0002:0000e580       ??_C@_1M@MPNMEKBD@?$AAa?$AAr?$AA?9?$AAA?$AAE?$AA?$AA@ 0000000180223580     libucrt:lcidtoname_downlevel.obj
 0002:0000e590       ??_C@_1M@KBJALCPI@?$AAe?$AAs?$AA?9?$AAU?$AAY?$AA?$AA@ 0000000180223590     libucrt:lcidtoname_downlevel.obj
 0002:0000e5a0       ??_C@_1M@LLCCOAGA@?$AAa?$AAr?$AA?9?$AAB?$AAH?$AA?$AA@ 00000001802235a0     libucrt:lcidtoname_downlevel.obj
 0002:0000e5b0       ??_C@_1M@PBFNCDEL@?$AAe?$AAs?$AA?9?$AAP?$AAY?$AA?$AA@ 00000001802235b0     libucrt:lcidtoname_downlevel.obj
 0002:0000e5c0       ??_C@_1M@EDGINPNP@?$AAa?$AAr?$AA?9?$AAQ?$AAA?$AA?$AA@ 00000001802235c0     libucrt:lcidtoname_downlevel.obj
 0002:0000e5d0       ??_C@_1M@MKDBIIJI@?$AAe?$AAs?$AA?9?$AAB?$AAO?$AA?$AA@ 00000001802235d0     libucrt:lcidtoname_downlevel.obj
 0002:0000e5e0       ??_C@_1M@CPKKEBLD@?$AAe?$AAs?$AA?9?$AAS?$AAV?$AA?$AA@ 00000001802235e0     libucrt:lcidtoname_downlevel.obj
 0002:0000e5f0       ??_C@_1M@NDBGMMJL@?$AAe?$AAs?$AA?9?$AAH?$AAN?$AA?$AA@ 00000001802235f0     libucrt:lcidtoname_downlevel.obj
 0002:0000e600       ??_C@_1M@JIJIBHDP@?$AAe?$AAs?$AA?9?$AAN?$AAI?$AA?$AA@ 0000000180223600     libucrt:lcidtoname_downlevel.obj
 0002:0000e610       ??_C@_1M@CGFMKEEK@?$AAe?$AAs?$AA?9?$AAP?$AAR?$AA?$AA@ 0000000180223610     libucrt:lcidtoname_downlevel.obj
 0002:0000e620       ??_C@_1O@ICJHKIIK@?$AAz?$AAh?$AA?9?$AAC?$AAH?$AAT?$AA?$AA@ 0000000180223620     libucrt:lcidtoname_downlevel.obj
 0002:0000e630       ??_C@_15CLNEJCE@?$AAs?$AAr?$AA?$AA@ 0000000180223630     libucrt:lcidtoname_downlevel.obj
 0002:0000f760       ??_C@_1M@KAHEKEIG@?$AAa?$AAf?$AA?9?$AAz?$AAa?$AA?$AA@ 0000000180224760     libucrt:lcidtoname_downlevel.obj
 0002:0000f770       ??_C@_1M@GIECOABL@?$AAa?$AAr?$AA?9?$AAa?$AAe?$AA?$AA@ 0000000180224770     libucrt:lcidtoname_downlevel.obj
 0002:0000f780       ??_C@_1M@BMLMEKGI@?$AAa?$AAr?$AA?9?$AAb?$AAh?$AA?$AA@ 0000000180224780     libucrt:lcidtoname_downlevel.obj
 0002:0000f790       ??_C@_1M@DAPFDGGB@?$AAa?$AAr?$AA?9?$AAd?$AAz?$AA?$AA@ 0000000180224790     libucrt:lcidtoname_downlevel.obj
 0002:0000f7a0       ??_C@_1M@FJNKGKIG@?$AAa?$AAr?$AA?9?$AAe?$AAg?$AA?$AA@ 00000001802247a0     libucrt:lcidtoname_downlevel.obj
 0002:0000f7b0       ??_C@_1M@FLGKKCLO@?$AAa?$AAr?$AA?9?$AAi?$AAq?$AA?$AA@ 00000001802247b0     libucrt:lcidtoname_downlevel.obj
 0002:0000f7c0       ??_C@_1M@GNDIPALM@?$AAa?$AAr?$AA?9?$AAj?$AAo?$AA?$AA@ 00000001802247c0     libucrt:lcidtoname_downlevel.obj
 0002:0000f7d0       ??_C@_1M@DDMJFMGJ@?$AAa?$AAr?$AA?9?$AAk?$AAw?$AA?$AA@ 00000001802247d0     libucrt:lcidtoname_downlevel.obj
 0002:0000f7e0       ??_C@_1M@EJALMLHM@?$AAa?$AAr?$AA?9?$AAl?$AAb?$AA?$AA@ 00000001802247e0     libucrt:lcidtoname_downlevel.obj
 0002:0000f7f0       ??_C@_1M@MOBDBLOC@?$AAa?$AAr?$AA?9?$AAl?$AAy?$AA?$AA@ 00000001802247f0     libucrt:lcidtoname_downlevel.obj
 0002:0000f800       ??_C@_1M@JAOCLHDH@?$AAa?$AAr?$AA?9?$AAm?$AAa?$AA?$AA@ 0000000180224800     libucrt:lcidtoname_downlevel.obj
 0002:0000f810       ??_C@_1M@JHPMKJIE@?$AAa?$AAr?$AA?9?$AAo?$AAm?$AA?$AA@ 0000000180224810     libucrt:lcidtoname_downlevel.obj
 0002:0000f820       ??_C@_1M@OEPGHFNH@?$AAa?$AAr?$AA?9?$AAq?$AAa?$AA?$AA@ 0000000180224820     libucrt:lcidtoname_downlevel.obj
 0002:0000f830       ??_C@_1M@KJDONENM@?$AAa?$AAr?$AA?9?$AAs?$AAa?$AA?$AA@ 0000000180224830     libucrt:lcidtoname_downlevel.obj
 0002:0000f840       ??_C@_1M@DMJDKLKM@?$AAa?$AAr?$AA?9?$AAs?$AAy?$AA?$AA@ 0000000180224840     libucrt:lcidtoname_downlevel.obj
 0002:0000f850       ??_C@_1M@OMFIPEDC@?$AAa?$AAr?$AA?9?$AAt?$AAn?$AA?$AA@ 0000000180224850     libucrt:lcidtoname_downlevel.obj
 0002:0000f860       ??_C@_1M@IHMHGAON@?$AAa?$AAr?$AA?9?$AAy?$AAe?$AA?$AA@ 0000000180224860     libucrt:lcidtoname_downlevel.obj
 0002:0000f870       ??_C@_1BG@KDCPGJGB@?$AAa?$AAz?$AA?9?$AAa?$AAz?$AA?9?$AAc?$AAy?$AAr?$AAl?$AA?$AA@ 0000000180224870     libucrt:lcidtoname_downlevel.obj
 0002:0000f890       ??_C@_1BG@IBCKDDOE@?$AAa?$AAz?$AA?9?$AAa?$AAz?$AA?9?$AAl?$AAa?$AAt?$AAn?$AA?$AA@ 0000000180224890     libucrt:lcidtoname_downlevel.obj
 0002:0000f8b0       ??_C@_1M@EGPFDCPD@?$AAb?$AAe?$AA?9?$AAb?$AAy?$AA?$AA@ 00000001802248b0     libucrt:lcidtoname_downlevel.obj
 0002:0000f8c0       ??_C@_1M@PCMGMCGC@?$AAb?$AAg?$AA?9?$AAb?$AAg?$AA?$AA@ 00000001802248c0     libucrt:lcidtoname_downlevel.obj
 0002:0000f8d0       ??_C@_1M@BJBMFGOB@?$AAb?$AAn?$AA?9?$AAi?$AAn?$AA?$AA@ 00000001802248d0     libucrt:lcidtoname_downlevel.obj
 0002:0000f8e0       ??_C@_1BG@EAKMMACD@?$AAb?$AAs?$AA?9?$AAb?$AAa?$AA?9?$AAl?$AAa?$AAt?$AAn?$AA?$AA@ 00000001802248e0     libucrt:lcidtoname_downlevel.obj
 0002:0000f900       ??_C@_1M@KGADAODK@?$AAc?$AAa?$AA?9?$AAe?$AAs?$AA?$AA@ 0000000180224900     libucrt:lcidtoname_downlevel.obj
 0002:0000f910       ??_C@_1M@COAJPDHI@?$AAc?$AAs?$AA?9?$AAc?$AAz?$AA?$AA@ 0000000180224910     libucrt:lcidtoname_downlevel.obj
 0002:0000f920       ??_C@_1M@DHBHFONH@?$AAc?$AAy?$AA?9?$AAg?$AAb?$AA?$AA@ 0000000180224920     libucrt:lcidtoname_downlevel.obj
 0002:0000f930       ??_C@_1M@IMGKELGA@?$AAd?$AAa?$AA?9?$AAd?$AAk?$AA?$AA@ 0000000180224930     libucrt:lcidtoname_downlevel.obj
 0002:0000f940       ??_C@_1M@NNDGDNGA@?$AAd?$AAe?$AA?9?$AAa?$AAt?$AA?$AA@ 0000000180224940     libucrt:lcidtoname_downlevel.obj
 0002:0000f950       ??_C@_1M@IKDBHEEM@?$AAd?$AAe?$AA?9?$AAc?$AAh?$AA?$AA@ 0000000180224950     libucrt:lcidtoname_downlevel.obj
 0002:0000f960       ??_C@_1M@GFFOJMCJ@?$AAd?$AAe?$AA?9?$AAd?$AAe?$AA?$AA@ 0000000180224960     libucrt:lcidtoname_downlevel.obj
 0002:0000f970       ??_C@_1M@MDNLKBPM@?$AAd?$AAe?$AA?9?$AAl?$AAi?$AA?$AA@ 0000000180224970     libucrt:lcidtoname_downlevel.obj
 0002:0000f980       ??_C@_1M@NJBEEJNL@?$AAd?$AAe?$AA?9?$AAl?$AAu?$AA?$AA@ 0000000180224980     libucrt:lcidtoname_downlevel.obj
 0002:0000f990       ??_C@_1O@GNNELBAP@?$AAd?$AAi?$AAv?$AA?9?$AAm?$AAv?$AA?$AA@ 0000000180224990     libucrt:lcidtoname_downlevel.obj
 0002:0000f9a0       ??_C@_1M@EJLEOGAE@?$AAe?$AAl?$AA?9?$AAg?$AAr?$AA?$AA@ 00000001802249a0     libucrt:lcidtoname_downlevel.obj
 0002:0000f9b0       ??_C@_1M@GMPONJN@?$AAe?$AAn?$AA?9?$AAa?$AAu?$AA?$AA@ 00000001802249b0     libucrt:lcidtoname_downlevel.obj
 0002:0000f9c0       ??_C@_1M@NIDIIPGF@?$AAe?$AAn?$AA?9?$AAb?$AAz?$AA?$AA@ 00000001802249c0     libucrt:lcidtoname_downlevel.obj
 0002:0000f9d0       ??_C@_1M@JEHMIMFO@?$AAe?$AAn?$AA?9?$AAc?$AAa?$AA?$AA@ 00000001802249d0     libucrt:lcidtoname_downlevel.obj
 0002:0000f9e0       ??_C@_1M@IGMJCDLA@?$AAe?$AAn?$AA?9?$AAc?$AAb?$AA?$AA@ 00000001802249e0     libucrt:lcidtoname_downlevel.obj
 0002:0000f9f0       ??_C@_1M@BNFIGBKG@?$AAe?$AAn?$AA?9?$AAg?$AAb?$AA?$AA@ 00000001802249f0     libucrt:lcidtoname_downlevel.obj
 0002:0000fa00       ??_C@_1M@LKIFDIGP@?$AAe?$AAn?$AA?9?$AAi?$AAe?$AA?$AA@ 0000000180224a00     libucrt:lcidtoname_downlevel.obj
 0002:0000fa10       ??_C@_1M@PJKFGCCO@?$AAe?$AAn?$AA?9?$AAj?$AAm?$AA?$AA@ 0000000180224a10     libucrt:lcidtoname_downlevel.obj
 0002:0000fa20       ??_C@_1M@KPPKEPBO@?$AAe?$AAn?$AA?9?$AAn?$AAz?$AA?$AA@ 0000000180224a20     libucrt:lcidtoname_downlevel.obj
 0002:0000fa30       ??_C@_1M@GMDGLDOB@?$AAe?$AAn?$AA?9?$AAp?$AAh?$AA?$AA@ 0000000180224a30     libucrt:lcidtoname_downlevel.obj
 0002:0000fa40       ??_C@_1M@ONGIBJNA@?$AAe?$AAn?$AA?9?$AAt?$AAt?$AA?$AA@ 0000000180224a40     libucrt:lcidtoname_downlevel.obj
 0002:0000fa50       ??_C@_1M@LLODPCMM@?$AAe?$AAn?$AA?9?$AAu?$AAs?$AA?$AA@ 0000000180224a50     libucrt:lcidtoname_downlevel.obj
 0002:0000fa60       ??_C@_1M@LAKFNPAN@?$AAe?$AAn?$AA?9?$AAz?$AAa?$AA?$AA@ 0000000180224a60     libucrt:lcidtoname_downlevel.obj
 0002:0000fa70       ??_C@_1M@MFNHNHEO@?$AAe?$AAn?$AA?9?$AAz?$AAw?$AA?$AA@ 0000000180224a70     libucrt:lcidtoname_downlevel.obj
 0002:0000fa80       ??_C@_1M@EJEINPHM@?$AAe?$AAs?$AA?9?$AAa?$AAr?$AA?$AA@ 0000000180224a80     libucrt:lcidtoname_downlevel.obj
 0002:0000fa90       ??_C@_1M@GNKPCCJA@?$AAe?$AAs?$AA?9?$AAb?$AAo?$AA?$AA@ 0000000180224a90     libucrt:lcidtoname_downlevel.obj
 0002:0000faa0       ??_C@_1M@LEEGFONL@?$AAe?$AAs?$AA?9?$AAc?$AAl?$AA?$AA@ 0000000180224aa0     libucrt:lcidtoname_downlevel.obj
 0002:0000fab0       ??_C@_1M@KGPDPBDF@?$AAe?$AAs?$AA?9?$AAc?$AAo?$AA?$AA@ 0000000180224ab0     libucrt:lcidtoname_downlevel.obj
 0002:0000fac0       ??_C@_1M@EIAHOHH@?$AAe?$AAs?$AA?9?$AAc?$AAr?$AA?$AA@ 0000000180224ac0     libucrt:lcidtoname_downlevel.obj
 0002:0000fad0       ??_C@_1M@LLPGMBIN@?$AAe?$AAs?$AA?9?$AAd?$AAo?$AA?$AA@ 0000000180224ad0     libucrt:lcidtoname_downlevel.obj
 0002:0000fae0       ??_C@_1M@DKHMKNJA@?$AAe?$AAs?$AA?9?$AAe?$AAc?$AA?$AA@ 0000000180224ae0     libucrt:lcidtoname_downlevel.obj
 0002:0000faf0       ??_C@_1M@GKGFPKAP@?$AAe?$AAs?$AA?9?$AAe?$AAs?$AA?$AA@ 0000000180224af0     libucrt:lcidtoname_downlevel.obj
 0002:0000fb00       ??_C@_1M@LKHKGDLN@?$AAe?$AAs?$AA?9?$AAg?$AAt?$AA?$AA@ 0000000180224b00     libucrt:lcidtoname_downlevel.obj
 0002:0000fb10       ??_C@_1M@HEIIGGJD@?$AAe?$AAs?$AA?9?$AAh?$AAn?$AA?$AA@ 0000000180224b10     libucrt:lcidtoname_downlevel.obj
 0002:0000fb20       ??_C@_1M@FBDHPPGD@?$AAe?$AAs?$AA?9?$AAm?$AAx?$AA?$AA@ 0000000180224b20     libucrt:lcidtoname_downlevel.obj
 0002:0000fb30       ??_C@_1M@DPAGLNDH@?$AAe?$AAs?$AA?9?$AAn?$AAi?$AA?$AA@ 0000000180224b30     libucrt:lcidtoname_downlevel.obj
 0002:0000fb40       ??_C@_1M@MDGOPGDD@?$AAe?$AAs?$AA?9?$AAp?$AAa?$AA?$AA@ 0000000180224b40     libucrt:lcidtoname_downlevel.obj
 0002:0000fb50       ??_C@_1M@EMAMGBGE@?$AAe?$AAs?$AA?9?$AAp?$AAe?$AA?$AA@ 0000000180224b50     libucrt:lcidtoname_downlevel.obj
 0002:0000fb60       ??_C@_1M@IBMCAOEC@?$AAe?$AAs?$AA?9?$AAp?$AAr?$AA?$AA@ 0000000180224b60     libucrt:lcidtoname_downlevel.obj
 0002:0000fb70       ??_C@_1M@FGMDIJED@?$AAe?$AAs?$AA?9?$AAp?$AAy?$AA?$AA@ 0000000180224b70     libucrt:lcidtoname_downlevel.obj
 0002:0000fb80       ??_C@_1M@IIDEOLLL@?$AAe?$AAs?$AA?9?$AAs?$AAv?$AA?$AA@ 0000000180224b80     libucrt:lcidtoname_downlevel.obj
 0002:0000fb90       ??_C@_1M@GAOBIPA@?$AAe?$AAs?$AA?9?$AAu?$AAy?$AA?$AA@ 0000000180224b90     libucrt:lcidtoname_downlevel.obj
 0002:0000fba0       ??_C@_1M@JKFFICHJ@?$AAe?$AAs?$AA?9?$AAv?$AAe?$AA?$AA@ 0000000180224ba0     libucrt:lcidtoname_downlevel.obj
 0002:0000fbb0       ??_C@_1M@PNMLOJDF@?$AAe?$AAt?$AA?9?$AAe?$AAe?$AA?$AA@ 0000000180224bb0     libucrt:lcidtoname_downlevel.obj
 0002:0000fbc0       ??_C@_1M@GHHLIKEI@?$AAe?$AAu?$AA?9?$AAe?$AAs?$AA?$AA@ 0000000180224bc0     libucrt:lcidtoname_downlevel.obj
 0002:0000fbd0       ??_C@_1M@PBNONODE@?$AAf?$AAa?$AA?9?$AAi?$AAr?$AA?$AA@ 0000000180224bd0     libucrt:lcidtoname_downlevel.obj
 0002:0000fbe0       ??_C@_1M@JEEHPMIL@?$AAf?$AAi?$AA?9?$AAf?$AAi?$AA?$AA@ 0000000180224be0     libucrt:lcidtoname_downlevel.obj
 0002:0000fbf0       ??_C@_1M@LMDCNDBA@?$AAf?$AAo?$AA?9?$AAf?$AAo?$AA?$AA@ 0000000180224bf0     libucrt:lcidtoname_downlevel.obj
 0002:0000fc00       ??_C@_1M@JKEOHLDK@?$AAf?$AAr?$AA?9?$AAb?$AAe?$AA?$AA@ 0000000180224c00     libucrt:lcidtoname_downlevel.obj
 0002:0000fc10       ??_C@_1M@NOHADPMI@?$AAf?$AAr?$AA?9?$AAc?$AAa?$AA?$AA@ 0000000180224c10     libucrt:lcidtoname_downlevel.obj
 0002:0000fc20       ??_C@_1M@KDHIHAEC@?$AAf?$AAr?$AA?9?$AAc?$AAh?$AA?$AA@ 0000000180224c20     libucrt:lcidtoname_downlevel.obj
 0002:0000fc30       ??_C@_1M@MMBBFGAK@?$AAf?$AAr?$AA?9?$AAf?$AAr?$AA?$AA@ 0000000180224c30     libucrt:lcidtoname_downlevel.obj
 0002:0000fc40       ??_C@_1M@PAFNENNF@?$AAf?$AAr?$AA?9?$AAl?$AAu?$AA?$AA@ 0000000180224c40     libucrt:lcidtoname_downlevel.obj
 0002:0000fc50       ??_C@_1M@EOHDJGDD@?$AAf?$AAr?$AA?9?$AAm?$AAc?$AA?$AA@ 0000000180224c50     libucrt:lcidtoname_downlevel.obj
 0002:0000fc60       ??_C@_1M@FAPLLOPF@?$AAg?$AAl?$AA?9?$AAe?$AAs?$AA?$AA@ 0000000180224c60     libucrt:lcidtoname_downlevel.obj
 0002:0000fc70       ??_C@_1M@FOPBFLOO@?$AAg?$AAu?$AA?9?$AAi?$AAn?$AA?$AA@ 0000000180224c70     libucrt:lcidtoname_downlevel.obj
 0002:0000fc80       ??_C@_1M@KBMCINPM@?$AAh?$AAe?$AA?9?$AAi?$AAl?$AA?$AA@ 0000000180224c80     libucrt:lcidtoname_downlevel.obj
 0002:0000fc90       ??_C@_1M@BBPHKFPJ@?$AAh?$AAi?$AA?9?$AAi?$AAn?$AA?$AA@ 0000000180224c90     libucrt:lcidtoname_downlevel.obj
 0002:0000fca0       ??_C@_1M@PMBNDPHD@?$AAh?$AAr?$AA?9?$AAb?$AAa?$AA?$AA@ 0000000180224ca0     libucrt:lcidtoname_downlevel.obj
 0002:0000fcb0       ??_C@_1M@BPCKOEGE@?$AAh?$AAr?$AA?9?$AAh?$AAr?$AA?$AA@ 0000000180224cb0     libucrt:lcidtoname_downlevel.obj
 0002:0000fcc0       ??_C@_1M@GACBMHKE@?$AAh?$AAu?$AA?9?$AAh?$AAu?$AA?$AA@ 0000000180224cc0     libucrt:lcidtoname_downlevel.obj
 0002:0000fcd0       ??_C@_1M@MILPAJJC@?$AAh?$AAy?$AA?9?$AAa?$AAm?$AA?$AA@ 0000000180224cd0     libucrt:lcidtoname_downlevel.obj
 0002:0000fce0       ??_C@_1M@BABBICEC@?$AAi?$AAd?$AA?9?$AAi?$AAd?$AA?$AA@ 0000000180224ce0     libucrt:lcidtoname_downlevel.obj
 0002:0000fcf0       ??_C@_1M@BIKNHHPF@?$AAi?$AAs?$AA?9?$AAi?$AAs?$AA?$AA@ 0000000180224cf0     libucrt:lcidtoname_downlevel.obj
 0002:0000fd00       ??_C@_1M@NMPCJPHE@?$AAi?$AAt?$AA?9?$AAc?$AAh?$AA?$AA@ 0000000180224d00     libucrt:lcidtoname_downlevel.obj
 0002:0000fd10       ??_C@_1M@GHKGFEDF@?$AAi?$AAt?$AA?9?$AAi?$AAt?$AA?$AA@ 0000000180224d10     libucrt:lcidtoname_downlevel.obj
 0002:0000fd20       ??_C@_1M@NIEJCJJA@?$AAj?$AAa?$AA?9?$AAj?$AAp?$AA?$AA@ 0000000180224d20     libucrt:lcidtoname_downlevel.obj
 0002:0000fd30       ??_C@_1M@JILFNBIM@?$AAk?$AAa?$AA?9?$AAg?$AAe?$AA?$AA@ 0000000180224d30     libucrt:lcidtoname_downlevel.obj
 0002:0000fd40       ??_C@_1M@PACPMGPH@?$AAk?$AAk?$AA?9?$AAk?$AAz?$AA?$AA@ 0000000180224d40     libucrt:lcidtoname_downlevel.obj
 0002:0000fd50       ??_C@_1M@IELFGMHA@?$AAk?$AAn?$AA?9?$AAi?$AAn?$AA?$AA@ 0000000180224d50     libucrt:lcidtoname_downlevel.obj
 0002:0000fd60       ??_C@_1O@IBBJHCH@?$AAk?$AAo?$AAk?$AA?9?$AAi?$AAn?$AA?$AA@ 0000000180224d60     libucrt:lcidtoname_downlevel.obj
 0002:0000fd70       ??_C@_1M@DMHAEOGC@?$AAk?$AAo?$AA?9?$AAk?$AAr?$AA?$AA@ 0000000180224d70     libucrt:lcidtoname_downlevel.obj
 0002:0000fd80       ??_C@_1M@HBAHBIGA@?$AAk?$AAy?$AA?9?$AAk?$AAg?$AA?$AA@ 0000000180224d80     libucrt:lcidtoname_downlevel.obj
 0002:0000fd90       ??_C@_1M@KPMILCJG@?$AAl?$AAt?$AA?9?$AAl?$AAt?$AA?$AA@ 0000000180224d90     libucrt:lcidtoname_downlevel.obj
 0002:0000fda0       ??_C@_1M@BDEKKCA@?$AAl?$AAv?$AA?9?$AAl?$AAv?$AA?$AA@ 0000000180224da0     libucrt:lcidtoname_downlevel.obj
 0002:0000fdb0       ??_C@_1M@ELCKCCJJ@?$AAm?$AAi?$AA?9?$AAn?$AAz?$AA?$AA@ 0000000180224db0     libucrt:lcidtoname_downlevel.obj
 0002:0000fdc0       ??_C@_1M@CBOOLAPA@?$AAm?$AAk?$AA?9?$AAm?$AAk?$AA?$AA@ 0000000180224dc0     libucrt:lcidtoname_downlevel.obj
 0002:0000fdd0       ??_C@_1M@GPHNBJKN@?$AAm?$AAl?$AA?9?$AAi?$AAn?$AA?$AA@ 0000000180224dd0     libucrt:lcidtoname_downlevel.obj
 0002:0000fde0       ??_C@_1M@PABJILIG@?$AAm?$AAn?$AA?9?$AAm?$AAn?$AA?$AA@ 0000000180224de0     libucrt:lcidtoname_downlevel.obj
 0002:0000fdf0       ??_C@_1M@FGBKKIPG@?$AAm?$AAr?$AA?9?$AAi?$AAn?$AA?$AA@ 0000000180224df0     libucrt:lcidtoname_downlevel.obj
 0002:0000fe00       ??_C@_1M@NDBPDDAL@?$AAm?$AAs?$AA?9?$AAb?$AAn?$AA?$AA@ 0000000180224e00     libucrt:lcidtoname_downlevel.obj
 0002:0000fe10       ??_C@_1M@OPIHOOPI@?$AAm?$AAs?$AA?9?$AAm?$AAy?$AA?$AA@ 0000000180224e10     libucrt:lcidtoname_downlevel.obj
 0002:0000fe20       ??_C@_1M@PPDBCNFM@?$AAm?$AAt?$AA?9?$AAm?$AAt?$AA?$AA@ 0000000180224e20     libucrt:lcidtoname_downlevel.obj
 0002:0000fe30       ??_C@_1M@KDJDKMDD@?$AAn?$AAb?$AA?9?$AAn?$AAo?$AA?$AA@ 0000000180224e30     libucrt:lcidtoname_downlevel.obj
 0002:0000fe40       ??_C@_1M@KFCFLMJP@?$AAn?$AAl?$AA?9?$AAb?$AAe?$AA?$AA@ 0000000180224e40     libucrt:lcidtoname_downlevel.obj
 0002:0000fe50       ??_C@_1M@KPOPDDGO@?$AAn?$AAl?$AA?9?$AAn?$AAl?$AA?$AA@ 0000000180224e50     libucrt:lcidtoname_downlevel.obj
 0002:0000fe60       ??_C@_1M@LJKPEMLN@?$AAn?$AAn?$AA?9?$AAn?$AAo?$AA?$AA@ 0000000180224e60     libucrt:lcidtoname_downlevel.obj
 0002:0000fe70       ??_C@_1M@BDGHHBFL@?$AAn?$AAs?$AA?9?$AAz?$AAa?$AA?$AA@ 0000000180224e70     libucrt:lcidtoname_downlevel.obj
 0002:0000fe80       ??_C@_1M@IDEHOAP@?$AAp?$AAa?$AA?9?$AAi?$AAn?$AA?$AA@ 0000000180224e80     libucrt:lcidtoname_downlevel.obj
 0002:0000fe90       ??_C@_1M@HDBKGOGH@?$AAp?$AAl?$AA?9?$AAp?$AAl?$AA?$AA@ 0000000180224e90     libucrt:lcidtoname_downlevel.obj
 0002:0000fea0       ??_C@_1M@LJLLCMEH@?$AAp?$AAt?$AA?9?$AAb?$AAr?$AA?$AA@ 0000000180224ea0     libucrt:lcidtoname_downlevel.obj
 0002:0000feb0       ??_C@_1M@NCMONAAL@?$AAp?$AAt?$AA?9?$AAp?$AAt?$AA?$AA@ 0000000180224eb0     libucrt:lcidtoname_downlevel.obj
 0002:0000fec0       ??_C@_1O@EAKMAJDN@?$AAq?$AAu?$AAz?$AA?9?$AAb?$AAo?$AA?$AA@ 0000000180224ec0     libucrt:lcidtoname_downlevel.obj
 0002:0000fed0       ??_C@_1O@BHHPIGDN@?$AAq?$AAu?$AAz?$AA?9?$AAe?$AAc?$AA?$AA@ 0000000180224ed0     libucrt:lcidtoname_downlevel.obj
 0002:0000fee0       ??_C@_1O@GBAPEKMJ@?$AAq?$AAu?$AAz?$AA?9?$AAp?$AAe?$AA?$AA@ 0000000180224ee0     libucrt:lcidtoname_downlevel.obj
 0002:0000fef0       ??_C@_1M@CLGLEFBO@?$AAr?$AAo?$AA?9?$AAr?$AAo?$AA?$AA@ 0000000180224ef0     libucrt:lcidtoname_downlevel.obj
 0002:0000ff00       ??_C@_1M@CEEDODME@?$AAr?$AAu?$AA?9?$AAr?$AAu?$AA?$AA@ 0000000180224f00     libucrt:lcidtoname_downlevel.obj
 0002:0000ff10       ??_C@_1M@HPKKKMPP@?$AAs?$AAa?$AA?9?$AAi?$AAn?$AA?$AA@ 0000000180224f10     libucrt:lcidtoname_downlevel.obj
 0002:0000ff20       ??_C@_1M@BKMAIGOJ@?$AAs?$AAe?$AA?9?$AAf?$AAi?$AA?$AA@ 0000000180224f20     libucrt:lcidtoname_downlevel.obj
 0002:0000ff30       ??_C@_1M@NDPIFLFI@?$AAs?$AAe?$AA?9?$AAn?$AAo?$AA?$AA@ 0000000180224f30     libucrt:lcidtoname_downlevel.obj
 0002:0000ff40       ??_C@_1M@DANKKHJ@?$AAs?$AAe?$AA?9?$AAs?$AAe?$AA?$AA@ 0000000180224f40     libucrt:lcidtoname_downlevel.obj
 0002:0000ff50       ??_C@_1M@PNBLONPJ@?$AAs?$AAk?$AA?9?$AAs?$AAk?$AA?$AA@ 0000000180224f50     libucrt:lcidtoname_downlevel.obj
 0002:0000ff60       ??_C@_1M@LFMODOAL@?$AAs?$AAl?$AA?9?$AAs?$AAi?$AA?$AA@ 0000000180224f60     libucrt:lcidtoname_downlevel.obj
 0002:0000ff70       ??_C@_1O@DFKOMPG@?$AAs?$AAm?$AAa?$AA?9?$AAn?$AAo?$AA?$AA@ 0000000180224f70     libucrt:lcidtoname_downlevel.obj
 0002:0000ff80       ??_C@_1O@NDKPBNNH@?$AAs?$AAm?$AAa?$AA?9?$AAs?$AAe?$AA?$AA@ 0000000180224f80     libucrt:lcidtoname_downlevel.obj
 0002:0000ff90       ??_C@_1O@PLLKBHAB@?$AAs?$AAm?$AAj?$AA?9?$AAn?$AAo?$AA?$AA@ 0000000180224f90     libucrt:lcidtoname_downlevel.obj
 0002:0000ffa0       ??_C@_1O@CLEPOGCA@?$AAs?$AAm?$AAj?$AA?9?$AAs?$AAe?$AA?$AA@ 0000000180224fa0     libucrt:lcidtoname_downlevel.obj
 0002:0000ffb0       ??_C@_1O@DLGJGKMK@?$AAs?$AAm?$AAn?$AA?9?$AAf?$AAi?$AA?$AA@ 0000000180224fb0     libucrt:lcidtoname_downlevel.obj
 0002:0000ffc0       ??_C@_1O@OJDJGAJC@?$AAs?$AAm?$AAs?$AA?9?$AAf?$AAi?$AA?$AA@ 0000000180224fc0     libucrt:lcidtoname_downlevel.obj
 0002:0000ffd0       ??_C@_1M@BOFOGHPB@?$AAs?$AAq?$AA?9?$AAa?$AAl?$AA?$AA@ 0000000180224fd0     libucrt:lcidtoname_downlevel.obj
 0002:0000ffe0       ??_C@_1BG@LJBBIPGB@?$AAs?$AAr?$AA?9?$AAb?$AAa?$AA?9?$AAc?$AAy?$AAr?$AAl?$AA?$AA@ 0000000180224fe0     libucrt:lcidtoname_downlevel.obj
 0002:00010000       ??_C@_1BG@JLBENFOE@?$AAs?$AAr?$AA?9?$AAb?$AAa?$AA?9?$AAl?$AAa?$AAt?$AAn?$AA?$AA@ 0000000180225000     libucrt:lcidtoname_downlevel.obj
 0002:00010020       ??_C@_1BG@KODPNHE@?$AAs?$AAr?$AA?9?$AAs?$AAp?$AA?9?$AAc?$AAy?$AAr?$AAl?$AA?$AA@ 0000000180225020     libucrt:lcidtoname_downlevel.obj
 0002:00010040       ??_C@_1BG@CIOGKHPB@?$AAs?$AAr?$AA?9?$AAs?$AAp?$AA?9?$AAl?$AAa?$AAt?$AAn?$AA?$AA@ 0000000180225040     libucrt:lcidtoname_downlevel.obj
 0002:00010060       ??_C@_1M@NGFJLMAC@?$AAs?$AAv?$AA?9?$AAf?$AAi?$AA?$AA@ 0000000180225060     libucrt:lcidtoname_downlevel.obj
 0002:00010070       ??_C@_1M@MPJEJAJC@?$AAs?$AAv?$AA?9?$AAs?$AAe?$AA?$AA@ 0000000180225070     libucrt:lcidtoname_downlevel.obj
 0002:00010080       ??_C@_1M@MPNDHLFK@?$AAs?$AAw?$AA?9?$AAk?$AAe?$AA?$AA@ 0000000180225080     libucrt:lcidtoname_downlevel.obj
 0002:00010090       ??_C@_1O@KOHBJJI@?$AAs?$AAy?$AAr?$AA?9?$AAs?$AAy?$AA?$AA@ 0000000180225090     libucrt:lcidtoname_downlevel.obj
 0002:000100a0       ??_C@_1M@LDCEFHA@?$AAt?$AAa?$AA?9?$AAi?$AAn?$AA?$AA@ 00000001802250a0     libucrt:lcidtoname_downlevel.obj
 0002:000100b0       ??_C@_1M@CNJOFAK@?$AAt?$AAe?$AA?9?$AAi?$AAn?$AA?$AA@ 00000001802250b0     libucrt:lcidtoname_downlevel.obj
 0002:000100c0       ??_C@_1M@GNAECACD@?$AAt?$AAh?$AA?9?$AAt?$AAh?$AA?$AA@ 00000001802250c0     libucrt:lcidtoname_downlevel.obj
 0002:000100d0       ??_C@_1M@CHBIHOJO@?$AAt?$AAn?$AA?9?$AAz?$AAa?$AA?$AA@ 00000001802250d0     libucrt:lcidtoname_downlevel.obj
 0002:000100e0       ??_C@_1M@GCCMIGPJ@?$AAt?$AAr?$AA?9?$AAt?$AAr?$AA?$AA@ 00000001802250e0     libucrt:lcidtoname_downlevel.obj
 0002:000100f0       ??_C@_1M@CELMCNBK@?$AAt?$AAt?$AA?9?$AAr?$AAu?$AA?$AA@ 00000001802250f0     libucrt:lcidtoname_downlevel.obj
 0002:00010100       ??_C@_1M@KLMCELGA@?$AAu?$AAk?$AA?9?$AAu?$AAa?$AA?$AA@ 0000000180225100     libucrt:lcidtoname_downlevel.obj
 0002:00010110       ??_C@_1M@EPAJJAJF@?$AAu?$AAr?$AA?9?$AAp?$AAk?$AA?$AA@ 0000000180225110     libucrt:lcidtoname_downlevel.obj
 0002:00010120       ??_C@_1BG@GEGPMCDJ@?$AAu?$AAz?$AA?9?$AAu?$AAz?$AA?9?$AAc?$AAy?$AAr?$AAl?$AA?$AA@ 0000000180225120     libucrt:lcidtoname_downlevel.obj
 0002:00010140       ??_C@_1BG@EGGKJILM@?$AAu?$AAz?$AA?9?$AAu?$AAz?$AA?9?$AAl?$AAa?$AAt?$AAn?$AA?$AA@ 0000000180225140     libucrt:lcidtoname_downlevel.obj
 0002:00010160       ??_C@_1M@GFOCLFF@?$AAv?$AAi?$AA?9?$AAv?$AAn?$AA?$AA@ 0000000180225160     libucrt:lcidtoname_downlevel.obj
 0002:00010170       ??_C@_1M@CPAMEDFI@?$AAx?$AAh?$AA?9?$AAz?$AAa?$AA?$AA@ 0000000180225170     libucrt:lcidtoname_downlevel.obj
 0002:00010180       ??_C@_1O@EBKIFIGN@?$AAz?$AAh?$AA?9?$AAc?$AAh?$AAs?$AA?$AA@ 0000000180225180     libucrt:lcidtoname_downlevel.obj
 0002:00010190       ??_C@_1O@NMHPGANE@?$AAz?$AAh?$AA?9?$AAc?$AAh?$AAt?$AA?$AA@ 0000000180225190     libucrt:lcidtoname_downlevel.obj
 0002:000101a0       ??_C@_1M@LPINJOMC@?$AAz?$AAh?$AA?9?$AAc?$AAn?$AA?$AA@ 00000001802251a0     libucrt:lcidtoname_downlevel.obj
 0002:000101b0       ??_C@_1M@OCJEJODD@?$AAz?$AAh?$AA?9?$AAh?$AAk?$AA?$AA@ 00000001802251b0     libucrt:lcidtoname_downlevel.obj
 0002:000101c0       ??_C@_1M@DNDLJINH@?$AAz?$AAh?$AA?9?$AAm?$AAo?$AA?$AA@ 00000001802251c0     libucrt:lcidtoname_downlevel.obj
 0002:000101d0       ??_C@_1M@MBFDNDND@?$AAz?$AAh?$AA?9?$AAs?$AAg?$AA?$AA@ 00000001802251d0     libucrt:lcidtoname_downlevel.obj
 0002:000101e0       ??_C@_1M@IMEPLEPE@?$AAz?$AAh?$AA?9?$AAt?$AAw?$AA?$AA@ 00000001802251e0     libucrt:lcidtoname_downlevel.obj
 0002:000101f0       ??_C@_1M@BBGHNHJP@?$AAz?$AAu?$AA?9?$AAz?$AAa?$AA?$AA@ 00000001802251f0     libucrt:lcidtoname_downlevel.obj
 0002:00010200       ?large_power_data@?1??multiply_by_power_of_ten@__crt_strtox@@YA_NAEAUbig_integer@2@I@Z@4QBIB 0000000180225200     libucrt:cfout.obj
 0002:00010ce0       ?large_power_indices@?1??multiply_by_power_of_ten@__crt_strtox@@YA_NAEAUbig_integer@2@I@Z@4QBUunpack_index@?1??12@YA_N0I@Z@B 0000000180225ce0     libucrt:cfout.obj
 0002:00010d98       ?small_powers_of_ten@?6??multiply_by_power_of_ten@__crt_strtox@@YA_NAEAUbig_integer@2@I@Z@4QBIB 0000000180225d98     libucrt:cfout.obj
 0002:00010dc4       ??_C@_01GBGANLPD@0?$AA@    0000000180225dc4     libucrt:cfout.obj
 0002:00010dc8       ??_C@_05DNEBIAHO@1?$CDINF?$AA@ 0000000180225dc8     libucrt:cfout.obj
 0002:00010dd0       ??_C@_06IMKFLFPG@1?$CDQNAN?$AA@ 0000000180225dd0     libucrt:cfout.obj
 0002:00010dd8       ??_C@_06PGGFOGJG@1?$CDSNAN?$AA@ 0000000180225dd8     libucrt:cfout.obj
 0002:00010de0       ??_C@_05PHHOCPM@1?$CDIND?$AA@ 0000000180225de0     libucrt:cfout.obj
 0002:00010df0       __acrt_rg_language         0000000180225df0     libucrt:get_qualified_locale.obj
 0002:000112d0       __acrt_rg_language_count   00000001802262d0     libucrt:get_qualified_locale.obj
 0002:000112e0       __acrt_rg_country          00000001802262e0     libucrt:get_qualified_locale.obj
 0002:000114a0       __acrt_rg_country_count    00000001802264a0     libucrt:get_qualified_locale.obj
 0002:000114b0       ??_C@_1BC@LLOKLNP@?$AAa?$AAm?$AAe?$AAr?$AAi?$AAc?$AAa?$AAn?$AA?$AA@ 00000001802264b0     libucrt:get_qualified_locale.obj
 0002:000114c8       ??_C@_1CC@HEIGCDGG@?$AAa?$AAm?$AAe?$AAr?$AAi?$AAc?$AAa?$AAn?$AA?5?$AAe?$AAn?$AAg?$AAl?$AAi?$AAs?$AAh?$AA?$AA@ 00000001802264c8     libucrt:get_qualified_locale.obj
 0002:000114f0       ??_C@_1CC@IHCNOMIN@?$AAa?$AAm?$AAe?$AAr?$AAi?$AAc?$AAa?$AAn?$AA?9?$AAe?$AAn?$AAg?$AAl?$AAi?$AAs?$AAh?$AA?$AA@ 00000001802264f0     libucrt:get_qualified_locale.obj
 0002:00011518       ??_C@_1BG@GKAGPCGG@?$AAa?$AAu?$AAs?$AAt?$AAr?$AAa?$AAl?$AAi?$AAa?$AAn?$AA?$AA@ 0000000180226518     libucrt:get_qualified_locale.obj
 0002:00011538       ??_C@_1BA@GMENCENF@?$AAb?$AAe?$AAl?$AAg?$AAi?$AAa?$AAn?$AA?$AA@ 0000000180226538     libucrt:get_qualified_locale.obj
 0002:00011550       ??_C@_1BC@PJMIIAAN@?$AAc?$AAa?$AAn?$AAa?$AAd?$AAi?$AAa?$AAn?$AA?$AA@ 0000000180226550     libucrt:get_qualified_locale.obj
 0002:00011568       ??_C@_17NOIMNFBF@?$AAc?$AAh?$AAh?$AA?$AA@ 0000000180226568     libucrt:get_qualified_locale.obj
 0002:00011578       ??_C@_17GGDALCHA@?$AAc?$AAh?$AAi?$AA?$AA@ 0000000180226578     libucrt:get_qualified_locale.obj
 0002:00011588       ??_C@_1BA@NPNJKIBL@?$AAc?$AAh?$AAi?$AAn?$AAe?$AAs?$AAe?$AA?$AA@ 0000000180226588     libucrt:get_qualified_locale.obj
 0002:000115a0       ??_C@_1CC@DINBAMMJ@?$AAc?$AAh?$AAi?$AAn?$AAe?$AAs?$AAe?$AA?9?$AAh?$AAo?$AAn?$AAg?$AAk?$AAo?$AAn?$AAg?$AA?$AA@ 00000001802265a0     libucrt:get_qualified_locale.obj
 0002:000115c8       ??_C@_1CG@IOBJPACO@?$AAc?$AAh?$AAi?$AAn?$AAe?$AAs?$AAe?$AA?9?$AAs?$AAi?$AAm?$AAp?$AAl?$AAi?$AAf?$AAi?$AAe?$AAd?$AA?$AA@ 00000001802265c8     libucrt:get_qualified_locale.obj
 0002:000115f8       ??_C@_1CE@GAJNDCKG@?$AAc?$AAh?$AAi?$AAn?$AAe?$AAs?$AAe?$AA?9?$AAs?$AAi?$AAn?$AAg?$AAa?$AAp?$AAo?$AAr?$AAe?$AA?$AA@ 00000001802265f8     libucrt:get_qualified_locale.obj
 0002:00011628       ??_C@_1CI@PAJPIOOD@?$AAc?$AAh?$AAi?$AAn?$AAe?$AAs?$AAe?$AA?9?$AAt?$AAr?$AAa?$AAd?$AAi?$AAt?$AAi?$AAo?$AAn?$AAa?$AAl?$AA?$AA@ 0000000180226628     libucrt:get_qualified_locale.obj
 0002:00011658       ??_C@_1BM@NILJBMMD@?$AAd?$AAu?$AAt?$AAc?$AAh?$AA?9?$AAb?$AAe?$AAl?$AAg?$AAi?$AAa?$AAn?$AA?$AA@ 0000000180226658     libucrt:get_qualified_locale.obj
 0002:00011680       ??_C@_1CC@OOJPJNEJ@?$AAe?$AAn?$AAg?$AAl?$AAi?$AAs?$AAh?$AA?9?$AAa?$AAm?$AAe?$AAr?$AAi?$AAc?$AAa?$AAn?$AA?$AA@ 0000000180226680     libucrt:get_qualified_locale.obj
 0002:000116a8       ??_C@_1BI@IOLFEEM@?$AAe?$AAn?$AAg?$AAl?$AAi?$AAs?$AAh?$AA?9?$AAa?$AAu?$AAs?$AA?$AA@ 00000001802266a8     libucrt:get_qualified_locale.obj
 0002:000116c8       ??_C@_1BO@HFFNLENJ@?$AAe?$AAn?$AAg?$AAl?$AAi?$AAs?$AAh?$AA?9?$AAb?$AAe?$AAl?$AAi?$AAz?$AAe?$AA?$AA@ 00000001802266c8     libucrt:get_qualified_locale.obj
 0002:000116f0       ??_C@_1BI@HAPKJMPO@?$AAe?$AAn?$AAg?$AAl?$AAi?$AAs?$AAh?$AA?9?$AAc?$AAa?$AAn?$AA?$AA@ 00000001802266f0     libucrt:get_qualified_locale.obj
 0002:00011710       ??_C@_1CE@HLNDMIOJ@?$AAe?$AAn?$AAg?$AAl?$AAi?$AAs?$AAh?$AA?9?$AAc?$AAa?$AAr?$AAi?$AAb?$AAb?$AAe?$AAa?$AAn?$AA?$AA@ 0000000180226710     libucrt:get_qualified_locale.obj
 0002:00011740       ??_C@_1BI@LDHJHHAC@?$AAe?$AAn?$AAg?$AAl?$AAi?$AAs?$AAh?$AA?9?$AAi?$AAr?$AAe?$AA?$AA@ 0000000180226740     libucrt:get_qualified_locale.obj
 0002:00011760       ??_C@_1CA@NJMMCFOC@?$AAe?$AAn?$AAg?$AAl?$AAi?$AAs?$AAh?$AA?9?$AAj?$AAa?$AAm?$AAa?$AAi?$AAc?$AAa?$AA?$AA@ 0000000180226760     libucrt:get_qualified_locale.obj
 0002:00011788       ??_C@_1BG@BHJEBBGG@?$AAe?$AAn?$AAg?$AAl?$AAi?$AAs?$AAh?$AA?9?$AAn?$AAz?$AA?$AA@ 0000000180226788     libucrt:get_qualified_locale.obj
 0002:000117a8       ??_C@_1CK@FGOEJJCO@?$AAe?$AAn?$AAg?$AAl?$AAi?$AAs?$AAh?$AA?9?$AAs?$AAo?$AAu?$AAt?$AAh?$AA?5?$AAa?$AAf?$AAr?$AAi?$AAc?$AAa?$AA?$AA@ 00000001802267a8     libucrt:get_qualified_locale.obj
 0002:000117e0       ??_C@_1DE@PDBJPCJ@?$AAe?$AAn?$AAg?$AAl?$AAi?$AAs?$AAh?$AA?9?$AAt?$AAr?$AAi?$AAn?$AAi?$AAd?$AAa?$AAd?$AA?5?$AAy?$AA?5?$AAt?$AAo?$AAb?$AAa?$AAg?$AAo?$AA?$AA@ 00000001802267e0     libucrt:get_qualified_locale.obj
 0002:00011820       ??_C@_1BG@JGCANDME@?$AAe?$AAn?$AAg?$AAl?$AAi?$AAs?$AAh?$AA?9?$AAu?$AAk?$AA?$AA@ 0000000180226820     libucrt:get_qualified_locale.obj
 0002:00011840       ??_C@_1BG@DINKMLE@?$AAe?$AAn?$AAg?$AAl?$AAi?$AAs?$AAh?$AA?9?$AAu?$AAs?$AA?$AA@ 0000000180226840     libucrt:get_qualified_locale.obj
 0002:00011860       ??_C@_1BI@NMFDBHJE@?$AAe?$AAn?$AAg?$AAl?$AAi?$AAs?$AAh?$AA?9?$AAu?$AAs?$AAa?$AA?$AA@ 0000000180226860     libucrt:get_qualified_locale.obj
 0002:00011880       ??_C@_1BO@OIHKJKII@?$AAf?$AAr?$AAe?$AAn?$AAc?$AAh?$AA?9?$AAb?$AAe?$AAl?$AAg?$AAi?$AAa?$AAn?$AA?$AA@ 0000000180226880     libucrt:get_qualified_locale.obj
 0002:000118a8       ??_C@_1CA@NKAELJKI@?$AAf?$AAr?$AAe?$AAn?$AAc?$AAh?$AA?9?$AAc?$AAa?$AAn?$AAa?$AAd?$AAi?$AAa?$AAn?$AA?$AA@ 00000001802268a8     libucrt:get_qualified_locale.obj
 0002:000118d0       ??_C@_1CE@MGKCNLGN@?$AAf?$AAr?$AAe?$AAn?$AAc?$AAh?$AA?9?$AAl?$AAu?$AAx?$AAe?$AAm?$AAb?$AAo?$AAu?$AAr?$AAg?$AA?$AA@ 00000001802268d0     libucrt:get_qualified_locale.obj
 0002:00011900       ??_C@_1BK@CEGEAILM@?$AAf?$AAr?$AAe?$AAn?$AAc?$AAh?$AA?9?$AAs?$AAw?$AAi?$AAs?$AAs?$AA?$AA@ 0000000180226900     libucrt:get_qualified_locale.obj
 0002:00011920       ??_C@_1CA@PAFKEOCC@?$AAg?$AAe?$AAr?$AAm?$AAa?$AAn?$AA?9?$AAa?$AAu?$AAs?$AAt?$AAr?$AAi?$AAa?$AAn?$AA?$AA@ 0000000180226920     libucrt:get_qualified_locale.obj
 0002:00011948       ??_C@_1CI@HCFHGOFD@?$AAg?$AAe?$AAr?$AAm?$AAa?$AAn?$AA?9?$AAl?$AAi?$AAc?$AAh?$AAt?$AAe?$AAn?$AAs?$AAt?$AAe?$AAi?$AAn?$AA?$AA@ 0000000180226948     libucrt:get_qualified_locale.obj
 0002:00011978       ??_C@_1CE@FEDDNPDG@?$AAg?$AAe?$AAr?$AAm?$AAa?$AAn?$AA?9?$AAl?$AAu?$AAx?$AAe?$AAm?$AAb?$AAo?$AAu?$AAr?$AAg?$AA?$AA@ 0000000180226978     libucrt:get_qualified_locale.obj
 0002:000119a8       ??_C@_1BK@LIMINNMN@?$AAg?$AAe?$AAr?$AAm?$AAa?$AAn?$AA?9?$AAs?$AAw?$AAi?$AAs?$AAs?$AA?$AA@ 00000001802269a8     libucrt:get_qualified_locale.obj
 0002:000119c8       ??_C@_1BM@LGMDBEPD@?$AAi?$AAr?$AAi?$AAs?$AAh?$AA?9?$AAe?$AAn?$AAg?$AAl?$AAi?$AAs?$AAh?$AA?$AA@ 00000001802269c8     libucrt:get_qualified_locale.obj
 0002:000119f0       ??_C@_1BM@NNCFBAEE@?$AAi?$AAt?$AAa?$AAl?$AAi?$AAa?$AAn?$AA?9?$AAs?$AAw?$AAi?$AAs?$AAs?$AA?$AA@ 00000001802269f0     libucrt:get_qualified_locale.obj
 0002:00011a18       ??_C@_1BE@FEDJNPIB@?$AAn?$AAo?$AAr?$AAw?$AAe?$AAg?$AAi?$AAa?$AAn?$AA?$AA@ 0000000180226a18     libucrt:get_qualified_locale.obj
 0002:00011a30       ??_C@_1CC@CILKDEIE@?$AAn?$AAo?$AAr?$AAw?$AAe?$AAg?$AAi?$AAa?$AAn?$AA?9?$AAb?$AAo?$AAk?$AAm?$AAa?$AAl?$AA?$AA@ 0000000180226a30     libucrt:get_qualified_locale.obj
 0002:00011a58       ??_C@_1CE@DHMMHEPL@?$AAn?$AAo?$AAr?$AAw?$AAe?$AAg?$AAi?$AAa?$AAn?$AA?9?$AAn?$AAy?$AAn?$AAo?$AAr?$AAs?$AAk?$AA?$AA@ 0000000180226a58     libucrt:get_qualified_locale.obj
 0002:00011a88       ??_C@_1CK@OPNMHECD@?$AAp?$AAo?$AAr?$AAt?$AAu?$AAg?$AAu?$AAe?$AAs?$AAe?$AA?9?$AAb?$AAr?$AAa?$AAz?$AAi?$AAl?$AAi?$AAa?$AAn?$AA?$AA@ 0000000180226a88     libucrt:get_qualified_locale.obj
 0002:00011ac0       ??_C@_1CE@KEEHCDB@?$AAs?$AAp?$AAa?$AAn?$AAi?$AAs?$AAh?$AA?9?$AAa?$AAr?$AAg?$AAe?$AAn?$AAt?$AAi?$AAn?$AAa?$AA?$AA@ 0000000180226ac0     libucrt:get_qualified_locale.obj
 0002:00011af0       ??_C@_1CA@GIAOLHJD@?$AAs?$AAp?$AAa?$AAn?$AAi?$AAs?$AAh?$AA?9?$AAb?$AAo?$AAl?$AAi?$AAv?$AAi?$AAa?$AA?$AA@ 0000000180226af0     libucrt:get_qualified_locale.obj
 0002:00011b18       ??_C@_1BM@OJNDFNPD@?$AAs?$AAp?$AAa?$AAn?$AAi?$AAs?$AAh?$AA?9?$AAc?$AAh?$AAi?$AAl?$AAe?$AA?$AA@ 0000000180226b18     libucrt:get_qualified_locale.obj
 0002:00011b40       ??_C@_1CC@OCOLPALL@?$AAs?$AAp?$AAa?$AAn?$AAi?$AAs?$AAh?$AA?9?$AAc?$AAo?$AAl?$AAo?$AAm?$AAb?$AAi?$AAa?$AA?$AA@ 0000000180226b40     libucrt:get_qualified_locale.obj
 0002:00011b68       ??_C@_1CG@BPOFMKBB@?$AAs?$AAp?$AAa?$AAn?$AAi?$AAs?$AAh?$AA?9?$AAc?$AAo?$AAs?$AAt?$AAa?$AA?5?$AAr?$AAi?$AAc?$AAa?$AA?$AA@ 0000000180226b68     libucrt:get_qualified_locale.obj
 0002:00011b98       ??_C@_1DG@IGOBAPBB@?$AAs?$AAp?$AAa?$AAn?$AAi?$AAs?$AAh?$AA?9?$AAd?$AAo?$AAm?$AAi?$AAn?$AAi?$AAc?$AAa?$AAn?$AA?5?$AAr?$AAe?$AAp?$AAu?$AAb?$AAl?$AAi?$AAc?$AA?$AA@ 0000000180226b98     libucrt:get_qualified_locale.obj
 0002:00011bd8       ??_C@_1CA@JHAPGEGI@?$AAs?$AAp?$AAa?$AAn?$AAi?$AAs?$AAh?$AA?9?$AAe?$AAc?$AAu?$AAa?$AAd?$AAo?$AAr?$AA?$AA@ 0000000180226bd8     libucrt:get_qualified_locale.obj
 0002:00011c00       ??_C@_1CI@LAPALJPP@?$AAs?$AAp?$AAa?$AAn?$AAi?$AAs?$AAh?$AA?9?$AAe?$AAl?$AA?5?$AAs?$AAa?$AAl?$AAv?$AAa?$AAd?$AAo?$AAr?$AA?$AA@ 0000000180226c00     libucrt:get_qualified_locale.obj
 0002:00011c30       ??_C@_1CE@PDGBOFOM@?$AAs?$AAp?$AAa?$AAn?$AAi?$AAs?$AAh?$AA?9?$AAg?$AAu?$AAa?$AAt?$AAe?$AAm?$AAa?$AAl?$AAa?$AA?$AA@ 0000000180226c30     libucrt:get_qualified_locale.obj
 0002:00011c60       ??_C@_1CC@NBEBAODI@?$AAs?$AAp?$AAa?$AAn?$AAi?$AAs?$AAh?$AA?9?$AAh?$AAo?$AAn?$AAd?$AAu?$AAr?$AAa?$AAs?$AA?$AA@ 0000000180226c60     libucrt:get_qualified_locale.obj
 0002:00011c88       ??_C@_1CA@LLKGHBMF@?$AAs?$AAp?$AAa?$AAn?$AAi?$AAs?$AAh?$AA?9?$AAm?$AAe?$AAx?$AAi?$AAc?$AAa?$AAn?$AA?$AA@ 0000000180226c88     libucrt:get_qualified_locale.obj
 0002:00011cb0       ??_C@_1BO@LKNDOIGD@?$AAs?$AAp?$AAa?$AAn?$AAi?$AAs?$AAh?$AA?9?$AAm?$AAo?$AAd?$AAe?$AAr?$AAn?$AA?$AA@ 0000000180226cb0     libucrt:get_qualified_locale.obj
 0002:00011cd8       ??_C@_1CE@NMDMOEEB@?$AAs?$AAp?$AAa?$AAn?$AAi?$AAs?$AAh?$AA?9?$AAn?$AAi?$AAc?$AAa?$AAr?$AAa?$AAg?$AAu?$AAa?$AA?$AA@ 0000000180226cd8     libucrt:get_qualified_locale.obj
 0002:00011d08       ??_C@_1BO@LLCBEJGB@?$AAs?$AAp?$AAa?$AAn?$AAi?$AAs?$AAh?$AA?9?$AAp?$AAa?$AAn?$AAa?$AAm?$AAa?$AA?$AA@ 0000000180226d08     libucrt:get_qualified_locale.obj
 0002:00011d30       ??_C@_1CC@FKPGGIHO@?$AAs?$AAp?$AAa?$AAn?$AAi?$AAs?$AAh?$AA?9?$AAp?$AAa?$AAr?$AAa?$AAg?$AAu?$AAa?$AAy?$AA?$AA@ 0000000180226d30     libucrt:get_qualified_locale.obj
 0002:00011d58       ??_C@_1BK@CDEIHOOP@?$AAs?$AAp?$AAa?$AAn?$AAi?$AAs?$AAh?$AA?9?$AAp?$AAe?$AAr?$AAu?$AA?$AA@ 0000000180226d58     libucrt:get_qualified_locale.obj
 0002:00011d78       ??_C@_1CI@GAHAKKGP@?$AAs?$AAp?$AAa?$AAn?$AAi?$AAs?$AAh?$AA?9?$AAp?$AAu?$AAe?$AAr?$AAt?$AAo?$AA?5?$AAr?$AAi?$AAc?$AAo?$AA?$AA@ 0000000180226d78     libucrt:get_qualified_locale.obj
 0002:00011da8       ??_C@_1CA@NKJBCAGP@?$AAs?$AAp?$AAa?$AAn?$AAi?$AAs?$AAh?$AA?9?$AAu?$AAr?$AAu?$AAg?$AAu?$AAa?$AAy?$AA?$AA@ 0000000180226da8     libucrt:get_qualified_locale.obj
 0002:00011dd0       ??_C@_1CE@ODILCONM@?$AAs?$AAp?$AAa?$AAn?$AAi?$AAs?$AAh?$AA?9?$AAv?$AAe?$AAn?$AAe?$AAz?$AAu?$AAe?$AAl?$AAa?$AA?$AA@ 0000000180226dd0     libucrt:get_qualified_locale.obj
 0002:00011e00       ??_C@_1CA@OBNMCGFO@?$AAs?$AAw?$AAe?$AAd?$AAi?$AAs?$AAh?$AA?9?$AAf?$AAi?$AAn?$AAl?$AAa?$AAn?$AAd?$AA?$AA@ 0000000180226e00     libucrt:get_qualified_locale.obj
 0002:00011e28       ??_C@_1M@PIPDDPPI@?$AAs?$AAw?$AAi?$AAs?$AAs?$AA?$AA@ 0000000180226e28     libucrt:get_qualified_locale.obj
 0002:00011e38       ??_C@_15GMFIMNFM@?$AAu?$AAs?$AA?$AA@ 0000000180226e38     libucrt:get_qualified_locale.obj
 0002:00011e40       ??_C@_17HAEBFAGL@?$AAu?$AAs?$AAa?$AA?$AA@ 0000000180226e40     libucrt:get_qualified_locale.obj
 0002:00011e50       ??_C@_1BA@DPFJEPHB@?$AAa?$AAm?$AAe?$AAr?$AAi?$AAc?$AAa?$AA?$AA@ 0000000180226e50     libucrt:get_qualified_locale.obj
 0002:00011e68       ??_C@_1BA@ELOGGFK@?$AAb?$AAr?$AAi?$AAt?$AAa?$AAi?$AAn?$AA?$AA@ 0000000180226e68     libucrt:get_qualified_locale.obj
 0002:00011e80       ??_C@_1M@GHBGIGDA@?$AAc?$AAh?$AAi?$AAn?$AAa?$AA?$AA@ 0000000180226e80     libucrt:get_qualified_locale.obj
 0002:00011e90       ??_C@_1M@NCHEJOPO@?$AAc?$AAz?$AAe?$AAc?$AAh?$AA?$AA@ 0000000180226e90     libucrt:get_qualified_locale.obj
 0002:00011ea0       ??_C@_1BA@BKPAPBLA@?$AAe?$AAn?$AAg?$AAl?$AAa?$AAn?$AAd?$AA?$AA@ 0000000180226ea0     libucrt:get_qualified_locale.obj
 0002:00011eb8       ??_C@_1BM@HKBCKIPC@?$AAg?$AAr?$AAe?$AAa?$AAt?$AA?5?$AAb?$AAr?$AAi?$AAt?$AAa?$AAi?$AAn?$AA?$AA@ 0000000180226eb8     libucrt:get_qualified_locale.obj
 0002:00011ee0       ??_C@_1BA@PPCHPGJB@?$AAh?$AAo?$AAl?$AAl?$AAa?$AAn?$AAd?$AA?$AA@ 0000000180226ee0     libucrt:get_qualified_locale.obj
 0002:00011ef8       ??_C@_1BE@JBMPEGDG@?$AAh?$AAo?$AAn?$AAg?$AA?9?$AAk?$AAo?$AAn?$AAg?$AA?$AA@ 0000000180226ef8     libucrt:get_qualified_locale.obj
 0002:00011f10       ??_C@_1BI@KOELBBPJ@?$AAn?$AAe?$AAw?$AA?9?$AAz?$AAe?$AAa?$AAl?$AAa?$AAn?$AAd?$AA?$AA@ 0000000180226f10     libucrt:get_qualified_locale.obj
 0002:00011f2c       ??_C@_15HIEBHAIO@?$AAn?$AAz?$AA?$AA@ 0000000180226f2c     libucrt:get_qualified_locale.obj
 0002:00011f38       ??_C@_1BC@CHBCPFPI@?$AAp?$AAr?$AA?5?$AAc?$AAh?$AAi?$AAn?$AAa?$AA?$AA@ 0000000180226f38     libucrt:get_qualified_locale.obj
 0002:00011f50       ??_C@_1BC@JAOIIFKD@?$AAp?$AAr?$AA?9?$AAc?$AAh?$AAi?$AAn?$AAa?$AA?$AA@ 0000000180226f50     libucrt:get_qualified_locale.obj
 0002:00011f68       ??_C@_1BI@BEHPPHKC@?$AAp?$AAu?$AAe?$AAr?$AAt?$AAo?$AA?9?$AAr?$AAi?$AAc?$AAo?$AA?$AA@ 0000000180226f68     libucrt:get_qualified_locale.obj
 0002:00011f88       ??_C@_1O@PAEOFKDI@?$AAs?$AAl?$AAo?$AAv?$AAa?$AAk?$AA?$AA@ 0000000180226f88     libucrt:get_qualified_locale.obj
 0002:00011f98       ??_C@_1BK@FIHMCKAM@?$AAs?$AAo?$AAu?$AAt?$AAh?$AA?5?$AAa?$AAf?$AAr?$AAi?$AAc?$AAa?$AA?$AA@ 0000000180226f98     libucrt:get_qualified_locale.obj
 0002:00011fb8       ??_C@_1BI@NAEOODKB@?$AAs?$AAo?$AAu?$AAt?$AAh?$AA?5?$AAk?$AAo?$AAr?$AAe?$AAa?$AA?$AA@ 0000000180226fb8     libucrt:get_qualified_locale.obj
 0002:00011fd8       ??_C@_1BK@FBDGGIFF@?$AAs?$AAo?$AAu?$AAt?$AAh?$AA?9?$AAa?$AAf?$AAr?$AAi?$AAc?$AAa?$AA?$AA@ 0000000180226fd8     libucrt:get_qualified_locale.obj
 0002:00011ff8       ??_C@_1BI@GHLEJDPK@?$AAs?$AAo?$AAu?$AAt?$AAh?$AA?9?$AAk?$AAo?$AAr?$AAe?$AAa?$AA?$AA@ 0000000180226ff8     libucrt:get_qualified_locale.obj
 0002:00012018       ??_C@_1CE@PLHLOMJF@?$AAt?$AAr?$AAi?$AAn?$AAi?$AAd?$AAa?$AAd?$AA?5?$AA?$CG?$AA?5?$AAt?$AAo?$AAb?$AAa?$AAg?$AAo?$AA?$AA@ 0000000180227018     libucrt:get_qualified_locale.obj
 0002:00012048       ??_C@_1BO@MODIMHHI@?$AAu?$AAn?$AAi?$AAt?$AAe?$AAd?$AA?9?$AAk?$AAi?$AAn?$AAg?$AAd?$AAo?$AAm?$AA?$AA@ 0000000180227048     libucrt:get_qualified_locale.obj
 0002:00012070       ??_C@_1BM@FFHJONBJ@?$AAu?$AAn?$AAi?$AAt?$AAe?$AAd?$AA?9?$AAs?$AAt?$AAa?$AAt?$AAe?$AAs?$AA?$AA@ 0000000180227070     libucrt:get_qualified_locale.obj
 0002:00012098       ??_C@_17DNCLJFIF@?$AAA?$AAC?$AAP?$AA?$AA@ 0000000180227098     libucrt:get_qualified_locale.obj
 0002:000120a8       ??_C@_17CIKBIHLH@?$AAO?$AAC?$AAP?$AA?$AA@ 00000001802270a8     libucrt:get_qualified_locale.obj
 0002:000120b8       __rglangidNotDefault       00000001802270b8     libucrt:getqloc_downlevel.obj
 0002:00012160       _d_inf                     0000000180227160     libucrt:util.obj
 0002:00012170       _d_ind                     0000000180227170     libucrt:util.obj
 0002:00012180       _d_max                     0000000180227180     libucrt:util.obj
 0002:00012190       _d_min                     0000000180227190     libucrt:util.obj
 0002:000121a0       _d_mzero                   00000001802271a0     libucrt:util.obj
 0002:000121b0       ??_C@_1DE@JNGNBFGO@?$AAR?$AAu?$AAn?$AAt?$AAi?$AAm?$AAe?$AA?5?$AAE?$AAr?$AAr?$AAo?$AAr?$AA?$CB?$AA?6?$AA?6?$AAP?$AAr?$AAo?$AAg?$AAr?$AAa?$AAm?$AA?3?$AA?5?$AA?$AA@ 00000001802271b0     libucrt:report_runtime_error.obj
 0002:000121f0       ??_C@_1CO@EAEJAADC@?$AA?$DM?$AAp?$AAr?$AAo?$AAg?$AAr?$AAa?$AAm?$AA?5?$AAn?$AAa?$AAm?$AAe?$AA?5?$AAu?$AAn?$AAk?$AAn?$AAo?$AAw?$AAn?$AA?$DO?$AA?$AA@ 00000001802271f0     libucrt:report_runtime_error.obj
 0002:00012228       ??_C@_17LGKOMLJ@?$AA?4?$AA?4?$AA?4?$AA?$AA@ 0000000180227228     libucrt:report_runtime_error.obj
 0002:00012234       ??_C@_15IABLJNFO@?$AA?6?$AA?6?$AA?$AA@ 0000000180227234     libucrt:report_runtime_error.obj
 0002:00012240       ??_C@_1EK@MBDPDCGA@?$AAM?$AAi?$AAc?$AAr?$AAo?$AAs?$AAo?$AAf?$AAt?$AA?5?$AAV?$AAi?$AAs?$AAu?$AAa?$AAl?$AA?5?$AAC?$AA?$CL?$AA?$CL?$AA?5?$AAR?$AAu?$AAn?$AAt?$AAi?$AAm?$AAe?$AA?5?$AAL?$AAi?$AAb@ 0000000180227240     libucrt:report_runtime_error.obj
 0002:00012298       __real@3ff0000000000000    0000000180227298     libucrt:ceil.obj
 0002:00012580       __log10_256_lead           0000000180227580     libucrt:log10_256_lead_tail_table.obj
 0002:00012d90       __log10_256_tail           0000000180227d90     libucrt:log10_256_lead_tail_table.obj
 0002:000138d0       __log_F_inv_qword          00000001802288d0     libucrt:log_f_inv_qword_table.obj
 0002:0001427c       ??_C@_04HIGFGEHP@logf?$AA@ 000000018022927c     libucrt:log_special.obj
 0002:00014284       ??_C@_06KDGOKGLH@log10f?$AA@ 0000000180229284     libucrt:log_special.obj
 0002:00014290       ??_C@_1BA@BALFACEM@?$AAC?$AAO?$AAN?$AAO?$AAU?$AAT?$AA$?$AA?$AA@ 0000000180229290     libucrt:initcon.obj
 0002:00014b68       ??_R4type_info@@6B@        0000000180229b68     LIBCMT:std_type_info_static.obj
 0002:00014b98       ??_R3type_info@@8          0000000180229b98     LIBCMT:std_type_info_static.obj
 0002:00014bb0       ??_R2type_info@@8          0000000180229bb0     LIBCMT:std_type_info_static.obj
 0002:00014bc0       ??_R1A@?0A@EA@type_info@@8 0000000180229bc0     LIBCMT:std_type_info_static.obj
 0002:00014bf0       ??_R4DNameNode@@6B@        0000000180229bf0     libvcruntime:undname.obj
 0002:00014c20       ??_R3DNameNode@@8          0000000180229c20     libvcruntime:undname.obj
 0002:00014c38       ??_R2DNameNode@@8          0000000180229c38     libvcruntime:undname.obj
 0002:00014c48       ??_R1A@?0A@EA@DNameNode@@8 0000000180229c48     libvcruntime:undname.obj
 0002:00014c78       ??_R4charNode@@6B@         0000000180229c78     libvcruntime:undname.obj
 0002:00014ca8       ??_R3charNode@@8           0000000180229ca8     libvcruntime:undname.obj
 0002:00014cc0       ??_R2charNode@@8           0000000180229cc0     libvcruntime:undname.obj
 0002:00014cd8       ??_R1A@?0A@EA@charNode@@8  0000000180229cd8     libvcruntime:undname.obj
 0002:00014d08       ??_R4pcharNode@@6B@        0000000180229d08     libvcruntime:undname.obj
 0002:00014d38       ??_R3pcharNode@@8          0000000180229d38     libvcruntime:undname.obj
 0002:00014d50       ??_R2pcharNode@@8          0000000180229d50     libvcruntime:undname.obj
 0002:00014d68       ??_R1A@?0A@EA@pcharNode@@8 0000000180229d68     libvcruntime:undname.obj
 0002:00014d98       ??_R4pDNameNode@@6B@       0000000180229d98     libvcruntime:undname.obj
 0002:00014dc8       ??_R3pDNameNode@@8         0000000180229dc8     libvcruntime:undname.obj
 0002:00014de0       ??_R2pDNameNode@@8         0000000180229de0     libvcruntime:undname.obj
 0002:00014df8       ??_R1A@?0A@EA@pDNameNode@@8 0000000180229df8     libvcruntime:undname.obj
 0002:00014e28       ??_R4DNameStatusNode@@6B@  0000000180229e28     libvcruntime:undname.obj
 0002:00014e58       ??_R3DNameStatusNode@@8    0000000180229e58     libvcruntime:undname.obj
 0002:00014e70       ??_R2DNameStatusNode@@8    0000000180229e70     libvcruntime:undname.obj
 0002:00014e88       ??_R1A@?0A@EA@DNameStatusNode@@8 0000000180229e88     libvcruntime:undname.obj
 0002:00014eb8       ??_R4pairNode@@6B@         0000000180229eb8     libvcruntime:undname.obj
 0002:00014ee8       ??_R3pairNode@@8           0000000180229ee8     libvcruntime:undname.obj
 0002:00014f00       ??_R2pairNode@@8           0000000180229f00     libvcruntime:undname.obj
 0002:00014f18       ??_R1A@?0A@EA@pairNode@@8  0000000180229f18     libvcruntime:undname.obj
 0002:000151e0       __rtc_iaa                  000000018022a1e0     LIBCMT:_initsect_.obj
 0002:000152f0       __rtc_izz                  000000018022a2f0     LIBCMT:_initsect_.obj
 0002:00015400       __rtc_taa                  000000018022a400     LIBCMT:_initsect_.obj
 0002:00015510       __rtc_tzz                  000000018022a510     LIBCMT:_initsect_.obj
 0003:00000000       __pfnDliNotifyHook2        000000018024d000     CmWindowsDelayLoadHook.obj
 0003:00000484       ?mVersion@RTree@Gu@physx@@2IA 000000018024d484     GuRTree.obj
 0003:000004c0       ?g_SweepMethodTable@Gu@physx@@3PAY06P6AMAEBUCCDShape@12@0AEBVPxTransform@2@111MAEAVPxVec3@2@2MAEAIM@ZA 000000018024d4c0     GuCCDSweepPrimitives.obj
 0003:00000648       ?g_TriangleSweepMethodTable@Gu@physx@@3PAP6AMAEBVGeometryUnion@12@0AEBVPxTransform@2@111MAEAVPxVec3@2@2AEBVFastVertex2ShapeScaling@Cm@2@AEAVTriangleV@12@M@ZA 000000018024d648     GuCCDSweepPrimitives.obj
 0003:00000700       ?gGeomMTDMethodTable@@3PAY06P6A_NAEAVPxVec3@physx@@AEAMAEBVPxGeometry@2@AEBVPxTransform@2@23@ZA 000000018024d700     GuMTD.obj
 0003:000008e0       ?gGeomOverlapMethodTable@@3PAY06P6A_NAEBVPxGeometry@physx@@AEBVPxTransform@2@01PEAUTriggerCache@Gu@2@@ZA 000000018024d8e0     GuOverlapTests.obj
 0003:00000ab8       ?gRaycastMap@@3PAP6AIAEBVPxGeometry@physx@@AEBVPxTransform@2@AEBVPxVec3@2@2MV?$PxFlags@W4Enum@PxHitFlag@physx@@G@2@IPEIAUPxRaycastHit@2@@ZA 000000018024dab8     GuRaycastTests.obj
 0003:00000b00       ?gGeomSweepFuncs@@3UGeomSweepFuncs@Gu@physx@@A 000000018024db00     GuSweepTests.obj
 0003:00000c50       _fltused                   000000018024dc50     LIBCMT:fltused.obj
 0003:00000c60       __scrt_native_dllmain_reason 000000018024dc60     LIBCMT:utility.obj
 0003:00000c68       __security_cookie          000000018024dc68     LIBCMT:gs_cookie.obj
 0003:00000c70       __security_cookie_complement 000000018024dc70     LIBCMT:gs_cookie.obj
 0003:00000c80       __isa_available            000000018024dc80     LIBCMT:_cpu_disp_.obj
 0003:00000c84       __isa_enabled              000000018024dc84     LIBCMT:_cpu_disp_.obj
 0003:00000c88       __memcpy_nt_iters          000000018024dc88     LIBCMT:_cpu_disp_.obj
 0003:00000cb0       __abort_behavior           000000018024dcb0     libucrt:abort.obj
 0003:00000cf0       __acrt_initial_multibyte_data 000000018024dcf0     libucrt:mbctype.obj
 0003:00000f88       __acrt_current_multibyte_data 000000018024df88     libucrt:mbctype.obj
 0003:000010c0       _mbctype                   000000018024e0c0     libucrt:mbctype.obj
 0003:00001200       _mbcasemap                 000000018024e200     libucrt:mbctype.obj
 0003:00001340       __badioinfo                000000018024e340     libucrt:ioinit.obj
 0003:00001390       __acrt_initial_locale_data 000000018024e390     libucrt:nlsdata.obj
 0003:00001530       __acrt_initial_locale_pointers 000000018024e530     libucrt:nlsdata.obj
 0003:00001544       __acrt_wide_c_locale_string 000000018024e544     libucrt:nlsdata.obj
 0003:00001548       __mb_cur_max               000000018024e548     libucrt:nlsdata.obj
 0003:00001550       _iob                       000000018024e550     libucrt:_file.obj
 0003:000016a0       _pctype                    000000018024e6a0     libucrt:ctype.obj
 0003:000016b0       _pwctype                   000000018024e6b0     libucrt:ctype.obj
 0003:000016c0       __globallocalestatus       000000018024e6c0     libucrt:glstatus.obj
 0003:000016d0       __acrt_lconv_c             000000018024e6d0     libucrt:localeconv.obj
 0003:00001788       __acrt_lconv               000000018024e788     libucrt:localeconv.obj
 0003:00001794       __acrt_lconv_static_decimal 000000018024e794     libucrt:localeconv.obj
 0003:00001798       __acrt_lconv_static_W_decimal 000000018024e798     libucrt:localeconv.obj
 0003:000017b0       __dcrt_lowio_console_output_handle 000000018024e7b0     libucrt:initcon.obj
 0003:00001918       ??_R0?AVCollection@Cm@physx@@@8 000000018024e918     CmCollection.obj
 0003:00001950       ??_R0?AVBigConvexData@physx@@@8 000000018024e950     GuConvexMesh.obj
 0003:00001988       ??_R0?AUBV32Data@Gu@physx@@@8 000000018024e988     GuBV32Build.obj
 0003:000019b8       ??_R0?AUBV32Node@@@8       000000018024e9b8     GuBV32Build.obj
 0003:000019e0       ??_R0?AVIndTri16@Gu@physx@@@8 000000018024e9e0     GuBV4.obj
 0003:00001a10       ??_R0?AVIndTri32@Gu@physx@@@8 000000018024ea10     GuBV4.obj
 0003:00001a40       ??_R0?AUBVDataPacked@Gu@physx@@@8 000000018024ea40     GuBV4Build.obj
 0003:00001a78       ??_R0?AUSlab@BV4BuildParams@@@8 000000018024ea78     GuBV4Build.obj
 0003:00001ab0       ??_R0?AVAABBTreeNode@Gu@physx@@@8 000000018024eab0     GuBV4Build.obj
 0003:00001ae8       ??_R0?AVHeightField@Gu@physx@@@8 000000018024eae8     GuMeshFactory.obj
 0003:00001b20       ??_R0?AVConvexMesh@Gu@physx@@@8 000000018024eb20     GuMeshFactory.obj
 0003:00001b58       ??_R0?AVBV4TriangleMesh@Gu@physx@@@8 000000018024eb58     GuMeshFactory.obj
 0003:00001b90       ??_R0?AVRTreeTriangleMesh@Gu@physx@@@8 000000018024eb90     GuMeshFactory.obj
 0003:00001bd0       ??_R0?AVMutexImpl@shdfnd@physx@@@8 000000018024ebd0     GuMeshFactory.obj
 0003:00001c08       ??_R0?AVBV32Tree@Gu@physx@@@8 000000018024ec08     GuMeshFactory.obj
 0003:00001c38       ??_R0?AVBV4TriangleData@Gu@physx@@@8 000000018024ec38     GuMeshFactory.obj
 0003:00001c70       ??_R0?AVRTreeTriangleData@Gu@physx@@@8 000000018024ec70     GuMeshFactory.obj
 0003:00001cb0       ??_R0E@8                   000000018024ecb0     GuMeshFactory.obj
 0003:00001cc8       ??_R0I@8                   000000018024ecc8     GuMeshFactory.obj
 0003:00001ce0       ??_R0G@8                   000000018024ece0     GuMeshFactory.obj
 0003:00001cf8       ??_R0?AVtype_info@@@8      000000018024ecf8     LIBCMT:std_type_info_static.obj
 0003:00001d20       ??_R0?AVDNameNode@@@8      000000018024ed20     libvcruntime:undname.obj
 0003:00001d48       ??_R0?AVcharNode@@@8       000000018024ed48     libvcruntime:undname.obj
 0003:00001d70       ??_R0?AVpcharNode@@@8      000000018024ed70     libvcruntime:undname.obj
 0003:00001d98       ??_R0?AVpDNameNode@@@8     000000018024ed98     libvcruntime:undname.obj
 0003:00001dc0       ??_R0?AVDNameStatusNode@@@8 000000018024edc0     libvcruntime:undname.obj
 0003:00001df0       ??_R0?AVpairNode@@@8       000000018024edf0     libvcruntime:undname.obj
 0003:00002a20       ?boxVertexTable@physx@@3QBT__m128@@B 000000018024fa20     GuConvexSupportTable.obj
 0003:000055b8       __hmod__PxFoundationCHECKED_x64_dll 00000001802525b8     PxFoundationCHECKED_x64:PxFoundationCHECKED_x64.dll
 0003:000055c0       ?DloadKernel32@@3PEAUHINSTANCE__@@EA 00000001802525c0     delayimp:delayhlp.obj
 0003:000055c8       ?DloadAcquireSRWLockExclusive@@3P6AXPEA_K@ZEA 00000001802525c8     delayimp:delayhlp.obj
 0003:000055d0       ?DloadReleaseSRWLockExclusive@@3P6AXPEA_K@ZEA 00000001802525d0     delayimp:delayhlp.obj
 0003:000055d8       ?DloadSrwLock@@3_KA        00000001802525d8     delayimp:delayhlp.obj
 0003:000055e0       ?DloadSectionLockCount@@3KA 00000001802525e0     delayimp:delayhlp.obj
 0003:000055e4       ?DloadSectionOldProtection@@3KA 00000001802525e4     delayimp:delayhlp.obj
 0003:000055e8       ?DloadSectionCommitPermanent@@3KA 00000001802525e8     delayimp:delayhlp.obj
 0003:00005600       ?__type_info_root_node@@3U__type_info_node@@A 0000000180252600     LIBCMT:tncleanup.obj
 0003:00005618       __scrt_current_native_startup_state 0000000180252618     LIBCMT:utility.obj
 0003:00005620       __scrt_native_startup_lock 0000000180252620     LIBCMT:utility.obj
 0003:00005668       ?_OptionsStorage@?1??__local_stdio_printf_options@@9@4_KA 0000000180252668     LIBCMT:default_local_stdio_options.obj
 0003:00005678       ?_OptionsStorage@?1??__local_stdio_scanf_options@@9@4_KA 0000000180252678     LIBCMT:default_local_stdio_options.obj
 0003:00005684       __scrt_debugger_hook_flag  0000000180252684     LIBCMT:utility_desktop.obj
 0003:00005688       __favor                    0000000180252688     LIBCMT:_cpu_disp_.obj
 0003:00005690       __pPurecall                0000000180252690     libvcruntime:purevirt_data.obj
 0003:000056a0       ?pArgList@UnDecorator@@0PEAVReplicator@@EA 00000001802526a0     libvcruntime:undname.obj
 0003:000056a8       ?pZNameList@UnDecorator@@0PEAVReplicator@@EA 00000001802526a8     libvcruntime:undname.obj
 0003:000056b0       ?pTemplateArgList@UnDecorator@@0PEAVReplicator@@EA 00000001802526b0     libvcruntime:undname.obj
 0003:000056b8       ?gName@UnDecorator@@0PEBDEB 00000001802526b8     libvcruntime:undname.obj
 0003:000056c0       ?name@UnDecorator@@0PEBDEB 00000001802526c0     libvcruntime:undname.obj
 0003:000056c8       ?outputString@UnDecorator@@0PEADEA 00000001802526c8     libvcruntime:undname.obj
 0003:000056d0       ?maxStringLength@UnDecorator@@0HA 00000001802526d0     libvcruntime:undname.obj
 0003:000056d4       ?disableFlags@UnDecorator@@0KA 00000001802526d4     libvcruntime:undname.obj
 0003:000056d8       ?fExplicitTemplateParams@UnDecorator@@0_NA 00000001802526d8     libvcruntime:undname.obj
 0003:000056d9       ?fGetTemplateArgumentList@UnDecorator@@0_NA 00000001802526d9     libvcruntime:undname.obj
 0003:000056e0       ?m_pGetParameter@UnDecorator@@0P6APEADJ@ZEA 00000001802526e0     libvcruntime:undname.obj
 0003:00005730       ?nodes@?1??make@DNameStatusNode@@SAPEAV2@W4DNameStatus@@@Z@4PAV2@A 0000000180252730     libvcruntime:undname.obj
 0003:0000577c       ??_B?1??make@DNameStatusNode@@SAPEAV1@W4DNameStatus@@@Z@51 000000018025277c     libvcruntime:undname.obj
 0003:00005c98       _environ_table             0000000180252c98     libucrt:environment_initialization.obj
 0003:00005ca0       _wenviron_table            0000000180252ca0     libucrt:environment_initialization.obj
 0003:00005cb0       __dcrt_initial_wide_environment 0000000180252cb0     libucrt:environment_initialization.obj
 0003:00005cc0       __dcrt_initial_narrow_environment 0000000180252cc0     libucrt:environment_initialization.obj
 0003:00005cd0       __acrt_atexit_table        0000000180252cd0     libucrt:onexit.obj
 0003:00005cf0       __acrt_at_quick_exit_table 0000000180252cf0     libucrt:onexit.obj
 0003:00005d0c       __fma3_is_available        0000000180252d0c     libucrt:fma3_available.obj
 0003:00005d10       __use_fma3_lib             0000000180252d10     libucrt:fma3_available.obj
 0003:000061b4       __mbcodepage               00000001802531b4     libucrt:mbctype.obj
 0003:000061b8       __ismbcodepage             00000001802531b8     libucrt:mbctype.obj
 0003:000061c0       __mbulinfo                 00000001802531c0     libucrt:mbctype.obj
 0003:000061d8       __mblocalename             00000001802531d8     libucrt:mbctype.obj
 0003:000061e4       __argc                     00000001802531e4     libucrt:argv_data.obj
 0003:000061e8       __argv                     00000001802531e8     libucrt:argv_data.obj
 0003:000061f8       __wargv                    00000001802531f8     libucrt:argv_data.obj
 0003:00006208       _acmdln                    0000000180253208     libucrt:argv_data.obj
 0003:00006218       _wcmdln                    0000000180253218     libucrt:argv_data.obj
 0003:00006228       _pgmptr                    0000000180253228     libucrt:argv_data.obj
 0003:00006238       _wpgmptr                   0000000180253238     libucrt:argv_data.obj
 0003:00006248       __acrt_heap                0000000180253248     libucrt:heap_handle.obj
 0003:00006260       __pioinfo                  0000000180253260     libucrt:ioinit.obj
 0003:0000672c       _nhandle                   000000018025372c     libucrt:ioinit.obj
 0003:00006778       __acrt_current_locale_data 0000000180253778     libucrt:nlsdata.obj
 0003:00006788       __acrt_stdout_buffer       0000000180253788     libucrt:_sftbuf.obj
 0003:00006798       __acrt_stderr_buffer       0000000180253798     libucrt:_sftbuf.obj
 0003:000067a8       _nstream                   00000001802537a8     libucrt:_file.obj
 0003:000067b0       __piob                     00000001802537b0     libucrt:_file.obj
 0003:000067bc       _cflush                    00000001802537bc     libucrt:_file.obj
 0003:000067cc       __acrt_locale_changed_data 00000001802537cc     libucrt:wsetlocale.obj
 0003:000067d0       __acrt_lconv_static_null   00000001802537d0     libucrt:localeconv.obj
 0003:000067d4       __acrt_lconv_static_W_null 00000001802537d4     libucrt:localeconv.obj
 0003:000075d8       __scrt_ucrt_dll_is_in_use  00000001802545d8     <common>
 0003:000075e8       __dyn_tls_init_callback    00000001802545e8     <common>
 0003:00007600       _pDestructExceptionObject  0000000180254600     <common>
 0005:00000000       __imp_LoadLibraryA         0000000180261000     kernel32:KERNEL32.dll
 0005:00000008       __imp_FreeLibrary          0000000180261008     kernel32:KERNEL32.dll
 0005:00000010       __imp_GetProcAddress       0000000180261010     kernel32:KERNEL32.dll
 0005:00000018       __imp_RaiseException       0000000180261018     kernel32:KERNEL32.dll
 0005:00000020       __imp_GetLastError         0000000180261020     kernel32:KERNEL32.dll
 0005:00000028       __imp_GetSystemInfo        0000000180261028     kernel32:KERNEL32.dll
 0005:00000030       __imp_VirtualProtect       0000000180261030     kernel32:KERNEL32.dll
 0005:00000038       __imp_VirtualQuery         0000000180261038     kernel32:KERNEL32.dll
 0005:00000040       __imp_GetModuleHandleW     0000000180261040     kernel32:KERNEL32.dll
 0005:00000048       __imp_LoadLibraryExA       0000000180261048     kernel32:KERNEL32.dll
 0005:00000050       __imp_InitializeSListHead  0000000180261050     kernel32:KERNEL32.dll
 0005:00000058       __imp_QueryPerformanceCounter 0000000180261058     kernel32:KERNEL32.dll
 0005:00000060       __imp_GetCurrentProcessId  0000000180261060     kernel32:KERNEL32.dll
 0005:00000068       __imp_GetCurrentThreadId   0000000180261068     kernel32:KERNEL32.dll
 0005:00000070       __imp_GetSystemTimeAsFileTime 0000000180261070     kernel32:KERNEL32.dll
 0005:00000078       __imp_RtlCaptureContext    0000000180261078     kernel32:KERNEL32.dll
 0005:00000080       __imp_RtlLookupFunctionEntry 0000000180261080     kernel32:KERNEL32.dll
 0005:00000088       __imp_RtlVirtualUnwind     0000000180261088     kernel32:KERNEL32.dll
 0005:00000090       __imp_IsDebuggerPresent    0000000180261090     kernel32:KERNEL32.dll
 0005:00000098       __imp_UnhandledExceptionFilter 0000000180261098     kernel32:KERNEL32.dll
 0005:000000a0       __imp_SetUnhandledExceptionFilter 00000001802610a0     kernel32:KERNEL32.dll
 0005:000000a8       __imp_GetStartupInfoW      00000001802610a8     kernel32:KERNEL32.dll
 0005:000000b0       __imp_IsProcessorFeaturePresent 00000001802610b0     kernel32:KERNEL32.dll
 0005:000000b8       __imp_InterlockedPushEntrySList 00000001802610b8     kernel32:KERNEL32.dll
 0005:000000c0       __imp_InterlockedFlushSList 00000001802610c0     kernel32:KERNEL32.dll
 0005:000000c8       __imp_RtlUnwindEx          00000001802610c8     kernel32:KERNEL32.dll
 0005:000000d0       __imp_SetLastError         00000001802610d0     kernel32:KERNEL32.dll
 0005:000000d8       __imp_EnterCriticalSection 00000001802610d8     kernel32:KERNEL32.dll
 0005:000000e0       __imp_LeaveCriticalSection 00000001802610e0     kernel32:KERNEL32.dll
 0005:000000e8       __imp_DeleteCriticalSection 00000001802610e8     kernel32:KERNEL32.dll
 0005:000000f0       __imp_InitializeCriticalSectionAndSpinCount 00000001802610f0     kernel32:KERNEL32.dll
 0005:000000f8       __imp_TlsAlloc             00000001802610f8     kernel32:KERNEL32.dll
 0005:00000100       __imp_TlsGetValue          0000000180261100     kernel32:KERNEL32.dll
 0005:00000108       __imp_TlsSetValue          0000000180261108     kernel32:KERNEL32.dll
 0005:00000110       __imp_TlsFree              0000000180261110     kernel32:KERNEL32.dll
 0005:00000118       __imp_LoadLibraryExW       0000000180261118     kernel32:KERNEL32.dll
 0005:00000120       __imp_GetCurrentProcess    0000000180261120     kernel32:KERNEL32.dll
 0005:00000128       __imp_ExitProcess          0000000180261128     kernel32:KERNEL32.dll
 0005:00000130       __imp_TerminateProcess     0000000180261130     kernel32:KERNEL32.dll
 0005:00000138       __imp_GetModuleHandleExW   0000000180261138     kernel32:KERNEL32.dll
 0005:00000140       __imp_GetModuleFileNameA   0000000180261140     kernel32:KERNEL32.dll
 0005:00000148       __imp_GetModuleFileNameW   0000000180261148     kernel32:KERNEL32.dll
 0005:00000150       __imp_MultiByteToWideChar  0000000180261150     kernel32:KERNEL32.dll
 0005:00000158       __imp_WideCharToMultiByte  0000000180261158     kernel32:KERNEL32.dll
 0005:00000160       __imp_HeapFree             0000000180261160     kernel32:KERNEL32.dll
 0005:00000168       __imp_HeapAlloc            0000000180261168     kernel32:KERNEL32.dll
 0005:00000170       __imp_GetCurrentThread     0000000180261170     kernel32:KERNEL32.dll
 0005:00000178       __imp_GetDateFormatW       0000000180261178     kernel32:KERNEL32.dll
 0005:00000180       __imp_GetTimeFormatW       0000000180261180     kernel32:KERNEL32.dll
 0005:00000188       __imp_CompareStringW       0000000180261188     kernel32:KERNEL32.dll
 0005:00000190       __imp_LCMapStringW         0000000180261190     kernel32:KERNEL32.dll
 0005:00000198       __imp_GetLocaleInfoW       0000000180261198     kernel32:KERNEL32.dll
 0005:000001a0       __imp_IsValidLocale        00000001802611a0     kernel32:KERNEL32.dll
 0005:000001a8       __imp_GetUserDefaultLCID   00000001802611a8     kernel32:KERNEL32.dll
 0005:000001b0       __imp_EnumSystemLocalesW   00000001802611b0     kernel32:KERNEL32.dll
 0005:000001b8       __imp_FindClose            00000001802611b8     kernel32:KERNEL32.dll
 0005:000001c0       __imp_FindFirstFileExA     00000001802611c0     kernel32:KERNEL32.dll
 0005:000001c8       __imp_FindFirstFileExW     00000001802611c8     kernel32:KERNEL32.dll
 0005:000001d0       __imp_FindNextFileA        00000001802611d0     kernel32:KERNEL32.dll
 0005:000001d8       __imp_FindNextFileW        00000001802611d8     kernel32:KERNEL32.dll
 0005:000001e0       __imp_IsValidCodePage      00000001802611e0     kernel32:KERNEL32.dll
 0005:000001e8       __imp_GetACP               00000001802611e8     kernel32:KERNEL32.dll
 0005:000001f0       __imp_GetOEMCP             00000001802611f0     kernel32:KERNEL32.dll
 0005:000001f8       __imp_GetCPInfo            00000001802611f8     kernel32:KERNEL32.dll
 0005:00000200       __imp_GetCommandLineA      0000000180261200     kernel32:KERNEL32.dll
 0005:00000208       __imp_GetCommandLineW      0000000180261208     kernel32:KERNEL32.dll
 0005:00000210       __imp_GetEnvironmentStringsW 0000000180261210     kernel32:KERNEL32.dll
 0005:00000218       __imp_FreeEnvironmentStringsW 0000000180261218     kernel32:KERNEL32.dll
 0005:00000220       __imp_SetEnvironmentVariableA 0000000180261220     kernel32:KERNEL32.dll
 0005:00000228       __imp_SetEnvironmentVariableW 0000000180261228     kernel32:KERNEL32.dll
 0005:00000230       __imp_GetProcessHeap       0000000180261230     kernel32:KERNEL32.dll
 0005:00000238       __imp_GetStdHandle         0000000180261238     kernel32:KERNEL32.dll
 0005:00000240       __imp_GetFileType          0000000180261240     kernel32:KERNEL32.dll
 0005:00000248       __imp_SetConsoleCtrlHandler 0000000180261248     kernel32:KERNEL32.dll
 0005:00000250       __imp_GetStringTypeW       0000000180261250     kernel32:KERNEL32.dll
 0005:00000258       __imp_HeapSize             0000000180261258     kernel32:KERNEL32.dll
 0005:00000260       __imp_HeapReAlloc          0000000180261260     kernel32:KERNEL32.dll
 0005:00000268       __imp_SetStdHandle         0000000180261268     kernel32:KERNEL32.dll
 0005:00000270       __imp_WriteFile            0000000180261270     kernel32:KERNEL32.dll
 0005:00000278       __imp_FlushFileBuffers     0000000180261278     kernel32:KERNEL32.dll
 0005:00000280       __imp_GetConsoleCP         0000000180261280     kernel32:KERNEL32.dll
 0005:00000288       __imp_GetConsoleMode       0000000180261288     kernel32:KERNEL32.dll
 0005:00000290       __imp_SetFilePointerEx     0000000180261290     kernel32:KERNEL32.dll
 0005:00000298       __imp_OutputDebugStringA   0000000180261298     kernel32:KERNEL32.dll
 0005:000002a0       __imp_OutputDebugStringW   00000001802612a0     kernel32:KERNEL32.dll
 0005:000002a8       __imp_CloseHandle          00000001802612a8     kernel32:KERNEL32.dll
 0005:000002b0       __imp_WaitForSingleObjectEx 00000001802612b0     kernel32:KERNEL32.dll
 0005:000002b8       __imp_CreateThread         00000001802612b8     kernel32:KERNEL32.dll
 0005:000002c0       __imp_WriteConsoleW        00000001802612c0     kernel32:KERNEL32.dll
 0005:000002c8       __imp_CreateFileW          00000001802612c8     kernel32:KERNEL32.dll
 0005:000002d0       \177KERNEL32_NULL_THUNK_DATA 00000001802612d0     kernel32:KERNEL32.dll
 0005:000003b8       __IMPORT_DESCRIPTOR_KERNEL32 00000001802613b8     kernel32:KERNEL32.dll
 0005:000003cc       __NULL_IMPORT_DESCRIPTOR   00000001802613cc     kernel32:KERNEL32.dll
 0006:00000000       __DELAY_IMPORT_DESCRIPTOR_PxFoundationCHECKED_x64_dll 0000000180263000     PxFoundationCHECKED_x64:PxFoundationCHECKED_x64.dll
 0006:00000020       __NULL_DELAY_IMPORT_DESCRIPTOR 0000000180263020     PxFoundationCHECKED_x64:PxFoundationCHECKED_x64.dll
 0006:000000f0       \177PxFoundationCHECKED_x64_NULL_THUNK_DATA_DLN 00000001802630f0     PxFoundationCHECKED_x64:PxFoundationCHECKED_x64.dll
 0006:00000168       __imp_??0NamedAllocator@shdfnd@physx@@QEAA@PEBD@Z 0000000180263168     PxFoundationCHECKED_x64:PxFoundationCHECKED_x64.dll
 0006:00000170       __imp_?getAllocator@shdfnd@physx@@YAAEAVPxAllocatorCallback@2@XZ 0000000180263170     PxFoundationCHECKED_x64:PxFoundationCHECKED_x64.dll
 0006:00000178       __imp_??1NamedAllocator@shdfnd@physx@@QEAA@XZ 0000000180263178     PxFoundationCHECKED_x64:PxFoundationCHECKED_x64.dll
 0006:00000180       __imp_?allocate@NamedAllocator@shdfnd@physx@@QEAAPEAX_KPEBDH@Z 0000000180263180     PxFoundationCHECKED_x64:PxFoundationCHECKED_x64.dll
 0006:00000188       __imp_?deallocate@NamedAllocator@shdfnd@physx@@QEAAXPEAX@Z 0000000180263188     PxFoundationCHECKED_x64:PxFoundationCHECKED_x64.dll
 0006:00000190       __imp_PxGetFoundation      0000000180263190     PxFoundationCHECKED_x64:PxFoundationCHECKED_x64.dll
 0006:00000198       __imp_?getInstance@Foundation@shdfnd@physx@@SAAEAV123@XZ 0000000180263198     PxFoundationCHECKED_x64:PxFoundationCHECKED_x64.dll
 0006:000001a0       __imp_?error@Foundation@shdfnd@physx@@QEAAXW4Enum@PxErrorCode@3@PEBDH1ZZ 00000001802631a0     PxFoundationCHECKED_x64:PxFoundationCHECKED_x64.dll
 0006:000001a8       __imp_?PxShortestRotation@physx@@YA?AVPxQuat@1@AEBVPxVec3@1@0@Z 00000001802631a8     PxFoundationCHECKED_x64:PxFoundationCHECKED_x64.dll
 0006:000001b0       __imp_?vsnprintf@shdfnd@physx@@YAHPEAD_KPEBD0@Z 00000001802631b0     PxFoundationCHECKED_x64:PxFoundationCHECKED_x64.dll
 0006:000001b8       __imp_?optimizeBoundingBox@shdfnd@physx@@YA?AVPxVec3@2@AEAVPxMat33@2@@Z 00000001802631b8     PxFoundationCHECKED_x64:PxFoundationCHECKED_x64.dll
 0006:000001c0       __imp_??0NamedAllocator@shdfnd@physx@@QEAA@AEBV012@@Z 00000001802631c0     PxFoundationCHECKED_x64:PxFoundationCHECKED_x64.dll
 0006:000001c8       __imp_?allocate@TempAllocator@shdfnd@physx@@QEAAPEAX_KPEBDH@Z 00000001802631c8     PxFoundationCHECKED_x64:PxFoundationCHECKED_x64.dll
 0006:000001d0       __imp_?deallocate@TempAllocator@shdfnd@physx@@QEAAXPEAX@Z 00000001802631d0     PxFoundationCHECKED_x64:PxFoundationCHECKED_x64.dll
 0006:000001d8       __imp_?atomicIncrement@shdfnd@physx@@YAHPECH@Z 00000001802631d8     PxFoundationCHECKED_x64:PxFoundationCHECKED_x64.dll
 0006:000001e0       __imp_?atomicDecrement@shdfnd@physx@@YAHPECH@Z 00000001802631e0     PxFoundationCHECKED_x64:PxFoundationCHECKED_x64.dll
 0006:000001e8       __imp_PxGetProfilerCallback 00000001802631e8     PxFoundationCHECKED_x64:PxFoundationCHECKED_x64.dll
 0006:000001f0       __imp_??0MutexImpl@shdfnd@physx@@QEAA@XZ 00000001802631f0     PxFoundationCHECKED_x64:PxFoundationCHECKED_x64.dll
 0006:000001f8       __imp_??1MutexImpl@shdfnd@physx@@QEAA@XZ 00000001802631f8     PxFoundationCHECKED_x64:PxFoundationCHECKED_x64.dll
 0006:00000200       __imp_?lock@MutexImpl@shdfnd@physx@@QEAAXXZ 0000000180263200     PxFoundationCHECKED_x64:PxFoundationCHECKED_x64.dll
 0006:00000208       __imp_?unlock@MutexImpl@shdfnd@physx@@QEAAXXZ 0000000180263208     PxFoundationCHECKED_x64:PxFoundationCHECKED_x64.dll
 0006:00000210       __imp_?getSize@MutexImpl@shdfnd@physx@@SAAEBIXZ 0000000180263210     PxFoundationCHECKED_x64:PxFoundationCHECKED_x64.dll
 0006:00000218       \177PxFoundationCHECKED_x64_NULL_THUNK_DATA_DLA 0000000180263218     PxFoundationCHECKED_x64:PxFoundationCHECKED_x64.dll
 0006:00000828       \177PxFoundationCHECKED_x64_NULL_THUNK_DATA_DLB 0000000180263828     PxFoundationCHECKED_x64:PxFoundationCHECKED_x64.dll
 0008:00000000       __guard_check_icall_fptr   0000000180265000     LIBCMT:guard_support.obj
 0008:00000010       __guard_dispatch_icall_fptr 0000000180265010     LIBCMT:guard_support.obj
