 PhysX3CHECKED_x64

 Timestamp is 5917816c (Sat May 13 23:58:04 2017)

 Preferred load address is 0000000180000000

 Start         Length     Name                   Class
 0001:00000000 00022170H .text$di                CODE
 0001:00022170 0029e060H .text$mn                CODE
 0001:002c01d0 00001020H .text$mn$00             CODE
 0001:002c11f0 000017ceH .text$x                 CODE
 0002:00000000 00000110H .CRT$XCA                DATA
 0002:00000110 000027e0H .CRT$XCU                DATA
 0002:000028f0 00000110H .CRT$XCZ                DATA
 0002:00002a00 00000110H .CRT$XIA                DATA
 0002:00002b10 00000130H .CRT$XIC                DATA
 0002:00002c40 00000110H .CRT$XIZ                DATA
 0002:00002d50 00000110H .CRT$XPA                DATA
 0002:00002e60 00000120H .CRT$XPX                DATA
 0002:00002f80 00000110H .CRT$XPXA               DATA
 0002:00003090 00000110H .CRT$XPZ                DATA
 0002:000031a0 00000110H .CRT$XTA                DATA
 0002:000032b0 00000110H .CRT$XTZ                DATA
 0002:000033c0 00044630H .rdata                  DATA
 0002:000479f0 000004ecH .rdata$r                DATA
 0002:00047edc 0000018cH .rdata$zzzdbg           DATA
 0002:00048068 00000110H .rtc$IAA                DATA
 0002:00048178 00000110H .rtc$IZZ                DATA
 0002:00048288 00000110H .rtc$TAA                DATA
 0002:00048398 00000110H .rtc$TZZ                DATA
 0002:000484a8 00032b18H .xdata                  DATA
 0002:0007afc0 000033feH .edata                  DATA
 0003:00000000 00007a60H .data                   DATA
 0003:00007a60 00001580H .data$r                 DATA
 0003:00008fe0 00007ac1H .bss                    DATA
 0004:00000000 0002208cH .pdata                  DATA
 0005:00000000 000003f0H .idata$5                DATA
 0005:000003f0 00000014H .idata$2                DATA
 0005:00000404 00000014H .idata$3                DATA
 0005:00000418 000003f0H .idata$4                DATA
 0005:00000808 000008f5H .idata$6                DATA
 0006:00000000 00000060H .didat$2                DATA
 0006:00000060 00000020H .didat$3                DATA
 0006:00000080 00000908H .didat$4                DATA
 0006:00000988 00000908H .didat$5                DATA
 0006:00001290 00005678H .didat$6                DATA
 0006:00006908 0000087eH .didat$7                DATA
 0007:00000000 00000220H .gfids$x                DATA
 0007:00000220 000001a5H .gfids$y                DATA
 0008:00000000 0000011bH .00cfg                  DATA
 0009:00000000 000001c0H .rsrc$01                DATA
 0009:000001c0 00000679H .rsrc$02                DATA

  Address         Publics by Value              Rva+Base               Lib:Object

 0000:00000000       ___safe_se_handler_table   0000000000000000     <absolute>
 0000:00000000       ___safe_se_handler_count   0000000000000000     <absolute>
 0000:00000000       __guard_longjmp_count      0000000000000000     <absolute>
 0000:00000000       __guard_longjmp_table      0000000000000000     <absolute>
 0000:00000000       __dynamic_value_reloc_table 0000000000000000     <absolute>
 0000:00000000       __guard_fids_table         0000000000000000     <absolute>
 0000:00000000       __guard_iat_count          0000000000000000     <absolute>
 0000:00000000       __guard_fids_count         0000000000000000     <absolute>
 0000:00000000       __guard_iat_table          0000000000000000     <absolute>
 0000:00000100       __guard_flags              0000000000000100     <absolute>
 0000:00000000       __ImageBase                0000000180000000     <linker-defined>
 0001:00022170       PxSetPhysXDelayLoadHook    0000000180023170 f   NpWindowsDelayLoadHook.obj
 0001:00022180       ?delayHook@@YAP6A_JXZIPEAUDelayLoadInfo@@@Z 0000000180023180 f   NpWindowsDelayLoadHook.obj
 0001:000221e0       ?foundationDliNotePreLoadLibrary@shdfnd@physx@@YAP6A_JXZPEBDPEBVPxFoundationDelayLoadHook@2@@Z 00000001800231e0 f i NpWindowsDelayLoadHook.obj
 0001:00022300       ?physXCommonDliNotePreLoadLibrary@Cm@physx@@YAP6A_JXZPEBDPEBVPxDelayLoadHook@2@@Z 0000000180023300 f i NpWindowsDelayLoadHook.obj
 0001:00022540       ?createTriangleMeshMirror@NpPhysicsGpu@physx@@QEAA_NAEBVPxTriangleMesh@2@AEAVPxCudaContextManager@2@@Z 0000000180023540 f   NpPhysicsGpu.obj
 0001:00022650       ?releaseTriangleMeshMirror@NpPhysicsGpu@physx@@QEAAXAEBVPxTriangleMesh@2@PEAVPxCudaContextManager@2@@Z 0000000180023650 f   NpPhysicsGpu.obj
 0001:00022670       ?createHeightFieldMirror@NpPhysicsGpu@physx@@QEAA_NAEBVPxHeightField@2@AEAVPxCudaContextManager@2@@Z 0000000180023670 f   NpPhysicsGpu.obj
 0001:00022780       ?releaseHeightFieldMirror@NpPhysicsGpu@physx@@QEAAXAEBVPxHeightField@2@PEAVPxCudaContextManager@2@@Z 0000000180023780 f   NpPhysicsGpu.obj
 0001:000227a0       ?createConvexMeshMirror@NpPhysicsGpu@physx@@QEAA_NAEBVPxConvexMesh@2@AEAVPxCudaContextManager@2@@Z 00000001800237a0 f   NpPhysicsGpu.obj
 0001:000228b0       ?releaseConvexMeshMirror@NpPhysicsGpu@physx@@QEAAXAEBVPxConvexMesh@2@PEAVPxCudaContextManager@2@@Z 00000001800238b0 f   NpPhysicsGpu.obj
 0001:000228d0       ?setExplicitCudaFlushCountHint@NpPhysicsGpu@physx@@QEAAXAEBVPxScene@2@I@Z 00000001800238d0 f   NpPhysicsGpu.obj
 0001:00022970       ?setTriangleMeshCacheSizeHint@NpPhysicsGpu@physx@@QEAA_NAEBVPxScene@2@I@Z 0000000180023970 f   NpPhysicsGpu.obj
 0001:00022a10       ?getTriangleMeshCacheStatistics@NpPhysicsGpu@physx@@QEAA?AUPxTriangleMeshCacheStatistics@2@AEBVPxScene@2@@Z 0000000180023a10 f   NpPhysicsGpu.obj
 0001:00022ac0       ??0NpPhysicsGpu@physx@@QEAA@AEAVNpPhysics@1@@Z 0000000180023ac0 f   NpPhysicsGpu.obj
 0001:00022b40       ??1NpPhysicsGpu@physx@@UEAA@XZ 0000000180023b40 f   NpPhysicsGpu.obj
 0001:00022b90       ?findMeshMirror@NpPhysicsGpu@physx@@AEAAPEAUMeshMirror@12@PEBX@Z 0000000180023b90 f   NpPhysicsGpu.obj
 0001:00022bd0       ?findMeshMirror@NpPhysicsGpu@physx@@AEAAPEAUMeshMirror@12@PEBXAEAVPxCudaContextManager@2@@Z 0000000180023bd0 f   NpPhysicsGpu.obj
 0001:00022c30       ?getPhysXGpu@NpPhysicsGpu@physx@@AEAAPEAVPxPhysXGpu@2@_NPEBD0@Z 0000000180023c30 f   NpPhysicsGpu.obj
 0001:00022cb0       ?checkNewMirror@NpPhysicsGpu@physx@@AEAA_NPEBXAEAVPxCudaContextManager@2@PEBD@Z 0000000180023cb0 f   NpPhysicsGpu.obj
 0001:00022d70       ?checkMirrorExists@NpPhysicsGpu@physx@@AEAA_NPEAUMeshMirror@12@PEBD@Z 0000000180023d70 f   NpPhysicsGpu.obj
 0001:00022de0       ?checkMirrorHandle@NpPhysicsGpu@physx@@AEAA_NIPEBD@Z 0000000180023de0 f   NpPhysicsGpu.obj
 0001:00022e40       ?addMeshMirror@NpPhysicsGpu@physx@@AEAAXPEBXIAEAVPxCudaContextManager@2@@Z 0000000180023e40 f   NpPhysicsGpu.obj
 0001:00022ec0       ?releaseMeshMirror@NpPhysicsGpu@physx@@AEAAXPEBXPEBDPEAVPxCudaContextManager@2@@Z 0000000180023ec0 f   NpPhysicsGpu.obj
 0001:000233b0       ??_GNpPhysicsGpu@physx@@UEAAPEAXI@Z 00000001800243b0 f i NpPhysicsGpu.obj
 0001:000233b0       ??_ENpPhysicsGpu@physx@@UEAAPEAXI@Z 00000001800243b0 f i NpPhysicsGpu.obj
 0001:00023440       ??_H@YAXPEAX_K1P6APEAX0@Z@Z 0000000180024440 f i NpPhysicsGpu.obj
 0001:000234a0       ??_I@YAXPEAX_K1P6AX0@Z@Z   00000001800244a0 f i NpPhysicsGpu.obj
 0001:00023510       ?__empty_global_delete@@YAXPEAX@Z 0000000180024510 f i NpPhysicsGpu.obj
 0001:00023520       ?__global_delete@@YAXPEAX_K@Z 0000000180024520 f i NpPhysicsGpu.obj
 0001:00023520       ?__global_array_delete@@YAXPEAX_K@Z 0000000180024520 f i NpPhysicsGpu.obj
 0001:00023520       ?__empty_global_delete@@YAXPEAX_K@Z 0000000180024520 f i NpPhysicsGpu.obj
 0001:00023530       ?recreate@?$Array@UMeshMirror@NpPhysicsGpu@physx@@VNamedAllocator@shdfnd@3@@shdfnd@physx@@IEAAXI@Z 0000000180024530 f i NpPhysicsGpu.obj
 0001:00023640       PxGetSuggestedCudaDeviceOrdinal 0000000180024640 f   PxGpu.obj
 0001:00023690       PxCreateCudaContextManager 0000000180024690 f   PxGpu.obj
 0001:00023710       ?enable@PxParticleDeviceExclusive@physx@@SAXAEAVPxParticleBase@2@@Z 0000000180024710 f   PxParticleDeviceExclusive.obj
 0001:00023750       ?isEnabled@PxParticleDeviceExclusive@physx@@SA_NAEAVPxParticleBase@2@@Z 0000000180024750 f   PxParticleDeviceExclusive.obj
 0001:000237a0       ?getReadWriteCudaBuffers@PxParticleDeviceExclusive@physx@@SAXAEAVPxParticleBase@2@AEAUPxCudaReadWriteParticleBuffers@2@@Z 00000001800247a0 f   PxParticleDeviceExclusive.obj
 0001:00023840       ?setValidParticleRange@PxParticleDeviceExclusive@physx@@SAXAEAVPxParticleBase@2@I@Z 0000000180024840 f   PxParticleDeviceExclusive.obj
 0001:000238e0       ?setFlags@PxParticleDeviceExclusive@physx@@SAXAEAVPxParticleBase@2@V?$PxFlags@W4Enum@PxParticleDeviceExclusiveFlag@physx@@I@2@@Z 00000001800248e0 f   PxParticleDeviceExclusive.obj
 0001:00023990       ?getLaunchTask@PxParticleDeviceExclusive@physx@@SAPEAVPxBaseTask@2@AEAVPxParticleBase@2@@Z 0000000180024990 f   PxParticleDeviceExclusive.obj
 0001:000239e0       ?addLaunchTaskDependent@PxParticleDeviceExclusive@physx@@SAXAEAVPxParticleBase@2@AEAVPxBaseTask@2@@Z 00000001800249e0 f   PxParticleDeviceExclusive.obj
 0001:00023a80       ?getCudaStream@PxParticleDeviceExclusive@physx@@SAPEAUCUstream_st@@AEAVPxParticleBase@2@@Z 0000000180024a80 f   PxParticleDeviceExclusive.obj
 0001:00023bc0       ?addLaunchTaskDependentGpu@?$NpParticleBaseTemplate@VPxParticleFluid@physx@@VNpParticleFluid@2@@physx@@QEAAXAEAVPxBaseTask@2@@Z 0000000180024bc0 f i PxParticleDeviceExclusive.obj
 0001:00023c40       ?addLaunchTaskDependentGpu@?$NpParticleBaseTemplate@VPxParticleSystem@physx@@VNpParticleSystem@2@@physx@@QEAAXAEAVPxBaseTask@2@@Z 0000000180024c40 f i PxParticleDeviceExclusive.obj
 0001:00023cc0       ?enableDeviceExclusiveModeGpu@?$NpParticleBaseTemplate@VPxParticleFluid@physx@@VNpParticleFluid@2@@physx@@QEAAXXZ 0000000180024cc0 f i PxParticleDeviceExclusive.obj
 0001:00023db0       ?enableDeviceExclusiveModeGpu@?$NpParticleBaseTemplate@VPxParticleSystem@physx@@VNpParticleSystem@2@@physx@@QEAAXXZ 0000000180024db0 f i PxParticleDeviceExclusive.obj
 0001:00023ea0       ?getCudaStreamGpu@?$NpParticleBaseTemplate@VPxParticleFluid@physx@@VNpParticleFluid@2@@physx@@QEBA_KXZ 0000000180024ea0 f i PxParticleDeviceExclusive.obj
 0001:00023f30       ?getCudaStreamGpu@?$NpParticleBaseTemplate@VPxParticleSystem@physx@@VNpParticleSystem@2@@physx@@QEBA_KXZ 0000000180024f30 f i PxParticleDeviceExclusive.obj
 0001:00023fc0       ?getDeviceExclusiveAccessGpu@?$NpParticleBaseTemplate@VPxParticleFluid@physx@@VNpParticleFluid@2@@physx@@QEBAPEAVPxParticleDeviceExclusiveAccess@2@PEBD@Z 0000000180024fc0 f i PxParticleDeviceExclusive.obj
 0001:00024070       ?getDeviceExclusiveAccessGpu@?$NpParticleBaseTemplate@VPxParticleSystem@physx@@VNpParticleSystem@2@@physx@@QEBAPEAVPxParticleDeviceExclusiveAccess@2@PEBD@Z 0000000180025070 f i PxParticleDeviceExclusive.obj
 0001:00024120       ?getDeviceExclusiveAccessGpu@ParticleSystem@Scb@physx@@QEBAPEAVPxParticleDeviceExclusiveAccess@3@XZ 0000000180025120 f i PxParticleDeviceExclusive.obj
 0001:00024190       ?getLaunchTaskGpu@?$NpParticleBaseTemplate@VPxParticleFluid@physx@@VNpParticleFluid@2@@physx@@QEBAPEAVPxBaseTask@2@XZ 0000000180025190 f i PxParticleDeviceExclusive.obj
 0001:00024220       ?getLaunchTaskGpu@?$NpParticleBaseTemplate@VPxParticleSystem@physx@@VNpParticleSystem@2@@physx@@QEBAPEAVPxBaseTask@2@XZ 0000000180025220 f i PxParticleDeviceExclusive.obj
 0001:000242b0       ?getReadWriteCudaBuffersGpu@?$NpParticleBaseTemplate@VPxParticleFluid@physx@@VNpParticleFluid@2@@physx@@QEBAXAEAUPxCudaReadWriteParticleBuffers@2@@Z 00000001800252b0 f i PxParticleDeviceExclusive.obj
 0001:00024330       ?getReadWriteCudaBuffersGpu@?$NpParticleBaseTemplate@VPxParticleSystem@physx@@VNpParticleSystem@2@@physx@@QEBAXAEAUPxCudaReadWriteParticleBuffers@2@@Z 0000000180025330 f i PxParticleDeviceExclusive.obj
 0001:000243b0       ?isDeviceExclusiveModeEnabledGpu@?$NpParticleBaseTemplate@VPxParticleFluid@physx@@VNpParticleFluid@2@@physx@@QEBA_NXZ 00000001800253b0 f i PxParticleDeviceExclusive.obj
 0001:00024450       ?isDeviceExclusiveModeEnabledGpu@?$NpParticleBaseTemplate@VPxParticleSystem@physx@@VNpParticleSystem@2@@physx@@QEBA_NXZ 0000000180025450 f i PxParticleDeviceExclusive.obj
 0001:000244f0       ?setDeviceExclusiveModeFlagsGpu@?$NpParticleBaseTemplate@VPxParticleFluid@physx@@VNpParticleFluid@2@@physx@@QEAAXI@Z 00000001800254f0 f i PxParticleDeviceExclusive.obj
 0001:00024570       ?setDeviceExclusiveModeFlagsGpu@?$NpParticleBaseTemplate@VPxParticleSystem@physx@@VNpParticleSystem@2@@physx@@QEAAXI@Z 0000000180025570 f i PxParticleDeviceExclusive.obj
 0001:000245f0       ?setValidParticleRangeGpu@?$NpParticleBaseTemplate@VPxParticleFluid@physx@@VNpParticleFluid@2@@physx@@QEAAXI@Z 00000001800255f0 f i PxParticleDeviceExclusive.obj
 0001:00024670       ?setValidParticleRangeGpu@?$NpParticleBaseTemplate@VPxParticleSystem@physx@@VNpParticleSystem@2@@physx@@QEAAXI@Z 0000000180025670 f i PxParticleDeviceExclusive.obj
 0001:000246f0       ?createTriangleMeshMirror@PxParticleGpu@physx@@SA_NAEBVPxTriangleMesh@2@AEAVPxCudaContextManager@2@@Z 00000001800256f0 f   PxParticleGpu.obj
 0001:00024730       ?releaseTriangleMeshMirror@PxParticleGpu@physx@@SAXAEBVPxTriangleMesh@2@PEAVPxCudaContextManager@2@@Z 0000000180025730 f   PxParticleGpu.obj
 0001:00024770       ?createHeightFieldMirror@PxParticleGpu@physx@@SA_NAEBVPxHeightField@2@AEAVPxCudaContextManager@2@@Z 0000000180025770 f   PxParticleGpu.obj
 0001:000247b0       ?releaseHeightFieldMirror@PxParticleGpu@physx@@SAXAEBVPxHeightField@2@PEAVPxCudaContextManager@2@@Z 00000001800257b0 f   PxParticleGpu.obj
 0001:000247f0       ?createConvexMeshMirror@PxParticleGpu@physx@@SA_NAEBVPxConvexMesh@2@AEAVPxCudaContextManager@2@@Z 00000001800257f0 f   PxParticleGpu.obj
 0001:00024830       ?releaseConvexMeshMirror@PxParticleGpu@physx@@SAXAEBVPxConvexMesh@2@PEAVPxCudaContextManager@2@@Z 0000000180025830 f   PxParticleGpu.obj
 0001:00024870       ?setExplicitCudaFlushCountHint@PxParticleGpu@physx@@SAXAEBVPxScene@2@I@Z 0000000180025870 f   PxParticleGpu.obj
 0001:000248b0       ?setTriangleMeshCacheSizeHint@PxParticleGpu@physx@@SA_NAEBVPxScene@2@I@Z 00000001800258b0 f   PxParticleGpu.obj
 0001:000248f0       ?getTriangleMeshCacheStatistics@PxParticleGpu@physx@@SA?AUPxTriangleMeshCacheStatistics@2@AEBVPxScene@2@@Z 00000001800258f0 f   PxParticleGpu.obj
 0001:000249c0       PxSetPhysXGpuLoadHook      00000001800259c0 f   PxPhysXGpuModuleLoader.obj
 0001:00024a70       ?PxLoadPhysxGPUModule@physx@@YAXPEBD@Z 0000000180025a70 f   PxPhysXGpuModuleLoader.obj
 0001:00024bb0       ?registerPhysXIndicatorGpuClient@PxPhysXIndicatorDeviceExclusive@physx@@SAXAEAVPxPhysics@2@@Z 0000000180025bb0 f   PxPhysXIndicatorDeviceExclusive.obj
 0001:00024bc0       ?unregisterPhysXIndicatorGpuClient@PxPhysXIndicatorDeviceExclusive@physx@@SAXAEAVPxPhysics@2@@Z 0000000180025bc0 f   PxPhysXIndicatorDeviceExclusive.obj
 0001:00024bd0       ??0PhysXIndicator@physx@@QEAA@_N@Z 0000000180025bd0 f   PhysXIndicatorWindows.obj
 0001:00024d20       ??1PhysXIndicator@physx@@QEAA@XZ 0000000180025d20 f   PhysXIndicatorWindows.obj
 0001:00024d80       ?setIsGpu@PhysXIndicator@physx@@QEAAX_N@Z 0000000180025d80 f   PhysXIndicatorWindows.obj
 0001:00024e30       ??$__vcrt_va_start_verify_argument_type@QEBD@@YAXXZ 0000000180025e30 f i PhysXIndicatorWindows.obj
 0001:00024e40       ?IsWindowsVersionOrGreater@@YA_NGGG@Z 0000000180025e40 f i PhysXIndicatorWindows.obj
 0001:00024f30       __local_stdio_printf_options 0000000180025f30 f i PhysXIndicatorWindows.obj
 0001:00024f40       sprintf                    0000000180025f40 f i PhysXIndicatorWindows.obj
 0001:00024fb0       ?createObject@NpParticleFluid@physx@@SAPEAV12@AEAPEAEAEAVPxDeserializationContext@2@@Z 0000000180025fb0 f   NpParticleFluid.obj
 0001:00025070       ??0NpParticleFluid@physx@@QEAA@I_N@Z 0000000180026070 f   NpParticleFluid.obj
 0001:00025100       ??1NpParticleFluid@physx@@UEAA@XZ 0000000180026100 f   NpParticleFluid.obj
 0001:00025150       ?is@NpParticleFluid@physx@@UEAAPEAXW4Enum@PxActorType@2@@Z 0000000180026150 f   NpParticleFluid.obj
 0001:00025160       ?is@NpParticleFluid@physx@@UEBAPEBXW4Enum@PxActorType@2@@Z 0000000180026160 f   NpParticleFluid.obj
 0001:00025170       ?lockParticleFluidReadData@NpParticleFluid@physx@@UEAAPEAVPxParticleFluidReadData@2@V?$PxFlags@W4Enum@PxDataAccessFlag@physx@@E@2@@Z 0000000180026170 f   NpParticleFluid.obj
 0001:000251a0       ?lockParticleFluidReadData@NpParticleFluid@physx@@UEAAPEAVPxParticleFluidReadData@2@XZ 00000001800261a0 f   NpParticleFluid.obj
 0001:000251b0       ?getStiffness@NpParticleFluid@physx@@UEBAMXZ 00000001800261b0 f   NpParticleFluid.obj
 0001:00025220       ?setStiffness@NpParticleFluid@physx@@UEAAXM@Z 0000000180026220 f   NpParticleFluid.obj
 0001:000252b0       ?getViscosity@NpParticleFluid@physx@@UEBAMXZ 00000001800262b0 f   NpParticleFluid.obj
 0001:00025320       ?setViscosity@NpParticleFluid@physx@@UEAAXM@Z 0000000180026320 f   NpParticleFluid.obj
 0001:000253b0       ?getRestParticleDistance@NpParticleFluid@physx@@UEBAMXZ 00000001800263b0 f   NpParticleFluid.obj
 0001:00025410       ?setRestParticleDistance@NpParticleFluid@physx@@UEAAXM@Z 0000000180026410 f   NpParticleFluid.obj
 0001:00025640       ??$pointerOffset@PEAVActor@Scb@physx@@@shdfnd@physx@@YAPEAVActor@Scb@1@PEAX_J@Z 0000000180026640 f i NpParticleFluid.obj
 0001:00025650       ??$pointerOffset@PEBVActor@Scb@physx@@@shdfnd@physx@@YAPEBVActor@Scb@1@PEBX_J@Z 0000000180026650 f i NpParticleFluid.obj
 0001:00025660       ??0?$NpActorTemplate@VPxParticleFluid@physx@@@physx@@QEAA@GV?$PxFlags@W4Enum@PxBaseFlag@physx@@G@1@PEBDPEAX@Z 0000000180026660 f i NpParticleFluid.obj
 0001:000256d0       ??0?$NpParticleBaseTemplate@VPxParticleFluid@physx@@VNpParticleFluid@2@@physx@@QEAA@GV?$PxFlags@W4Enum@PxBaseFlag@physx@@G@1@AEBW4Enum@PxActorType@1@I_N@Z 00000001800266d0 f i NpParticleFluid.obj
 0001:00025760       ??0NpParticleFluidReadData@physx@@QEAA@XZ 0000000180026760 f i NpParticleFluid.obj
 0001:00025820       ??0PxVec3@physx@@QEAA@XZ   0000000180026820 f i NpParticleFluid.obj
 0001:00025830       ??1?$NpActorTemplate@VPxParticleFluid@physx@@@physx@@UEAA@XZ 0000000180026830 f i NpParticleFluid.obj
 0001:00025870       ??1?$NpParticleBaseTemplate@VPxParticleFluid@physx@@VNpParticleFluid@2@@physx@@UEAA@XZ 0000000180026870 f i NpParticleFluid.obj
 0001:000258d0       ??1NpParticleFluidReadData@physx@@UEAA@XZ 00000001800268d0 f i NpParticleFluid.obj
 0001:000258e0       ??1PxActor@physx@@MEAA@XZ  00000001800268e0 f i NpParticleFluid.obj
 0001:000258f0       ??1PxBase@physx@@MEAA@XZ   00000001800268f0 f i NpParticleFluid.obj
 0001:00025900       ??1PxLockedData@physx@@UEAA@XZ 0000000180026900 f i NpParticleFluid.obj
 0001:00025910       ??1PxParticleBase@physx@@MEAA@XZ 0000000180026910 f i NpParticleFluid.obj
 0001:00025920       ??1PxParticleFluid@physx@@MEAA@XZ 0000000180026920 f i NpParticleFluid.obj
 0001:00025930       ??1PxParticleFluidReadData@physx@@UEAA@XZ 0000000180026930 f i NpParticleFluid.obj
 0001:00025940       ??1PxParticleReadData@physx@@UEAA@XZ 0000000180026940 f i NpParticleFluid.obj
 0001:00025950       ??_G?$NpActorTemplate@VPxParticleFluid@physx@@@physx@@UEAAPEAXI@Z 0000000180026950 f i NpParticleFluid.obj
 0001:00025950       ??_E?$NpActorTemplate@VPxParticleFluid@physx@@@physx@@UEAAPEAXI@Z 0000000180026950 f i NpParticleFluid.obj
 0001:000259f0       ??_E?$NpParticleBaseTemplate@VPxParticleFluid@physx@@VNpParticleFluid@2@@physx@@UEAAPEAXI@Z 00000001800269f0 f i NpParticleFluid.obj
 0001:000259f0       ??_G?$NpParticleBaseTemplate@VPxParticleFluid@physx@@VNpParticleFluid@2@@physx@@UEAAPEAXI@Z 00000001800269f0 f i NpParticleFluid.obj
 0001:00025ab0       ??_GNpParticleFluid@physx@@UEAAPEAXI@Z 0000000180026ab0 f i NpParticleFluid.obj
 0001:00025ab0       ??_ENpParticleFluid@physx@@UEAAPEAXI@Z 0000000180026ab0 f i NpParticleFluid.obj
 0001:00025b70       ??_ENpParticleFluidReadData@physx@@UEAAPEAXI@Z 0000000180026b70 f i NpParticleFluid.obj
 0001:00025b70       ??_GNpParticleFluidReadData@physx@@UEAAPEAXI@Z 0000000180026b70 f i NpParticleFluid.obj
 0001:00025bd0       ??_EPxActor@physx@@MEAAPEAXI@Z 0000000180026bd0 f i NpParticleFluid.obj
 0001:00025bd0       ??_GPxActor@physx@@MEAAPEAXI@Z 0000000180026bd0 f i NpParticleFluid.obj
 0001:00025c10       ??_EPxBase@physx@@MEAAPEAXI@Z 0000000180026c10 f i NpParticleFluid.obj
 0001:00025c10       ??_GPxBase@physx@@MEAAPEAXI@Z 0000000180026c10 f i NpParticleFluid.obj
 0001:00025c50       ??_GPxLockedData@physx@@UEAAPEAXI@Z 0000000180026c50 f i NpParticleFluid.obj
 0001:00025c50       ??_EPxLockedData@physx@@UEAAPEAXI@Z 0000000180026c50 f i NpParticleFluid.obj
 0001:00025c90       ??_EPxParticleBase@physx@@MEAAPEAXI@Z 0000000180026c90 f i NpParticleFluid.obj
 0001:00025c90       ??_GPxParticleBase@physx@@MEAAPEAXI@Z 0000000180026c90 f i NpParticleFluid.obj
 0001:00025cd0       ??_EPxParticleFluid@physx@@MEAAPEAXI@Z 0000000180026cd0 f i NpParticleFluid.obj
 0001:00025cd0       ??_GPxParticleFluid@physx@@MEAAPEAXI@Z 0000000180026cd0 f i NpParticleFluid.obj
 0001:00025d10       ??_EPxParticleFluidReadData@physx@@UEAAPEAXI@Z 0000000180026d10 f i NpParticleFluid.obj
 0001:00025d10       ??_GPxParticleFluidReadData@physx@@UEAAPEAXI@Z 0000000180026d10 f i NpParticleFluid.obj
 0001:00025d50       ??_EPxParticleReadData@physx@@UEAAPEAXI@Z 0000000180026d50 f i NpParticleFluid.obj
 0001:00025d50       ??_GPxParticleReadData@physx@@UEAAPEAXI@Z 0000000180026d50 f i NpParticleFluid.obj
 0001:00025d90       ?addForces@?$NpParticleBaseTemplate@VPxParticleFluid@physx@@VNpParticleFluid@2@@physx@@UEAAXIAEBV?$PxStrideIterator@$$CBI@2@AEBV?$PxStrideIterator@$$CBVPxVec3@physx@@@2@W4Enum@PxForceMode@2@@Z 0000000180026d90 f i NpParticleFluid.obj
 0001:00025f80       ?checkAllocatedIndices@?$NpParticleBaseTemplate@VPxParticleFluid@physx@@VNpParticleFluid@2@@physx@@AEAA_NIAEBV?$PxStrideIterator@$$CBI@2@@Z 0000000180026f80 f i NpParticleFluid.obj
 0001:000260f0       ?checkFreeIndices@?$NpParticleBaseTemplate@VPxParticleFluid@physx@@VNpParticleFluid@2@@physx@@AEAA_NIAEBV?$PxStrideIterator@$$CBI@2@@Z 00000001800270f0 f i NpParticleFluid.obj
 0001:000264e0       ?createParticles@?$NpParticleBaseTemplate@VPxParticleFluid@physx@@VNpParticleFluid@2@@physx@@UEAA_NAEBVPxParticleCreationData@2@@Z 00000001800274e0 f i NpParticleFluid.obj
 0001:00026900       ?erase@?$HashBase@PEAVPxParticleBase@physx@@PEAV12@U?$Hash@PEAVPxParticleBase@physx@@@shdfnd@2@UGetKey@?$HashSetBase@PEAVPxParticleBase@physx@@U?$Hash@PEAVPxParticleBase@physx@@@shdfnd@2@VNonTrackingAllocator@42@$00@internal@42@VNonTrackingAllocator@42@$00@internal@shdfnd@physx@@QEAA_NAEBQEAVPxParticleBase@4@@Z 0000000180027900 f i NpParticleFluid.obj
 0001:00026a10       ?exportExtraData@?$NpActorTemplate@VPxParticleFluid@physx@@@physx@@UEAAXAEAVPxSerializationContext@2@@Z 0000000180027a10 f i NpParticleFluid.obj
 0001:00026a20       ?exportExtraData@NpParticleFluid@physx@@UEAAXAEAVPxSerializationContext@2@@Z 0000000180027a20 f i NpParticleFluid.obj
 0001:00026a30       ?extend@?$BitMapBase@VNonTrackingAllocator@shdfnd@physx@@@Cm@physx@@IEAAXI@Z 0000000180027a30 f i NpParticleFluid.obj
 0001:00026b50       ?getActorFlags@?$NpActorTemplate@VPxParticleFluid@physx@@@physx@@UEBA?AV?$PxFlags@W4Enum@PxActorFlag@physx@@E@2@XZ 0000000180027b50 f i NpParticleFluid.obj
 0001:00026bf0       ?getAggregate@?$NpActorTemplate@VPxParticleFluid@physx@@@physx@@UEBAPEAVPxAggregate@2@XZ 0000000180027bf0 f i NpParticleFluid.obj
 0001:00026c00       ?getClientBehaviorFlags@?$NpActorTemplate@VPxParticleFluid@physx@@@physx@@UEBA?AV?$PxFlags@W4Enum@PxActorClientBehaviorFlag@physx@@E@2@XZ 0000000180027c00 f i NpParticleFluid.obj
 0001:00026ca0       ?getConcreteTypeName@PxParticleFluid@physx@@UEBAPEBDXZ 0000000180027ca0 f i NpParticleFluid.obj
 0001:00026cb0       ?getContactOffset@?$NpParticleBaseTemplate@VPxParticleFluid@physx@@VNpParticleFluid@2@@physx@@UEBAMXZ 0000000180027cb0 f i NpParticleFluid.obj
 0001:00026d10       ?getDamping@?$NpParticleBaseTemplate@VPxParticleFluid@physx@@VNpParticleFluid@2@@physx@@UEBAMXZ 0000000180027d10 f i NpParticleFluid.obj
 0001:00026d90       ?getDataAccessFlags@NpParticleFluidReadData@physx@@UEAA?AV?$PxFlags@W4Enum@PxDataAccessFlag@physx@@E@2@XZ 0000000180027d90 f i NpParticleFluid.obj
 0001:00026da0       ?getDominanceGroup@?$NpActorTemplate@VPxParticleFluid@physx@@@physx@@UEBAEXZ 0000000180027da0 f i NpParticleFluid.obj
 0001:00026e50       ?getDynamicFriction@?$NpParticleBaseTemplate@VPxParticleFluid@physx@@VNpParticleFluid@2@@physx@@UEBAMXZ 0000000180027e50 f i NpParticleFluid.obj
 0001:00026ed0       ?getExternalAcceleration@?$NpParticleBaseTemplate@VPxParticleFluid@physx@@VNpParticleFluid@2@@physx@@UEBA?AVPxVec3@2@XZ 0000000180027ed0 f i NpParticleFluid.obj
 0001:00026f60       ?getGridSize@?$NpParticleBaseTemplate@VPxParticleFluid@physx@@VNpParticleFluid@2@@physx@@UEBAMXZ 0000000180027f60 f i NpParticleFluid.obj
 0001:00026fc0       ?getMaxMotionDistance@?$NpParticleBaseTemplate@VPxParticleFluid@physx@@VNpParticleFluid@2@@physx@@UEBAMXZ 0000000180027fc0 f i NpParticleFluid.obj
 0001:00027020       ?getMaxParticles@?$NpParticleBaseTemplate@VPxParticleFluid@physx@@VNpParticleFluid@2@@physx@@UEBAIXZ 0000000180028020 f i NpParticleFluid.obj
 0001:00027070       ?getName@?$NpActorTemplate@VPxParticleFluid@physx@@@physx@@UEBAPEBDXZ 0000000180028070 f i NpParticleFluid.obj
 0001:000270c0       ?getOwnerClient@?$NpActorTemplate@VPxParticleFluid@physx@@@physx@@UEBAEXZ 00000001800280c0 f i NpParticleFluid.obj
 0001:00027100       ?getParticleBaseFlags@?$NpParticleBaseTemplate@VPxParticleFluid@physx@@VNpParticleFluid@2@@physx@@UEBA?AV?$PxFlags@W4Enum@PxParticleBaseFlag@physx@@G@2@XZ 0000000180028100 f i NpParticleFluid.obj
 0001:00027190       ?getParticleMass@?$NpParticleBaseTemplate@VPxParticleFluid@physx@@VNpParticleFluid@2@@physx@@UEBAMXZ 0000000180028190 f i NpParticleFluid.obj
 0001:00027210       ?getParticleReadDataFlags@?$NpParticleBaseTemplate@VPxParticleFluid@physx@@VNpParticleFluid@2@@physx@@UEBA?AV?$PxFlags@W4Enum@PxParticleReadDataFlag@physx@@G@2@XZ 0000000180028210 f i NpParticleFluid.obj
 0001:00027270       ?getProjectionPlane@?$NpParticleBaseTemplate@VPxParticleFluid@physx@@VNpParticleFluid@2@@physx@@UEBAXAEAVPxVec3@2@AEAM@Z 0000000180028270 f i NpParticleFluid.obj
 0001:00027320       ?getRestOffset@?$NpParticleBaseTemplate@VPxParticleFluid@physx@@VNpParticleFluid@2@@physx@@UEBAMXZ 0000000180028320 f i NpParticleFluid.obj
 0001:00027380       ?getRestitution@?$NpParticleBaseTemplate@VPxParticleFluid@physx@@VNpParticleFluid@2@@physx@@UEBAMXZ 0000000180028380 f i NpParticleFluid.obj
 0001:00027400       ?getScene@?$NpActorTemplate@VPxParticleFluid@physx@@@physx@@UEBAPEAVPxScene@2@XZ 0000000180028400 f i NpParticleFluid.obj
 0001:00027410       ?getSimulationFilterData@?$NpParticleBaseTemplate@VPxParticleFluid@physx@@VNpParticleFluid@2@@physx@@UEBA?AUPxFilterData@2@XZ 0000000180028410 f i NpParticleFluid.obj
 0001:00027490       ?getStaticFriction@?$NpParticleBaseTemplate@VPxParticleFluid@physx@@VNpParticleFluid@2@@physx@@UEBAMXZ 0000000180028490 f i NpParticleFluid.obj
 0001:00027510       ?getType@?$NpParticleBaseTemplate@VPxParticleFluid@physx@@VNpParticleFluid@2@@physx@@UEBA?AW4Enum@PxActorType@2@XZ 0000000180028510 f i NpParticleFluid.obj
 0001:00027520       ?getType@NpParticleFluid@physx@@UEBA?AW4Enum@PxActorType@2@XZ 0000000180028520 f i NpParticleFluid.obj
 0001:00027530       ?getWorldBounds@?$NpParticleBaseTemplate@VPxParticleFluid@physx@@VNpParticleFluid@2@@physx@@UEBA?AVPxBounds3@2@M@Z 0000000180028530 f i NpParticleFluid.obj
 0001:00027730       ?isKindOf@PxActor@physx@@MEBA_NPEBD@Z 0000000180028730 f i NpParticleFluid.obj
 0001:00027790       ?isKindOf@PxBase@physx@@MEBA_NPEBD@Z 0000000180028790 f i NpParticleFluid.obj
 0001:000277d0       ?isKindOf@PxParticleBase@physx@@MEBA_NPEBD@Z 00000001800287d0 f i NpParticleFluid.obj
 0001:00027860       ?isKindOf@PxParticleFluid@physx@@MEBA_NPEBD@Z 0000000180028860 f i NpParticleFluid.obj
 0001:000278c0       ?isReleasable@PxBase@physx@@UEBA_NXZ 00000001800288c0 f i NpParticleFluid.obj
 0001:000278d0       ?lock@NpParticleFluidReadData@physx@@QEAAXPEBD@Z 00000001800288d0 f i NpParticleFluid.obj
 0001:00027990       ?lockParticleReadData@?$NpParticleBaseTemplate@VPxParticleFluid@physx@@VNpParticleFluid@2@@physx@@UEAAPEAVPxParticleReadData@2@V?$PxFlags@W4Enum@PxDataAccessFlag@physx@@E@2@@Z 0000000180028990 f i NpParticleFluid.obj
 0001:00027a00       ?lockParticleReadData@?$NpParticleBaseTemplate@VPxParticleFluid@physx@@VNpParticleFluid@2@@physx@@UEAAPEAVPxParticleReadData@2@XZ 0000000180028a00 f i NpParticleFluid.obj
 0001:00027a60       ?lockParticleReadData@ParticleSystem@Scb@physx@@QEAAPEAVPxParticleReadData@3@V?$PxFlags@W4Enum@PxDataAccessFlag@physx@@E@3@@Z 0000000180028a60 f i NpParticleFluid.obj
 0001:00027bf0       ?release@?$NpActorTemplate@VPxParticleFluid@physx@@@physx@@UEAAXXZ 0000000180028bf0 f i NpParticleFluid.obj
 0001:00027c00       ?release@?$NpParticleBaseTemplate@VPxParticleFluid@physx@@VNpParticleFluid@2@@physx@@UEAAXXZ 0000000180028c00 f i NpParticleFluid.obj
 0001:00027cd0       ?releaseParticles@?$NpParticleBaseTemplate@VPxParticleFluid@physx@@VNpParticleFluid@2@@physx@@UEAAXIAEBV?$PxStrideIterator@$$CBI@2@@Z 0000000180028cd0 f i NpParticleFluid.obj
 0001:00027e30       ?releaseParticles@?$NpParticleBaseTemplate@VPxParticleFluid@physx@@VNpParticleFluid@2@@physx@@UEAAXXZ 0000000180028e30 f i NpParticleFluid.obj
 0001:00027e80       ?replaceWithLast@?$HashBase@PEAVPxParticleBase@physx@@PEAV12@U?$Hash@PEAVPxParticleBase@physx@@@shdfnd@2@UGetKey@?$HashSetBase@PEAVPxParticleBase@physx@@U?$Hash@PEAVPxParticleBase@physx@@@shdfnd@2@VNonTrackingAllocator@42@$00@internal@42@VNonTrackingAllocator@42@$00@internal@shdfnd@physx@@AEAAXI@Z 0000000180028e80 f i NpParticleFluid.obj
 0001:00027f80       ?requires@NpParticleFluid@physx@@UEAAXAEAVPxProcessPxBaseCallback@2@@Z 0000000180028f80 f i NpParticleFluid.obj
 0001:00027f90       ?resetFiltering@?$NpParticleBaseTemplate@VPxParticleFluid@physx@@VNpParticleFluid@2@@physx@@UEAAXXZ 0000000180028f90 f i NpParticleFluid.obj
 0001:00028010       ?resolveReferences@?$NpActorTemplate@VPxParticleFluid@physx@@@physx@@UEAAXAEAVPxDeserializationContext@2@@Z 0000000180029010 f i NpParticleFluid.obj
 0001:00028020       ?setActorFlag@?$NpActorTemplate@VPxParticleFluid@physx@@@physx@@UEAAXW4Enum@PxActorFlag@2@_N@Z 0000000180029020 f i NpParticleFluid.obj
 0001:00028120       ?setActorFlags@?$NpActorTemplate@VPxParticleFluid@physx@@@physx@@UEAAXV?$PxFlags@W4Enum@PxActorFlag@physx@@E@2@@Z 0000000180029120 f i NpParticleFluid.obj
 0001:000281a0       ?setActorFlags@Actor@Scb@physx@@QEAAXV?$PxFlags@W4Enum@PxActorFlag@physx@@E@3@@Z 00000001800291a0 f i NpParticleFluid.obj
 0001:00028330       ?setClientBehaviorFlags@?$NpActorTemplate@VPxParticleFluid@physx@@@physx@@UEAAXV?$PxFlags@W4Enum@PxActorClientBehaviorFlag@physx@@E@2@@Z 0000000180029330 f i NpParticleFluid.obj
 0001:000283b0       ?setClientBehaviorFlags@Actor@Scb@physx@@QEAAXV?$PxFlags@W4Enum@PxActorClientBehaviorFlag@physx@@E@3@@Z 00000001800293b0 f i NpParticleFluid.obj
 0001:00028480       ?setContactOffset@?$NpParticleBaseTemplate@VPxParticleFluid@physx@@VNpParticleFluid@2@@physx@@UEAAXM@Z 0000000180029480 f i NpParticleFluid.obj
 0001:00028590       ?setContactOffset@ParticleSystem@Scb@physx@@QEAAXM@Z 0000000180029590 f i NpParticleFluid.obj
 0001:00028610       ?setDamping@?$NpParticleBaseTemplate@VPxParticleFluid@physx@@VNpParticleFluid@2@@physx@@UEAAXM@Z 0000000180029610 f i NpParticleFluid.obj
 0001:000286c0       ?setDamping@ParticleSystem@Scb@physx@@QEAAXM@Z 00000001800296c0 f i NpParticleFluid.obj
 0001:00028790       ?setDataAccessFlags@NpParticleFluidReadData@physx@@UEAAXV?$PxFlags@W4Enum@PxDataAccessFlag@physx@@E@2@@Z 0000000180029790 f i NpParticleFluid.obj
 0001:000287a0       ?setDominanceGroup@?$NpActorTemplate@VPxParticleFluid@physx@@@physx@@UEAAXE@Z 00000001800297a0 f i NpParticleFluid.obj
 0001:00028820       ?setDominanceGroup@Actor@Scb@physx@@QEAAXE@Z 0000000180029820 f i NpParticleFluid.obj
 0001:00028900       ?setDynamicFriction@?$NpParticleBaseTemplate@VPxParticleFluid@physx@@VNpParticleFluid@2@@physx@@UEAAXM@Z 0000000180029900 f i NpParticleFluid.obj
 0001:000289c0       ?setDynamicFriction@ParticleSystem@Scb@physx@@QEAAXM@Z 00000001800299c0 f i NpParticleFluid.obj
 0001:00028a90       ?setExternalAcceleration@?$NpParticleBaseTemplate@VPxParticleFluid@physx@@VNpParticleFluid@2@@physx@@UEAAXAEBVPxVec3@2@@Z 0000000180029a90 f i NpParticleFluid.obj
 0001:00028af0       ?setExternalAcceleration@ParticleSystem@Scb@physx@@QEAAXAEBVPxVec3@3@@Z 0000000180029af0 f i NpParticleFluid.obj
 0001:00028bd0       ?setFlags@ParticleSystem@Scb@physx@@QEAAXV?$PxFlags@W4Enum@PxParticleBaseFlag@physx@@G@3@@Z 0000000180029bd0 f i NpParticleFluid.obj
 0001:00028cb0       ?setGridSize@?$NpParticleBaseTemplate@VPxParticleFluid@physx@@VNpParticleFluid@2@@physx@@UEAAXM@Z 0000000180029cb0 f i NpParticleFluid.obj
 0001:00028dc0       ?setGridSize@ParticleSystem@Scb@physx@@QEAAXM@Z 0000000180029dc0 f i NpParticleFluid.obj
 0001:00028e40       ?setMaxMotionDistance@?$NpParticleBaseTemplate@VPxParticleFluid@physx@@VNpParticleFluid@2@@physx@@UEAAXM@Z 0000000180029e40 f i NpParticleFluid.obj
 0001:00028f50       ?setMaxMotionDistance@ParticleSystem@Scb@physx@@QEAAXM@Z 0000000180029f50 f i NpParticleFluid.obj
 0001:00028fd0       ?setName@?$NpActorTemplate@VPxParticleFluid@physx@@@physx@@UEAAXPEBD@Z 0000000180029fd0 f i NpParticleFluid.obj
 0001:00029070       ?setOwnerClient@?$NpActorTemplate@VPxParticleFluid@physx@@@physx@@UEAAXE@Z 000000018002a070 f i NpParticleFluid.obj
 0001:00029110       ?setOwnerClient@Actor@Scb@physx@@QEAAXE@Z 000000018002a110 f i NpParticleFluid.obj
 0001:000291f0       ?setParticleBaseFlag@?$NpParticleBaseTemplate@VPxParticleFluid@physx@@VNpParticleFluid@2@@physx@@UEAAXW4Enum@PxParticleBaseFlag@2@_N@Z 000000018002a1f0 f i NpParticleFluid.obj
 0001:00029320       ?setParticleMass@?$NpParticleBaseTemplate@VPxParticleFluid@physx@@VNpParticleFluid@2@@physx@@UEAAXM@Z 000000018002a320 f i NpParticleFluid.obj
 0001:000293d0       ?setParticleMass@ParticleSystem@Scb@physx@@QEAAXM@Z 000000018002a3d0 f i NpParticleFluid.obj
 0001:000294a0       ?setParticleReadDataFlag@?$NpParticleBaseTemplate@VPxParticleFluid@physx@@VNpParticleFluid@2@@physx@@UEAAXW4Enum@PxParticleReadDataFlag@2@_N@Z 000000018002a4a0 f i NpParticleFluid.obj
 0001:00029670       ?setParticleReadDataFlags@ParticleSystem@Scb@physx@@QEAAXV?$PxFlags@W4Enum@PxParticleReadDataFlag@physx@@G@3@@Z 000000018002a670 f i NpParticleFluid.obj
 0001:00029700       ?setPositions@?$NpParticleBaseTemplate@VPxParticleFluid@physx@@VNpParticleFluid@2@@physx@@UEAAXIAEBV?$PxStrideIterator@$$CBI@2@AEBV?$PxStrideIterator@$$CBVPxVec3@physx@@@2@@Z 000000018002a700 f i NpParticleFluid.obj
 0001:000298a0       ?setProjectionPlane@?$NpParticleBaseTemplate@VPxParticleFluid@physx@@VNpParticleFluid@2@@physx@@UEAAXAEBVPxVec3@2@M@Z 000000018002a8a0 f i NpParticleFluid.obj
 0001:000299a0       ?setProjectionPlane@ParticleSystem@Scb@physx@@QEAAXAEBVPxPlane@3@@Z 000000018002a9a0 f i NpParticleFluid.obj
 0001:00029a90       ?setRestOffset@?$NpParticleBaseTemplate@VPxParticleFluid@physx@@VNpParticleFluid@2@@physx@@UEAAXM@Z 000000018002aa90 f i NpParticleFluid.obj
 0001:00029c50       ?setRestOffset@ParticleSystem@Scb@physx@@QEAAXM@Z 000000018002ac50 f i NpParticleFluid.obj
 0001:00029cd0       ?setRestOffsets@?$NpParticleBaseTemplate@VPxParticleFluid@physx@@VNpParticleFluid@2@@physx@@UEAAXIAEBV?$PxStrideIterator@$$CBI@2@AEBV?$PxStrideIterator@$$CBM@2@@Z 000000018002acd0 f i NpParticleFluid.obj
 0001:00029f30       ?setRestParticleDistance@ParticleSystem@Scb@physx@@QEAAXM@Z 000000018002af30 f i NpParticleFluid.obj
 0001:00029fb0       ?setRestitution@?$NpParticleBaseTemplate@VPxParticleFluid@physx@@VNpParticleFluid@2@@physx@@UEAAXM@Z 000000018002afb0 f i NpParticleFluid.obj
 0001:0002a070       ?setRestitution@ParticleSystem@Scb@physx@@QEAAXM@Z 000000018002b070 f i NpParticleFluid.obj
 0001:0002a140       ?setSimulationFilterData@?$NpParticleBaseTemplate@VPxParticleFluid@physx@@VNpParticleFluid@2@@physx@@UEAAXAEBUPxFilterData@2@@Z 000000018002b140 f i NpParticleFluid.obj
 0001:0002a1a0       ?setSimulationFilterData@ParticleSystem@Scb@physx@@QEAAXAEBUPxFilterData@3@@Z 000000018002b1a0 f i NpParticleFluid.obj
 0001:0002a270       ?setStaticFriction@?$NpParticleBaseTemplate@VPxParticleFluid@physx@@VNpParticleFluid@2@@physx@@UEAAXM@Z 000000018002b270 f i NpParticleFluid.obj
 0001:0002a320       ?setStaticFriction@ParticleSystem@Scb@physx@@QEAAXM@Z 000000018002b320 f i NpParticleFluid.obj
 0001:0002a3f0       ?setStiffness@ParticleSystem@Scb@physx@@QEAAXM@Z 000000018002b3f0 f i NpParticleFluid.obj
 0001:0002a4c0       ?setVelocities@?$NpParticleBaseTemplate@VPxParticleFluid@physx@@VNpParticleFluid@2@@physx@@UEAAXIAEBV?$PxStrideIterator@$$CBI@2@AEBV?$PxStrideIterator@$$CBVPxVec3@physx@@@2@@Z 000000018002b4c0 f i NpParticleFluid.obj
 0001:0002a660       ?setViscosity@ParticleSystem@Scb@physx@@QEAAXM@Z 000000018002b660 f i NpParticleFluid.obj
 0001:0002a730       ?unlock@NpParticleFluidReadData@physx@@UEAAXXZ 000000018002b730 f i NpParticleFluid.obj
 0001:0002a740       ?createObject@NpParticleSystem@physx@@SAPEAV12@AEAPEAEAEAVPxDeserializationContext@2@@Z 000000018002b740 f   NpParticleSystem.obj
 0001:0002a800       ??0NpParticleSystem@physx@@QEAA@I_N@Z 000000018002b800 f   NpParticleSystem.obj
 0001:0002a890       ??1NpParticleSystem@physx@@UEAA@XZ 000000018002b890 f   NpParticleSystem.obj
 0001:0002a8e0       ?setParticleReadDataFlag@NpParticleSystem@physx@@UEAAXW4Enum@PxParticleReadDataFlag@2@_N@Z 000000018002b8e0 f   NpParticleSystem.obj
 0001:0002aa00       ??0?$NpActorTemplate@VPxParticleSystem@physx@@@physx@@QEAA@GV?$PxFlags@W4Enum@PxBaseFlag@physx@@G@1@PEBDPEAX@Z 000000018002ba00 f i NpParticleSystem.obj
 0001:0002aa70       ??0?$NpParticleBaseTemplate@VPxParticleSystem@physx@@VNpParticleSystem@2@@physx@@QEAA@GV?$PxFlags@W4Enum@PxBaseFlag@physx@@G@1@AEBW4Enum@PxActorType@1@I_N@Z 000000018002ba70 f i NpParticleSystem.obj
 0001:0002ab00       ??1?$NpActorTemplate@VPxParticleSystem@physx@@@physx@@UEAA@XZ 000000018002bb00 f i NpParticleSystem.obj
 0001:0002ab40       ??1?$NpParticleBaseTemplate@VPxParticleSystem@physx@@VNpParticleSystem@2@@physx@@UEAA@XZ 000000018002bb40 f i NpParticleSystem.obj
 0001:0002aba0       ??1PxParticleSystem@physx@@MEAA@XZ 000000018002bba0 f i NpParticleSystem.obj
 0001:0002abb0       ??_E?$NpActorTemplate@VPxParticleSystem@physx@@@physx@@UEAAPEAXI@Z 000000018002bbb0 f i NpParticleSystem.obj
 0001:0002abb0       ??_G?$NpActorTemplate@VPxParticleSystem@physx@@@physx@@UEAAPEAXI@Z 000000018002bbb0 f i NpParticleSystem.obj
 0001:0002ac50       ??_G?$NpParticleBaseTemplate@VPxParticleSystem@physx@@VNpParticleSystem@2@@physx@@UEAAPEAXI@Z 000000018002bc50 f i NpParticleSystem.obj
 0001:0002ac50       ??_E?$NpParticleBaseTemplate@VPxParticleSystem@physx@@VNpParticleSystem@2@@physx@@UEAAPEAXI@Z 000000018002bc50 f i NpParticleSystem.obj
 0001:0002ad10       ??_ENpParticleSystem@physx@@UEAAPEAXI@Z 000000018002bd10 f i NpParticleSystem.obj
 0001:0002ad10       ??_GNpParticleSystem@physx@@UEAAPEAXI@Z 000000018002bd10 f i NpParticleSystem.obj
 0001:0002add0       ??_EPxParticleSystem@physx@@MEAAPEAXI@Z 000000018002bdd0 f i NpParticleSystem.obj
 0001:0002add0       ??_GPxParticleSystem@physx@@MEAAPEAXI@Z 000000018002bdd0 f i NpParticleSystem.obj
 0001:0002ae10       ?addForces@?$NpParticleBaseTemplate@VPxParticleSystem@physx@@VNpParticleSystem@2@@physx@@UEAAXIAEBV?$PxStrideIterator@$$CBI@2@AEBV?$PxStrideIterator@$$CBVPxVec3@physx@@@2@W4Enum@PxForceMode@2@@Z 000000018002be10 f i NpParticleSystem.obj
 0001:0002b000       ?checkAllocatedIndices@?$NpParticleBaseTemplate@VPxParticleSystem@physx@@VNpParticleSystem@2@@physx@@AEAA_NIAEBV?$PxStrideIterator@$$CBI@2@@Z 000000018002c000 f i NpParticleSystem.obj
 0001:0002b170       ?checkFreeIndices@?$NpParticleBaseTemplate@VPxParticleSystem@physx@@VNpParticleSystem@2@@physx@@AEAA_NIAEBV?$PxStrideIterator@$$CBI@2@@Z 000000018002c170 f i NpParticleSystem.obj
 0001:0002b560       ?createParticles@?$NpParticleBaseTemplate@VPxParticleSystem@physx@@VNpParticleSystem@2@@physx@@UEAA_NAEBVPxParticleCreationData@2@@Z 000000018002c560 f i NpParticleSystem.obj
 0001:0002b980       ?exportExtraData@?$NpActorTemplate@VPxParticleSystem@physx@@@physx@@UEAAXAEAVPxSerializationContext@2@@Z 000000018002c980 f i NpParticleSystem.obj
 0001:0002b990       ?exportExtraData@NpParticleSystem@physx@@UEAAXAEAVPxSerializationContext@2@@Z 000000018002c990 f i NpParticleSystem.obj
 0001:0002b9a0       ?getActorFlags@?$NpActorTemplate@VPxParticleSystem@physx@@@physx@@UEBA?AV?$PxFlags@W4Enum@PxActorFlag@physx@@E@2@XZ 000000018002c9a0 f i NpParticleSystem.obj
 0001:0002ba40       ?getAggregate@?$NpActorTemplate@VPxParticleSystem@physx@@@physx@@UEBAPEAVPxAggregate@2@XZ 000000018002ca40 f i NpParticleSystem.obj
 0001:0002ba50       ?getClientBehaviorFlags@?$NpActorTemplate@VPxParticleSystem@physx@@@physx@@UEBA?AV?$PxFlags@W4Enum@PxActorClientBehaviorFlag@physx@@E@2@XZ 000000018002ca50 f i NpParticleSystem.obj
 0001:0002baf0       ?getConcreteTypeName@PxParticleSystem@physx@@UEBAPEBDXZ 000000018002caf0 f i NpParticleSystem.obj
 0001:0002bb00       ?getContactOffset@?$NpParticleBaseTemplate@VPxParticleSystem@physx@@VNpParticleSystem@2@@physx@@UEBAMXZ 000000018002cb00 f i NpParticleSystem.obj
 0001:0002bb60       ?getDamping@?$NpParticleBaseTemplate@VPxParticleSystem@physx@@VNpParticleSystem@2@@physx@@UEBAMXZ 000000018002cb60 f i NpParticleSystem.obj
 0001:0002bbe0       ?getDominanceGroup@?$NpActorTemplate@VPxParticleSystem@physx@@@physx@@UEBAEXZ 000000018002cbe0 f i NpParticleSystem.obj
 0001:0002bc90       ?getDynamicFriction@?$NpParticleBaseTemplate@VPxParticleSystem@physx@@VNpParticleSystem@2@@physx@@UEBAMXZ 000000018002cc90 f i NpParticleSystem.obj
 0001:0002bd10       ?getExternalAcceleration@?$NpParticleBaseTemplate@VPxParticleSystem@physx@@VNpParticleSystem@2@@physx@@UEBA?AVPxVec3@2@XZ 000000018002cd10 f i NpParticleSystem.obj
 0001:0002bda0       ?getGridSize@?$NpParticleBaseTemplate@VPxParticleSystem@physx@@VNpParticleSystem@2@@physx@@UEBAMXZ 000000018002cda0 f i NpParticleSystem.obj
 0001:0002be00       ?getMaxMotionDistance@?$NpParticleBaseTemplate@VPxParticleSystem@physx@@VNpParticleSystem@2@@physx@@UEBAMXZ 000000018002ce00 f i NpParticleSystem.obj
 0001:0002be60       ?getMaxParticles@?$NpParticleBaseTemplate@VPxParticleSystem@physx@@VNpParticleSystem@2@@physx@@UEBAIXZ 000000018002ce60 f i NpParticleSystem.obj
 0001:0002beb0       ?getName@?$NpActorTemplate@VPxParticleSystem@physx@@@physx@@UEBAPEBDXZ 000000018002ceb0 f i NpParticleSystem.obj
 0001:0002bf00       ?getOwnerClient@?$NpActorTemplate@VPxParticleSystem@physx@@@physx@@UEBAEXZ 000000018002cf00 f i NpParticleSystem.obj
 0001:0002bf40       ?getParticleBaseFlags@?$NpParticleBaseTemplate@VPxParticleSystem@physx@@VNpParticleSystem@2@@physx@@UEBA?AV?$PxFlags@W4Enum@PxParticleBaseFlag@physx@@G@2@XZ 000000018002cf40 f i NpParticleSystem.obj
 0001:0002bfd0       ?getParticleMass@?$NpParticleBaseTemplate@VPxParticleSystem@physx@@VNpParticleSystem@2@@physx@@UEBAMXZ 000000018002cfd0 f i NpParticleSystem.obj
 0001:0002c050       ?getParticleReadDataFlags@?$NpParticleBaseTemplate@VPxParticleSystem@physx@@VNpParticleSystem@2@@physx@@UEBA?AV?$PxFlags@W4Enum@PxParticleReadDataFlag@physx@@G@2@XZ 000000018002d050 f i NpParticleSystem.obj
 0001:0002c0b0       ?getProjectionPlane@?$NpParticleBaseTemplate@VPxParticleSystem@physx@@VNpParticleSystem@2@@physx@@UEBAXAEAVPxVec3@2@AEAM@Z 000000018002d0b0 f i NpParticleSystem.obj
 0001:0002c160       ?getRestOffset@?$NpParticleBaseTemplate@VPxParticleSystem@physx@@VNpParticleSystem@2@@physx@@UEBAMXZ 000000018002d160 f i NpParticleSystem.obj
 0001:0002c1c0       ?getRestitution@?$NpParticleBaseTemplate@VPxParticleSystem@physx@@VNpParticleSystem@2@@physx@@UEBAMXZ 000000018002d1c0 f i NpParticleSystem.obj
 0001:0002c240       ?getScene@?$NpActorTemplate@VPxParticleSystem@physx@@@physx@@UEBAPEAVPxScene@2@XZ 000000018002d240 f i NpParticleSystem.obj
 0001:0002c250       ?getSimulationFilterData@?$NpParticleBaseTemplate@VPxParticleSystem@physx@@VNpParticleSystem@2@@physx@@UEBA?AUPxFilterData@2@XZ 000000018002d250 f i NpParticleSystem.obj
 0001:0002c2d0       ?getStaticFriction@?$NpParticleBaseTemplate@VPxParticleSystem@physx@@VNpParticleSystem@2@@physx@@UEBAMXZ 000000018002d2d0 f i NpParticleSystem.obj
 0001:0002c350       ?getType@?$NpParticleBaseTemplate@VPxParticleSystem@physx@@VNpParticleSystem@2@@physx@@UEBA?AW4Enum@PxActorType@2@XZ 000000018002d350 f i NpParticleSystem.obj
 0001:0002c360       ?getType@NpParticleSystem@physx@@UEBA?AW4Enum@PxActorType@2@XZ 000000018002d360 f i NpParticleSystem.obj
 0001:0002c370       ?getWorldBounds@?$NpParticleBaseTemplate@VPxParticleSystem@physx@@VNpParticleSystem@2@@physx@@UEBA?AVPxBounds3@2@M@Z 000000018002d370 f i NpParticleSystem.obj
 0001:0002c570       ?isKindOf@PxParticleSystem@physx@@MEBA_NPEBD@Z 000000018002d570 f i NpParticleSystem.obj
 0001:0002c5d0       ?lockParticleReadData@?$NpParticleBaseTemplate@VPxParticleSystem@physx@@VNpParticleSystem@2@@physx@@UEAAPEAVPxParticleReadData@2@V?$PxFlags@W4Enum@PxDataAccessFlag@physx@@E@2@@Z 000000018002d5d0 f i NpParticleSystem.obj
 0001:0002c640       ?lockParticleReadData@?$NpParticleBaseTemplate@VPxParticleSystem@physx@@VNpParticleSystem@2@@physx@@UEAAPEAVPxParticleReadData@2@XZ 000000018002d640 f i NpParticleSystem.obj
 0001:0002c6a0       ?release@?$NpActorTemplate@VPxParticleSystem@physx@@@physx@@UEAAXXZ 000000018002d6a0 f i NpParticleSystem.obj
 0001:0002c6b0       ?release@?$NpParticleBaseTemplate@VPxParticleSystem@physx@@VNpParticleSystem@2@@physx@@UEAAXXZ 000000018002d6b0 f i NpParticleSystem.obj
 0001:0002c780       ?releaseParticles@?$NpParticleBaseTemplate@VPxParticleSystem@physx@@VNpParticleSystem@2@@physx@@UEAAXIAEBV?$PxStrideIterator@$$CBI@2@@Z 000000018002d780 f i NpParticleSystem.obj
 0001:0002c8e0       ?releaseParticles@?$NpParticleBaseTemplate@VPxParticleSystem@physx@@VNpParticleSystem@2@@physx@@UEAAXXZ 000000018002d8e0 f i NpParticleSystem.obj
 0001:0002c930       ?requires@NpParticleSystem@physx@@UEAAXAEAVPxProcessPxBaseCallback@2@@Z 000000018002d930 f i NpParticleSystem.obj
 0001:0002c940       ?resetFiltering@?$NpParticleBaseTemplate@VPxParticleSystem@physx@@VNpParticleSystem@2@@physx@@UEAAXXZ 000000018002d940 f i NpParticleSystem.obj
 0001:0002c9c0       ?resolveReferences@?$NpActorTemplate@VPxParticleSystem@physx@@@physx@@UEAAXAEAVPxDeserializationContext@2@@Z 000000018002d9c0 f i NpParticleSystem.obj
 0001:0002c9d0       ?setActorFlag@?$NpActorTemplate@VPxParticleSystem@physx@@@physx@@UEAAXW4Enum@PxActorFlag@2@_N@Z 000000018002d9d0 f i NpParticleSystem.obj
 0001:0002cad0       ?setActorFlags@?$NpActorTemplate@VPxParticleSystem@physx@@@physx@@UEAAXV?$PxFlags@W4Enum@PxActorFlag@physx@@E@2@@Z 000000018002dad0 f i NpParticleSystem.obj
 0001:0002cb50       ?setClientBehaviorFlags@?$NpActorTemplate@VPxParticleSystem@physx@@@physx@@UEAAXV?$PxFlags@W4Enum@PxActorClientBehaviorFlag@physx@@E@2@@Z 000000018002db50 f i NpParticleSystem.obj
 0001:0002cbd0       ?setContactOffset@?$NpParticleBaseTemplate@VPxParticleSystem@physx@@VNpParticleSystem@2@@physx@@UEAAXM@Z 000000018002dbd0 f i NpParticleSystem.obj
 0001:0002cce0       ?setDamping@?$NpParticleBaseTemplate@VPxParticleSystem@physx@@VNpParticleSystem@2@@physx@@UEAAXM@Z 000000018002dce0 f i NpParticleSystem.obj
 0001:0002cd90       ?setDominanceGroup@?$NpActorTemplate@VPxParticleSystem@physx@@@physx@@UEAAXE@Z 000000018002dd90 f i NpParticleSystem.obj
 0001:0002ce10       ?setDynamicFriction@?$NpParticleBaseTemplate@VPxParticleSystem@physx@@VNpParticleSystem@2@@physx@@UEAAXM@Z 000000018002de10 f i NpParticleSystem.obj
 0001:0002ced0       ?setExternalAcceleration@?$NpParticleBaseTemplate@VPxParticleSystem@physx@@VNpParticleSystem@2@@physx@@UEAAXAEBVPxVec3@2@@Z 000000018002ded0 f i NpParticleSystem.obj
 0001:0002cf30       ?setGridSize@?$NpParticleBaseTemplate@VPxParticleSystem@physx@@VNpParticleSystem@2@@physx@@UEAAXM@Z 000000018002df30 f i NpParticleSystem.obj
 0001:0002d040       ?setMaxMotionDistance@?$NpParticleBaseTemplate@VPxParticleSystem@physx@@VNpParticleSystem@2@@physx@@UEAAXM@Z 000000018002e040 f i NpParticleSystem.obj
 0001:0002d150       ?setName@?$NpActorTemplate@VPxParticleSystem@physx@@@physx@@UEAAXPEBD@Z 000000018002e150 f i NpParticleSystem.obj
 0001:0002d1f0       ?setOwnerClient@?$NpActorTemplate@VPxParticleSystem@physx@@@physx@@UEAAXE@Z 000000018002e1f0 f i NpParticleSystem.obj
 0001:0002d290       ?setParticleBaseFlag@?$NpParticleBaseTemplate@VPxParticleSystem@physx@@VNpParticleSystem@2@@physx@@UEAAXW4Enum@PxParticleBaseFlag@2@_N@Z 000000018002e290 f i NpParticleSystem.obj
 0001:0002d3c0       ?setParticleMass@?$NpParticleBaseTemplate@VPxParticleSystem@physx@@VNpParticleSystem@2@@physx@@UEAAXM@Z 000000018002e3c0 f i NpParticleSystem.obj
 0001:0002d470       ?setParticleReadDataFlag@?$NpParticleBaseTemplate@VPxParticleSystem@physx@@VNpParticleSystem@2@@physx@@UEAAXW4Enum@PxParticleReadDataFlag@2@_N@Z 000000018002e470 f i NpParticleSystem.obj
 0001:0002d640       ?setPositions@?$NpParticleBaseTemplate@VPxParticleSystem@physx@@VNpParticleSystem@2@@physx@@UEAAXIAEBV?$PxStrideIterator@$$CBI@2@AEBV?$PxStrideIterator@$$CBVPxVec3@physx@@@2@@Z 000000018002e640 f i NpParticleSystem.obj
 0001:0002d7e0       ?setProjectionPlane@?$NpParticleBaseTemplate@VPxParticleSystem@physx@@VNpParticleSystem@2@@physx@@UEAAXAEBVPxVec3@2@M@Z 000000018002e7e0 f i NpParticleSystem.obj
 0001:0002d8e0       ?setRestOffset@?$NpParticleBaseTemplate@VPxParticleSystem@physx@@VNpParticleSystem@2@@physx@@UEAAXM@Z 000000018002e8e0 f i NpParticleSystem.obj
 0001:0002daa0       ?setRestOffsets@?$NpParticleBaseTemplate@VPxParticleSystem@physx@@VNpParticleSystem@2@@physx@@UEAAXIAEBV?$PxStrideIterator@$$CBI@2@AEBV?$PxStrideIterator@$$CBM@2@@Z 000000018002eaa0 f i NpParticleSystem.obj
 0001:0002dd00       ?setRestitution@?$NpParticleBaseTemplate@VPxParticleSystem@physx@@VNpParticleSystem@2@@physx@@UEAAXM@Z 000000018002ed00 f i NpParticleSystem.obj
 0001:0002ddc0       ?setSimulationFilterData@?$NpParticleBaseTemplate@VPxParticleSystem@physx@@VNpParticleSystem@2@@physx@@UEAAXAEBUPxFilterData@2@@Z 000000018002edc0 f i NpParticleSystem.obj
 0001:0002de20       ?setStaticFriction@?$NpParticleBaseTemplate@VPxParticleSystem@physx@@VNpParticleSystem@2@@physx@@UEAAXM@Z 000000018002ee20 f i NpParticleSystem.obj
 0001:0002ded0       ?setVelocities@?$NpParticleBaseTemplate@VPxParticleSystem@physx@@VNpParticleSystem@2@@physx@@UEAAXIAEBV?$PxStrideIterator@$$CBI@2@AEBV?$PxStrideIterator@$$CBVPxVec3@physx@@@2@@Z 000000018002eed0 f i NpParticleSystem.obj
 0001:0002e070       ??0Offsets@Actor@Scb@physx@@QEAA@XZ 000000018002f070 f   ScbActor.obj
 0001:0002e0f0       ?addActor@Aggregate@Scb@physx@@QEAAXAEAVActor@23@@Z 000000018002f0f0 f   ScbAggregate.obj
 0001:0002e2c0       ?removeActor@Aggregate@Scb@physx@@QEAAXAEAVActor@23@_N@Z 000000018002f2c0 f   ScbAggregate.obj
 0001:0002e5e0       ??$allocArrayBuffer@PEAVActor@Scb@physx@@@Scene@Scb@physx@@AEAAPEAPEAVActor@12@AEAV?$Array@PEAVActor@Scb@physx@@VNamedAllocator@shdfnd@3@@shdfnd@2@IAEAI@Z 000000018002f5e0 f i ScbAggregate.obj
 0001:0002e640       ?recreate@?$Array@PEAVActor@Scb@physx@@VNamedAllocator@shdfnd@3@@shdfnd@physx@@IEAAXI@Z 000000018002f640 f i ScbAggregate.obj
 0001:0002e720       ?resize@?$Array@PEAVActor@Scb@physx@@VNamedAllocator@shdfnd@3@@shdfnd@physx@@QEAAXIAEBQEAVActor@Scb@3@@Z 000000018002f720 f i ScbAggregate.obj
 0001:0002e7e0       ?destroy@Base@Scb@physx@@QEAAXXZ 000000018002f7e0 f   ScbBase.obj
 0001:0002e820       ??0Cloth@Scb@physx@@QEAA@AEBVPxTransform@2@AEAVClothFabricCore@Sc@2@PEBUPxClothParticle@2@V?$PxFlags@W4Enum@PxClothFlag@physx@@G@2@@Z 000000018002f820 f   ScbCloth.obj
 0001:0002e880       ??1Cloth@Scb@physx@@QEAA@XZ 000000018002f880 f   ScbCloth.obj
 0001:0002e890       ?syncState@Cloth@Scb@physx@@QEAAXXZ 000000018002f890 f   ScbCloth.obj
 0001:0002e9b0       ?getBinaryMetaData@Base@Scb@physx@@SAXAEAVPxOutputStream@3@@Z 000000018002f9b0 f   ScbMetaData.obj
 0001:0002eb10       ?getBinaryMetaData@Shape@Scb@physx@@SAXAEAVPxOutputStream@3@@Z 000000018002fb10 f   ScbMetaData.obj
 0001:0002ebf0       ?getBinaryMetaData@Actor@Scb@physx@@SAXAEAVPxOutputStream@3@@Z 000000018002fbf0 f   ScbMetaData.obj
 0001:0002ec90       ?getBinaryMetaData@RigidObject@Scb@physx@@SAXAEAVPxOutputStream@3@@Z 000000018002fc90 f   ScbMetaData.obj
 0001:0002ed30       ?getBinaryMetaData@Body@Scb@physx@@SAXAEAVPxOutputStream@3@@Z 000000018002fd30 f   ScbMetaData.obj
 0001:0002ef80       ?getBinaryMetaData@RigidStatic@Scb@physx@@SAXAEAVPxOutputStream@3@@Z 000000018002ff80 f   ScbMetaData.obj
 0001:0002f060       ?getBinaryMetaData@Constraint@Scb@physx@@SAXAEAVPxOutputStream@3@@Z 0000000180030060 f   ScbMetaData.obj
 0001:0002f200       ?getBinaryMetaData@Articulation@Scb@physx@@SAXAEAVPxOutputStream@3@@Z 0000000180030200 f   ScbMetaData.obj
 0001:0002f360       ?getBinaryMetaData@ArticulationJoint@Scb@physx@@SAXAEAVPxOutputStream@3@@Z 0000000180030360 f   ScbMetaData.obj
 0001:0002f440       ?getBinaryMetaData@Aggregate@Scb@physx@@SAXAEAVPxOutputStream@3@@Z 0000000180030440 f   ScbMetaData.obj
 0001:0002f5e0       ?getBinaryMetaData@Cloth@Scb@physx@@SAXAEAVPxOutputStream@3@@Z 00000001800305e0 f   ScbMetaData.obj
 0001:0002f6c0       ?getBinaryMetaData@ParticleSystem@Scb@physx@@SAXAEAVPxOutputStream@3@@Z 00000001800306c0 f   ScbMetaData.obj
 0001:0002fd50       ?initialize@ForceUpdates@ParticleSystem@Scb@physx@@QEAAXI@Z 0000000180030d50 f   ScbParticleSystem.obj
 0001:0002fe60       ?destroy@ForceUpdates@ParticleSystem@Scb@physx@@QEAAXXZ 0000000180030e60 f   ScbParticleSystem.obj
 0001:0002ff00       ??0ParticleSystem@Scb@physx@@QEAA@AEBW4Enum@PxActorType@2@I_N@Z 0000000180030f00 f   ScbParticleSystem.obj
 0001:0002ff80       ??1ParticleSystem@Scb@physx@@QEAA@XZ 0000000180030f80 f   ScbParticleSystem.obj
 0001:0002ffc0       ?createParticles@ParticleSystem@Scb@physx@@QEAA_NAEBVPxParticleCreationData@3@@Z 0000000180030fc0 f   ScbParticleSystem.obj
 0001:00030080       ?releaseParticles@ParticleSystem@Scb@physx@@QEAAXIAEBV?$PxStrideIterator@$$CBI@3@@Z 0000000180031080 f   ScbParticleSystem.obj
 0001:00030200       ?releaseParticles@ParticleSystem@Scb@physx@@QEAAXXZ 0000000180031200 f   ScbParticleSystem.obj
 0001:00030300       ?setPositions@ParticleSystem@Scb@physx@@QEAAXIAEBV?$PxStrideIterator@$$CBI@3@AEBV?$PxStrideIterator@$$CBVPxVec3@physx@@@3@@Z 0000000180031300 f   ScbParticleSystem.obj
 0001:000303d0       ?setVelocities@ParticleSystem@Scb@physx@@QEAAXIAEBV?$PxStrideIterator@$$CBI@3@AEBV?$PxStrideIterator@$$CBVPxVec3@physx@@@3@@Z 00000001800313d0 f   ScbParticleSystem.obj
 0001:000304a0       ?setRestOffsets@ParticleSystem@Scb@physx@@QEAAXIAEBV?$PxStrideIterator@$$CBI@3@AEBV?$PxStrideIterator@$$CBM@3@@Z 00000001800314a0 f   ScbParticleSystem.obj
 0001:00030570       ?addForces@ParticleSystem@Scb@physx@@QEAAXIAEBV?$PxStrideIterator@$$CBI@3@AEBV?$PxStrideIterator@$$CBVPxVec3@physx@@@3@W4Enum@PxForceMode@3@@Z 0000000180031570 f   ScbParticleSystem.obj
 0001:000309b0       ?submitForceUpdates@ParticleSystem@Scb@physx@@QEAAXM@Z 00000001800319b0 f   ScbParticleSystem.obj
 0001:00030ab0       ?syncState@ParticleSystem@Scb@physx@@QEAAXXZ 0000000180031ab0 f   ScbParticleSystem.obj
 0001:00031020       ?extendUninitialized@?$BitMapBase@VNonTrackingAllocator@shdfnd@physx@@@Cm@physx@@IEAAXI@Z 0000000180032020 f i ScbParticleSystem.obj
 0001:000310f0       ?syncState@Actor@Scb@physx@@IEAAXXZ 00000001800320f0 f i ScbParticleSystem.obj
 0001:000311b0       ?scheduleForInsert@ObjectTracker@Scb@physx@@QEAAXAEAVBase@23@@Z 00000001800321b0 f   ScbScene.obj
 0001:00031230       ?scheduleForRemove@ObjectTracker@Scb@physx@@QEAAXAEAVBase@23@@Z 0000000180032230 f   ScbScene.obj
 0001:000312b0       ?scheduleForUpdate@ObjectTracker@Scb@physx@@QEAAXAEAVBase@23@@Z 00000001800322b0 f   ScbScene.obj
 0001:00031310       ?clear@ObjectTracker@Scb@physx@@QEAAXXZ 0000000180032310 f   ScbScene.obj
 0001:000313b0       ?insert@ObjectTracker@Scb@physx@@QEAAXAEAVBase@23@@Z 00000001800323b0 f   ScbScene.obj
 0001:000313f0       ?remove@ObjectTracker@Scb@physx@@QEAAXAEAVBase@23@@Z 00000001800323f0 f   ScbScene.obj
 0001:00031410       ??0Scene@Scb@physx@@QEAA@AEBVPxSceneDesc@2@_K@Z 0000000180032410 f   ScbScene.obj
 0001:000317f0       ?release@Scene@Scb@physx@@QEAAXXZ 00000001800327f0 f   ScbScene.obj
 0001:00031860       ?getPxScene@Scene@Scb@physx@@QEAAPEAVPxScene@3@XZ 0000000180032860 f   ScbScene.obj
 0001:00031870       ?addActor@Scene@Scb@physx@@QEAAXAEAVRigidStatic@23@_NPEAVPxBounds3@3@@Z 0000000180032870 f   ScbScene.obj
 0001:00031a50       ?removeActor@Scene@Scb@physx@@QEAAXAEAVRigidStatic@23@_N1@Z 0000000180032a50 f   ScbScene.obj
 0001:00031c70       ?addActor@Scene@Scb@physx@@QEAAXAEAVBody@23@_NPEAVPxBounds3@3@@Z 0000000180032c70 f   ScbScene.obj
 0001:00031f00       ?removeActor@Scene@Scb@physx@@QEAAXAEAVBody@23@_N1@Z 0000000180032f00 f   ScbScene.obj
 0001:00032220       ?addConstraint@Scene@Scb@physx@@QEAAXAEAVConstraint@23@@Z 0000000180033220 f   ScbScene.obj
 0001:00032240       ?removeConstraint@Scene@Scb@physx@@QEAAXAEAVConstraint@23@@Z 0000000180033240 f   ScbScene.obj
 0001:00032380       ?addArticulation@Scene@Scb@physx@@QEAAXAEAVArticulation@23@@Z 0000000180033380 f   ScbScene.obj
 0001:000323c0       ?removeArticulation@Scene@Scb@physx@@QEAAXAEAVArticulation@23@@Z 00000001800333c0 f   ScbScene.obj
 0001:000323f0       ?addArticulationJoint@Scene@Scb@physx@@QEAAXAEAVArticulationJoint@23@@Z 00000001800333f0 f   ScbScene.obj
 0001:00032410       ?removeArticulationJoint@Scene@Scb@physx@@QEAAXAEAVArticulationJoint@23@@Z 0000000180033410 f   ScbScene.obj
 0001:00032430       ?addAggregate@Scene@Scb@physx@@QEAAXAEAVAggregate@23@@Z 0000000180033430 f   ScbScene.obj
 0001:000324a0       ?removeAggregate@Scene@Scb@physx@@QEAAXAEAVAggregate@23@@Z 00000001800334a0 f   ScbScene.obj
 0001:00032510       ?addParticleSystem@Scene@Scb@physx@@QEAAXAEAVParticleSystem@23@@Z 0000000180033510 f   ScbScene.obj
 0001:00032530       ?removeParticleSystem@Scene@Scb@physx@@QEAAXAEAVParticleSystem@23@_N@Z 0000000180033530 f   ScbScene.obj
 0001:000326a0       ?addCloth@Scene@Scb@physx@@QEAAXAEAVCloth@23@@Z 00000001800336a0 f   ScbScene.obj
 0001:00032810       ?removeCloth@Scene@Scb@physx@@QEAAXAEAVCloth@23@@Z 0000000180033810 f   ScbScene.obj
 0001:00032950       ?addMaterial@Scene@Scb@physx@@QEAAXAEBVMaterialCore@Sc@3@@Z 0000000180033950 f   ScbScene.obj
 0001:00032ac0       ?updateMaterial@Scene@Scb@physx@@QEAAXAEBVMaterialCore@Sc@3@@Z 0000000180033ac0 f   ScbScene.obj
 0001:00032c40       ?removeMaterial@Scene@Scb@physx@@QEAAXAEBVMaterialCore@Sc@3@@Z 0000000180033c40 f   ScbScene.obj
 0001:00032dd0       ?updateLowLevelMaterial@Scene@Scb@physx@@QEAAXPEAPEAVNpMaterial@3@@Z 0000000180033dd0 f   ScbScene.obj
 0001:00032f20       ?getBroadPhaseType@Scene@Scb@physx@@QEBA?AW4Enum@PxBroadPhaseType@3@XZ 0000000180033f20 f   ScbScene.obj
 0001:00032f30       ?getBroadPhaseCaps@Scene@Scb@physx@@QEBA_NAEAUPxBroadPhaseCaps@3@@Z 0000000180033f30 f   ScbScene.obj
 0001:00032f40       ?getNbBroadPhaseRegions@Scene@Scb@physx@@QEBAIXZ 0000000180033f40 f   ScbScene.obj
 0001:00032f50       ?getBroadPhaseRegions@Scene@Scb@physx@@QEBAIPEAUPxBroadPhaseRegionInfo@3@II@Z 0000000180033f50 f   ScbScene.obj
 0001:00032f60       ?addBroadPhaseRegion@Scene@Scb@physx@@QEAAIAEBUPxBroadPhaseRegion@3@_N@Z 0000000180033f60 f   ScbScene.obj
 0001:00032fc0       ?removeBroadPhaseRegion@Scene@Scb@physx@@QEAA_NI@Z 0000000180033fc0 f   ScbScene.obj
 0001:00033010       ?shiftOrigin@Scene@Scb@physx@@QEAAXAEBVPxVec3@3@@Z 0000000180034010 f   ScbScene.obj
 0001:00033130       ?syncWriteThroughProperties@Scene@Scb@physx@@QEAAXXZ 0000000180034130 f   ScbScene.obj
 0001:00033450       ?syncEntireScene@Scene@Scb@physx@@QEAAXXZ 0000000180034450 f   ScbScene.obj
 0001:00033da0       ?processPendingRemove@Scene@Scb@physx@@QEAAXXZ 0000000180034da0 f   ScbScene.obj
 0001:00033f00       ?scheduleForUpdate@Scene@Scb@physx@@QEAAXAEAVBase@23@@Z 0000000180034f00 f   ScbScene.obj
 0001:00033fd0       ?getStream@Scene@Scb@physx@@QEAAPEAEW4Enum@ScbType@3@@Z 0000000180034fd0 f   ScbScene.obj
 0001:000341e0       ?syncState@Scene@Scb@physx@@AEAAXXZ 00000001800351e0 f   ScbScene.obj
 0001:000343d0       ?preSimulateUpdateAppThread@Scene@Scb@physx@@QEAAXM@Z 00000001800353d0 f   ScbScene.obj
 0001:00034450       ?switchRigidToNoSim@Scene@Scb@physx@@QEAAXAEAVRigidObject@23@_N@Z 0000000180035450 f   ScbScene.obj
 0001:00034570       ?switchRigidFromNoSim@Scene@Scb@physx@@QEAAXAEAVRigidObject@23@_N@Z 0000000180035570 f   ScbScene.obj
 0001:000353a0       ??$add@VArticulation@Scb@physx@@@Scene@Scb@physx@@AEAAXAEAVArticulation@12@AEAVObjectTracker@12@PEAVPxBounds3@2@@Z 00000001800363a0 f i ScbScene.obj
 0001:00035470       ??$add@VArticulationJoint@Scb@physx@@@Scene@Scb@physx@@AEAAXAEAVArticulationJoint@12@AEAVObjectTracker@12@PEAVPxBounds3@2@@Z 0000000180036470 f i ScbScene.obj
 0001:00035560       ??$add@VBody@Scb@physx@@@Scene@Scb@physx@@AEAAXAEAVBody@12@AEAVObjectTracker@12@PEAVPxBounds3@2@@Z 0000000180036560 f i ScbScene.obj
 0001:000358f0       ??$add@VConstraint@Scb@physx@@@Scene@Scb@physx@@AEAAXAEAVConstraint@12@AEAVObjectTracker@12@PEAVPxBounds3@2@@Z 00000001800368f0 f i ScbScene.obj
 0001:00035a10       ??$add@VParticleSystem@Scb@physx@@@Scene@Scb@physx@@AEAAXAEAVParticleSystem@12@AEAVObjectTracker@12@PEAVPxBounds3@2@@Z 0000000180036a10 f i ScbScene.obj
 0001:00035ac0       ??$add@VRigidStatic@Scb@physx@@@Scene@Scb@physx@@AEAAXAEAVRigidStatic@12@AEAVObjectTracker@12@PEAVPxBounds3@2@@Z 0000000180036ac0 f i ScbScene.obj
 0001:00035e50       ??$addRigidNoSim@$00VBody@Scb@physx@@@Scene@Scb@physx@@AEAAXAEAVBody@12@AEAVObjectTracker@12@@Z 0000000180036e50 f i ScbScene.obj
 0001:00036160       ??$addRigidNoSim@$0A@VRigidStatic@Scb@physx@@@Scene@Scb@physx@@AEAAXAEAVRigidStatic@12@AEAVObjectTracker@12@@Z 0000000180037160 f i ScbScene.obj
 0001:00036470       ??$pointerOffset@PEAVShape@Scb@physx@@@shdfnd@physx@@YAPEAVShape@Scb@1@PEAX_J@Z 0000000180037470 f i ScbScene.obj
 0001:00036480       ??$processRemoves@VArticulation@Scb@physx@@$00$0A@@Scene@Scb@physx@@AEAAXAEAVObjectTracker@12@@Z 0000000180037480 f i ScbScene.obj
 0001:00036580       ??$processRemoves@VArticulationJoint@Scb@physx@@$0A@$0A@@Scene@Scb@physx@@AEAAXAEAVObjectTracker@12@@Z 0000000180037580 f i ScbScene.obj
 0001:00036660       ??$processRemoves@VBody@Scb@physx@@$00$00@Scene@Scb@physx@@AEAAXAEAVObjectTracker@12@@Z 0000000180037660 f i ScbScene.obj
 0001:00036b40       ??$processRemoves@VCloth@Scb@physx@@$0A@$0A@@Scene@Scb@physx@@AEAAXAEAVObjectTracker@12@@Z 0000000180037b40 f i ScbScene.obj
 0001:00036c20       ??$processRemoves@VConstraint@Scb@physx@@$00$0A@@Scene@Scb@physx@@AEAAXAEAVObjectTracker@12@@Z 0000000180037c20 f i ScbScene.obj
 0001:00036d10       ??$processRemoves@VParticleSystem@Scb@physx@@$0A@$0A@@Scene@Scb@physx@@AEAAXAEAVObjectTracker@12@@Z 0000000180037d10 f i ScbScene.obj
 0001:00036e00       ??$processRemoves@VRigidStatic@Scb@physx@@$0A@$00@Scene@Scb@physx@@AEAAXAEAVObjectTracker@12@@Z 0000000180037e00 f i ScbScene.obj
 0001:000372d0       ??$processShapeRemoves@VBody@Scb@physx@@@Scene@Scb@physx@@AEAAXAEAVObjectTracker@12@@Z 00000001800382d0 f i ScbScene.obj
 0001:00037580       ??$processShapeRemoves@VRigidStatic@Scb@physx@@@Scene@Scb@physx@@AEAAXAEAVObjectTracker@12@@Z 0000000180038580 f i ScbScene.obj
 0001:00037830       ??$processSimUpdates@VArticulation@Scb@physx@@VArticulationCore@Sc@3@@Scene@Scb@physx@@AEAAXPEBQEAVArticulationCore@Sc@2@I@Z 0000000180038830 f i ScbScene.obj
 0001:00037900       ??$processSimUpdates@VBody@Scb@physx@@VBodyCore@Sc@3@@Scene@Scb@physx@@AEAAXPEBQEAVBodyCore@Sc@2@I@Z 0000000180038900 f i ScbScene.obj
 0001:000379e0       ??$processSimUpdates@VConstraint@Scb@physx@@VConstraintCore@Sc@3@@Scene@Scb@physx@@AEAAXPEBQEAVConstraintCore@Sc@2@I@Z 00000001800389e0 f i ScbScene.obj
 0001:00037ab0       ??$processUserUpdates@VArticulation@Scb@physx@@@Scene@Scb@physx@@AEAAXAEAVObjectTracker@12@@Z 0000000180038ab0 f i ScbScene.obj
 0001:00037bc0       ??$processUserUpdates@VArticulationJoint@Scb@physx@@@Scene@Scb@physx@@AEAAXAEAVObjectTracker@12@@Z 0000000180038bc0 f i ScbScene.obj
 0001:00037d10       ??$processUserUpdates@VBody@Scb@physx@@@Scene@Scb@physx@@AEAAXAEAVObjectTracker@12@@Z 0000000180038d10 f i ScbScene.obj
 0001:00038160       ??$processUserUpdates@VConstraint@Scb@physx@@@Scene@Scb@physx@@AEAAXAEAVObjectTracker@12@@Z 0000000180039160 f i ScbScene.obj
 0001:000382e0       ??$processUserUpdates@VRigidStatic@Scb@physx@@@Scene@Scb@physx@@AEAAXAEAVObjectTracker@12@@Z 00000001800392e0 f i ScbScene.obj
 0001:00038730       ??$remove@VArticulation@Scb@physx@@@Scene@Scb@physx@@AEAAXAEAVArticulation@12@AEAVObjectTracker@12@_N@Z 0000000180039730 f i ScbScene.obj
 0001:000387f0       ??$remove@VArticulationJoint@Scb@physx@@@Scene@Scb@physx@@AEAAXAEAVArticulationJoint@12@AEAVObjectTracker@12@_N@Z 00000001800397f0 f i ScbScene.obj
 0001:000388a0       ??$remove@VBody@Scb@physx@@@Scene@Scb@physx@@AEAAXAEAVBody@12@AEAVObjectTracker@12@_N@Z 00000001800398a0 f i ScbScene.obj
 0001:00038c90       ??$remove@VRigidStatic@Scb@physx@@@Scene@Scb@physx@@AEAAXAEAVRigidStatic@12@AEAVObjectTracker@12@_N@Z 0000000180039c90 f i ScbScene.obj
 0001:00039080       ??$removeRigidNoSim@$00VBody@Scb@physx@@@Scene@Scb@physx@@AEAAXAEAVBody@12@AEAVObjectTracker@12@@Z 000000018003a080 f i ScbScene.obj
 0001:00039410       ??$removeRigidNoSim@$0A@VRigidStatic@Scb@physx@@@Scene@Scb@physx@@AEAAXAEAVRigidStatic@12@AEAVObjectTracker@12@@Z 000000018003a410 f i ScbScene.obj
 0001:000397a0       ??$smallSort@PEAX$$CBU?$Less@PEAX@shdfnd@physx@@@internal@shdfnd@physx@@YAXPEAPEAXHHAEBU?$Less@PEAX@12@@Z 000000018003a7a0 f i ScbScene.obj
 0001:000398b0       ??$sort@PEAXU?$Less@PEAX@shdfnd@physx@@VNamedAllocator@23@@shdfnd@physx@@YAXPEAPEAXIAEBU?$Less@PEAX@01@AEBVNamedAllocator@01@I@Z 000000018003a8b0 f i ScbScene.obj
 0001:00039ce0       ??0?$InlineArray@PEAVShape@Scb@physx@@$03VNamedAllocator@shdfnd@3@@shdfnd@physx@@QEAA@AEBVNamedAllocator@12@@Z 000000018003ace0 f i ScbScene.obj
 0001:00039db0       ??0?$InlineArray@PEBVShapeCore@Sc@physx@@$0EA@VNamedAllocator@shdfnd@3@@shdfnd@physx@@QEAA@AEBVNamedAllocator@12@@Z 000000018003adb0 f i ScbScene.obj
 0001:00039ed0       ??0?$InlineArray@URemovedShape@Scb@physx@@$03VNamedAllocator@shdfnd@3@@shdfnd@physx@@QEAA@AEBVNamedAllocator@12@@Z 000000018003aed0 f i ScbScene.obj
 0001:00039fb0       ??0BodyBuffer@Scb@physx@@QEAA@XZ 000000018003afb0 f i ScbScene.obj
 0001:0003a020       ??0FlushPool@Cm@physx@@QEAA@I@Z 000000018003b020 f i ScbScene.obj
 0001:0003a1d0       ??0PxTransform@physx@@QEAA@XZ 000000018003b1d0 f i ScbScene.obj
 0001:0003a1e0       ??0RigidObjectBuffer@Scb@physx@@QEAA@XZ 000000018003b1e0 f i ScbScene.obj
 0001:0003a270       ??0SceneBuffer@Scb@physx@@QEAA@XZ 000000018003b270 f i ScbScene.obj
 0001:0003a3a0       ??1?$Array@PEAVInteraction@Sc@physx@@VNamedAllocator@shdfnd@3@@shdfnd@physx@@QEAA@XZ 000000018003b3a0 f i ScbScene.obj
 0001:0003a3e0       ??1PxBaseTask@physx@@UEAA@XZ 000000018003b3e0 f i ScbScene.obj
 0001:0003a3f0       ??1PxLightCpuTask@physx@@UEAA@XZ 000000018003b3f0 f i ScbScene.obj
 0001:0003a410       ??DPxQuat@physx@@QEBA?AV01@AEBV01@@Z 000000018003b410 f i ScbScene.obj
 0001:0003a590       ??_GPxBaseTask@physx@@UEAAPEAXI@Z 000000018003b590 f i ScbScene.obj
 0001:0003a590       ??_EPxBaseTask@physx@@UEAAPEAXI@Z 000000018003b590 f i ScbScene.obj
 0001:0003a5d0       ?allocate@?$Array@PEAVShape@Scb@physx@@V?$InlineAllocator@$0CA@VNamedAllocator@shdfnd@physx@@@shdfnd@3@@shdfnd@physx@@IEAAPEAPEAVShape@Scb@3@I@Z 000000018003b5d0 f i ScbScene.obj
 0001:0003a660       ?allocateNotThreadSafe@FlushPool@Cm@physx@@QEAAPEAXII@Z 000000018003b660 f i ScbScene.obj
 0001:0003a7d0       ?clear@?$HashBase@PEAVBase@Scb@physx@@PEAV123@U?$Hash@PEAVBase@Scb@physx@@@shdfnd@3@UGetKey@?$HashSetBase@PEAVBase@Scb@physx@@U?$Hash@PEAVBase@Scb@physx@@@shdfnd@3@VNonTrackingAllocator@53@$00@internal@53@VNonTrackingAllocator@53@$00@internal@shdfnd@physx@@QEAAXXZ 000000018003b7d0 f i ScbScene.obj
 0001:0003a880       ?clearNotThreadSafe@FlushPool@Cm@physx@@QEAAXI@Z 000000018003b880 f i ScbScene.obj
 0001:0003a920       ?create@?$HashBase@PEAVBase@Scb@physx@@PEAV123@U?$Hash@PEAVBase@Scb@physx@@@shdfnd@3@UGetKey@?$HashSetBase@PEAVBase@Scb@physx@@U?$Hash@PEAVBase@Scb@physx@@@shdfnd@3@VNonTrackingAllocator@53@$00@internal@53@VNonTrackingAllocator@53@$00@internal@shdfnd@physx@@QEAAPEAPEAVBase@Scb@4@AEBQEAV564@AEA_N@Z 000000018003b920 f i ScbScene.obj
 0001:0003ab20       ?createInstance@?$PvdFns@VArticulation@Scb@physx@@@@SAXAEAVScene@Scb@physx@@AEAVScbScenePvdClient@Vd@4@PEAVArticulation@34@@Z 000000018003bb20 f i ScbScene.obj
 0001:0003ac10       ?createInstance@?$PvdFns@VArticulationJoint@Scb@physx@@@@SAXAEAVScene@Scb@physx@@AEAVScbScenePvdClient@Vd@4@PEAVArticulationJoint@34@@Z 000000018003bc10 f i ScbScene.obj
 0001:0003ad00       ?createInstance@?$PvdFns@VBody@Scb@physx@@@@SAXAEAVScene@Scb@physx@@AEAVScbScenePvdClient@Vd@4@PEAVBody@34@@Z 000000018003bd00 f i ScbScene.obj
 0001:0003adf0       ?createInstance@?$PvdFns@VConstraint@Scb@physx@@@@SAXAEAVScene@Scb@physx@@AEAVScbScenePvdClient@Vd@4@PEAVConstraint@34@@Z 000000018003bdf0 f i ScbScene.obj
 0001:0003aee0       ?createInstance@?$PvdFns@VParticleSystem@Scb@physx@@@@SAXAEAVScene@Scb@physx@@AEAVScbScenePvdClient@Vd@4@PEAVParticleSystem@34@@Z 000000018003bee0 f i ScbScene.obj
 0001:0003afd0       ?createInstance@?$PvdFns@VRigidStatic@Scb@physx@@@@SAXAEAVScene@Scb@physx@@AEAVScbScenePvdClient@Vd@4@PEAVRigidStatic@34@@Z 000000018003bfd0 f i ScbScene.obj
 0001:0003b0c0       ?erase@?$HashBase@PEAVBase@Scb@physx@@PEAV123@U?$Hash@PEAVBase@Scb@physx@@@shdfnd@3@UGetKey@?$HashSetBase@PEAVBase@Scb@physx@@U?$Hash@PEAVBase@Scb@physx@@@shdfnd@3@VNonTrackingAllocator@53@$00@internal@53@VNonTrackingAllocator@53@$00@internal@shdfnd@physx@@QEAA_NAEBQEAVBase@Scb@4@@Z 000000018003c0c0 f i ScbScene.obj
 0001:0003b1d0       ?growAndPushBack@?$Array@PEAEVNamedAllocator@shdfnd@physx@@@shdfnd@physx@@IEAAAEAPEAEAEBQEAE@Z 000000018003c1d0 f i ScbScene.obj
 0001:0003b2e0       ?growAndPushBack@?$Array@PEAXVNamedAllocator@shdfnd@physx@@@shdfnd@physx@@IEAAAEAPEAXAEBQEAX@Z 000000018003c2e0 f i ScbScene.obj
 0001:0003b3f0       ?growAndPushBack@?$Array@V?$PxFlags@W4Enum@PxClientBehaviorFlag@physx@@E@physx@@VNamedAllocator@shdfnd@2@@shdfnd@physx@@IEAAAEAV?$PxFlags@W4Enum@PxClientBehaviorFlag@physx@@E@3@AEBV43@@Z 000000018003c3f0 f i ScbScene.obj
 0001:0003b500       ?growAndPushBack@?$Array@VMaterialEvent@Scb@physx@@VNamedAllocator@shdfnd@3@@shdfnd@physx@@IEAAAEAVMaterialEvent@Scb@3@AEBV453@@Z 000000018003c500 f i ScbScene.obj
 0001:0003b610       ?putToSleepInternal@Body@Scb@physx@@QEAAXXZ 000000018003c610 f i ScbScene.obj
 0001:0003b830       ?recreate@?$Array@PEAVShape@Scb@physx@@V?$InlineAllocator@$0CA@VNamedAllocator@shdfnd@physx@@@shdfnd@3@@shdfnd@physx@@IEAAXI@Z 000000018003c830 f i ScbScene.obj
 0001:0003b8d0       ?recreate@?$Array@URemovedShape@Scb@physx@@V?$InlineAllocator@$0EA@VNamedAllocator@shdfnd@physx@@@shdfnd@3@@shdfnd@physx@@IEAAXI@Z 000000018003c8d0 f i ScbScene.obj
 0001:0003b9d0       ?recreate@?$Array@VMaterialEvent@Scb@physx@@VNamedAllocator@shdfnd@3@@shdfnd@physx@@IEAAXI@Z 000000018003c9d0 f i ScbScene.obj
 0001:0003bab0       ?releaseInstance@?$PvdFns@VArticulation@Scb@physx@@@@SAXAEAVScene@Scb@physx@@AEAVScbScenePvdClient@Vd@4@PEAVArticulation@34@@Z 000000018003cab0 f i ScbScene.obj
 0001:0003bba0       ?releaseInstance@?$PvdFns@VArticulationJoint@Scb@physx@@@@SAXAEAVScene@Scb@physx@@AEAVScbScenePvdClient@Vd@4@PEAVArticulationJoint@34@@Z 000000018003cba0 f i ScbScene.obj
 0001:0003bc90       ?releaseInstance@?$PvdFns@VBody@Scb@physx@@@@SAXAEAVScene@Scb@physx@@AEAVScbScenePvdClient@Vd@4@PEAVBody@34@@Z 000000018003cc90 f i ScbScene.obj
 0001:0003bd80       ?releaseInstance@?$PvdFns@VCloth@Scb@physx@@@@SAXAEAVScene@Scb@physx@@AEAVScbScenePvdClient@Vd@4@PEAVCloth@34@@Z 000000018003cd80 f i ScbScene.obj
 0001:0003be70       ?releaseInstance@?$PvdFns@VConstraint@Scb@physx@@@@SAXAEAVScene@Scb@physx@@AEAVScbScenePvdClient@Vd@4@PEAVConstraint@34@@Z 000000018003ce70 f i ScbScene.obj
 0001:0003bf60       ?releaseInstance@?$PvdFns@VParticleSystem@Scb@physx@@@@SAXAEAVScene@Scb@physx@@AEAVScbScenePvdClient@Vd@4@PEAVParticleSystem@34@@Z 000000018003cf60 f i ScbScene.obj
 0001:0003c050       ?releaseInstance@?$PvdFns@VRigidStatic@Scb@physx@@@@SAXAEAVScene@Scb@physx@@AEAVScbScenePvdClient@Vd@4@PEAVRigidStatic@34@@Z 000000018003d050 f i ScbScene.obj
 0001:0003c140       ?replaceWithLast@?$HashBase@PEAVBase@Scb@physx@@PEAV123@U?$Hash@PEAVBase@Scb@physx@@@shdfnd@3@UGetKey@?$HashSetBase@PEAVBase@Scb@physx@@U?$Hash@PEAVBase@Scb@physx@@@shdfnd@3@VNonTrackingAllocator@53@$00@internal@53@VNonTrackingAllocator@53@$00@internal@shdfnd@physx@@AEAAXI@Z 000000018003d140 f i ScbScene.obj
 0001:0003c240       ?reserveInternal@?$HashBase@PEAVBase@Scb@physx@@PEAV123@U?$Hash@PEAVBase@Scb@physx@@@shdfnd@3@UGetKey@?$HashSetBase@PEAVBase@Scb@physx@@U?$Hash@PEAVBase@Scb@physx@@@shdfnd@3@VNonTrackingAllocator@53@$00@internal@53@VNonTrackingAllocator@53@$00@internal@shdfnd@physx@@AEAAXI@Z 000000018003d240 f i ScbScene.obj
 0001:0003c4b0       ?resize@?$Array@PEAVShape@Scb@physx@@V?$InlineAllocator@$0CA@VNamedAllocator@shdfnd@physx@@@shdfnd@3@@shdfnd@physx@@QEAAXIAEBQEAVShape@Scb@3@@Z 000000018003d4b0 f i ScbScene.obj
 0001:0003c570       ?resize@?$Array@URemovedShape@Scb@physx@@V?$InlineAllocator@$0EA@VNamedAllocator@shdfnd@physx@@@shdfnd@3@@shdfnd@physx@@QEAAXIAEBURemovedShape@Scb@3@@Z 000000018003d570 f i ScbScene.obj
 0001:0003c650       ?resize@?$Array@VMaterialEvent@Scb@physx@@VNamedAllocator@shdfnd@3@@shdfnd@physx@@QEAAXIAEBVMaterialEvent@Scb@3@@Z 000000018003d650 f i ScbScene.obj
 0001:0003c710       ?resize@PxsMaterialManager@physx@@QEAAXI@Z 000000018003d710 f i ScbScene.obj
 0001:0003ca80       ?setMaterial@PxsMaterialManager@physx@@QEAAXPEAVPxsMaterialCore@2@@Z 000000018003da80 f i ScbScene.obj
 0001:0003cb10       ?syncCollisionWriteThroughState@Body@Scb@physx@@QEAAXXZ 000000018003db10 f i ScbScene.obj
 0001:0003ce80       ?syncDominancePairs@SceneBuffer@Scb@physx@@QEAAXAEAVScene@Sc@3@@Z 000000018003de80 f i ScbScene.obj
 0001:0003cfb0       ?syncState@Aggregate@Scb@physx@@QEAAXAEAVScene@23@@Z 000000018003dfb0 f i ScbScene.obj
 0001:0003d200       ?syncState@Articulation@Scb@physx@@QEAAXXZ 000000018003e200 f i ScbScene.obj
 0001:0003d3b0       ?syncState@ArticulationJoint@Scb@physx@@QEAAXXZ 000000018003e3b0 f i ScbScene.obj
 0001:0003d600       ?syncState@Body@Scb@physx@@QEAAXXZ 000000018003e600 f i ScbScene.obj
 0001:0003dea0       ?syncState@Constraint@Scb@physx@@QEAAXXZ 000000018003eea0 f i ScbScene.obj
 0001:0003e000       ?syncState@RigidObject@Scb@physx@@QEAAXXZ 000000018003f000 f i ScbScene.obj
 0001:0003e2d0       ?syncState@RigidStatic@Scb@physx@@QEAAXXZ 000000018003f2d0 f i ScbScene.obj
 0001:0003e3d0       ?updateInstance@?$PvdFns@VArticulation@Scb@physx@@@@SAXAEAVScene@Scb@physx@@AEAVScbScenePvdClient@Vd@4@PEAVArticulation@34@@Z 000000018003f3d0 f i ScbScene.obj
 0001:0003e4f0       ?updateInstance@?$PvdFns@VArticulationJoint@Scb@physx@@@@SAXAEAVScene@Scb@physx@@AEAVScbScenePvdClient@Vd@4@PEAVArticulationJoint@34@@Z 000000018003f4f0 f i ScbScene.obj
 0001:0003e610       ?updateInstance@?$PvdFns@VBody@Scb@physx@@@@SAXAEAVScene@Scb@physx@@AEAVScbScenePvdClient@Vd@4@PEAVBody@34@@Z 000000018003f610 f i ScbScene.obj
 0001:0003e730       ?updateInstance@?$PvdFns@VConstraint@Scb@physx@@@@SAXAEAVScene@Scb@physx@@AEAVScbScenePvdClient@Vd@4@PEAVConstraint@34@@Z 000000018003f730 f i ScbScene.obj
 0001:0003e850       ?updateInstance@?$PvdFns@VRigidStatic@Scb@physx@@@@SAXAEAVScene@Scb@physx@@AEAVScbScenePvdClient@Vd@4@PEAVRigidStatic@34@@Z 000000018003f850 f i ScbScene.obj
 0001:0003e970       ??0ScbScenePvdClient@Vd@physx@@QEAA@AEAVScene@Scb@2@@Z 000000018003f970 f   ScbScenePvdClient.obj
 0001:0003e9e0       ??1ScbScenePvdClient@Vd@physx@@UEAA@XZ 000000018003f9e0 f   ScbScenePvdClient.obj
 0001:0003ea60       ?setScenePvdFlag@ScbScenePvdClient@Vd@physx@@UEAAXW4Enum@PxPvdSceneFlag@3@_N@Z 000000018003fa60 f   ScbScenePvdClient.obj
 0001:0003ea80       ?updateCamera@ScbScenePvdClient@Vd@physx@@UEAAXPEBDAEBVPxVec3@3@11@Z 000000018003fa80 f   ScbScenePvdClient.obj
 0001:0003eaa0       ?drawPoints@ScbScenePvdClient@Vd@physx@@UEAAXPEBUPvdDebugPoint@pvdsdk@3@I@Z 000000018003faa0 f   ScbScenePvdClient.obj
 0001:0003eac0       ?drawLines@ScbScenePvdClient@Vd@physx@@UEAAXPEBUPvdDebugLine@pvdsdk@3@I@Z 000000018003fac0 f   ScbScenePvdClient.obj
 0001:0003eae0       ?drawTriangles@ScbScenePvdClient@Vd@physx@@UEAAXPEBUPvdDebugTriangle@pvdsdk@3@I@Z 000000018003fae0 f   ScbScenePvdClient.obj
 0001:0003eb00       ?drawText@ScbScenePvdClient@Vd@physx@@UEAAXAEBUPvdDebugText@pvdsdk@3@@Z 000000018003fb00 f   ScbScenePvdClient.obj
 0001:0003eb20       ?onPvdConnected@ScbScenePvdClient@Vd@physx@@UEAAXXZ 000000018003fb20 f   ScbScenePvdClient.obj
 0001:0003ec50       ?onPvdDisconnected@ScbScenePvdClient@Vd@physx@@UEAAXXZ 000000018003fc50 f   ScbScenePvdClient.obj
 0001:0003ecc0       ?frameStart@ScbScenePvdClient@Vd@physx@@QEAAXM@Z 000000018003fcc0 f   ScbScenePvdClient.obj
 0001:0003edb0       ?frameEnd@ScbScenePvdClient@Vd@physx@@QEAAXXZ 000000018003fdb0 f   ScbScenePvdClient.obj
 0001:0003f170       ?updatePvdProperties@ScbScenePvdClient@Vd@physx@@QEAAXXZ 0000000180040170 f   ScbScenePvdClient.obj
 0001:0003f1a0       ?releasePvdInstance@ScbScenePvdClient@Vd@physx@@QEAAXXZ 00000001800401a0 f   ScbScenePvdClient.obj
 0001:0003f210       ?createPvdInstance@ScbScenePvdClient@Vd@physx@@QEAAXPEBVPxActor@3@@Z 0000000180040210 f   ScbScenePvdClient.obj
 0001:0003f2a0       ?updatePvdProperties@ScbScenePvdClient@Vd@physx@@QEAAXPEBVPxActor@3@@Z 00000001800402a0 f   ScbScenePvdClient.obj
 0001:0003f310       ?releasePvdInstance@ScbScenePvdClient@Vd@physx@@QEAAXPEBVPxActor@3@@Z 0000000180040310 f   ScbScenePvdClient.obj
 0001:0003f390       ?createPvdInstance@ScbScenePvdClient@Vd@physx@@QEAAXPEBVActor@Scb@3@@Z 0000000180040390 f   ScbScenePvdClient.obj
 0001:0003f3f0       ?updatePvdProperties@ScbScenePvdClient@Vd@physx@@QEAAXPEBVActor@Scb@3@@Z 00000001800403f0 f   ScbScenePvdClient.obj
 0001:0003f4c0       ?releasePvdInstance@ScbScenePvdClient@Vd@physx@@QEAAXPEBVActor@Scb@3@@Z 00000001800404c0 f   ScbScenePvdClient.obj
 0001:0003f520       ?createPvdInstance@ScbScenePvdClient@Vd@physx@@QEAAXPEBVBody@Scb@3@@Z 0000000180040520 f   ScbScenePvdClient.obj
 0001:0003f5f0       ?updatePvdProperties@ScbScenePvdClient@Vd@physx@@QEAAXPEBVBody@Scb@3@@Z 00000001800405f0 f   ScbScenePvdClient.obj
 0001:0003f670       ?updateKinematicTarget@ScbScenePvdClient@Vd@physx@@QEAAXPEBVBody@Scb@3@AEBVPxTransform@3@@Z 0000000180040670 f   ScbScenePvdClient.obj
 0001:0003f710       ?createPvdInstance@ScbScenePvdClient@Vd@physx@@QEAAXPEBVRigidStatic@Scb@3@@Z 0000000180040710 f   ScbScenePvdClient.obj
 0001:0003f790       ?updatePvdProperties@ScbScenePvdClient@Vd@physx@@QEAAXPEBVRigidStatic@Scb@3@@Z 0000000180040790 f   ScbScenePvdClient.obj
 0001:0003f7e0       ?releasePvdInstance@ScbScenePvdClient@Vd@physx@@QEAAXPEBVRigidObject@Scb@3@@Z 00000001800407e0 f   ScbScenePvdClient.obj
 0001:0003f840       ?createPvdInstance@ScbScenePvdClient@Vd@physx@@QEAAXPEBVConstraint@Scb@3@@Z 0000000180040840 f   ScbScenePvdClient.obj
 0001:0003f890       ?updatePvdProperties@ScbScenePvdClient@Vd@physx@@QEAAXPEBVConstraint@Scb@3@@Z 0000000180040890 f   ScbScenePvdClient.obj
 0001:0003f8e0       ?releasePvdInstance@ScbScenePvdClient@Vd@physx@@QEAAXPEBVConstraint@Scb@3@@Z 00000001800408e0 f   ScbScenePvdClient.obj
 0001:0003f960       ?createPvdInstance@ScbScenePvdClient@Vd@physx@@QEAAXPEBVArticulation@Scb@3@@Z 0000000180040960 f   ScbScenePvdClient.obj
 0001:0003f9e0       ?updatePvdProperties@ScbScenePvdClient@Vd@physx@@QEAAXPEBVArticulation@Scb@3@@Z 00000001800409e0 f   ScbScenePvdClient.obj
 0001:0003fa30       ?releasePvdInstance@ScbScenePvdClient@Vd@physx@@QEAAXPEBVArticulation@Scb@3@@Z 0000000180040a30 f   ScbScenePvdClient.obj
 0001:0003fa90       ?createPvdInstance@ScbScenePvdClient@Vd@physx@@QEAAXPEBVArticulationJoint@Scb@3@@Z 0000000180040a90 f   ScbScenePvdClient.obj
 0001:0003faa0       ?updatePvdProperties@ScbScenePvdClient@Vd@physx@@QEAAXPEBVArticulationJoint@Scb@3@@Z 0000000180040aa0 f   ScbScenePvdClient.obj
 0001:0003faf0       ?releasePvdInstance@ScbScenePvdClient@Vd@physx@@QEAAXPEBVArticulationJoint@Scb@3@@Z 0000000180040af0 f   ScbScenePvdClient.obj
 0001:0003fb00       ?createPvdInstance@ScbScenePvdClient@Vd@physx@@QEAAXPEBVMaterialCore@Sc@3@@Z 0000000180040b00 f   ScbScenePvdClient.obj
 0001:0003fb70       ?updatePvdProperties@ScbScenePvdClient@Vd@physx@@QEAAXPEBVMaterialCore@Sc@3@@Z 0000000180040b70 f   ScbScenePvdClient.obj
 0001:0003fbc0       ?releasePvdInstance@ScbScenePvdClient@Vd@physx@@QEAAXPEBVMaterialCore@Sc@3@@Z 0000000180040bc0 f   ScbScenePvdClient.obj
 0001:0003fc30       ?createPvdInstance@ScbScenePvdClient@Vd@physx@@QEAAXPEBVShape@Scb@3@AEAVPxActor@3@@Z 0000000180040c30 f   ScbScenePvdClient.obj
 0001:0003fd50       ?updateMaterials@ScbScenePvdClient@Vd@physx@@QEAAXPEBVShape@Scb@3@@Z 0000000180040d50 f   ScbScenePvdClient.obj
 0001:0003fda0       ?updatePvdProperties@ScbScenePvdClient@Vd@physx@@QEAAXPEBVShape@Scb@3@@Z 0000000180040da0 f   ScbScenePvdClient.obj
 0001:0003fdf0       ?releaseAndRecreateGeometry@ScbScenePvdClient@Vd@physx@@QEAAXPEBVShape@Scb@3@@Z 0000000180040df0 f   ScbScenePvdClient.obj
 0001:0003fe50       ?releasePvdInstance@ScbScenePvdClient@Vd@physx@@QEAAXPEBVShape@Scb@3@AEAVPxActor@3@@Z 0000000180040e50 f   ScbScenePvdClient.obj
 0001:00040060       ?addBodyAndShapesToPvd@ScbScenePvdClient@Vd@physx@@QEAAXAEAVBody@Scb@3@@Z 0000000180041060 f   ScbScenePvdClient.obj
 0001:000401d0       ?addStaticAndShapesToPvd@ScbScenePvdClient@Vd@physx@@QEAAXAEAVRigidStatic@Scb@3@@Z 00000001800411d0 f   ScbScenePvdClient.obj
 0001:00040340       ?createPvdInstance@ScbScenePvdClient@Vd@physx@@QEAAXPEBVAggregate@Scb@3@@Z 0000000180041340 f   ScbScenePvdClient.obj
 0001:00040450       ?updatePvdProperties@ScbScenePvdClient@Vd@physx@@QEAAXPEBVAggregate@Scb@3@@Z 0000000180041450 f   ScbScenePvdClient.obj
 0001:000404a0       ?attachAggregateActor@ScbScenePvdClient@Vd@physx@@QEAAXPEBVAggregate@Scb@3@PEAVActor@53@@Z 00000001800414a0 f   ScbScenePvdClient.obj
 0001:00040540       ?detachAggregateActor@ScbScenePvdClient@Vd@physx@@QEAAXPEBVAggregate@Scb@3@PEAVActor@53@@Z 0000000180041540 f   ScbScenePvdClient.obj
 0001:000405e0       ?releasePvdInstance@ScbScenePvdClient@Vd@physx@@QEAAXPEBVAggregate@Scb@3@@Z 00000001800415e0 f   ScbScenePvdClient.obj
 0001:000406f0       ?createPvdInstance@ScbScenePvdClient@Vd@physx@@QEAAXPEBVCloth@Scb@3@@Z 00000001800416f0 f   ScbScenePvdClient.obj
 0001:00040770       ?sendSimpleProperties@ScbScenePvdClient@Vd@physx@@QEAAXPEBVCloth@Scb@3@@Z 0000000180041770 f   ScbScenePvdClient.obj
 0001:000407c0       ?sendMotionConstraints@ScbScenePvdClient@Vd@physx@@QEAAXPEBVCloth@Scb@3@@Z 00000001800417c0 f   ScbScenePvdClient.obj
 0001:00040810       ?sendCollisionSpheres@ScbScenePvdClient@Vd@physx@@QEAAXPEBVCloth@Scb@3@@Z 0000000180041810 f   ScbScenePvdClient.obj
 0001:00040860       ?sendCollisionCapsules@ScbScenePvdClient@Vd@physx@@QEAAXPEBVCloth@Scb@3@@Z 0000000180041860 f   ScbScenePvdClient.obj
 0001:000408b0       ?sendCollisionTriangles@ScbScenePvdClient@Vd@physx@@QEAAXPEBVCloth@Scb@3@@Z 00000001800418b0 f   ScbScenePvdClient.obj
 0001:00040900       ?sendVirtualParticles@ScbScenePvdClient@Vd@physx@@QEAAXPEBVCloth@Scb@3@@Z 0000000180041900 f   ScbScenePvdClient.obj
 0001:00040950       ?sendSeparationConstraints@ScbScenePvdClient@Vd@physx@@QEAAXPEBVCloth@Scb@3@@Z 0000000180041950 f   ScbScenePvdClient.obj
 0001:000409a0       ?sendParticleAccelerations@ScbScenePvdClient@Vd@physx@@QEAAXPEBVCloth@Scb@3@@Z 00000001800419a0 f   ScbScenePvdClient.obj
 0001:000409f0       ?sendSelfCollisionIndices@ScbScenePvdClient@Vd@physx@@QEAAXPEBVCloth@Scb@3@@Z 00000001800419f0 f   ScbScenePvdClient.obj
 0001:00040a40       ?sendRestPositions@ScbScenePvdClient@Vd@physx@@QEAAXPEBVCloth@Scb@3@@Z 0000000180041a40 f   ScbScenePvdClient.obj
 0001:00040a90       ?releasePvdInstance@ScbScenePvdClient@Vd@physx@@QEAAXPEBVCloth@Scb@3@@Z 0000000180041a90 f   ScbScenePvdClient.obj
 0001:00040af0       ?originShift@ScbScenePvdClient@Vd@physx@@QEAAXVPxVec3@3@@Z 0000000180041af0 f   ScbScenePvdClient.obj
 0001:00040b50       ?updateJoints@ScbScenePvdClient@Vd@physx@@QEAAXXZ 0000000180041b50 f   ScbScenePvdClient.obj
 0001:00040ec0       ?updateContacts@ScbScenePvdClient@Vd@physx@@QEAAXXZ 0000000180041ec0 f   ScbScenePvdClient.obj
 0001:000411c0       ?updateSceneQueries@ScbScenePvdClient@Vd@physx@@QEAAXXZ 00000001800421c0 f   ScbScenePvdClient.obj
 0001:00041220       ?visualize@ScbScenePvdClient@Vd@physx@@UEAAXAEAVPxArticulationLink@3@@Z 0000000180042220 f   ScbScenePvdClient.obj
 0001:00041290       ?visualize@ScbScenePvdClient@Vd@physx@@QEAAXAEBVPxRenderBuffer@3@@Z 0000000180042290 f   ScbScenePvdClient.obj
 0001:000413a0       ?sendStateDatas@ScbScenePvdClient@Vd@physx@@AEAAXPEAVParticleSystemCore@Sc@3@@Z 00000001800423a0 f   ScbScenePvdClient.obj
 0001:000418f0       ?sendEntireScene@ScbScenePvdClient@Vd@physx@@AEAAXXZ 00000001800428f0 f   ScbScenePvdClient.obj
 0001:00041f40       ?updateConstraint@ScbScenePvdClient@Vd@physx@@AEAAXAEBVConstraintCore@Sc@3@I@Z 0000000180042f40 f   ScbScenePvdClient.obj
 0001:00041fc0       ?setCreateContactReports@ScbScenePvdClient@Vd@physx@@AEAAX_N@Z 0000000180042fc0 f   ScbScenePvdClient.obj
 0001:00043170       ??$sendArray@M@ScbScenePvdClient@Vd@physx@@AEAAXPEBXPEBDPEBV?$BitMapBase@VNonTrackingAllocator@shdfnd@physx@@@Cm@2@IAEAV?$PxStrideIterator@$$CBM@2@@Z 0000000180044170 f i ScbScenePvdClient.obj
 0001:000433f0       ??$sendArray@VPxVec3@physx@@@ScbScenePvdClient@Vd@physx@@AEAAXPEBXPEBDPEBV?$BitMapBase@VNonTrackingAllocator@shdfnd@physx@@@Cm@2@IAEAV?$PxStrideIterator@$$CBVPxVec3@physx@@@2@@Z 00000001800443f0 f i ScbScenePvdClient.obj
 0001:00043690       ??1PvdClient@pvdsdk@physx@@MEAA@XZ 0000000180044690 f i ScbScenePvdClient.obj
 0001:000436a0       ??1PvdVisualizer@Vd@physx@@MEAA@XZ 00000001800446a0 f i ScbScenePvdClient.obj
 0001:000436b0       ??1PxConstraintVisualizer@physx@@MEAA@XZ 00000001800446b0 f i ScbScenePvdClient.obj
 0001:000436c0       ??1PxPvdSceneClient@physx@@MEAA@XZ 00000001800446c0 f i ScbScenePvdClient.obj
 0001:000436d0       ??1RendererEventClient@pvdsdk@physx@@UEAA@XZ 00000001800446d0 f i ScbScenePvdClient.obj
 0001:000436e0       ??_EScbScenePvdClient@Vd@physx@@W7EAAPEAXI@Z 00000001800446e0 f i ScbScenePvdClient.obj
 0001:000436ec       ??_EScbScenePvdClient@Vd@physx@@WBA@EAAPEAXI@Z 00000001800446ec f i ScbScenePvdClient.obj
 0001:00043700       ??_EPvdClient@pvdsdk@physx@@MEAAPEAXI@Z 0000000180044700 f i ScbScenePvdClient.obj
 0001:00043700       ??_GPvdClient@pvdsdk@physx@@MEAAPEAXI@Z 0000000180044700 f i ScbScenePvdClient.obj
 0001:00043740       ??_GPvdConstraintVisualizer@?A0xce468b1c@1@UEAAPEAXI@Z 0000000180044740 f i ScbScenePvdClient.obj
 0001:00043740       ??_EPvdConstraintVisualizer@?A0xce468b1c@1@UEAAPEAXI@Z 0000000180044740 f i ScbScenePvdClient.obj
 0001:00043780       ??_EPvdVisualizer@Vd@physx@@MEAAPEAXI@Z 0000000180044780 f i ScbScenePvdClient.obj
 0001:00043780       ??_GPvdVisualizer@Vd@physx@@MEAAPEAXI@Z 0000000180044780 f i ScbScenePvdClient.obj
 0001:000437c0       ??_EPxConstraintVisualizer@physx@@MEAAPEAXI@Z 00000001800447c0 f i ScbScenePvdClient.obj
 0001:000437c0       ??_GPxConstraintVisualizer@physx@@MEAAPEAXI@Z 00000001800447c0 f i ScbScenePvdClient.obj
 0001:00043800       ??_EPxPvdSceneClient@physx@@MEAAPEAXI@Z 0000000180044800 f i ScbScenePvdClient.obj
 0001:00043800       ??_GPxPvdSceneClient@physx@@MEAAPEAXI@Z 0000000180044800 f i ScbScenePvdClient.obj
 0001:00043840       ??_GRendererEventClient@pvdsdk@physx@@UEAAPEAXI@Z 0000000180044840 f i ScbScenePvdClient.obj
 0001:00043840       ??_ERendererEventClient@pvdsdk@physx@@UEAAPEAXI@Z 0000000180044840 f i ScbScenePvdClient.obj
 0001:00043880       ??_GScbScenePvdClient@Vd@physx@@UEAAPEAXI@Z 0000000180044880 f i ScbScenePvdClient.obj
 0001:00043880       ??_EScbScenePvdClient@Vd@physx@@UEAAPEAXI@Z 0000000180044880 f i ScbScenePvdClient.obj
 0001:000438d0       ??_GSceneRendererClient@?A0xce468b1c@@UEAAPEAXI@Z 00000001800448d0 f i ScbScenePvdClient.obj
 0001:000438d0       ??_ESceneRendererClient@?A0xce468b1c@@UEAAPEAXI@Z 00000001800448d0 f i ScbScenePvdClient.obj
 0001:00043a40       ?copy@?$Array@UContact@Sc@physx@@VNamedAllocator@shdfnd@3@@shdfnd@physx@@KAXPEAUContact@Sc@3@0PEBU453@@Z 0000000180044a40 f i ScbScenePvdClient.obj
 0001:00043da0       ?flush@ScbScenePvdClient@Vd@physx@@UEAAXXZ 0000000180044da0 f i ScbScenePvdClient.obj
 0001:00043db0       ?getClientInternal@ScbScenePvdClient@Vd@physx@@UEAAPEAVPvdClient@pvdsdk@3@XZ 0000000180044db0 f i ScbScenePvdClient.obj
 0001:00043dd0       ?getDataStream@ScbScenePvdClient@Vd@physx@@UEAAPEAVPvdDataStream@pvdsdk@3@XZ 0000000180044dd0 f i ScbScenePvdClient.obj
 0001:00043de0       ?getMetaDataBinding@ScbScenePvdClient@Vd@physx@@UEAAPEAVPvdMetaDataBinding@23@XZ 0000000180044de0 f i ScbScenePvdClient.obj
 0001:00043df0       ?getScenePvdFlags@ScbScenePvdClient@Vd@physx@@UEBA?AV?$PxFlags@W4Enum@PxPvdSceneFlag@physx@@E@3@XZ 0000000180044df0 f i ScbScenePvdClient.obj
 0001:00043e00       ?getUserRender@ScbScenePvdClient@Vd@physx@@UEAAPEAVPvdUserRenderer@pvdsdk@3@XZ 0000000180044e00 f i ScbScenePvdClient.obj
 0001:00043e10       ?growAndPushBack@?$Array@UContact@Sc@physx@@VNamedAllocator@shdfnd@3@@shdfnd@physx@@IEAAAEAUContact@Sc@3@AEBU453@@Z 0000000180044e10 f i ScbScenePvdClient.obj
 0001:00044000       ?isConnected@ScbScenePvdClient@Vd@physx@@UEBA_NXZ 0000000180045000 f i ScbScenePvdClient.obj
 0001:00044010       ?recreate@?$Array@EVNamedAllocator@shdfnd@physx@@@shdfnd@physx@@IEAAXI@Z 0000000180045010 f i ScbScenePvdClient.obj
 0001:000440e0       ?recreate@?$Array@PEAVPxActor@physx@@VNamedAllocator@shdfnd@2@@shdfnd@physx@@IEAAXI@Z 00000001800450e0 f i ScbScenePvdClient.obj
 0001:000441c0       ?recreate@?$Array@PEAVPxArticulation@physx@@VNamedAllocator@shdfnd@2@@shdfnd@physx@@IEAAXI@Z 00000001800451c0 f i ScbScenePvdClient.obj
 0001:000442a0       ?resize@?$Array@EVNamedAllocator@shdfnd@physx@@@shdfnd@physx@@QEAAXIAEBE@Z 00000001800452a0 f i ScbScenePvdClient.obj
 0001:00044350       ?resize@?$Array@PEAVPxActor@physx@@VNamedAllocator@shdfnd@2@@shdfnd@physx@@QEAAXIAEBQEAVPxActor@3@@Z 0000000180045350 f i ScbScenePvdClient.obj
 0001:00044410       ?resize@?$Array@PEAVPxArticulation@physx@@VNamedAllocator@shdfnd@2@@shdfnd@physx@@QEAAXIAEBQEAVPxArticulation@3@@Z 0000000180045410 f i ScbScenePvdClient.obj
 0001:000444d0       ?setScenePvdFlags@ScbScenePvdClient@Vd@physx@@UEAAXV?$PxFlags@W4Enum@PxPvdSceneFlag@physx@@E@3@@Z 00000001800454d0 f i ScbScenePvdClient.obj
 0001:00044560       ?syncState@Shape@Scb@physx@@QEAAXXZ 0000000180045560 f   ScbShape.obj
 0001:00044760       ?setMaterialsHelper@Shape@Scb@physx@@AEAA_NPEBQEAVPxMaterial@3@G@Z 0000000180045760 f   ScbShape.obj
 0001:000449c0       ??0NpCloth@physx@@QEAA@V?$PxFlags@W4Enum@PxBaseFlag@physx@@G@1@@Z 00000001800459c0 f   NpCloth.obj
 0001:00044a40       ?requires@NpCloth@physx@@UEAAXAEAVPxProcessPxBaseCallback@2@@Z 0000000180045a40 f   NpCloth.obj
 0001:00044a60       ?resolveReferences@NpCloth@physx@@UEAAXAEAVPxDeserializationContext@2@@Z 0000000180045a60 f   NpCloth.obj
 0001:00044ac0       ?createObject@NpCloth@physx@@SAPEAV12@AEAPEAEAEAVPxDeserializationContext@2@@Z 0000000180045ac0 f   NpCloth.obj
 0001:00044b80       ??0NpCloth@physx@@QEAA@AEBVPxTransform@1@AEAVNpClothFabric@1@PEBUPxClothParticle@1@V?$PxFlags@W4Enum@PxClothFlag@physx@@G@1@@Z 0000000180045b80 f   NpCloth.obj
 0001:00044c60       ??1NpCloth@physx@@UEAA@XZ  0000000180045c60 f   NpCloth.obj
 0001:00044d00       ?release@NpCloth@physx@@UEAAXXZ 0000000180045d00 f   NpCloth.obj
 0001:00044d80       ?getType@NpCloth@physx@@UEBA?AW4Enum@PxActorType@2@XZ 0000000180045d80 f   NpCloth.obj
 0001:00044d90       ?getFabric@NpCloth@physx@@UEBAPEAVPxClothFabric@2@XZ 0000000180045d90 f   NpCloth.obj
 0001:00044dd0       ?setParticles@NpCloth@physx@@UEAAXPEBUPxClothParticle@2@0@Z 0000000180045dd0 f   NpCloth.obj
 0001:00044f40       ?getNbParticles@NpCloth@physx@@UEBAIXZ 0000000180045f40 f   NpCloth.obj
 0001:00044f90       ?setMotionConstraints@NpCloth@physx@@UEAAXPEBUPxClothParticleMotionConstraint@2@@Z 0000000180045f90 f   NpCloth.obj
 0001:000450b0       ?getMotionConstraints@NpCloth@physx@@UEBA_NPEAUPxClothParticleMotionConstraint@2@@Z 00000001800460b0 f   NpCloth.obj
 0001:000451a0       ?getNbMotionConstraints@NpCloth@physx@@UEBAIXZ 00000001800461a0 f   NpCloth.obj
 0001:000451f0       ?setMotionConstraintConfig@NpCloth@physx@@UEAAXAEBUPxClothMotionConstraintConfig@2@@Z 00000001800461f0 f   NpCloth.obj
 0001:000452d0       ?getMotionConstraintConfig@NpCloth@physx@@UEBA?AUPxClothMotionConstraintConfig@2@XZ 00000001800462d0 f   NpCloth.obj
 0001:00045330       ?setSeparationConstraints@NpCloth@physx@@UEAAXPEBUPxClothParticleSeparationConstraint@2@@Z 0000000180046330 f   NpCloth.obj
 0001:00045450       ?getSeparationConstraints@NpCloth@physx@@UEBA_NPEAUPxClothParticleSeparationConstraint@2@@Z 0000000180046450 f   NpCloth.obj
 0001:00045540       ?getNbSeparationConstraints@NpCloth@physx@@UEBAIXZ 0000000180046540 f   NpCloth.obj
 0001:00045550       ?clearInterpolation@NpCloth@physx@@UEAAXXZ 0000000180046550 f   NpCloth.obj
 0001:00045560       ?setParticleAccelerations@NpCloth@physx@@UEAAXPEBVPxVec4@2@@Z 0000000180046560 f   NpCloth.obj
 0001:00045660       ?getParticleAccelerations@NpCloth@physx@@UEBA_NPEAVPxVec4@2@@Z 0000000180046660 f   NpCloth.obj
 0001:00045720       ?getNbParticleAccelerations@NpCloth@physx@@UEBAIXZ 0000000180046720 f   NpCloth.obj
 0001:00045730       ?addCollisionSphere@NpCloth@physx@@UEAAXAEBUPxClothCollisionSphere@2@@Z 0000000180046730 f   NpCloth.obj
 0001:00045860       ?removeCollisionSphere@NpCloth@physx@@UEAAXI@Z 0000000180046860 f   NpCloth.obj
 0001:00045900       ?setCollisionSpheres@NpCloth@physx@@UEAAXPEBUPxClothCollisionSphere@2@I@Z 0000000180046900 f   NpCloth.obj
 0001:000459d0       ?getNbCollisionSpheres@NpCloth@physx@@UEBAIXZ 00000001800469d0 f   NpCloth.obj
 0001:00045a80       ?getCollisionData@NpCloth@physx@@UEBAXPEAUPxClothCollisionSphere@2@PEAIPEAUPxClothCollisionPlane@2@1PEAUPxClothCollisionTriangle@2@@Z 0000000180046a80 f   NpCloth.obj
 0001:00045b60       ?addCollisionCapsule@NpCloth@physx@@UEAAXII@Z 0000000180046b60 f   NpCloth.obj
 0001:00045cc0       ?removeCollisionCapsule@NpCloth@physx@@UEAAXI@Z 0000000180046cc0 f   NpCloth.obj
 0001:00045db0       ?getNbCollisionCapsules@NpCloth@physx@@UEBAIXZ 0000000180046db0 f   NpCloth.obj
 0001:00045e60       ?addCollisionTriangle@NpCloth@physx@@UEAAXAEBUPxClothCollisionTriangle@2@@Z 0000000180046e60 f   NpCloth.obj
 0001:00045f50       ?removeCollisionTriangle@NpCloth@physx@@UEAAXI@Z 0000000180046f50 f   NpCloth.obj
 0001:00046040       ?setCollisionTriangles@NpCloth@physx@@UEAAXPEBUPxClothCollisionTriangle@2@I@Z 0000000180047040 f   NpCloth.obj
 0001:00046140       ?getNbCollisionTriangles@NpCloth@physx@@UEBAIXZ 0000000180047140 f   NpCloth.obj
 0001:000461f0       ?addCollisionPlane@NpCloth@physx@@UEAAXAEBUPxClothCollisionPlane@2@@Z 00000001800471f0 f   NpCloth.obj
 0001:00046340       ?removeCollisionPlane@NpCloth@physx@@UEAAXI@Z 0000000180047340 f   NpCloth.obj
 0001:00046430       ?setCollisionPlanes@NpCloth@physx@@UEAAXPEBUPxClothCollisionPlane@2@I@Z 0000000180047430 f   NpCloth.obj
 0001:00046520       ?getNbCollisionPlanes@NpCloth@physx@@UEBAIXZ 0000000180047520 f   NpCloth.obj
 0001:000465d0       ?addCollisionConvex@NpCloth@physx@@UEAAXI@Z 00000001800475d0 f   NpCloth.obj
 0001:000466c0       ?removeCollisionConvex@NpCloth@physx@@UEAAXI@Z 00000001800476c0 f   NpCloth.obj
 0001:000467b0       ?getNbCollisionConvexes@NpCloth@physx@@UEBAIXZ 00000001800477b0 f   NpCloth.obj
 0001:00046860       ?setVirtualParticles@NpCloth@physx@@UEAAXIPEBIIPEBVPxVec3@2@@Z 0000000180047860 f   NpCloth.obj
 0001:00046a20       ?getNbVirtualParticles@NpCloth@physx@@UEBAIXZ 0000000180047a20 f   NpCloth.obj
 0001:00046ad0       ?getVirtualParticles@NpCloth@physx@@UEBAXPEAI@Z 0000000180047ad0 f   NpCloth.obj
 0001:00046ba0       ?getNbVirtualParticleWeights@NpCloth@physx@@UEBAIXZ 0000000180047ba0 f   NpCloth.obj
 0001:00046c50       ?getVirtualParticleWeights@NpCloth@physx@@UEBAXPEAVPxVec3@2@@Z 0000000180047c50 f   NpCloth.obj
 0001:00046d20       ?setGlobalPose@NpCloth@physx@@UEAAXAEBVPxTransform@2@@Z 0000000180047d20 f   NpCloth.obj
 0001:00046ed0       ?getGlobalPose@NpCloth@physx@@UEBA?AVPxTransform@2@XZ 0000000180047ed0 f   NpCloth.obj
 0001:00046f30       ?setTargetPose@NpCloth@physx@@UEAAXAEBVPxTransform@2@@Z 0000000180047f30 f   NpCloth.obj
 0001:000470e0       ?setExternalAcceleration@NpCloth@physx@@UEAAXVPxVec3@2@@Z 00000001800480e0 f   NpCloth.obj
 0001:00047210       ?getExternalAcceleration@NpCloth@physx@@UEBA?AVPxVec3@2@XZ 0000000180048210 f   NpCloth.obj
 0001:00047270       ?setLinearInertiaScale@NpCloth@physx@@UEAAXVPxVec3@2@@Z 0000000180048270 f   NpCloth.obj
 0001:00047370       ?getLinearInertiaScale@NpCloth@physx@@UEBA?AVPxVec3@2@XZ 0000000180048370 f   NpCloth.obj
 0001:000473a0       ?setAngularInertiaScale@NpCloth@physx@@UEAAXVPxVec3@2@@Z 00000001800483a0 f   NpCloth.obj
 0001:000474a0       ?getAngularInertiaScale@NpCloth@physx@@UEBA?AVPxVec3@2@XZ 00000001800484a0 f   NpCloth.obj
 0001:000474d0       ?setCentrifugalInertiaScale@NpCloth@physx@@UEAAXVPxVec3@2@@Z 00000001800484d0 f   NpCloth.obj
 0001:000475d0       ?getCentrifugalInertiaScale@NpCloth@physx@@UEBA?AVPxVec3@2@XZ 00000001800485d0 f   NpCloth.obj
 0001:00047600       ?setInertiaScale@NpCloth@physx@@UEAAXM@Z 0000000180048600 f   NpCloth.obj
 0001:000476e0       ?setDampingCoefficient@NpCloth@physx@@UEAAXVPxVec3@2@@Z 00000001800486e0 f   NpCloth.obj
 0001:000477e0       ?getDampingCoefficient@NpCloth@physx@@UEBA?AVPxVec3@2@XZ 00000001800487e0 f   NpCloth.obj
 0001:00047840       ?setFrictionCoefficient@NpCloth@physx@@UEAAXM@Z 0000000180048840 f   NpCloth.obj
 0001:00047990       ?getFrictionCoefficient@NpCloth@physx@@UEBAMXZ 0000000180048990 f   NpCloth.obj
 0001:00047a00       ?setLinearDragCoefficient@NpCloth@physx@@UEAAXVPxVec3@2@@Z 0000000180048a00 f   NpCloth.obj
 0001:00047b00       ?getLinearDragCoefficient@NpCloth@physx@@UEBA?AVPxVec3@2@XZ 0000000180048b00 f   NpCloth.obj
 0001:00047b30       ?setAngularDragCoefficient@NpCloth@physx@@UEAAXVPxVec3@2@@Z 0000000180048b30 f   NpCloth.obj
 0001:00047c30       ?getAngularDragCoefficient@NpCloth@physx@@UEBA?AVPxVec3@2@XZ 0000000180048c30 f   NpCloth.obj
 0001:00047c60       ?setDragCoefficient@NpCloth@physx@@UEAAXM@Z 0000000180048c60 f   NpCloth.obj
 0001:00047cd0       ?setCollisionMassScale@NpCloth@physx@@UEAAXM@Z 0000000180048cd0 f   NpCloth.obj
 0001:00047da0       ?getCollisionMassScale@NpCloth@physx@@UEBAMXZ 0000000180048da0 f   NpCloth.obj
 0001:00047e10       ?setSelfCollisionDistance@NpCloth@physx@@UEAAXM@Z 0000000180048e10 f   NpCloth.obj
 0001:00047ee0       ?getSelfCollisionDistance@NpCloth@physx@@UEBAMXZ 0000000180048ee0 f   NpCloth.obj
 0001:00047f50       ?setSelfCollisionStiffness@NpCloth@physx@@UEAAXM@Z 0000000180048f50 f   NpCloth.obj
 0001:00048020       ?getSelfCollisionStiffness@NpCloth@physx@@UEBAMXZ 0000000180049020 f   NpCloth.obj
 0001:00048090       ?setSelfCollisionIndices@NpCloth@physx@@UEAAXPEBII@Z 0000000180049090 f   NpCloth.obj
 0001:00048190       ?getSelfCollisionIndices@NpCloth@physx@@UEBA_NPEAI@Z 0000000180049190 f   NpCloth.obj
 0001:00048200       ?getNbSelfCollisionIndices@NpCloth@physx@@UEBAIXZ 0000000180049200 f   NpCloth.obj
 0001:00048210       ?setRestPositions@NpCloth@physx@@UEAAXPEBVPxVec4@2@@Z 0000000180049210 f   NpCloth.obj
 0001:00048300       ?getRestPositions@NpCloth@physx@@UEBA_NPEAVPxVec4@2@@Z 0000000180049300 f   NpCloth.obj
 0001:00048370       ?getNbRestPositions@NpCloth@physx@@UEBAIXZ 0000000180049370 f   NpCloth.obj
 0001:00048380       ?setSolverFrequency@NpCloth@physx@@UEAAXM@Z 0000000180049380 f   NpCloth.obj
 0001:00048460       ?getSolverFrequency@NpCloth@physx@@UEBAMXZ 0000000180049460 f   NpCloth.obj
 0001:000484c0       ?setStiffnessFrequency@NpCloth@physx@@UEAAXM@Z 00000001800494c0 f   NpCloth.obj
 0001:000485a0       ?getStiffnessFrequency@NpCloth@physx@@UEBAMXZ 00000001800495a0 f   NpCloth.obj
 0001:00048600       ?setStretchConfig@NpCloth@physx@@UEAAXW4Enum@PxClothFabricPhaseType@2@AEBUPxClothStretchConfig@2@@Z 0000000180049600 f   NpCloth.obj
 0001:00048810       ?getStretchConfig@NpCloth@physx@@UEBA?AUPxClothStretchConfig@2@W4Enum@PxClothFabricPhaseType@2@@Z 0000000180049810 f   NpCloth.obj
 0001:00048880       ?setTetherConfig@NpCloth@physx@@UEAAXAEBUPxClothTetherConfig@2@@Z 0000000180049880 f   NpCloth.obj
 0001:000489a0       ?getTetherConfig@NpCloth@physx@@UEBA?AUPxClothTetherConfig@2@XZ 00000001800499a0 f   NpCloth.obj
 0001:00048a00       ?setClothFlags@NpCloth@physx@@UEAAXV?$PxFlags@W4Enum@PxClothFlag@physx@@G@2@@Z 0000000180049a00 f   NpCloth.obj
 0001:00048ad0       ?setClothFlag@NpCloth@physx@@UEAAXW4Enum@PxClothFlag@2@_N@Z 0000000180049ad0 f   NpCloth.obj
 0001:00048b90       ?getClothFlags@NpCloth@physx@@UEBA?AV?$PxFlags@W4Enum@PxClothFlag@physx@@G@2@XZ 0000000180049b90 f   NpCloth.obj
 0001:00048bf0       ?getWindVelocity@NpCloth@physx@@UEBA?AVPxVec3@2@XZ 0000000180049bf0 f   NpCloth.obj
 0001:00048c50       ?setWindVelocity@NpCloth@physx@@UEAAXVPxVec3@2@@Z 0000000180049c50 f   NpCloth.obj
 0001:00048d10       ?getWindDrag@NpCloth@physx@@UEBAMXZ 0000000180049d10 f   NpCloth.obj
 0001:00048db0       ?setWindDrag@NpCloth@physx@@UEAAXM@Z 0000000180049db0 f   NpCloth.obj
 0001:00048e90       ?getWindLift@NpCloth@physx@@UEBAMXZ 0000000180049e90 f   NpCloth.obj
 0001:00048f30       ?setWindLift@NpCloth@physx@@UEAAXM@Z 0000000180049f30 f   NpCloth.obj
 0001:00049010       ?isSleeping@NpCloth@physx@@UEBA_NXZ 000000018004a010 f   NpCloth.obj
 0001:000490a0       ?getSleepLinearVelocity@NpCloth@physx@@UEBAMXZ 000000018004a0a0 f   NpCloth.obj
 0001:00049140       ?setSleepLinearVelocity@NpCloth@physx@@UEAAXM@Z 000000018004a140 f   NpCloth.obj
 0001:00049270       ?setWakeCounter@NpCloth@physx@@UEAAXM@Z 000000018004a270 f   NpCloth.obj
 0001:00049350       ?getWakeCounter@NpCloth@physx@@UEBAMXZ 000000018004a350 f   NpCloth.obj
 0001:000493f0       ?wakeUp@NpCloth@physx@@UEAAXXZ 000000018004a3f0 f   NpCloth.obj
 0001:00049480       ?putToSleep@NpCloth@physx@@UEAAXXZ 000000018004a480 f   NpCloth.obj
 0001:00049510       ?lockParticleData@NpCloth@physx@@UEAAPEAVPxClothParticleData@2@V?$PxFlags@W4Enum@PxDataAccessFlag@physx@@E@2@@Z 000000018004a510 f   NpCloth.obj
 0001:000495c0       ?lockParticleData@NpCloth@physx@@UEBAPEAVPxClothParticleData@2@XZ 000000018004a5c0 f   NpCloth.obj
 0001:000495f0       ?getPreviousTimeStep@NpCloth@physx@@UEBAMXZ 000000018004a5f0 f   NpCloth.obj
 0001:00049690       ?getWorldBounds@NpCloth@physx@@UEBA?AVPxBounds3@2@M@Z 000000018004a690 f   NpCloth.obj
 0001:00049860       ?setSimulationFilterData@NpCloth@physx@@UEAAXAEBUPxFilterData@2@@Z 000000018004a860 f   NpCloth.obj
 0001:00049900       ?getSimulationFilterData@NpCloth@physx@@UEBA?AUPxFilterData@2@XZ 000000018004a900 f   NpCloth.obj
 0001:00049960       ?setContactOffset@NpCloth@physx@@UEAAXM@Z 000000018004a960 f   NpCloth.obj
 0001:00049a00       ?getContactOffset@NpCloth@physx@@UEBAMXZ 000000018004aa00 f   NpCloth.obj
 0001:00049aa0       ?setRestOffset@NpCloth@physx@@UEAAXM@Z 000000018004aaa0 f   NpCloth.obj
 0001:00049b40       ?getRestOffset@NpCloth@physx@@UEBAMXZ 000000018004ab40 f   NpCloth.obj
 0001:00049be0       ?checkParticles@NpCloth@physx@@SA_NIPEBUPxClothParticle@2@@Z 000000018004abe0 f   NpCloth.obj
 0001:00049c90       ?checkMotionConstraints@NpCloth@physx@@SA_NIPEBUPxClothParticleMotionConstraint@2@@Z 000000018004ac90 f   NpCloth.obj
 0001:00049d40       ?checkSeparationConstraints@NpCloth@physx@@SA_NIPEBUPxClothParticleSeparationConstraint@2@@Z 000000018004ad40 f   NpCloth.obj
 0001:00049df0       ?checkParticleAccelerations@NpCloth@physx@@SA_NIPEBVPxVec4@2@@Z 000000018004adf0 f   NpCloth.obj
 0001:00049eb0       ?checkCollisionSpheres@NpCloth@physx@@SA_NIPEBUPxClothCollisionSphere@2@@Z 000000018004aeb0 f   NpCloth.obj
 0001:00049f60       ?checkCollisionSpherePairs@NpCloth@physx@@SA_NIIPEBI@Z 000000018004af60 f   NpCloth.obj
 0001:00049fb0       ?checkVirtualParticles@NpCloth@physx@@SA_NIIPEBIIPEBVPxVec3@2@@Z 000000018004afb0 f   NpCloth.obj
 0001:0004a090       ?visualize@NpCloth@physx@@UEAAXAEAVRenderOutput@Cm@2@PEAVNpScene@2@@Z 000000018004b090 f   NpCloth.obj
 0001:0004acf0       ?unlockParticleData@NpCloth@physx@@QEAAXXZ 000000018004bcf0 f   NpCloth.obj
 0001:0004ad00       ?sendPvdSimpleProperties@NpCloth@physx@@AEAAXXZ 000000018004bd00 f   NpCloth.obj
 0001:0004ad70       ?sendPvdMotionConstraints@NpCloth@physx@@AEAAXXZ 000000018004bd70 f   NpCloth.obj
 0001:0004ade0       ?sendPvdSeparationConstraints@NpCloth@physx@@AEAAXXZ 000000018004bde0 f   NpCloth.obj
 0001:0004ae50       ?sendPvdCollisionSpheres@NpCloth@physx@@AEAAXXZ 000000018004be50 f   NpCloth.obj
 0001:0004aec0       ?sendPvdCollisionCapsules@NpCloth@physx@@AEAAXXZ 000000018004bec0 f   NpCloth.obj
 0001:0004af30       ?sendPvdCollisionTriangles@NpCloth@physx@@AEAAXXZ 000000018004bf30 f   NpCloth.obj
 0001:0004afa0       ?sendPvdVirtualParticles@NpCloth@physx@@AEAAXXZ 000000018004bfa0 f   NpCloth.obj
 0001:0004b010       ?sendPvdSelfCollisionIndices@NpCloth@physx@@AEAAXXZ 000000018004c010 f   NpCloth.obj
 0001:0004b080       ?sendPvdRestPositions@NpCloth@physx@@AEAAXXZ 000000018004c080 f   NpCloth.obj
 0001:0004cab0       ??0?$NpActorTemplate@VPxCloth@physx@@@physx@@QEAA@GV?$PxFlags@W4Enum@PxBaseFlag@physx@@G@1@PEBDPEAX@Z 000000018004dab0 f i NpCloth.obj
 0001:0004cb20       ??1?$NpActorTemplate@VPxCloth@physx@@@physx@@UEAA@XZ 000000018004db20 f i NpCloth.obj
 0001:0004cb60       ??1NpClothParticleData@physx@@UEAA@XZ 000000018004db60 f i NpCloth.obj
 0001:0004cb70       ??1PxCloth@physx@@MEAA@XZ  000000018004db70 f i NpCloth.obj
 0001:0004cb80       ??_G?$NpActorTemplate@VPxCloth@physx@@@physx@@UEAAPEAXI@Z 000000018004db80 f i NpCloth.obj
 0001:0004cb80       ??_E?$NpActorTemplate@VPxCloth@physx@@@physx@@UEAAPEAXI@Z 000000018004db80 f i NpCloth.obj
 0001:0004cc20       ??_GNpCloth@physx@@UEAAPEAXI@Z 000000018004dc20 f i NpCloth.obj
 0001:0004cc20       ??_ENpCloth@physx@@UEAAPEAXI@Z 000000018004dc20 f i NpCloth.obj
 0001:0004cca0       ??_ENpClothParticleData@physx@@UEAAPEAXI@Z 000000018004dca0 f i NpCloth.obj
 0001:0004cca0       ??_GNpClothParticleData@physx@@UEAAPEAXI@Z 000000018004dca0 f i NpCloth.obj
 0001:0004cd00       ??_GPxCloth@physx@@MEAAPEAXI@Z 000000018004dd00 f i NpCloth.obj
 0001:0004cd00       ??_EPxCloth@physx@@MEAAPEAXI@Z 000000018004dd00 f i NpCloth.obj
 0001:0004cd40       ??_GPxClothParticleData@physx@@UEAAPEAXI@Z 000000018004dd40 f i NpCloth.obj
 0001:0004cd40       ??_EPxClothParticleData@physx@@UEAAPEAXI@Z 000000018004dd40 f i NpCloth.obj
 0001:0004cd80       ?addCollisionSphere@Cloth@Scb@physx@@QEAAXAEBUPxClothCollisionSphere@3@@Z 000000018004dd80 f i NpCloth.obj
 0001:0004ce00       ?copy@?$Array@VPxVec3@physx@@VNamedAllocator@shdfnd@2@@shdfnd@physx@@KAXPEAVPxVec3@3@0PEBV43@@Z 000000018004de00 f i NpCloth.obj
 0001:0004cf30       ?create@?$Array@VPxVec3@physx@@VNamedAllocator@shdfnd@2@@shdfnd@physx@@KAXPEAVPxVec3@3@0AEBV43@@Z 000000018004df30 f i NpCloth.obj
 0001:0004d040       ?exportExtraData@?$NpActorTemplate@VPxCloth@physx@@@physx@@UEAAXAEAVPxSerializationContext@2@@Z 000000018004e040 f i NpCloth.obj
 0001:0004d050       ?exportExtraData@NpCloth@physx@@UEAAXAEAVPxSerializationContext@2@@Z 000000018004e050 f i NpCloth.obj
 0001:0004d060       ?getActorFlags@?$NpActorTemplate@VPxCloth@physx@@@physx@@UEBA?AV?$PxFlags@W4Enum@PxActorFlag@physx@@E@2@XZ 000000018004e060 f i NpCloth.obj
 0001:0004d100       ?getAggregate@?$NpActorTemplate@VPxCloth@physx@@@physx@@UEBAPEAVPxAggregate@2@XZ 000000018004e100 f i NpCloth.obj
 0001:0004d110       ?getAngularDragCoefficient@Cloth@Scb@physx@@QEBA?AVPxVec3@3@XZ 000000018004e110 f i NpCloth.obj
 0001:0004d1b0       ?getAngularInertiaScale@Cloth@Scb@physx@@QEBA?AVPxVec3@3@XZ 000000018004e1b0 f i NpCloth.obj
 0001:0004d250       ?getCentrifugalInertiaScale@Cloth@Scb@physx@@QEBA?AVPxVec3@3@XZ 000000018004e250 f i NpCloth.obj
 0001:0004d2f0       ?getClientBehaviorFlags@?$NpActorTemplate@VPxCloth@physx@@@physx@@UEBA?AV?$PxFlags@W4Enum@PxActorClientBehaviorFlag@physx@@E@2@XZ 000000018004e2f0 f i NpCloth.obj
 0001:0004d390       ?getClothFlags@Cloth@Scb@physx@@QEBA?AV?$PxFlags@W4Enum@PxClothFlag@physx@@G@3@XZ 000000018004e390 f i NpCloth.obj
 0001:0004d420       ?getConcreteTypeName@PxCloth@physx@@UEBAPEBDXZ 000000018004e420 f i NpCloth.obj
 0001:0004d430       ?getDampingCoefficient@Cloth@Scb@physx@@QEBA?AVPxVec3@3@XZ 000000018004e430 f i NpCloth.obj
 0001:0004d4d0       ?getDataAccessFlags@NpClothParticleData@physx@@UEAA?AV?$PxFlags@W4Enum@PxDataAccessFlag@physx@@E@2@XZ 000000018004e4d0 f i NpCloth.obj
 0001:0004d4e0       ?getDominanceGroup@?$NpActorTemplate@VPxCloth@physx@@@physx@@UEBAEXZ 000000018004e4e0 f i NpCloth.obj
 0001:0004d590       ?getExternalAcceleration@Cloth@Scb@physx@@QEBA?AVPxVec3@3@XZ 000000018004e590 f i NpCloth.obj
 0001:0004d630       ?getGlobalPose@Cloth@Scb@physx@@QEBA?AVPxTransform@3@XZ 000000018004e630 f i NpCloth.obj
 0001:0004d6e0       ?getLinearDragCoefficient@Cloth@Scb@physx@@QEBA?AVPxVec3@3@XZ 000000018004e6e0 f i NpCloth.obj
 0001:0004d780       ?getLinearInertiaScale@Cloth@Scb@physx@@QEBA?AVPxVec3@3@XZ 000000018004e780 f i NpCloth.obj
 0001:0004d820       ?getMotionConstraintConfig@Cloth@Scb@physx@@QEBA?AUPxClothMotionConstraintConfig@3@XZ 000000018004e820 f i NpCloth.obj
 0001:0004d8c0       ?getName@?$NpActorTemplate@VPxCloth@physx@@@physx@@UEBAPEBDXZ 000000018004e8c0 f i NpCloth.obj
 0001:0004d910       ?getNbCollisionCapsules@Cloth@Scb@physx@@QEBAIXZ 000000018004e910 f i NpCloth.obj
 0001:0004d990       ?getNbCollisionPlanes@Cloth@Scb@physx@@QEBAIXZ 000000018004e990 f i NpCloth.obj
 0001:0004da10       ?getNbCollisionSpheres@Cloth@Scb@physx@@QEBAIXZ 000000018004ea10 f i NpCloth.obj
 0001:0004da90       ?getOwnerClient@?$NpActorTemplate@VPxCloth@physx@@@physx@@UEBAEXZ 000000018004ea90 f i NpCloth.obj
 0001:0004dad0       ?getParticleData@Cloth@Scb@physx@@QEAAXAEAVNpClothParticleData@3@@Z 000000018004ead0 f i NpCloth.obj
 0001:0004db60       ?getScene@?$NpActorTemplate@VPxCloth@physx@@@physx@@UEBAPEAVPxScene@2@XZ 000000018004eb60 f i NpCloth.obj
 0001:0004db70       ?getSimulationFilterData@Cloth@Scb@physx@@QEBA?AUPxFilterData@3@XZ 000000018004eb70 f i NpCloth.obj
 0001:0004dc10       ?getSolverFrequency@Cloth@Scb@physx@@QEBAMXZ 000000018004ec10 f i NpCloth.obj
 0001:0004dc90       ?getStiffnessFrequency@Cloth@Scb@physx@@QEBAMXZ 000000018004ec90 f i NpCloth.obj
 0001:0004dd10       ?getStretchConfig@Cloth@Scb@physx@@QEBA?AUPxClothStretchConfig@3@W4Enum@PxClothFabricPhaseType@3@@Z 000000018004ed10 f i NpCloth.obj
 0001:0004ddc0       ?getTetherConfig@Cloth@Scb@physx@@QEBA?AUPxClothTetherConfig@3@XZ 000000018004edc0 f i NpCloth.obj
 0001:0004de60       ?getWindVelocity@Cloth@Scb@physx@@QEBA?AVPxVec3@3@XZ 000000018004ee60 f i NpCloth.obj
 0001:0004df00       ?isFinite@PxQuat@physx@@QEBA_NXZ 000000018004ef00 f i NpCloth.obj
 0001:0004df90       ?isKindOf@PxCloth@physx@@MEBA_NPEBD@Z 000000018004ef90 f i NpCloth.obj
 0001:0004e020       ?isSane@PxQuat@physx@@QEBA_NXZ 000000018004f020 f i NpCloth.obj
 0001:0004e0b0       ?isSane@PxTransform@physx@@QEBA_NXZ 000000018004f0b0 f i NpCloth.obj
 0001:0004e140       ?isSleeping@Cloth@Scb@physx@@QEBA_NXZ 000000018004f140 f i NpCloth.obj
 0001:0004e1c0       ?putToSleep@Cloth@Scb@physx@@QEAAXXZ 000000018004f1c0 f i NpCloth.obj
 0001:0004e240       ?recreate@?$Array@IVNamedAllocator@shdfnd@physx@@@shdfnd@physx@@IEAAXI@Z 000000018004f240 f i NpCloth.obj
 0001:0004e320       ?recreate@?$Array@UPxClothFabricPhase@physx@@VNamedAllocator@shdfnd@2@@shdfnd@physx@@IEAAXI@Z 000000018004f320 f i NpCloth.obj
 0001:0004e400       ?recreate@?$Array@VPxVec3@physx@@VNamedAllocator@shdfnd@2@@shdfnd@physx@@IEAAXI@Z 000000018004f400 f i NpCloth.obj
 0001:0004e4d0       ?release@?$NpActorTemplate@VPxCloth@physx@@@physx@@UEAAXXZ 000000018004f4d0 f i NpCloth.obj
 0001:0004e4e0       ?resize@?$Array@IVNamedAllocator@shdfnd@physx@@@shdfnd@physx@@QEAAXIAEBI@Z 000000018004f4e0 f i NpCloth.obj
 0001:0004e5a0       ?resize@?$Array@UPxClothFabricPhase@physx@@VNamedAllocator@shdfnd@2@@shdfnd@physx@@QEAAXIAEBUPxClothFabricPhase@3@@Z 000000018004f5a0 f i NpCloth.obj
 0001:0004e660       ?resize@?$Array@VPxVec3@physx@@VNamedAllocator@shdfnd@2@@shdfnd@physx@@QEAAXIAEBVPxVec3@3@@Z 000000018004f660 f i NpCloth.obj
 0001:0004e6d0       ?resolveReferences@?$NpActorTemplate@VPxCloth@physx@@@physx@@UEAAXAEAVPxDeserializationContext@2@@Z 000000018004f6d0 f i NpCloth.obj
 0001:0004e6e0       ?setActorFlag@?$NpActorTemplate@VPxCloth@physx@@@physx@@UEAAXW4Enum@PxActorFlag@2@_N@Z 000000018004f6e0 f i NpCloth.obj
 0001:0004e7e0       ?setActorFlags@?$NpActorTemplate@VPxCloth@physx@@@physx@@UEAAXV?$PxFlags@W4Enum@PxActorFlag@physx@@E@2@@Z 000000018004f7e0 f i NpCloth.obj
 0001:0004e860       ?setAngularDragCoefficient@Cloth@Scb@physx@@QEAAXVPxVec3@3@@Z 000000018004f860 f i NpCloth.obj
 0001:0004e910       ?setAngularInertiaScale@Cloth@Scb@physx@@QEAAXVPxVec3@3@@Z 000000018004f910 f i NpCloth.obj
 0001:0004e9c0       ?setCentrifugalInertiaScale@Cloth@Scb@physx@@QEAAXVPxVec3@3@@Z 000000018004f9c0 f i NpCloth.obj
 0001:0004ea70       ?setClientBehaviorFlags@?$NpActorTemplate@VPxCloth@physx@@@physx@@UEAAXV?$PxFlags@W4Enum@PxActorClientBehaviorFlag@physx@@E@2@@Z 000000018004fa70 f i NpCloth.obj
 0001:0004eaf0       ?setClothFlags@Cloth@Scb@physx@@QEAAXV?$PxFlags@W4Enum@PxClothFlag@physx@@G@3@@Z 000000018004faf0 f i NpCloth.obj
 0001:0004eb80       ?setCollisionSpheres@Cloth@Scb@physx@@QEAAXPEBUPxClothCollisionSphere@3@I@Z 000000018004fb80 f i NpCloth.obj
 0001:0004ec00       ?setDampingCoefficient@Cloth@Scb@physx@@QEAAXVPxVec3@3@@Z 000000018004fc00 f i NpCloth.obj
 0001:0004ecb0       ?setDominanceGroup@?$NpActorTemplate@VPxCloth@physx@@@physx@@UEAAXE@Z 000000018004fcb0 f i NpCloth.obj
 0001:0004ed30       ?setExternalAcceleration@Cloth@Scb@physx@@QEAAXVPxVec3@3@@Z 000000018004fd30 f i NpCloth.obj
 0001:0004ede0       ?setLinearDragCoefficient@Cloth@Scb@physx@@QEAAXVPxVec3@3@@Z 000000018004fde0 f i NpCloth.obj
 0001:0004ee90       ?setLinearInertiaScale@Cloth@Scb@physx@@QEAAXVPxVec3@3@@Z 000000018004fe90 f i NpCloth.obj
 0001:0004ef40       ?setName@?$NpActorTemplate@VPxCloth@physx@@@physx@@UEAAXPEBD@Z 000000018004ff40 f i NpCloth.obj
 0001:0004efe0       ?setOwnerClient@?$NpActorTemplate@VPxCloth@physx@@@physx@@UEAAXE@Z 000000018004ffe0 f i NpCloth.obj
 0001:0004f080       ?setWakeCounter@Cloth@Scb@physx@@QEAAXM@Z 0000000180050080 f i NpCloth.obj
 0001:0004f100       ?setWindVelocity@Cloth@Scb@physx@@QEAAXVPxVec3@3@@Z 0000000180050100 f i NpCloth.obj
 0001:0004f1b0       ?wakeUp@Cloth@Scb@physx@@QEAAXXZ 00000001800501b0 f i NpCloth.obj
 0001:0004f230       ?onRefCountZero@NpClothFabric@physx@@UEAAXXZ 0000000180050230 f   NpClothFabric.obj
 0001:0004f2e0       ?exportExtraData@NpClothFabric@physx@@UEAAXAEAVPxSerializationContext@2@@Z 00000001800502e0 f   NpClothFabric.obj
 0001:0004f2f0       ?importExtraData@NpClothFabric@physx@@QEAAXAEAVPxDeserializationContext@2@@Z 00000001800502f0 f   NpClothFabric.obj
 0001:0004f300       ?createObject@NpClothFabric@physx@@SAPEAV12@AEAPEAEAEAVPxDeserializationContext@2@@Z 0000000180050300 f   NpClothFabric.obj
 0001:0004f390       ??0NpClothFabric@physx@@QEAA@XZ 0000000180050390 f   NpClothFabric.obj
 0001:0004f400       ?load@NpClothFabric@physx@@QEAA_NAEAVPxInputStream@2@@Z 0000000180050400 f   NpClothFabric.obj
 0001:0004f410       ?load@NpClothFabric@physx@@QEAA_NAEBVPxClothFabricDesc@2@@Z 0000000180050410 f   NpClothFabric.obj
 0001:0004f420       ?release@NpClothFabric@physx@@UEAAXXZ 0000000180050420 f   NpClothFabric.obj
 0001:0004f460       ?getNbParticles@NpClothFabric@physx@@UEBAIXZ 0000000180050460 f   NpClothFabric.obj
 0001:0004f470       ?getNbPhases@NpClothFabric@physx@@UEBAIXZ 0000000180050470 f   NpClothFabric.obj
 0001:0004f480       ?getNbSets@NpClothFabric@physx@@UEBAIXZ 0000000180050480 f   NpClothFabric.obj
 0001:0004f490       ?getNbParticleIndices@NpClothFabric@physx@@UEBAIXZ 0000000180050490 f   NpClothFabric.obj
 0001:0004f4a0       ?getNbRestvalues@NpClothFabric@physx@@UEBAIXZ 00000001800504a0 f   NpClothFabric.obj
 0001:0004f4b0       ?getNbTethers@NpClothFabric@physx@@UEBAIXZ 00000001800504b0 f   NpClothFabric.obj
 0001:0004f4c0       ?getPhases@NpClothFabric@physx@@UEBAIPEAUPxClothFabricPhase@2@I@Z 00000001800504c0 f   NpClothFabric.obj
 0001:0004f4d0       ?getSets@NpClothFabric@physx@@UEBAIPEAII@Z 00000001800504d0 f   NpClothFabric.obj
 0001:0004f4e0       ?getParticleIndices@NpClothFabric@physx@@UEBAIPEAII@Z 00000001800504e0 f   NpClothFabric.obj
 0001:0004f4f0       ?getRestvalues@NpClothFabric@physx@@UEBAIPEAMI@Z 00000001800504f0 f   NpClothFabric.obj
 0001:0004f500       ?getTetherAnchors@NpClothFabric@physx@@UEBAIPEAII@Z 0000000180050500 f   NpClothFabric.obj
 0001:0004f510       ?getTetherLengths@NpClothFabric@physx@@UEBAIPEAMI@Z 0000000180050510 f   NpClothFabric.obj
 0001:0004f520       ?getPhaseType@NpClothFabric@physx@@QEBA?AW4Enum@PxClothFabricPhaseType@2@I@Z 0000000180050520 f   NpClothFabric.obj
 0001:0004f530       ?scaleRestlengths@NpClothFabric@physx@@UEAAXM@Z 0000000180050530 f   NpClothFabric.obj
 0001:0004f540       ?getReferenceCount@NpClothFabric@physx@@UEBAIXZ 0000000180050540 f   NpClothFabric.obj
 0001:0004f550       ?acquireReference@NpClothFabric@physx@@UEAAXXZ 0000000180050550 f   NpClothFabric.obj
 0001:0004f570       ??1NpClothFabric@physx@@UEAA@XZ 0000000180050570 f   NpClothFabric.obj
 0001:0004f6a0       ??1PxClothFabric@physx@@MEAA@XZ 00000001800506a0 f i NpClothFabric.obj
 0001:0004f6b0       ??1RefCountable@Cm@physx@@UEAA@XZ 00000001800506b0 f i NpClothFabric.obj
 0001:0004f6c0       ??_ENpClothFabric@physx@@WBA@EAAPEAXI@Z 00000001800506c0 f i NpClothFabric.obj
 0001:0004f6d0       ??_GNpClothFabric@physx@@UEAAPEAXI@Z 00000001800506d0 f i NpClothFabric.obj
 0001:0004f6d0       ??_ENpClothFabric@physx@@UEAAPEAXI@Z 00000001800506d0 f i NpClothFabric.obj
 0001:0004f780       ??_EPxClothFabric@physx@@MEAAPEAXI@Z 0000000180050780 f i NpClothFabric.obj
 0001:0004f780       ??_GPxClothFabric@physx@@MEAAPEAXI@Z 0000000180050780 f i NpClothFabric.obj
 0001:0004f7c0       ??_GRefCountable@Cm@physx@@UEAAPEAXI@Z 00000001800507c0 f i NpClothFabric.obj
 0001:0004f7c0       ??_ERefCountable@Cm@physx@@UEAAPEAXI@Z 00000001800507c0 f i NpClothFabric.obj
 0001:0004f800       ?getConcreteTypeName@PxClothFabric@physx@@UEBAPEBDXZ 0000000180050800 f i NpClothFabric.obj
 0001:0004f810       ?isKindOf@PxClothFabric@physx@@MEBA_NPEBD@Z 0000000180050810 f i NpClothFabric.obj
 0001:0004f870       ?onRefCountZero@RefCountable@Cm@physx@@UEAAXXZ 0000000180050870 f i NpClothFabric.obj
 0001:0004f890       ?requires@NpClothFabric@physx@@UEAAXAEAVPxProcessPxBaseCallback@2@@Z 0000000180050890 f i NpClothFabric.obj
 0001:0004f8a0       ?unlock@NpClothParticleData@physx@@UEAAXXZ 00000001800508a0 f   NpClothParticleData.obj
 0001:0004f8f0       ?tryLock@NpClothParticleData@physx@@QEAA_NV?$PxFlags@W4Enum@PxDataAccessFlag@physx@@E@2@@Z 00000001800508f0 f   NpClothParticleData.obj
 0001:0004f930       PxConstructSolverBodies    0000000180050930 f   NpImmediateMode.obj
 0001:0004fbf0       PxConstructStaticSolverBody 0000000180050bf0 f   NpImmediateMode.obj
 0001:0004fc60       PxBatchConstraints         0000000180050c60 f   NpImmediateMode.obj
 0001:0004fe30       PxCreateContactConstraints 0000000180050e30 f   NpImmediateMode.obj
 0001:00050070       PxCreateJointConstraints   0000000180051070 f   NpImmediateMode.obj
 0001:00050200       PxCreateJointConstraintsWithShaders 0000000180051200 f   NpImmediateMode.obj
 0001:00050450       PxSolveConstraints         0000000180051450 f   NpImmediateMode.obj
 0001:00050790       PxIntegrateSolverBodies    0000000180051790 f   NpImmediateMode.obj
 0001:00050d30       PxGenerateContacts         0000000180051d30 f   NpImmediateMode.obj
 0001:000512e0       ?createCache@physx@@YAXAEAUCache@Gu@1@W4Enum@PxGeometryType@1@1AEAVPxCacheAllocator@1@@Z 00000001800522e0 f   NpImmediateMode.obj
 0001:00051f30       ??0ContactPoint@Gu@physx@@QEAA@XZ 0000000180052f30 f i NpImmediateMode.obj
 0001:00051f40       ??0FrictionPatch@Dy@physx@@QEAA@XZ 0000000180052f40 f i NpImmediateMode.obj
 0001:00051f50       ??0LargePersistentContactManifold@Gu@physx@@QEAA@XZ 0000000180052f50 f i NpImmediateMode.obj
 0001:00051fe0       ??0PersistentContact@Gu@physx@@QEAA@XZ 0000000180052fe0 f i NpImmediateMode.obj
 0001:00051ff0       ??0Px1DConstraint@physx@@QEAA@XZ 0000000180052ff0 f i NpImmediateMode.obj
 0001:00052000       ??0SpherePersistentContactManifold@Gu@physx@@QEAA@XZ 0000000180053000 f i NpImmediateMode.obj
 0001:00052090       ?exportExtraData@NpActor@physx@@QEAAXAEAVPxSerializationContext@2@@Z 0000000180053090 f   NpActor.obj
 0001:00052270       ?importExtraData@NpActor@physx@@QEAAXAEAVPxDeserializationContext@2@@Z 0000000180053270 f   NpActor.obj
 0001:00052350       ?resolveReferences@NpActor@physx@@QEAAXAEAVPxDeserializationContext@2@@Z 0000000180053350 f   NpActor.obj
 0001:000523e0       ??0NpActor@physx@@QEAA@PEBD@Z 00000001800533e0 f   NpActor.obj
 0001:00052400       ?releaseConstraints@NpActor@physx@@QEAAXAEAVPxRigidActor@2@@Z 0000000180053400 f   NpActor.obj
 0001:000524d0       ?release@NpActor@physx@@QEAAXAEAVPxActor@2@@Z 00000001800534d0 f   NpActor.obj
 0001:000524f0       ?getNpAggregate@NpActor@physx@@QEBAPEAVNpAggregate@2@AEAI@Z 00000001800534f0 f   NpActor.obj
 0001:00052540       ?setAggregate@NpActor@physx@@QEAAXPEAVNpAggregate@2@AEAVPxActor@2@@Z 0000000180053540 f   NpActor.obj
 0001:000525c0       ?getAggregate@NpActor@physx@@QEBAPEAVPxAggregate@2@XZ 00000001800535c0 f   NpActor.obj
 0001:00052610       ?removeConstraintsFromScene@NpActor@physx@@QEAAXXZ 0000000180053610 f   NpActor.obj
 0001:000526c0       ?findConnector@NpActor@physx@@QEBAIW4Enum@NpConnectorType@2@PEAVPxBase@2@@Z 00000001800536c0 f   NpActor.obj
 0001:00052710       ?addConnector@NpActor@physx@@QEAAXW4Enum@NpConnectorType@2@PEAVPxBase@2@PEBD@Z 0000000180053710 f   NpActor.obj
 0001:000528e0       ?removeConnector@NpActor@physx@@QEAAXAEAVPxActor@2@W4Enum@NpConnectorType@2@PEAVPxBase@2@PEBD@Z 00000001800538e0 f   NpActor.obj
 0001:000529d0       ?getNbConnectors@NpActor@physx@@QEBAIW4Enum@NpConnectorType@2@@Z 00000001800539d0 f   NpActor.obj
 0001:00052a10       ?getShapeManager@NpActor@physx@@SAPEAVNpShapeManager@2@AEAVPxRigidActor@2@@Z 0000000180053a10 f   NpActor.obj
 0001:00052a40       ?getShapeManager@NpActor@physx@@SAPEBVNpShapeManager@2@AEBVPxRigidActor@2@@Z 0000000180053a40 f   NpActor.obj
 0001:00052a70       ?getGlobalPose@NpActor@physx@@SAXAEAVPxTransform@2@AEBVNpShape@2@AEBVPxRigidActor@2@@Z 0000000180053a70 f   NpActor.obj
 0001:00052aa0       ?getGlobalPose@NpActor@physx@@SAXAEAVPxTransform@2@AEBVShape@Scb@2@AEBVActor@52@@Z 0000000180053aa0 f   NpActor.obj
 0001:00052ff0       ?getAPIScene@NpActor@physx@@SAPEAVNpScene@2@AEBVPxActor@2@@Z 0000000180053ff0 f   NpActor.obj
 0001:00053030       ?getOwnerScene@NpActor@physx@@SAPEAVNpScene@2@AEBVPxActor@2@@Z 0000000180054030 f   NpActor.obj
 0001:00053060       ?onActorRelease@NpActor@physx@@SAXPEAVPxActor@2@@Z 0000000180054060 f   NpActor.obj
 0001:00053080       ??1NpActor@physx@@IEAA@XZ  0000000180054080 f   NpActor.obj
 0001:00053090       ?addConstraintsToSceneInternal@NpActor@physx@@AEAAXXZ 0000000180054090 f   NpActor.obj
 0001:00053170       ?removeConnector@NpActor@physx@@AEAAXAEAVPxActor@2@I@Z 0000000180054170 f   NpActor.obj
 0001:00053220       ??0Offsets@NpActor@physx@@QEAA@XZ 0000000180054220 f   NpActor.obj
 0001:00053750       ??$exportArray@VNpConnector@physx@@V?$InlineAllocator@$0EA@VNamedAllocator@shdfnd@physx@@@shdfnd@2@@Cm@physx@@YAXAEBV?$Array@VNpConnector@physx@@V?$InlineAllocator@$0EA@VNamedAllocator@shdfnd@physx@@@shdfnd@2@@shdfnd@1@AEAVPxSerializationContext@1@@Z 0000000180054750 f i NpActor.obj
 0001:00053790       ??$exportInlineArray@VNpConnector@physx@@$03VNamedAllocator@shdfnd@2@@Cm@physx@@YAXAEBV?$InlineArray@VNpConnector@physx@@$03VNamedAllocator@shdfnd@2@@shdfnd@1@AEAVPxSerializationContext@1@@Z 0000000180054790 f i NpActor.obj
 0001:000537e0       ??$importArray@VNpConnector@physx@@V?$InlineAllocator@$0EA@VNamedAllocator@shdfnd@physx@@@shdfnd@2@@Cm@physx@@YAXAEAV?$Array@VNpConnector@physx@@V?$InlineAllocator@$0EA@VNamedAllocator@shdfnd@physx@@@shdfnd@2@@shdfnd@1@AEAVPxDeserializationContext@1@@Z 00000001800547e0 f i NpActor.obj
 0001:00053830       ??$importInlineArray@VNpConnector@physx@@$03VNamedAllocator@shdfnd@2@@Cm@physx@@YAXAEAV?$InlineArray@VNpConnector@physx@@$03VNamedAllocator@shdfnd@2@@shdfnd@1@AEAVPxDeserializationContext@1@@Z 0000000180054830 f i NpActor.obj
 0001:00053880       ?create@?$HashBase@PEAVPxConstraint@physx@@PEAV12@U?$Hash@PEAVPxConstraint@physx@@@shdfnd@2@UGetKey@?$HashSetBase@PEAVPxConstraint@physx@@U?$Hash@PEAVPxConstraint@physx@@@shdfnd@2@VNonTrackingAllocator@42@$00@internal@42@VNonTrackingAllocator@42@$00@internal@shdfnd@physx@@QEAAPEAPEAVPxConstraint@4@AEBQEAV54@AEA_N@Z 0000000180054880 f i NpActor.obj
 0001:00053a80       ?erase@?$HashBase@PEAVPxConstraint@physx@@PEAV12@U?$Hash@PEAVPxConstraint@physx@@@shdfnd@2@UGetKey@?$HashSetBase@PEAVPxConstraint@physx@@U?$Hash@PEAVPxConstraint@physx@@@shdfnd@2@VNonTrackingAllocator@42@$00@internal@42@VNonTrackingAllocator@42@$00@internal@shdfnd@physx@@QEAA_NAEBQEAVPxConstraint@4@@Z 0000000180054a80 f i NpActor.obj
 0001:00053b90       ?growAndPushBack@?$Array@VNpConnector@physx@@V?$InlineAllocator@$0EA@VNamedAllocator@shdfnd@physx@@@shdfnd@2@@shdfnd@physx@@IEAAAEAVNpConnector@3@AEBV43@@Z 0000000180054b90 f i NpActor.obj
 0001:00053d10       ?recreate@?$Array@VNpConnector@physx@@V?$InlineAllocator@$0EA@VNamedAllocator@shdfnd@physx@@@shdfnd@2@@shdfnd@physx@@IEAAXI@Z 0000000180054d10 f i NpActor.obj
 0001:00053e40       ?replaceWithLast@?$HashBase@PEAVPxConstraint@physx@@PEAV12@U?$Hash@PEAVPxConstraint@physx@@@shdfnd@2@UGetKey@?$HashSetBase@PEAVPxConstraint@physx@@U?$Hash@PEAVPxConstraint@physx@@@shdfnd@2@VNonTrackingAllocator@42@$00@internal@42@VNonTrackingAllocator@42@$00@internal@shdfnd@physx@@AEAAXI@Z 0000000180054e40 f i NpActor.obj
 0001:00053f40       ?reserveInternal@?$HashBase@PEAVPxConstraint@physx@@PEAV12@U?$Hash@PEAVPxConstraint@physx@@@shdfnd@2@UGetKey@?$HashSetBase@PEAVPxConstraint@physx@@U?$Hash@PEAVPxConstraint@physx@@@shdfnd@2@VNonTrackingAllocator@42@$00@internal@42@VNonTrackingAllocator@42@$00@internal@shdfnd@physx@@AEAAXI@Z 0000000180054f40 f i NpActor.obj
 0001:000541b0       ?resizeUninitialized@?$Array@VNpConnector@physx@@V?$InlineAllocator@$0EA@VNamedAllocator@shdfnd@physx@@@shdfnd@2@@shdfnd@physx@@QEAAXI@Z 00000001800551b0 f i NpActor.obj
 0001:00054200       ?exportExtraData@NpAggregate@physx@@UEAAXAEAVPxSerializationContext@2@@Z 0000000180055200 f   NpAggregate.obj
 0001:00054250       ?importExtraData@NpAggregate@physx@@QEAAXAEAVPxDeserializationContext@2@@Z 0000000180055250 f   NpAggregate.obj
 0001:00054280       ?resolveReferences@NpAggregate@physx@@QEAAXAEAVPxDeserializationContext@2@@Z 0000000180055280 f   NpAggregate.obj
 0001:00054390       ?requires@NpAggregate@physx@@UEAAXAEAVPxProcessPxBaseCallback@2@@Z 0000000180055390 f   NpAggregate.obj
 0001:00054410       ?createObject@NpAggregate@physx@@SAPEAV12@AEAPEAEAEAVPxDeserializationContext@2@@Z 0000000180055410 f   NpAggregate.obj
 0001:00054490       ??0NpAggregate@physx@@QEAA@I_N@Z 0000000180055490 f   NpAggregate.obj
 0001:00054530       ??1NpAggregate@physx@@UEAA@XZ 0000000180055530 f   NpAggregate.obj
 0001:000545b0       ?release@NpAggregate@physx@@UEAAXXZ 00000001800555b0 f   NpAggregate.obj
 0001:00054750       ?addActor@NpAggregate@physx@@UEAA_NAEAVPxActor@2@@Z 0000000180055750 f   NpAggregate.obj
 0001:000548d0       ?removeActor@NpAggregate@physx@@UEAA_NAEAVPxActor@2@@Z 00000001800558d0 f   NpAggregate.obj
 0001:000549b0       ?addArticulation@NpAggregate@physx@@UEAA_NAEAVPxArticulation@2@@Z 00000001800559b0 f   NpAggregate.obj
 0001:00054bd0       ?removeArticulation@NpAggregate@physx@@UEAA_NAEAVPxArticulation@2@@Z 0000000180055bd0 f   NpAggregate.obj
 0001:00054c70       ?getNbActors@NpAggregate@physx@@UEBAIXZ 0000000180055c70 f   NpAggregate.obj
 0001:00054cc0       ?getMaxNbActors@NpAggregate@physx@@UEBAIXZ 0000000180055cc0 f   NpAggregate.obj
 0001:00054d10       ?getActors@NpAggregate@physx@@UEBAIPEAPEAVPxActor@2@II@Z 0000000180055d10 f   NpAggregate.obj
 0001:00054dc0       ?getScene@NpAggregate@physx@@UEAAPEAVPxScene@2@XZ 0000000180055dc0 f   NpAggregate.obj
 0001:00054e00       ?getSelfCollision@NpAggregate@physx@@UEBA_NXZ 0000000180055e00 f   NpAggregate.obj
 0001:00054e50       ?getAPIScene@NpAggregate@physx@@QEBAPEAVNpScene@2@XZ 0000000180055e50 f   NpAggregate.obj
 0001:00054e90       ?getOwnerScene@NpAggregate@physx@@QEBAPEAVNpScene@2@XZ 0000000180055e90 f   NpAggregate.obj
 0001:00054eb0       ?addActorInternal@NpAggregate@physx@@QEAAXAEAVPxActor@2@AEAVNpScene@2@@Z 0000000180055eb0 f   NpAggregate.obj
 0001:00054fa0       ?removeAndReinsert@NpAggregate@physx@@QEAAXAEAVPxActor@2@_N@Z 0000000180055fa0 f   NpAggregate.obj
 0001:00055010       ?removeActorAndReinsert@NpAggregate@physx@@QEAA_NAEAVPxActor@2@_N@Z 0000000180056010 f   NpAggregate.obj
 0001:000550f0       ?removeArticulationAndReinsert@NpAggregate@physx@@QEAA_NAEAVPxArticulation@2@_N@Z 00000001800560f0 f   NpAggregate.obj
 0001:00055630       ??$pointerOffset@PEAVNpActor@physx@@@shdfnd@physx@@YAPEAVNpActor@1@PEAX_J@Z 0000000180056630 f i NpAggregate.obj
 0001:00055640       ??1PxAggregate@physx@@MEAA@XZ 0000000180056640 f i NpAggregate.obj
 0001:00055650       ??_ENpAggregate@physx@@UEAAPEAXI@Z 0000000180056650 f i NpAggregate.obj
 0001:00055650       ??_GNpAggregate@physx@@UEAAPEAXI@Z 0000000180056650 f i NpAggregate.obj
 0001:000556d0       ??_EPxAggregate@physx@@MEAAPEAXI@Z 00000001800566d0 f i NpAggregate.obj
 0001:000556d0       ??_GPxAggregate@physx@@MEAAPEAXI@Z 00000001800566d0 f i NpAggregate.obj
 0001:00055710       ?erase@?$HashBase@PEAVPxAggregate@physx@@PEAV12@U?$Hash@PEAVPxAggregate@physx@@@shdfnd@2@UGetKey@?$HashSetBase@PEAVPxAggregate@physx@@U?$Hash@PEAVPxAggregate@physx@@@shdfnd@2@VNonTrackingAllocator@42@$00@internal@42@VNonTrackingAllocator@42@$00@internal@shdfnd@physx@@QEAA_NAEBQEAVPxAggregate@4@@Z 0000000180056710 f i NpAggregate.obj
 0001:00055820       ?getConcreteTypeName@PxAggregate@physx@@UEBAPEBDXZ 0000000180056820 f i NpAggregate.obj
 0001:00055830       ?isKindOf@PxAggregate@physx@@MEBA_NPEBD@Z 0000000180056830 f i NpAggregate.obj
 0001:00055890       ?replaceWithLast@?$HashBase@PEAVPxAggregate@physx@@PEAV12@U?$Hash@PEAVPxAggregate@physx@@@shdfnd@2@UGetKey@?$HashSetBase@PEAVPxAggregate@physx@@U?$Hash@PEAVPxAggregate@physx@@@shdfnd@2@VNonTrackingAllocator@42@$00@internal@42@VNonTrackingAllocator@42@$00@internal@shdfnd@physx@@AEAAXI@Z 0000000180056890 f i NpAggregate.obj
 0001:00055990       ?NpArticulationGetRootFromScb@physx@@YAPEAVBody@Scb@1@AEAVArticulation@31@@Z 0000000180056990 f   NpArticulation.obj
 0001:000559c0       ??1NpArticulation@physx@@UEAA@XZ 00000001800569c0 f   NpArticulation.obj
 0001:00055a40       ?exportExtraData@NpArticulation@physx@@UEAAXAEAVPxSerializationContext@2@@Z 0000000180056a40 f   NpArticulation.obj
 0001:00055ac0       ?importExtraData@NpArticulation@physx@@QEAAXAEAVPxDeserializationContext@2@@Z 0000000180056ac0 f   NpArticulation.obj
 0001:00055b40       ?resolveReferences@NpArticulation@physx@@QEAAXAEAVPxDeserializationContext@2@@Z 0000000180056b40 f   NpArticulation.obj
 0001:00055be0       ?requires@NpArticulation@physx@@UEAAXAEAVPxProcessPxBaseCallback@2@@Z 0000000180056be0 f   NpArticulation.obj
 0001:00055c50       ?createObject@NpArticulation@physx@@SAPEAV12@AEAPEAEAEAVPxDeserializationContext@2@@Z 0000000180056c50 f   NpArticulation.obj
 0001:00055cc0       ?release@NpArticulation@physx@@UEAAXXZ 0000000180056cc0 f   NpArticulation.obj
 0001:00055e10       ?getScene@NpArticulation@physx@@UEBAPEAVPxScene@2@XZ 0000000180056e10 f   NpArticulation.obj
 0001:00055e50       ?getInternalDriveIterations@NpArticulation@physx@@UEBAIXZ 0000000180056e50 f   NpArticulation.obj
 0001:00055ec0       ?setInternalDriveIterations@NpArticulation@physx@@UEAAXI@Z 0000000180056ec0 f   NpArticulation.obj
 0001:00055f20       ?getExternalDriveIterations@NpArticulation@physx@@UEBAIXZ 0000000180056f20 f   NpArticulation.obj
 0001:00055fa0       ?setExternalDriveIterations@NpArticulation@physx@@UEAAXI@Z 0000000180056fa0 f   NpArticulation.obj
 0001:00056000       ?getMaxProjectionIterations@NpArticulation@physx@@UEBAIXZ 0000000180057000 f   NpArticulation.obj
 0001:00056080       ?setMaxProjectionIterations@NpArticulation@physx@@UEAAXI@Z 0000000180057080 f   NpArticulation.obj
 0001:000560e0       ?getSeparationTolerance@NpArticulation@physx@@UEBAMXZ 00000001800570e0 f   NpArticulation.obj
 0001:00056150       ?setSeparationTolerance@NpArticulation@physx@@UEAAXM@Z 0000000180057150 f   NpArticulation.obj
 0001:000561b0       ?setSleepThreshold@NpArticulation@physx@@UEAAXM@Z 00000001800571b0 f   NpArticulation.obj
 0001:00056210       ?getSleepThreshold@NpArticulation@physx@@UEBAMXZ 0000000180057210 f   NpArticulation.obj
 0001:00056280       ?setStabilizationThreshold@NpArticulation@physx@@UEAAXM@Z 0000000180057280 f   NpArticulation.obj
 0001:000562e0       ?getStabilizationThreshold@NpArticulation@physx@@UEBAMXZ 00000001800572e0 f   NpArticulation.obj
 0001:00056350       ?setWakeCounter@NpArticulation@physx@@UEAAXM@Z 0000000180057350 f   NpArticulation.obj
 0001:00056400       ?getWakeCounter@NpArticulation@physx@@UEBAMXZ 0000000180057400 f   NpArticulation.obj
 0001:00056460       ?setSolverIterationCounts@NpArticulation@physx@@UEAAXII@Z 0000000180057460 f   NpArticulation.obj
 0001:00056570       ?getSolverIterationCounts@NpArticulation@physx@@UEBAXAEAI0@Z 0000000180057570 f   NpArticulation.obj
 0001:00056600       ?isSleeping@NpArticulation@physx@@UEBA_NXZ 0000000180057600 f   NpArticulation.obj
 0001:000566f0       ?wakeUp@NpArticulation@physx@@UEAAXXZ 00000001800576f0 f   NpArticulation.obj
 0001:000568e0       ?putToSleep@NpArticulation@physx@@UEAAXXZ 00000001800578e0 f   NpArticulation.obj
 0001:00056a60       ?createLink@NpArticulation@physx@@UEAAPEAVPxArticulationLink@2@PEAV32@AEBVPxTransform@2@@Z 0000000180057a60 f   NpArticulation.obj
 0001:00056c90       ?getNbLinks@NpArticulation@physx@@UEBAIXZ 0000000180057c90 f   NpArticulation.obj
 0001:00056ce0       ?getLinks@NpArticulation@physx@@UEBAIPEAPEAVPxArticulationLink@2@II@Z 0000000180057ce0 f   NpArticulation.obj
 0001:00056da0       ?getWorldBounds@NpArticulation@physx@@UEBA?AVPxBounds3@2@M@Z 0000000180057da0 f   NpArticulation.obj
 0001:00056fb0       ?getAggregate@NpArticulation@physx@@UEBAPEAVPxAggregate@2@XZ 0000000180057fb0 f   NpArticulation.obj
 0001:00057000       ?setName@NpArticulation@physx@@UEAAXPEBD@Z 0000000180058000 f   NpArticulation.obj
 0001:00057060       ?getName@NpArticulation@physx@@UEBAPEBDXZ 0000000180058060 f   NpArticulation.obj
 0001:000570b0       ?createDriveCache@NpArticulation@physx@@UEBAPEAVPxArticulationDriveCache@2@MI@Z 00000001800580b0 f   NpArticulation.obj
 0001:000571d0       ?updateDriveCache@NpArticulation@physx@@UEBAXAEAVPxArticulationDriveCache@2@MI@Z 00000001800581d0 f   NpArticulation.obj
 0001:00057370       ?releaseDriveCache@NpArticulation@physx@@UEBAXAEAVPxArticulationDriveCache@2@@Z 0000000180058370 f   NpArticulation.obj
 0001:00057480       ?applyImpulse@NpArticulation@physx@@UEAAXPEAVPxArticulationLink@2@AEBVPxArticulationDriveCache@2@AEBVPxVec3@2@2@Z 0000000180058480 f   NpArticulation.obj
 0001:000577f0       ?computeImpulseResponse@NpArticulation@physx@@UEBAXPEAVPxArticulationLink@2@AEAVPxVec3@2@1AEBVPxArticulationDriveCache@2@AEBV42@3@Z 00000001800587f0 f   NpArticulation.obj
 0001:00057aa0       ??0NpArticulation@physx@@QEAA@XZ 0000000180058aa0 f   NpArticulation.obj
 0001:00057b30       ?getRoot@NpArticulation@physx@@QEAAPEAVNpArticulationLink@2@XZ 0000000180058b30 f   NpArticulation.obj
 0001:00057b50       ?getAPIScene@NpArticulation@physx@@QEBAPEAVNpScene@2@XZ 0000000180058b50 f   NpArticulation.obj
 0001:00057b90       ?getOwnerScene@NpArticulation@physx@@QEBAPEAVNpScene@2@XZ 0000000180058b90 f   NpArticulation.obj
 0001:00057bb0       ?wakeUpInternal@NpArticulation@physx@@QEAAX_N0@Z 0000000180058bb0 f   NpArticulation.obj
 0001:00057d80       ?visualize@NpArticulation@physx@@QEAAXAEAVRenderOutput@Cm@2@PEAVNpScene@2@@Z 0000000180058d80 f   NpArticulation.obj
 0001:00058700       ??$exportArray@PEAVNpArticulationLink@physx@@V?$InlineAllocator@$0CA@VNamedAllocator@shdfnd@physx@@@shdfnd@2@@Cm@physx@@YAXAEBV?$Array@PEAVNpArticulationLink@physx@@V?$InlineAllocator@$0CA@VNamedAllocator@shdfnd@physx@@@shdfnd@2@@shdfnd@1@AEAVPxSerializationContext@1@@Z 0000000180059700 f i NpArticulation.obj
 0001:00058740       ??$exportInlineArray@PEAVNpArticulationLink@physx@@$03VNamedAllocator@shdfnd@2@@Cm@physx@@YAXAEBV?$InlineArray@PEAVNpArticulationLink@physx@@$03VNamedAllocator@shdfnd@2@@shdfnd@1@AEAVPxSerializationContext@1@@Z 0000000180059740 f i NpArticulation.obj
 0001:00058790       ??$importArray@PEAVNpArticulationLink@physx@@V?$InlineAllocator@$0CA@VNamedAllocator@shdfnd@physx@@@shdfnd@2@@Cm@physx@@YAXAEAV?$Array@PEAVNpArticulationLink@physx@@V?$InlineAllocator@$0CA@VNamedAllocator@shdfnd@physx@@@shdfnd@2@@shdfnd@1@AEAVPxDeserializationContext@1@@Z 0000000180059790 f i NpArticulation.obj
 0001:000587d0       ??$importInlineArray@PEAVNpArticulationLink@physx@@$03VNamedAllocator@shdfnd@2@@Cm@physx@@YAXAEAV?$InlineArray@PEAVNpArticulationLink@physx@@$03VNamedAllocator@shdfnd@2@@shdfnd@1@AEAVPxDeserializationContext@1@@Z 00000001800597d0 f i NpArticulation.obj
 0001:00058820       ??0NpArticulation@physx@@QEAA@V?$PxFlags@W4Enum@PxBaseFlag@physx@@G@1@@Z 0000000180059820 f i NpArticulation.obj
 0001:000588b0       ??0NpArticulationLinkArray@physx@@QEAA@XZ 00000001800598b0 f i NpArticulation.obj
 0001:000589a0       ??1PxArticulation@physx@@MEAA@XZ 00000001800599a0 f i NpArticulation.obj
 0001:000589b0       ??_ENpArticulation@physx@@UEAAPEAXI@Z 00000001800599b0 f i NpArticulation.obj
 0001:000589b0       ??_GNpArticulation@physx@@UEAAPEAXI@Z 00000001800599b0 f i NpArticulation.obj
 0001:00058a30       ??_EPxArticulation@physx@@MEAAPEAXI@Z 0000000180059a30 f i NpArticulation.obj
 0001:00058a30       ??_GPxArticulation@physx@@MEAAPEAXI@Z 0000000180059a30 f i NpArticulation.obj
 0001:00058a70       ?erase@?$HashBase@PEAVPxArticulation@physx@@PEAV12@U?$Hash@PEAVPxArticulation@physx@@@shdfnd@2@UGetKey@?$HashSetBase@PEAVPxArticulation@physx@@U?$Hash@PEAVPxArticulation@physx@@@shdfnd@2@VNonTrackingAllocator@42@$00@internal@42@VNonTrackingAllocator@42@$00@internal@shdfnd@physx@@QEAA_NAEBQEAVPxArticulation@4@@Z 0000000180059a70 f i NpArticulation.obj
 0001:00058b80       ?getConcreteTypeName@PxArticulation@physx@@UEBAPEBDXZ 0000000180059b80 f i NpArticulation.obj
 0001:00058b90       ?isFinite@PxVec3@physx@@QEBA_NXZ 0000000180059b90 f i NpArticulation.obj
 0001:00058c00       ?isKindOf@PxArticulation@physx@@MEBA_NPEBD@Z 0000000180059c00 f i NpArticulation.obj
 0001:00058c60       ?replaceWithLast@?$HashBase@PEAVPxArticulation@physx@@PEAV12@U?$Hash@PEAVPxArticulation@physx@@@shdfnd@2@UGetKey@?$HashSetBase@PEAVPxArticulation@physx@@U?$Hash@PEAVPxArticulation@physx@@@shdfnd@2@VNonTrackingAllocator@42@$00@internal@42@VNonTrackingAllocator@42@$00@internal@shdfnd@physx@@AEAAXI@Z 0000000180059c60 f i NpArticulation.obj
 0001:00058d60       ?setExternalDriveIterations@Articulation@Scb@physx@@QEAAXI@Z 0000000180059d60 f i NpArticulation.obj
 0001:00058e30       ?setFreezeThreshold@Articulation@Scb@physx@@QEAAXM@Z 0000000180059e30 f i NpArticulation.obj
 0001:00058f00       ?setInternalDriveIterations@Articulation@Scb@physx@@QEAAXI@Z 0000000180059f00 f i NpArticulation.obj
 0001:00058fc0       ?setMaxProjectionIterations@Articulation@Scb@physx@@QEAAXI@Z 0000000180059fc0 f i NpArticulation.obj
 0001:00059090       ?setSeparationTolerance@Articulation@Scb@physx@@QEAAXM@Z 000000018005a090 f i NpArticulation.obj
 0001:00059160       ?setSleepThreshold@Articulation@Scb@physx@@QEAAXM@Z 000000018005a160 f i NpArticulation.obj
 0001:00059230       ?setSolverIterationCounts@Articulation@Scb@physx@@QEAAXG@Z 000000018005a230 f i NpArticulation.obj
 0001:00059300       ?setWakeCounter@Articulation@Scb@physx@@QEAAXM@Z 000000018005a300 f i NpArticulation.obj
 0001:000593f0       ?setWakeCounter@Body@Scb@physx@@QEAAXM@Z 000000018005a3f0 f i NpArticulation.obj
 0001:000594d0       ?wakeUpInternal@Body@Scb@physx@@QEAAXM@Z 000000018005a4d0 f i NpArticulation.obj
 0001:00059570       ?NpArticulationJointGetBodiesFromScb@physx@@YAXAEAVArticulationJoint@Scb@1@AEAPEAVBody@31@1@Z 000000018005a570 f   NpArticulationJoint.obj
 0001:000595a0       ?resolveReferences@NpArticulationJoint@physx@@UEAAXAEAVPxDeserializationContext@2@@Z 000000018005a5a0 f   NpArticulationJoint.obj
 0001:00059620       ?createObject@NpArticulationJoint@physx@@SAPEAV12@AEAPEAEAEAVPxDeserializationContext@2@@Z 000000018005a620 f   NpArticulationJoint.obj
 0001:00059680       ??0NpArticulationJoint@physx@@QEAA@AEAVNpArticulationLink@1@AEBVPxTransform@1@01@Z 000000018005a680 f   NpArticulationJoint.obj
 0001:00059710       ??1NpArticulationJoint@physx@@UEAA@XZ 000000018005a710 f   NpArticulationJoint.obj
 0001:00059750       ?getParentPose@NpArticulationJoint@physx@@UEBA?AVPxTransform@2@XZ 000000018005a750 f   NpArticulationJoint.obj
 0001:00059970       ?setParentPose@NpArticulationJoint@physx@@UEAAXAEBVPxTransform@2@@Z 000000018005a970 f   NpArticulationJoint.obj
 0001:00059cf0       ?getChildPose@NpArticulationJoint@physx@@UEBA?AVPxTransform@2@XZ 000000018005acf0 f   NpArticulationJoint.obj
 0001:00059f20       ?setChildPose@NpArticulationJoint@physx@@UEAAXAEBVPxTransform@2@@Z 000000018005af20 f   NpArticulationJoint.obj
 0001:0005a2a0       ?setTargetOrientation@NpArticulationJoint@physx@@UEAAXAEBVPxQuat@2@@Z 000000018005b2a0 f   NpArticulationJoint.obj
 0001:0005a4c0       ?getTargetOrientation@NpArticulationJoint@physx@@UEBA?AVPxQuat@2@XZ 000000018005b4c0 f   NpArticulationJoint.obj
 0001:0005a540       ?setTargetVelocity@NpArticulationJoint@physx@@UEAAXAEBVPxVec3@2@@Z 000000018005b540 f   NpArticulationJoint.obj
 0001:0005a650       ?getTargetVelocity@NpArticulationJoint@physx@@UEBA?AVPxVec3@2@XZ 000000018005b650 f   NpArticulationJoint.obj
 0001:0005a6d0       ?setDriveType@NpArticulationJoint@physx@@UEAAXW4Enum@PxArticulationJointDriveType@2@@Z 000000018005b6d0 f   NpArticulationJoint.obj
 0001:0005a730       ?getDriveType@NpArticulationJoint@physx@@UEBA?AW4Enum@PxArticulationJointDriveType@2@XZ 000000018005b730 f   NpArticulationJoint.obj
 0001:0005a7a0       ?setStiffness@NpArticulationJoint@physx@@UEAAXM@Z 000000018005b7a0 f   NpArticulationJoint.obj
 0001:0005a890       ?getStiffness@NpArticulationJoint@physx@@UEBAMXZ 000000018005b890 f   NpArticulationJoint.obj
 0001:0005a900       ?setDamping@NpArticulationJoint@physx@@UEAAXM@Z 000000018005b900 f   NpArticulationJoint.obj
 0001:0005a9f0       ?getDamping@NpArticulationJoint@physx@@UEBAMXZ 000000018005b9f0 f   NpArticulationJoint.obj
 0001:0005aa60       ?setInternalCompliance@NpArticulationJoint@physx@@UEAAXM@Z 000000018005ba60 f   NpArticulationJoint.obj
 0001:0005ab50       ?getInternalCompliance@NpArticulationJoint@physx@@UEBAMXZ 000000018005bb50 f   NpArticulationJoint.obj
 0001:0005abc0       ?setExternalCompliance@NpArticulationJoint@physx@@UEAAXM@Z 000000018005bbc0 f   NpArticulationJoint.obj
 0001:0005acb0       ?getExternalCompliance@NpArticulationJoint@physx@@UEBAMXZ 000000018005bcb0 f   NpArticulationJoint.obj
 0001:0005ad20       ?setSwingLimit@NpArticulationJoint@physx@@UEAAXMM@Z 000000018005bd20 f   NpArticulationJoint.obj
 0001:0005ae80       ?getSwingLimit@NpArticulationJoint@physx@@UEBAXAEAM0@Z 000000018005be80 f   NpArticulationJoint.obj
 0001:0005af20       ?setTangentialStiffness@NpArticulationJoint@physx@@UEAAXM@Z 000000018005bf20 f   NpArticulationJoint.obj
 0001:0005b010       ?getTangentialStiffness@NpArticulationJoint@physx@@UEBAMXZ 000000018005c010 f   NpArticulationJoint.obj
 0001:0005b080       ?setTangentialDamping@NpArticulationJoint@physx@@UEAAXM@Z 000000018005c080 f   NpArticulationJoint.obj
 0001:0005b170       ?getTangentialDamping@NpArticulationJoint@physx@@UEBAMXZ 000000018005c170 f   NpArticulationJoint.obj
 0001:0005b1e0       ?setSwingLimitEnabled@NpArticulationJoint@physx@@UEAAX_N@Z 000000018005c1e0 f   NpArticulationJoint.obj
 0001:0005b240       ?getSwingLimitEnabled@NpArticulationJoint@physx@@UEBA_NXZ 000000018005c240 f   NpArticulationJoint.obj
 0001:0005b2c0       ?setSwingLimitContactDistance@NpArticulationJoint@physx@@UEAAXM@Z 000000018005c2c0 f   NpArticulationJoint.obj
 0001:0005b3b0       ?getSwingLimitContactDistance@NpArticulationJoint@physx@@UEBAMXZ 000000018005c3b0 f   NpArticulationJoint.obj
 0001:0005b420       ?setTwistLimit@NpArticulationJoint@physx@@UEAAXMM@Z 000000018005c420 f   NpArticulationJoint.obj
 0001:0005b550       ?getTwistLimit@NpArticulationJoint@physx@@UEBAXAEAM0@Z 000000018005c550 f   NpArticulationJoint.obj
 0001:0005b5f0       ?setTwistLimitEnabled@NpArticulationJoint@physx@@UEAAX_N@Z 000000018005c5f0 f   NpArticulationJoint.obj
 0001:0005b650       ?getTwistLimitEnabled@NpArticulationJoint@physx@@UEBA_NXZ 000000018005c650 f   NpArticulationJoint.obj
 0001:0005b6d0       ?setTwistLimitContactDistance@NpArticulationJoint@physx@@UEAAXM@Z 000000018005c6d0 f   NpArticulationJoint.obj
 0001:0005b7c0       ?getTwistLimitContactDistance@NpArticulationJoint@physx@@UEBAMXZ 000000018005c7c0 f   NpArticulationJoint.obj
 0001:0005b830       ?release@NpArticulationJoint@physx@@UEAAXXZ 000000018005c830 f   NpArticulationJoint.obj
 0001:0005b8a0       ?getOwnerScene@NpArticulationJoint@physx@@AEBAPEAVNpScene@2@XZ 000000018005c8a0 f   NpArticulationJoint.obj
 0001:0005c180       ??1PxArticulationJoint@physx@@MEAA@XZ 000000018005d180 f i NpArticulationJoint.obj
 0001:0005c190       ??_ENpArticulationJoint@physx@@UEAAPEAXI@Z 000000018005d190 f i NpArticulationJoint.obj
 0001:0005c190       ??_GNpArticulationJoint@physx@@UEAAPEAXI@Z 000000018005d190 f i NpArticulationJoint.obj
 0001:0005c230       ??_GPxArticulationJoint@physx@@MEAAPEAXI@Z 000000018005d230 f i NpArticulationJoint.obj
 0001:0005c230       ??_EPxArticulationJoint@physx@@MEAAPEAXI@Z 000000018005d230 f i NpArticulationJoint.obj
 0001:0005c270       ?getConcreteTypeName@PxArticulationJoint@physx@@UEBAPEBDXZ 000000018005d270 f i NpArticulationJoint.obj
 0001:0005c280       ?isKindOf@PxArticulationJoint@physx@@MEBA_NPEBD@Z 000000018005d280 f i NpArticulationJoint.obj
 0001:0005c2e0       ?isSubordinate@NpArticulationJoint@physx@@UEBA_NXZ 000000018005d2e0 f i NpArticulationJoint.obj
 0001:0005c2f0       ?isUnit@PxQuat@physx@@QEBA_NXZ 000000018005d2f0 f i NpArticulationJoint.obj
 0001:0005c380       ?requires@NpArticulationJoint@physx@@UEAAXAEAVPxProcessPxBaseCallback@2@@Z 000000018005d380 f i NpArticulationJoint.obj
 0001:0005c390       ?setChildPose@ArticulationJoint@Scb@physx@@QEAAXAEBVPxTransform@3@@Z 000000018005d390 f i NpArticulationJoint.obj
 0001:0005c490       ?setDamping@ArticulationJoint@Scb@physx@@QEAAXM@Z 000000018005d490 f i NpArticulationJoint.obj
 0001:0005c560       ?setDriveType@ArticulationJoint@Scb@physx@@QEAAXW4Enum@PxArticulationJointDriveType@3@@Z 000000018005d560 f i NpArticulationJoint.obj
 0001:0005c630       ?setExternalCompliance@ArticulationJoint@Scb@physx@@QEAAXM@Z 000000018005d630 f i NpArticulationJoint.obj
 0001:0005c700       ?setInternalCompliance@ArticulationJoint@Scb@physx@@QEAAXM@Z 000000018005d700 f i NpArticulationJoint.obj
 0001:0005c7d0       ?setParentPose@ArticulationJoint@Scb@physx@@QEAAXAEBVPxTransform@3@@Z 000000018005d7d0 f i NpArticulationJoint.obj
 0001:0005c8d0       ?setStiffness@ArticulationJoint@Scb@physx@@QEAAXM@Z 000000018005d8d0 f i NpArticulationJoint.obj
 0001:0005c9a0       ?setSwingLimit@ArticulationJoint@Scb@physx@@QEAAXMM@Z 000000018005d9a0 f i NpArticulationJoint.obj
 0001:0005ca90       ?setSwingLimitContactDistance@ArticulationJoint@Scb@physx@@QEAAXM@Z 000000018005da90 f i NpArticulationJoint.obj
 0001:0005cb60       ?setSwingLimitEnabled@ArticulationJoint@Scb@physx@@QEAAX_N@Z 000000018005db60 f i NpArticulationJoint.obj
 0001:0005cc30       ?setTangentialDamping@ArticulationJoint@Scb@physx@@QEAAXM@Z 000000018005dc30 f i NpArticulationJoint.obj
 0001:0005cd00       ?setTangentialStiffness@ArticulationJoint@Scb@physx@@QEAAXM@Z 000000018005dd00 f i NpArticulationJoint.obj
 0001:0005cdd0       ?setTargetOrientation@ArticulationJoint@Scb@physx@@QEAAXAEBVPxQuat@3@@Z 000000018005ddd0 f i NpArticulationJoint.obj
 0001:0005ceb0       ?setTargetVelocity@ArticulationJoint@Scb@physx@@QEAAXAEBVPxVec3@3@@Z 000000018005deb0 f i NpArticulationJoint.obj
 0001:0005cf90       ?setTwistLimit@ArticulationJoint@Scb@physx@@QEAAXMM@Z 000000018005df90 f i NpArticulationJoint.obj
 0001:0005d080       ?setTwistLimitContactDistance@ArticulationJoint@Scb@physx@@QEAAXM@Z 000000018005e080 f i NpArticulationJoint.obj
 0001:0005d150       ?setTwistLimitEnabled@ArticulationJoint@Scb@physx@@QEAAX_N@Z 000000018005e150 f i NpArticulationJoint.obj
 0001:0005d220       ?exportExtraData@NpArticulationLink@physx@@UEAAXAEAVPxSerializationContext@2@@Z 000000018005e220 f   NpArticulationLink.obj
 0001:0005d2a0       ?importExtraData@NpArticulationLink@physx@@QEAAXAEAVPxDeserializationContext@2@@Z 000000018005e2a0 f   NpArticulationLink.obj
 0001:0005d320       ?resolveReferences@NpArticulationLink@physx@@UEAAXAEAVPxDeserializationContext@2@@Z 000000018005e320 f   NpArticulationLink.obj
 0001:0005d410       ?requires@NpArticulationLink@physx@@UEAAXAEAVPxProcessPxBaseCallback@2@@Z 000000018005e410 f   NpArticulationLink.obj
 0001:0005d4b0       ?createObject@NpArticulationLink@physx@@SAPEAV12@AEAPEAEAEAVPxDeserializationContext@2@@Z 000000018005e4b0 f   NpArticulationLink.obj
 0001:0005d560       ??1NpArticulationLink@physx@@UEAA@XZ 000000018005e560 f   NpArticulationLink.obj
 0001:0005d610       ?release@NpArticulationLink@physx@@UEAAXXZ 000000018005e610 f   NpArticulationLink.obj
 0001:0005d700       ?setGlobalPose@NpArticulationLink@physx@@UEAAXAEBVPxTransform@2@@Z 000000018005e700 f   NpArticulationLink.obj
 0001:0005d720       ?setGlobalPose@NpArticulationLink@physx@@UEAAXAEBVPxTransform@2@_N@Z 000000018005e720 f   NpArticulationLink.obj
 0001:0005dad0       ?getGlobalPose@NpArticulationLink@physx@@UEBA?AVPxTransform@2@XZ 000000018005ead0 f   NpArticulationLink.obj
 0001:0005de50       ?setLinearVelocity@NpArticulationLink@physx@@UEAAXAEBVPxVec3@2@_N@Z 000000018005ee50 f   NpArticulationLink.obj
 0001:0005dfa0       ?setAngularVelocity@NpArticulationLink@physx@@UEAAXAEBVPxVec3@2@_N@Z 000000018005efa0 f   NpArticulationLink.obj
 0001:0005e0f0       ?getArticulation@NpArticulationLink@physx@@UEBAAEAVPxArticulation@2@XZ 000000018005f0f0 f   NpArticulationLink.obj
 0001:0005e140       ?getInboundJoint@NpArticulationLink@physx@@UEBAPEAVPxArticulationJoint@2@XZ 000000018005f140 f   NpArticulationLink.obj
 0001:0005e190       ?getNbChildren@NpArticulationLink@physx@@UEBAIXZ 000000018005f190 f   NpArticulationLink.obj
 0001:0005e1d0       ?getChildren@NpArticulationLink@physx@@UEBAIPEAPEAVPxArticulationLink@2@II@Z 000000018005f1d0 f   NpArticulationLink.obj
 0001:0005e280       ?setCMassLocalPose@NpArticulationLink@physx@@UEAAXAEBVPxTransform@2@@Z 000000018005f280 f   NpArticulationLink.obj
 0001:0005ea90       ?addForce@NpArticulationLink@physx@@UEAAXAEBVPxVec3@2@W4Enum@PxForceMode@2@_N@Z 000000018005fa90 f   NpArticulationLink.obj
 0001:0005ec40       ?addTorque@NpArticulationLink@physx@@UEAAXAEBVPxVec3@2@W4Enum@PxForceMode@2@_N@Z 000000018005fc40 f   NpArticulationLink.obj
 0001:0005edf0       ?clearForce@NpArticulationLink@physx@@UEAAXW4Enum@PxForceMode@2@@Z 000000018005fdf0 f   NpArticulationLink.obj
 0001:0005ef20       ?clearTorque@NpArticulationLink@physx@@UEAAXW4Enum@PxForceMode@2@@Z 000000018005ff20 f   NpArticulationLink.obj
 0001:0005f050       ??0NpArticulationLink@physx@@QEAA@AEBVPxTransform@1@AEAVNpArticulation@1@PEAV01@@Z 0000000180060050 f   NpArticulationLink.obj
 0001:0005f1c0       ?releaseInternal@NpArticulationLink@physx@@QEAAXXZ 00000001800601c0 f   NpArticulationLink.obj
 0001:0005f2d0       ?visualize@NpArticulationLink@physx@@QEAAXAEAVRenderOutput@Cm@2@PEAVNpScene@2@@Z 00000001800602d0 f   NpArticulationLink.obj
 0001:0005f5d0       ?visualizeJoint@NpArticulationLink@physx@@QEAAXAEAVPxConstraintVisualizer@2@@Z 00000001800605d0 f   NpArticulationLink.obj
 0001:00060800       ??$getConnectors@VPxConstraint@physx@@@NpActor@physx@@QEBAIW4Enum@NpConnectorType@1@PEAPEAVPxConstraint@1@II@Z 0000000180061800 f i NpArticulationLink.obj
 0001:000608b0       ??0?$NpActorTemplate@VPxArticulationLink@physx@@@physx@@QEAA@GV?$PxFlags@W4Enum@PxBaseFlag@physx@@G@1@PEBDPEAX@Z 00000001800618b0 f i NpArticulationLink.obj
 0001:00060920       ??0?$NpRigidActorTemplate@VPxArticulationLink@physx@@@physx@@QEAA@GV?$PxFlags@W4Enum@PxBaseFlag@physx@@G@1@@Z 0000000180061920 f i NpArticulationLink.obj
 0001:00060990       ??0?$NpRigidBodyTemplate@VPxArticulationLink@physx@@@physx@@QEAA@GV?$PxFlags@W4Enum@PxBaseFlag@physx@@G@1@W4Enum@PxActorType@1@AEBVPxTransform@1@@Z 0000000180061990 f i NpArticulationLink.obj
 0001:00060a30       ??0?$NpRigidBodyTemplate@VPxArticulationLink@physx@@@physx@@QEAA@V?$PxFlags@W4Enum@PxBaseFlag@physx@@G@1@@Z 0000000180061a30 f i NpArticulationLink.obj
 0001:00060ad0       ??0Body@Scb@physx@@QEAA@W4Enum@PxActorType@2@AEBVPxTransform@2@@Z 0000000180061ad0 f i NpArticulationLink.obj
 0001:00060be0       ??1?$NpActorTemplate@VPxArticulationLink@physx@@@physx@@UEAA@XZ 0000000180061be0 f i NpArticulationLink.obj
 0001:00060c20       ??1?$NpRigidActorTemplate@VPxArticulationLink@physx@@@physx@@UEAA@XZ 0000000180061c20 f i NpArticulationLink.obj
 0001:00060c80       ??1?$NpRigidBodyTemplate@VPxArticulationLink@physx@@@physx@@UEAA@XZ 0000000180061c80 f i NpArticulationLink.obj
 0001:00060cf0       ??1PxArticulationLink@physx@@MEAA@XZ 0000000180061cf0 f i NpArticulationLink.obj
 0001:00060d00       ??1PxRigidActor@physx@@MEAA@XZ 0000000180061d00 f i NpArticulationLink.obj
 0001:00060d10       ??1PxRigidBody@physx@@MEAA@XZ 0000000180061d10 f i NpArticulationLink.obj
 0001:00060d20       ??_E?$NpActorTemplate@VPxArticulationLink@physx@@@physx@@UEAAPEAXI@Z 0000000180061d20 f i NpArticulationLink.obj
 0001:00060d20       ??_G?$NpActorTemplate@VPxArticulationLink@physx@@@physx@@UEAAPEAXI@Z 0000000180061d20 f i NpArticulationLink.obj
 0001:00060dc0       ??_G?$NpRigidActorTemplate@VPxArticulationLink@physx@@@physx@@UEAAPEAXI@Z 0000000180061dc0 f i NpArticulationLink.obj
 0001:00060dc0       ??_E?$NpRigidActorTemplate@VPxArticulationLink@physx@@@physx@@UEAAPEAXI@Z 0000000180061dc0 f i NpArticulationLink.obj
 0001:00060e80       ??_E?$NpRigidBodyTemplate@VPxArticulationLink@physx@@@physx@@UEAAPEAXI@Z 0000000180061e80 f i NpArticulationLink.obj
 0001:00060e80       ??_G?$NpRigidBodyTemplate@VPxArticulationLink@physx@@@physx@@UEAAPEAXI@Z 0000000180061e80 f i NpArticulationLink.obj
 0001:00060f50       ??_GConstraintImmediateVisualizer@Cm@physx@@UEAAPEAXI@Z 0000000180061f50 f i NpArticulationLink.obj
 0001:00060f50       ??_EConstraintImmediateVisualizer@Cm@physx@@UEAAPEAXI@Z 0000000180061f50 f i NpArticulationLink.obj
 0001:00060f90       ??_GNpArticulationLink@physx@@UEAAPEAXI@Z 0000000180061f90 f i NpArticulationLink.obj
 0001:00060f90       ??_ENpArticulationLink@physx@@UEAAPEAXI@Z 0000000180061f90 f i NpArticulationLink.obj
 0001:00061010       ??_GPxArticulationLink@physx@@MEAAPEAXI@Z 0000000180062010 f i NpArticulationLink.obj
 0001:00061010       ??_EPxArticulationLink@physx@@MEAAPEAXI@Z 0000000180062010 f i NpArticulationLink.obj
 0001:00061050       ??_GPxRigidActor@physx@@MEAAPEAXI@Z 0000000180062050 f i NpArticulationLink.obj
 0001:00061050       ??_EPxRigidActor@physx@@MEAAPEAXI@Z 0000000180062050 f i NpArticulationLink.obj
 0001:00061090       ??_GPxRigidBody@physx@@MEAAPEAXI@Z 0000000180062090 f i NpArticulationLink.obj
 0001:00061090       ??_EPxRigidBody@physx@@MEAAPEAXI@Z 0000000180062090 f i NpArticulationLink.obj
 0001:000610d0       ?accumulate@Body@Scb@physx@@AEAAXAEAVPxVec3@3@0IIPEBV43@1@Z 00000001800620d0 f i NpArticulationLink.obj
 0001:000611a0       ?addSpatialAcceleration@Body@Scb@physx@@QEAAXPEBVPxVec3@3@0@Z 00000001800621a0 f i NpArticulationLink.obj
 0001:00061290       ?addSpatialForce@?$NpRigidBodyTemplate@VPxArticulationLink@physx@@@physx@@IEAAXPEBVPxVec3@2@0W4Enum@PxForceMode@2@@Z 0000000180062290 f i NpArticulationLink.obj
 0001:000615b0       ?addSpatialVelocity@Body@Scb@physx@@QEAAXPEBVPxVec3@3@0@Z 00000001800625b0 f i NpArticulationLink.obj
 0001:000616d0       ?allocate@?$Array@PEAVNpArticulationLink@physx@@V?$InlineAllocator@$0CA@VNamedAllocator@shdfnd@physx@@@shdfnd@2@@shdfnd@physx@@IEAAPEAPEAVNpArticulationLink@3@I@Z 00000001800626d0 f i NpArticulationLink.obj
 0001:00061760       ?attachShape@?$NpRigidActorTemplate@VPxArticulationLink@physx@@@physx@@UEAAXAEAVPxShape@2@@Z 0000000180062760 f i NpArticulationLink.obj
 0001:000618f0       ?attachShape@?$NpRigidBodyTemplate@VPxArticulationLink@physx@@@physx@@UEAAXAEAVPxShape@2@@Z 00000001800628f0 f i NpArticulationLink.obj
 0001:00061a90       ?clearSpatialAcceleration@Body@Scb@physx@@QEAAX_N0@Z 0000000180062a90 f i NpArticulationLink.obj
 0001:00061ba0       ?clearSpatialForce@?$NpRigidBodyTemplate@VPxArticulationLink@physx@@@physx@@IEAAXW4Enum@PxForceMode@2@_N1@Z 0000000180062ba0 f i NpArticulationLink.obj
 0001:00061bf0       ?clearSpatialVelocity@Body@Scb@physx@@QEAAX_N0@Z 0000000180062bf0 f i NpArticulationLink.obj
 0001:00061d50       ?createShape@?$NpRigidBodyTemplate@VPxArticulationLink@physx@@@physx@@UEAAPEAVPxShape@2@AEBVPxGeometry@2@PEBQEAVPxMaterial@2@GV?$PxFlags@W4Enum@PxShapeFlag@physx@@E@2@@Z 0000000180062d50 f i NpArticulationLink.obj
 0001:00061f30       ?detachShape@?$NpRigidActorTemplate@VPxArticulationLink@physx@@@physx@@UEAAXAEAVPxShape@2@_N@Z 0000000180062f30 f i NpArticulationLink.obj
 0001:00062070       ?exportExtraData@?$NpActorTemplate@VPxArticulationLink@physx@@@physx@@UEAAXAEAVPxSerializationContext@2@@Z 0000000180063070 f i NpArticulationLink.obj
 0001:00062080       ?exportExtraData@?$NpRigidActorTemplate@VPxArticulationLink@physx@@@physx@@UEAAXAEAVPxSerializationContext@2@@Z 0000000180063080 f i NpArticulationLink.obj
 0001:000620c0       ?getActorFlags@?$NpActorTemplate@VPxArticulationLink@physx@@@physx@@UEBA?AV?$PxFlags@W4Enum@PxActorFlag@physx@@E@2@XZ 00000001800630c0 f i NpArticulationLink.obj
 0001:00062160       ?getAggregate@?$NpActorTemplate@VPxArticulationLink@physx@@@physx@@UEBAPEAVPxAggregate@2@XZ 0000000180063160 f i NpArticulationLink.obj
 0001:00062170       ?getAngularVelocity@?$NpRigidBodyTemplate@VPxArticulationLink@physx@@@physx@@UEBA?AVPxVec3@2@XZ 0000000180063170 f i NpArticulationLink.obj
 0001:000621f0       ?getCMassLocalPose@?$NpRigidBodyTemplate@VPxArticulationLink@physx@@@physx@@UEBA?AVPxTransform@2@XZ 00000001800631f0 f i NpArticulationLink.obj
 0001:000622a0       ?getClientBehaviorFlags@?$NpActorTemplate@VPxArticulationLink@physx@@@physx@@UEBA?AV?$PxFlags@W4Enum@PxActorClientBehaviorFlag@physx@@E@2@XZ 00000001800632a0 f i NpArticulationLink.obj
 0001:00062340       ?getConcreteTypeName@PxArticulationLink@physx@@UEBAPEBDXZ 0000000180063340 f i NpArticulationLink.obj
 0001:00062350       ?getConstraints@?$NpRigidActorTemplate@VPxArticulationLink@physx@@@physx@@UEBAIPEAPEAVPxConstraint@2@II@Z 0000000180063350 f i NpArticulationLink.obj
 0001:000623e0       ?getDominanceGroup@?$NpActorTemplate@VPxArticulationLink@physx@@@physx@@UEBAEXZ 00000001800633e0 f i NpArticulationLink.obj
 0001:00062490       ?getGlobalInertiaTensorInverse@Body@Scb@physx@@QEBA?AVPxMat33@3@XZ 0000000180063490 f i NpArticulationLink.obj
 0001:000625c0       ?getInvMass@?$NpRigidBodyTemplate@VPxArticulationLink@physx@@@physx@@UEBAMXZ 00000001800635c0 f i NpArticulationLink.obj
 0001:00062640       ?getLinearVelocity@?$NpRigidBodyTemplate@VPxArticulationLink@physx@@@physx@@UEBA?AVPxVec3@2@XZ 0000000180063640 f i NpArticulationLink.obj
 0001:000626c0       ?getMass@?$NpRigidBodyTemplate@VPxArticulationLink@physx@@@physx@@UEBAMXZ 00000001800636c0 f i NpArticulationLink.obj
 0001:00062760       ?getMassSpaceInertiaTensor@?$NpRigidBodyTemplate@VPxArticulationLink@physx@@@physx@@UEBA?AVPxVec3@2@XZ 0000000180063760 f i NpArticulationLink.obj
 0001:00062850       ?getMassSpaceInvInertiaTensor@?$NpRigidBodyTemplate@VPxArticulationLink@physx@@@physx@@UEBA?AVPxVec3@2@XZ 0000000180063850 f i NpArticulationLink.obj
 0001:000628e0       ?getMaxContactImpulse@?$NpRigidBodyTemplate@VPxArticulationLink@physx@@@physx@@UEBAMXZ 00000001800638e0 f i NpArticulationLink.obj
 0001:00062960       ?getMaxDepenetrationVelocity@?$NpRigidBodyTemplate@VPxArticulationLink@physx@@@physx@@UEBAMXZ 0000000180063960 f i NpArticulationLink.obj
 0001:000629f0       ?getMinCCDAdvanceCoefficient@?$NpRigidBodyTemplate@VPxArticulationLink@physx@@@physx@@UEBAMXZ 00000001800639f0 f i NpArticulationLink.obj
 0001:00062a70       ?getName@?$NpActorTemplate@VPxArticulationLink@physx@@@physx@@UEBAPEBDXZ 0000000180063a70 f i NpArticulationLink.obj
 0001:00062ac0       ?getNbConstraints@?$NpRigidActorTemplate@VPxArticulationLink@physx@@@physx@@UEBAIXZ 0000000180063ac0 f i NpArticulationLink.obj
 0001:00062b20       ?getNbShapes@?$NpRigidActorTemplate@VPxArticulationLink@physx@@@physx@@UEBAIXZ 0000000180063b20 f i NpArticulationLink.obj
 0001:00062b70       ?getOwnerClient@?$NpActorTemplate@VPxArticulationLink@physx@@@physx@@UEBAEXZ 0000000180063b70 f i NpArticulationLink.obj
 0001:00062bb0       ?getRigidBodyFlags@?$NpRigidBodyTemplate@VPxArticulationLink@physx@@@physx@@UEBA?AV?$PxFlags@W4Enum@PxRigidBodyFlag@physx@@E@2@XZ 0000000180063bb0 f i NpArticulationLink.obj
 0001:00062c30       ?getScene@?$NpActorTemplate@VPxArticulationLink@physx@@@physx@@UEBAPEAVPxScene@2@XZ 0000000180063c30 f i NpArticulationLink.obj
 0001:00062c40       ?getShapes@?$NpRigidActorTemplate@VPxArticulationLink@physx@@@physx@@UEBAIPEAPEAVPxShape@2@II@Z 0000000180063c40 f i NpArticulationLink.obj
 0001:00062cd0       ?getType@NpArticulationLink@physx@@UEBA?AW4Enum@PxActorType@2@XZ 0000000180063cd0 f i NpArticulationLink.obj
 0001:00062ce0       ?getWorldBounds@?$NpRigidActorTemplate@VPxArticulationLink@physx@@@physx@@UEBA?AVPxBounds3@2@M@Z 0000000180063ce0 f i NpArticulationLink.obj
 0001:00062ed0       ?growAndPushBack@?$Array@PEAVNpArticulationLink@physx@@V?$InlineAllocator@$0CA@VNamedAllocator@shdfnd@physx@@@shdfnd@2@@shdfnd@physx@@IEAAAEAPEAVNpArticulationLink@3@AEBQEAV43@@Z 0000000180063ed0 f i NpArticulationLink.obj
 0001:00062fc0       ?importExtraData@?$NpRigidActorTemplate@VPxArticulationLink@physx@@@physx@@QEAAXAEAVPxDeserializationContext@2@@Z 0000000180063fc0 f i NpArticulationLink.obj
 0001:00063000       ?isKindOf@PxArticulationLink@physx@@MEBA_NPEBD@Z 0000000180064000 f i NpArticulationLink.obj
 0001:00063070       ?isKindOf@PxRigidActor@physx@@MEBA_NPEBD@Z 0000000180064070 f i NpArticulationLink.obj
 0001:00063100       ?isKindOf@PxRigidBody@physx@@MEBA_NPEBD@Z 0000000180064100 f i NpArticulationLink.obj
 0001:00063160       ?isSubordinate@NpArticulationLink@physx@@UEBA_NXZ 0000000180064160 f i NpArticulationLink.obj
 0001:00063170       ?isValid@PxTransform@physx@@QEBA_NXZ 0000000180064170 f i NpArticulationLink.obj
 0001:00063200       ?release@?$NpActorTemplate@VPxArticulationLink@physx@@@physx@@UEAAXXZ 0000000180064200 f i NpArticulationLink.obj
 0001:00063210       ?release@?$NpRigidActorTemplate@VPxArticulationLink@physx@@@physx@@UEAAXXZ 0000000180064210 f i NpArticulationLink.obj
 0001:000632d0       ?requires@?$NpRigidActorTemplate@VPxArticulationLink@physx@@@physx@@UEAAXAEAVPxProcessPxBaseCallback@2@@Z 00000001800642d0 f i NpArticulationLink.obj
 0001:00063360       ?resolveReferences@?$NpActorTemplate@VPxArticulationLink@physx@@@physx@@UEAAXAEAVPxDeserializationContext@2@@Z 0000000180064360 f i NpArticulationLink.obj
 0001:00063370       ?resolveReferences@?$NpRigidActorTemplate@VPxArticulationLink@physx@@@physx@@UEAAXAEAVPxDeserializationContext@2@@Z 0000000180064370 f i NpArticulationLink.obj
 0001:00063420       ?setActorFlag@?$NpActorTemplate@VPxArticulationLink@physx@@@physx@@UEAAXW4Enum@PxActorFlag@2@_N@Z 0000000180064420 f i NpArticulationLink.obj
 0001:00063520       ?setActorFlag@?$NpRigidActorTemplate@VPxArticulationLink@physx@@@physx@@UEAAXW4Enum@PxActorFlag@2@_N@Z 0000000180064520 f i NpArticulationLink.obj
 0001:00063860       ?setActorFlags@?$NpActorTemplate@VPxArticulationLink@physx@@@physx@@UEAAXV?$PxFlags@W4Enum@PxActorFlag@physx@@E@2@@Z 0000000180064860 f i NpArticulationLink.obj
 0001:000638e0       ?setActorFlags@?$NpRigidActorTemplate@VPxArticulationLink@physx@@@physx@@UEAAXV?$PxFlags@W4Enum@PxActorFlag@physx@@E@2@@Z 00000001800648e0 f i NpArticulationLink.obj
 0001:00063b80       ?setAngularVelocity@Body@Scb@physx@@QEAAXAEBVPxVec3@3@@Z 0000000180064b80 f i NpArticulationLink.obj
 0001:00063c40       ?setBody2Actor@Body@Scb@physx@@QEAAXAEBVPxTransform@3@@Z 0000000180064c40 f i NpArticulationLink.obj
 0001:00063d60       ?setCMassLocalPoseInternal@?$NpRigidBodyTemplate@VPxArticulationLink@physx@@@physx@@IEAAXAEBVPxTransform@2@@Z 0000000180064d60 f i NpArticulationLink.obj
 0001:000640c0       ?setClientBehaviorFlags@?$NpActorTemplate@VPxArticulationLink@physx@@@physx@@UEAAXV?$PxFlags@W4Enum@PxActorClientBehaviorFlag@physx@@E@2@@Z 00000001800650c0 f i NpArticulationLink.obj
 0001:00064140       ?setClientBehaviorFlags@?$NpRigidActorTemplate@VPxArticulationLink@physx@@@physx@@UEAAXV?$PxFlags@W4Enum@PxActorClientBehaviorFlag@physx@@E@2@@Z 0000000180065140 f i NpArticulationLink.obj
 0001:00064200       ?setDominanceGroup@?$NpActorTemplate@VPxArticulationLink@physx@@@physx@@UEAAXE@Z 0000000180065200 f i NpArticulationLink.obj
 0001:00064280       ?setFlags@Body@Scb@physx@@QEAAXV?$PxFlags@W4Enum@PxRigidBodyFlag@physx@@E@3@@Z 0000000180065280 f i NpArticulationLink.obj
 0001:00064460       ?setInverseInertia@Body@Scb@physx@@QEAAXAEBVPxVec3@3@@Z 0000000180065460 f i NpArticulationLink.obj
 0001:00064550       ?setInverseMass@Body@Scb@physx@@QEAAXM@Z 0000000180065550 f i NpArticulationLink.obj
 0001:00064620       ?setLinearVelocity@Body@Scb@physx@@QEAAXAEBVPxVec3@3@@Z 0000000180065620 f i NpArticulationLink.obj
 0001:000646e0       ?setMass@?$NpRigidBodyTemplate@VPxArticulationLink@physx@@@physx@@UEAAXM@Z 00000001800656e0 f i NpArticulationLink.obj
 0001:00064850       ?setMassSpaceInertiaTensor@?$NpRigidBodyTemplate@VPxArticulationLink@physx@@@physx@@UEAAXAEBVPxVec3@2@@Z 0000000180065850 f i NpArticulationLink.obj
 0001:00064b30       ?setMaxContactImpulse@?$NpRigidBodyTemplate@VPxArticulationLink@physx@@@physx@@UEAAXM@Z 0000000180065b30 f i NpArticulationLink.obj
 0001:00064bf0       ?setMaxContactImpulse@Body@Scb@physx@@QEAAXM@Z 0000000180065bf0 f i NpArticulationLink.obj
 0001:00064cc0       ?setMaxDepenetrationVelocity@?$NpRigidBodyTemplate@VPxArticulationLink@physx@@@physx@@UEAAXM@Z 0000000180065cc0 f i NpArticulationLink.obj
 0001:00064d80       ?setMaxPenetrationBias@Body@Scb@physx@@QEAAXM@Z 0000000180065d80 f i NpArticulationLink.obj
 0001:00064e40       ?setMinCCDAdvanceCoefficient@?$NpRigidBodyTemplate@VPxArticulationLink@physx@@@physx@@UEAAXM@Z 0000000180065e40 f i NpArticulationLink.obj
 0001:00064eb0       ?setMinCCDAdvanceCoefficient@Body@Scb@physx@@QEAAXM@Z 0000000180065eb0 f i NpArticulationLink.obj
 0001:00064f70       ?setName@?$NpActorTemplate@VPxArticulationLink@physx@@@physx@@UEAAXPEBD@Z 0000000180065f70 f i NpArticulationLink.obj
 0001:00065010       ?setOwnerClient@?$NpActorTemplate@VPxArticulationLink@physx@@@physx@@UEAAXE@Z 0000000180066010 f i NpArticulationLink.obj
 0001:000650b0       ?setRigidBodyFlag@?$NpRigidBodyTemplate@VPxArticulationLink@physx@@@physx@@UEAAXW4Enum@PxRigidBodyFlag@2@_N@Z 00000001800660b0 f i NpArticulationLink.obj
 0001:000656a0       ?setRigidBodyFlags@?$NpRigidBodyTemplate@VPxArticulationLink@physx@@@physx@@UEAAXV?$PxFlags@W4Enum@PxRigidBodyFlag@physx@@E@2@@Z 00000001800666a0 f i NpArticulationLink.obj
 0001:00065cd0       ?switchFromNoSim@?$NpRigidActorTemplate@VPxArticulationLink@physx@@@physx@@UEAAXXZ 0000000180066cd0 f i NpArticulationLink.obj
 0001:00065ce0       ?switchToNoSim@?$NpRigidActorTemplate@VPxArticulationLink@physx@@@physx@@UEAAXXZ 0000000180066ce0 f i NpArticulationLink.obj
 0001:00065cf0       ?transformInertiaTensor@Cm@physx@@YAXAEBVPxVec3@2@AEBVPxMat33@2@AEAV42@@Z 0000000180066cf0 f i NpArticulationLink.obj
 0001:00065ed0       ?updateShaderComs@?$NpRigidActorTemplate@VPxArticulationLink@physx@@@physx@@QEAAXXZ 0000000180066ed0 f i NpArticulationLink.obj
 0001:00065f70       ?visualize@?$NpRigidActorTemplate@VPxArticulationLink@physx@@@physx@@QEAAXAEAVRenderOutput@Cm@2@PEAVNpScene@2@@Z 0000000180066f70 f i NpArticulationLink.obj
 0001:00065f80       ?visualize@?$NpRigidBodyTemplate@VPxArticulationLink@physx@@@physx@@QEAAXAEAVRenderOutput@Cm@2@PEAVNpScene@2@@Z 0000000180066f80 f i NpArticulationLink.obj
 0001:00066440       ?visualizeAngularLimit@ConstraintImmediateVisualizer@Cm@physx@@UEAAXAEBVPxTransform@3@MM_N@Z 0000000180067440 f i NpArticulationLink.obj
 0001:00066480       ?visualizeDoubleCone@ConstraintImmediateVisualizer@Cm@physx@@UEAAXAEBVPxTransform@3@M_N@Z 0000000180067480 f i NpArticulationLink.obj
 0001:000664b0       ?visualizeJointFrames@ConstraintImmediateVisualizer@Cm@physx@@UEAAXAEBVPxTransform@3@0@Z 00000001800674b0 f i NpArticulationLink.obj
 0001:000664d0       ?visualizeLimitCone@ConstraintImmediateVisualizer@Cm@physx@@UEAAXAEBVPxTransform@3@MM_N@Z 00000001800674d0 f i NpArticulationLink.obj
 0001:00066510       ?visualizeLinearLimit@ConstraintImmediateVisualizer@Cm@physx@@UEAAXAEBVPxTransform@3@0M_N@Z 0000000180067510 f i NpArticulationLink.obj
 0001:00066550       ??0NpBatchQuery@physx@@QEAA@AEAVNpScene@1@AEBVPxBatchQueryDesc@1@@Z 0000000180067550 f   NpBatchQuery.obj
 0001:000666b0       ??1NpBatchQuery@physx@@UEAA@XZ 00000001800676b0 f   NpBatchQuery.obj
 0001:00066730       ?execute@NpBatchQuery@physx@@UEAAXXZ 0000000180067730 f   NpBatchQuery.obj
 0001:00067050       ?release@NpBatchQuery@physx@@UEAAXXZ 0000000180068050 f   NpBatchQuery.obj
 0001:000670c0       ?getPreFilterShader@NpBatchQuery@physx@@UEBAP6A?AW4Enum@PxQueryHitType@2@UPxFilterData@2@0PEBXIAEAV?$PxFlags@W4Enum@PxHitFlag@physx@@G@2@@ZXZ 00000001800680c0 f   NpBatchQuery.obj
 0001:000670d0       ?getPostFilterShader@NpBatchQuery@physx@@UEBAP6A?AW4Enum@PxQueryHitType@2@UPxFilterData@2@0PEBXIAEBUPxQueryHit@2@@ZXZ 00000001800680d0 f   NpBatchQuery.obj
 0001:000670e0       ?getFilterShaderData@NpBatchQuery@physx@@UEBAPEBXXZ 00000001800680e0 f   NpBatchQuery.obj
 0001:000670f0       ?getFilterShaderDataSize@NpBatchQuery@physx@@UEBAIXZ 00000001800680f0 f   NpBatchQuery.obj
 0001:00067100       ?getOwnerClient@NpBatchQuery@physx@@UEBAEXZ 0000000180068100 f   NpBatchQuery.obj
 0001:00067110       ?setUserMemory@NpBatchQuery@physx@@UEAAXAEBUPxBatchQueryMemory@2@@Z 0000000180068110 f   NpBatchQuery.obj
 0001:000671b0       ?getUserMemory@NpBatchQuery@physx@@UEAAAEBUPxBatchQueryMemory@2@XZ 00000001800681b0 f   NpBatchQuery.obj
 0001:000671c0       ?raycast@NpBatchQuery@physx@@UEAAXAEBVPxVec3@2@0MGV?$PxFlags@W4Enum@PxHitFlag@physx@@G@2@AEBUPxQueryFilterData@2@PEAXPEBUPxQueryCache@2@@Z 00000001800681c0 f   NpBatchQuery.obj
 0001:000674e0       ?overlap@NpBatchQuery@physx@@UEAAXAEBVPxGeometry@2@AEBVPxTransform@2@GAEBUPxQueryFilterData@2@PEAXPEBUPxQueryCache@2@@Z 00000001800684e0 f   NpBatchQuery.obj
 0001:000676a0       ?sweep@NpBatchQuery@physx@@UEAAXAEBVPxGeometry@2@AEBVPxTransform@2@AEBVPxVec3@2@MGV?$PxFlags@W4Enum@PxHitFlag@physx@@G@2@AEBUPxQueryFilterData@2@PEAXPEBUPxQueryCache@2@M@Z 00000001800686a0 f   NpBatchQuery.obj
 0001:00067bd0       ?resetResultBuffers@NpBatchQuery@physx@@AEAAXXZ 0000000180068bd0 f   NpBatchQuery.obj
 0001:00067ce0       ?finalizeExecute@NpBatchQuery@physx@@AEAAXXZ 0000000180068ce0 f   NpBatchQuery.obj
 0001:00067d10       ?writeBatchHeader@NpBatchQuery@physx@@AEAAXAEBUBatchStreamHeader@2@@Z 0000000180068d10 f   NpBatchQuery.obj
 0001:00068410       ??$writeStatus@U?$PxBatchQueryResult@UPxOverlapHit@physx@@@physx@@UPxOverlapHit@2@@@YAXPEAU?$PxBatchQueryResult@UPxOverlapHit@physx@@@physx@@AEBU?$PxHitBuffer@UPxOverlapHit@physx@@@1@PEAX_N@Z 0000000180069410 f i NpBatchQuery.obj
 0001:00068470       ??$writeStatus@U?$PxBatchQueryResult@UPxRaycastHit@physx@@@physx@@UPxRaycastHit@2@@@YAXPEAU?$PxBatchQueryResult@UPxRaycastHit@physx@@@physx@@AEBU?$PxHitBuffer@UPxRaycastHit@physx@@@1@PEAX_N@Z 0000000180069470 f i NpBatchQuery.obj
 0001:00068520       ??$writeStatus@U?$PxBatchQueryResult@UPxSweepHit@physx@@@physx@@UPxSweepHit@2@@@YAXPEAU?$PxBatchQueryResult@UPxSweepHit@physx@@@physx@@AEBU?$PxHitBuffer@UPxSweepHit@physx@@@1@PEAX_N@Z 0000000180069520 f i NpBatchQuery.obj
 0001:000685d0       ??1?$PxHitBuffer@UPxOverlapHit@physx@@@physx@@UEAA@XZ 00000001800695d0 f i NpBatchQuery.obj
 0001:000685e0       ??1?$PxHitBuffer@UPxRaycastHit@physx@@@physx@@UEAA@XZ 00000001800695e0 f i NpBatchQuery.obj
 0001:000685f0       ??1?$PxHitBuffer@UPxSweepHit@physx@@@physx@@UEAA@XZ 00000001800695f0 f i NpBatchQuery.obj
 0001:00068600       ??1?$PxHitCallback@UPxOverlapHit@physx@@@physx@@UEAA@XZ 0000000180069600 f i NpBatchQuery.obj
 0001:00068610       ??1?$PxHitCallback@UPxRaycastHit@physx@@@physx@@UEAA@XZ 0000000180069610 f i NpBatchQuery.obj
 0001:00068620       ??1?$PxHitCallback@UPxSweepHit@physx@@@physx@@UEAA@XZ 0000000180069620 f i NpBatchQuery.obj
 0001:00068630       ??1PxBatchQuery@physx@@MEAA@XZ 0000000180069630 f i NpBatchQuery.obj
 0001:00068640       ??_E?$PxHitBuffer@UPxOverlapHit@physx@@@physx@@UEAAPEAXI@Z 0000000180069640 f i NpBatchQuery.obj
 0001:00068640       ??_G?$PxHitBuffer@UPxOverlapHit@physx@@@physx@@UEAAPEAXI@Z 0000000180069640 f i NpBatchQuery.obj
 0001:00068680       ??_E?$PxHitBuffer@UPxRaycastHit@physx@@@physx@@UEAAPEAXI@Z 0000000180069680 f i NpBatchQuery.obj
 0001:00068680       ??_G?$PxHitBuffer@UPxRaycastHit@physx@@@physx@@UEAAPEAXI@Z 0000000180069680 f i NpBatchQuery.obj
 0001:000686c0       ??_E?$PxHitBuffer@UPxSweepHit@physx@@@physx@@UEAAPEAXI@Z 00000001800696c0 f i NpBatchQuery.obj
 0001:000686c0       ??_G?$PxHitBuffer@UPxSweepHit@physx@@@physx@@UEAAPEAXI@Z 00000001800696c0 f i NpBatchQuery.obj
 0001:00068700       ??_G?$PxHitCallback@UPxOverlapHit@physx@@@physx@@UEAAPEAXI@Z 0000000180069700 f i NpBatchQuery.obj
 0001:00068700       ??_E?$PxHitCallback@UPxOverlapHit@physx@@@physx@@UEAAPEAXI@Z 0000000180069700 f i NpBatchQuery.obj
 0001:00068740       ??_G?$PxHitCallback@UPxRaycastHit@physx@@@physx@@UEAAPEAXI@Z 0000000180069740 f i NpBatchQuery.obj
 0001:00068740       ??_E?$PxHitCallback@UPxRaycastHit@physx@@@physx@@UEAAPEAXI@Z 0000000180069740 f i NpBatchQuery.obj
 0001:00068780       ??_G?$PxHitCallback@UPxSweepHit@physx@@@physx@@UEAAPEAXI@Z 0000000180069780 f i NpBatchQuery.obj
 0001:00068780       ??_E?$PxHitCallback@UPxSweepHit@physx@@@physx@@UEAAPEAXI@Z 0000000180069780 f i NpBatchQuery.obj
 0001:000687c0       ??_G?$PxOverflowBuffer@UPxOverlapHit@physx@@@@UEAAPEAXI@Z 00000001800697c0 f i NpBatchQuery.obj
 0001:000687c0       ??_E?$PxOverflowBuffer@UPxOverlapHit@physx@@@@UEAAPEAXI@Z 00000001800697c0 f i NpBatchQuery.obj
 0001:00068800       ??_E?$PxOverflowBuffer@UPxRaycastHit@physx@@@@UEAAPEAXI@Z 0000000180069800 f i NpBatchQuery.obj
 0001:00068800       ??_G?$PxOverflowBuffer@UPxRaycastHit@physx@@@@UEAAPEAXI@Z 0000000180069800 f i NpBatchQuery.obj
 0001:00068840       ??_G?$PxOverflowBuffer@UPxSweepHit@physx@@@@UEAAPEAXI@Z 0000000180069840 f i NpBatchQuery.obj
 0001:00068840       ??_E?$PxOverflowBuffer@UPxSweepHit@physx@@@@UEAAPEAXI@Z 0000000180069840 f i NpBatchQuery.obj
 0001:00068880       ??_GNpBatchQuery@physx@@UEAAPEAXI@Z 0000000180069880 f i NpBatchQuery.obj
 0001:00068880       ??_ENpBatchQuery@physx@@UEAAPEAXI@Z 0000000180069880 f i NpBatchQuery.obj
 0001:00068900       ??_GPxBatchQuery@physx@@MEAAPEAXI@Z 0000000180069900 f i NpBatchQuery.obj
 0001:00068900       ??_EPxBatchQuery@physx@@MEAAPEAXI@Z 0000000180069900 f i NpBatchQuery.obj
 0001:00068940       ?finalizeQuery@?$PxHitCallback@UPxOverlapHit@physx@@@physx@@UEAAXXZ 0000000180069940 f i NpBatchQuery.obj
 0001:00068950       ?finalizeQuery@?$PxHitCallback@UPxRaycastHit@physx@@@physx@@UEAAXXZ 0000000180069950 f i NpBatchQuery.obj
 0001:00068960       ?finalizeQuery@?$PxHitCallback@UPxSweepHit@physx@@@physx@@UEAAXXZ 0000000180069960 f i NpBatchQuery.obj
 0001:00068970       ?finalizeQuery@?$PxOverflowBuffer@UPxOverlapHit@physx@@@@UEAAXXZ 0000000180069970 f i NpBatchQuery.obj
 0001:000689a0       ?finalizeQuery@?$PxOverflowBuffer@UPxRaycastHit@physx@@@@UEAAXXZ 00000001800699a0 f i NpBatchQuery.obj
 0001:000689d0       ?finalizeQuery@?$PxOverflowBuffer@UPxSweepHit@physx@@@@UEAAXXZ 00000001800699d0 f i NpBatchQuery.obj
 0001:00068a00       ?getDesc@NpBatchQuery@physx@@UEBAAEBVPxBatchQueryDesc@2@XZ 0000000180069a00 f i NpBatchQuery.obj
 0001:00068a10       ?processTouches@?$PxHitBuffer@UPxOverlapHit@physx@@@physx@@MEAA_NPEBUPxOverlapHit@2@I@Z 0000000180069a10 f i NpBatchQuery.obj
 0001:00068a20       ?processTouches@?$PxHitBuffer@UPxRaycastHit@physx@@@physx@@MEAA_NPEBUPxRaycastHit@2@I@Z 0000000180069a20 f i NpBatchQuery.obj
 0001:00068a30       ?processTouches@?$PxHitBuffer@UPxSweepHit@physx@@@physx@@MEAA_NPEBUPxSweepHit@2@I@Z 0000000180069a30 f i NpBatchQuery.obj
 0001:00068a40       ?processTouches@?$PxOverflowBuffer@UPxOverlapHit@physx@@@@UEAA_NPEBUPxOverlapHit@physx@@I@Z 0000000180069a40 f i NpBatchQuery.obj
 0001:00068a80       ?processTouches@?$PxOverflowBuffer@UPxRaycastHit@physx@@@@UEAA_NPEBUPxRaycastHit@physx@@I@Z 0000000180069a80 f i NpBatchQuery.obj
 0001:00068ad0       ?processTouches@?$PxOverflowBuffer@UPxSweepHit@physx@@@@UEAA_NPEBUPxSweepHit@physx@@I@Z 0000000180069ad0 f i NpBatchQuery.obj
 0001:00068c30       ?recreate@?$Array@DVNamedAllocator@shdfnd@physx@@@shdfnd@physx@@IEAAXI@Z 0000000180069c30 f i NpBatchQuery.obj
 0001:00068d00       ?resizeUninitialized@?$Array@DVNamedAllocator@shdfnd@physx@@@shdfnd@physx@@QEAAXI@Z 0000000180069d00 f i NpBatchQuery.obj
 0001:00069190       ?NpConstraintGetRigidObjectsFromScb@physx@@YAXAEBVConstraint@Scb@1@AEAPEAVRigidObject@31@1@Z 000000018006a190 f   NpConstraint.obj
 0001:00069200       ?setConstraintFunctions@NpConstraint@physx@@UEAAXAEAVPxConstraintConnector@2@AEBUPxConstraintShaderTable@2@@Z 000000018006a200 f   NpConstraint.obj
 0001:00069420       ?createObject@NpConstraint@physx@@SAPEAV12@AEAPEAEAEAVPxDeserializationContext@2@@Z 000000018006a420 f   NpConstraint.obj
 0001:000694c0       ?resolveReferences@NpConstraint@physx@@QEAAXAEAVPxDeserializationContext@2@@Z 000000018006a4c0 f   NpConstraint.obj
 0001:00069520       ??0NpConstraint@physx@@QEAA@PEAVPxRigidActor@1@0AEAVPxConstraintConnector@1@AEBUPxConstraintShaderTable@1@I@Z 000000018006a520 f   NpConstraint.obj
 0001:00069720       ??1NpConstraint@physx@@UEAA@XZ 000000018006a720 f   NpConstraint.obj
 0001:00069780       ?release@NpConstraint@physx@@UEAAXXZ 000000018006a780 f   NpConstraint.obj
 0001:000698c0       ?getScene@NpConstraint@physx@@UEBAPEAVPxScene@2@XZ 000000018006a8c0 f   NpConstraint.obj
 0001:00069900       ?getActors@NpConstraint@physx@@UEBAXAEAPEAVPxRigidActor@2@0@Z 000000018006a900 f   NpConstraint.obj
 0001:000699a0       ?setActors@NpConstraint@physx@@UEAAXPEAVPxRigidActor@2@0@Z 000000018006a9a0 f   NpConstraint.obj
 0001:00069d70       ?getFlags@NpConstraint@physx@@UEBA?AV?$PxFlags@W4Enum@PxConstraintFlag@physx@@G@2@XZ 000000018006ad70 f   NpConstraint.obj
 0001:00069e20       ?setFlags@NpConstraint@physx@@UEAAXV?$PxFlags@W4Enum@PxConstraintFlag@physx@@G@2@@Z 000000018006ae20 f   NpConstraint.obj
 0001:00069f50       ?setFlag@NpConstraint@physx@@UEAAXW4Enum@PxConstraintFlag@2@_N@Z 000000018006af50 f   NpConstraint.obj
 0001:0006a0c0       ?getForce@NpConstraint@physx@@UEBAXAEAVPxVec3@2@0@Z 000000018006b0c0 f   NpConstraint.obj
 0001:0006a180       ?markDirty@NpConstraint@physx@@UEAAXXZ 000000018006b180 f   NpConstraint.obj
 0001:0006a190       ?setBreakForce@NpConstraint@physx@@UEAAXMM@Z 000000018006b190 f   NpConstraint.obj
 0001:0006a250       ?getBreakForce@NpConstraint@physx@@UEBAXAEAM0@Z 000000018006b250 f   NpConstraint.obj
 0001:0006a330       ?setMinResponseThreshold@NpConstraint@physx@@UEAAXM@Z 000000018006b330 f   NpConstraint.obj
 0001:0006a4a0       ?getMinResponseThreshold@NpConstraint@physx@@UEBAMXZ 000000018006b4a0 f   NpConstraint.obj
 0001:0006a560       ?isValid@NpConstraint@physx@@UEBA_NXZ 000000018006b560 f   NpConstraint.obj
 0001:0006a630       ?getExternalReference@NpConstraint@physx@@UEAAPEAXAEAI@Z 000000018006b630 f   NpConstraint.obj
 0001:0006a6c0       ?updateConstants@NpConstraint@physx@@QEAAXXZ 000000018006b6c0 f   NpConstraint.obj
 0001:0006a740       ?comShift@NpConstraint@physx@@QEAAXPEAVPxRigidActor@2@@Z 000000018006b740 f   NpConstraint.obj
 0001:0006a7a0       ?actorDeleted@NpConstraint@physx@@QEAAXPEAVPxRigidActor@2@@Z 000000018006b7a0 f   NpConstraint.obj
 0001:0006a7c0       ?getNpScene@NpConstraint@physx@@QEBAPEAVNpScene@2@XZ 000000018006b7c0 f   NpConstraint.obj
 0001:0006a800       ?getSceneFromActors@NpConstraint@physx@@QEBAPEAVNpScene@2@XZ 000000018006b800 f   NpConstraint.obj
 0001:0006a8e0       ?getScbRigidObject@NpConstraint@physx@@SAPEAVRigidObject@Scb@2@PEAVPxRigidActor@2@@Z 000000018006b8e0 f   NpConstraint.obj
 0001:0006aed0       ??1PxConstraint@physx@@MEAA@XZ 000000018006bed0 f i NpConstraint.obj
 0001:0006aee0       ??_GNpConstraint@physx@@UEAAPEAXI@Z 000000018006bee0 f i NpConstraint.obj
 0001:0006aee0       ??_ENpConstraint@physx@@UEAAPEAXI@Z 000000018006bee0 f i NpConstraint.obj
 0001:0006afa0       ??_EPxConstraint@physx@@MEAAPEAXI@Z 000000018006bfa0 f i NpConstraint.obj
 0001:0006afa0       ??_GPxConstraint@physx@@MEAAPEAXI@Z 000000018006bfa0 f i NpConstraint.obj
 0001:0006afe0       ?getConcreteTypeName@PxConstraint@physx@@UEBAPEBDXZ 000000018006bfe0 f i NpConstraint.obj
 0001:0006aff0       ?isKindOf@PxConstraint@physx@@MEBA_NPEBD@Z 000000018006bff0 f i NpConstraint.obj
 0001:0006b050       ?isSubordinate@NpConstraint@physx@@UEBA_NXZ 000000018006c050 f i NpConstraint.obj
 0001:0006b060       ?requires@NpConstraint@physx@@UEAAXAEAVPxProcessPxBaseCallback@2@@Z 000000018006c060 f i NpConstraint.obj
 0001:0006b070       ?setBodies@Constraint@Scb@physx@@QEAAXPEAVRigidObject@23@0@Z 000000018006c070 f i NpConstraint.obj
 0001:0006b1d0       ?setBreakForce@Constraint@Scb@physx@@QEAAXMM@Z 000000018006c1d0 f i NpConstraint.obj
 0001:0006b2c0       ?setFlags@Constraint@Scb@physx@@QEAAXV?$PxFlags@W4Enum@PxConstraintFlag@physx@@G@3@@Z 000000018006c2c0 f i NpConstraint.obj
 0001:0006b3b0       ?setMinResponseThreshold@Constraint@Scb@physx@@QEAAXM@Z 000000018006c3b0 f i NpConstraint.obj
 0001:0006b480       ??0NpFactory@physx@@QEAA@XZ 000000018006c480 f   NpFactory.obj
 0001:0006c1f0       ??1NpFactory@physx@@EEAA@XZ 000000018006d1f0 f   NpFactory.obj
 0001:0006c620       ?createInstance@NpFactory@physx@@SAXXZ 000000018006d620 f   NpFactory.obj
 0001:0006c6b0       ?destroyInstance@NpFactory@physx@@SAXXZ 000000018006d6b0 f   NpFactory.obj
 0001:0006c6e0       ?registerArticulations@NpFactory@physx@@SAXXZ 000000018006d6e0 f   NpFactory.obj
 0001:0006c710       ?registerCloth@NpFactory@physx@@SAXXZ 000000018006d710 f   NpFactory.obj
 0001:0006c750       ?registerParticles@NpFactory@physx@@SAXXZ 000000018006d750 f   NpFactory.obj
 0001:0006c780       ?release@NpFactory@physx@@QEAAXXZ 000000018006d780 f   NpFactory.obj
 0001:0006c820       ?addCollection@NpFactory@physx@@QEAAXAEBVCollection@Cm@2@@Z 000000018006d820 f   NpFactory.obj
 0001:0006cb10       ?createRigidDynamic@NpFactory@physx@@QEAAPEAVPxRigidDynamic@2@AEBVPxTransform@2@@Z 000000018006db10 f   NpFactory.obj
 0001:0006cc10       ?addRigidDynamic@NpFactory@physx@@QEAAXPEAVPxRigidDynamic@2@_N@Z 000000018006dc10 f   NpFactory.obj
 0001:0006cc30       ?releaseRigidDynamicToPool@NpFactory@physx@@QEAAXAEAVNpRigidDynamic@2@@Z 000000018006dc30 f   NpFactory.obj
 0001:0006cca0       ?createRigidStatic@NpFactory@physx@@QEAAPEAVPxRigidStatic@2@AEBVPxTransform@2@@Z 000000018006dca0 f   NpFactory.obj
 0001:0006cda0       ?addRigidStatic@NpFactory@physx@@QEAAXPEAVPxRigidStatic@2@_N@Z 000000018006dda0 f   NpFactory.obj
 0001:0006cdc0       ?releaseRigidStaticToPool@NpFactory@physx@@QEAAXAEAVNpRigidStatic@2@@Z 000000018006ddc0 f   NpFactory.obj
 0001:0006ce30       ?createShape@NpFactory@physx@@QEAAPEAVNpShape@2@AEBVPxGeometry@2@V?$PxFlags@W4Enum@PxShapeFlag@physx@@E@2@PEBQEAVPxMaterial@2@G_N@Z 000000018006de30 f   NpFactory.obj
 0001:0006d210       ?addShape@NpFactory@physx@@QEAAXPEAVPxShape@2@_N@Z 000000018006e210 f   NpFactory.obj
 0001:0006d290       ?releaseShapeToPool@NpFactory@physx@@QEAAXAEAVNpShape@2@@Z 000000018006e290 f   NpFactory.obj
 0001:0006d300       ?getNbShapes@NpFactory@physx@@QEBAIXZ 000000018006e300 f   NpFactory.obj
 0001:0006d310       ?getShapes@NpFactory@physx@@QEBAIPEAPEAVPxShape@2@II@Z 000000018006e310 f   NpFactory.obj
 0001:0006d360       ?addConstraint@NpFactory@physx@@QEAAXPEAVPxConstraint@2@_N@Z 000000018006e360 f   NpFactory.obj
 0001:0006d3e0       ?createConstraint@NpFactory@physx@@QEAAPEAVPxConstraint@2@PEAVPxRigidActor@2@0AEAVPxConstraintConnector@2@AEBUPxConstraintShaderTable@2@I@Z 000000018006e3e0 f   NpFactory.obj
 0001:0006d550       ?releaseConstraintToPool@NpFactory@physx@@QEAAXAEAVNpConstraint@2@@Z 000000018006e550 f   NpFactory.obj
 0001:0006d5c0       ?addArticulation@NpFactory@physx@@QEAAXPEAVPxArticulation@2@_N@Z 000000018006e5c0 f   NpFactory.obj
 0001:0006d640       ?createArticulation@NpFactory@physx@@QEAAPEAVPxArticulation@2@XZ 000000018006e640 f   NpFactory.obj
 0001:0006d6f0       ?createNpArticulation@NpFactory@physx@@QEAAPEAVNpArticulation@2@XZ 000000018006e6f0 f   NpFactory.obj
 0001:0006d750       ?releaseArticulationToPool@NpFactory@physx@@QEAAXAEAVNpArticulation@2@@Z 000000018006e750 f   NpFactory.obj
 0001:0006d7c0       ?createNpArticulationLink@NpFactory@physx@@QEAAPEAVNpArticulationLink@2@AEAVNpArticulation@2@PEAV32@AEBVPxTransform@2@@Z 000000018006e7c0 f   NpFactory.obj
 0001:0006d850       ?releaseArticulationLinkToPool@NpFactory@physx@@QEAAXAEAVNpArticulationLink@2@@Z 000000018006e850 f   NpFactory.obj
 0001:0006d8c0       ?createArticulationLink@NpFactory@physx@@QEAAPEAVPxArticulationLink@2@AEAVNpArticulation@2@PEAVNpArticulationLink@2@AEBVPxTransform@2@@Z 000000018006e8c0 f   NpFactory.obj
 0001:0006d920       ?createNpArticulationJoint@NpFactory@physx@@QEAAPEAVNpArticulationJoint@2@AEAVNpArticulationLink@2@AEBVPxTransform@2@01@Z 000000018006e920 f   NpFactory.obj
 0001:0006d9b0       ?releaseArticulationJointToPool@NpFactory@physx@@QEAAXAEAVNpArticulationJoint@2@@Z 000000018006e9b0 f   NpFactory.obj
 0001:0006da20       ?addAggregate@NpFactory@physx@@QEAAXPEAVPxAggregate@2@_N@Z 000000018006ea20 f   NpFactory.obj
 0001:0006daa0       ?createAggregate@NpFactory@physx@@QEAAPEAVPxAggregate@2@I_N@Z 000000018006eaa0 f   NpFactory.obj
 0001:0006dba0       ?releaseAggregateToPool@NpFactory@physx@@QEAAXAEAVNpAggregate@2@@Z 000000018006eba0 f   NpFactory.obj
 0001:0006dc10       ?createNpParticleSystem@NpFactory@physx@@QEAAPEAVNpParticleSystem@2@I_N@Z 000000018006ec10 f   NpFactory.obj
 0001:0006dc90       ?releaseParticleSystemToPool@NpFactory@physx@@QEAAXAEAVNpParticleSystem@2@@Z 000000018006ec90 f   NpFactory.obj
 0001:0006dd00       ?createNpParticleFluid@NpFactory@physx@@QEAAPEAVNpParticleFluid@2@I_N@Z 000000018006ed00 f   NpFactory.obj
 0001:0006dd80       ?releaseParticleFluidToPool@NpFactory@physx@@QEAAXAEAVNpParticleFluid@2@@Z 000000018006ed80 f   NpFactory.obj
 0001:0006ddf0       ?addParticleSystem@NpFactory@physx@@QEAAXPEAVPxParticleSystem@2@_N@Z 000000018006edf0 f   NpFactory.obj
 0001:0006de10       ?createParticleSystem@NpFactory@physx@@QEAAPEAVPxParticleSystem@2@I_N@Z 000000018006ee10 f   NpFactory.obj
 0001:0006df00       ?addParticleFluid@NpFactory@physx@@QEAAXPEAVPxParticleFluid@2@_N@Z 000000018006ef00 f   NpFactory.obj
 0001:0006df20       ?createParticleFluid@NpFactory@physx@@QEAAPEAVPxParticleFluid@2@I_N@Z 000000018006ef20 f   NpFactory.obj
 0001:0006e010       ?createNpCloth@NpFactory@physx@@QEAAPEAVNpCloth@2@AEBVPxTransform@2@AEAVPxClothFabric@2@PEBUPxClothParticle@2@V?$PxFlags@W4Enum@PxClothFlag@physx@@G@2@@Z 000000018006f010 f   NpFactory.obj
 0001:0006e0b0       ?releaseClothToPool@NpFactory@physx@@QEAAXAEAVNpCloth@2@@Z 000000018006f0b0 f   NpFactory.obj
 0001:0006e120       ?addCloth@NpFactory@physx@@QEAAXPEAVPxCloth@2@_N@Z 000000018006f120 f   NpFactory.obj
 0001:0006e140       ?addClothFabric@NpFactory@physx@@QEAAXPEAVNpClothFabric@2@_N@Z 000000018006f140 f   NpFactory.obj
 0001:0006e270       ?createClothFabric@NpFactory@physx@@QEAAPEAVPxClothFabric@2@AEAVPxInputStream@2@@Z 000000018006f270 f   NpFactory.obj
 0001:0006e2f0       ?createClothFabric@NpFactory@physx@@QEAAPEAVPxClothFabric@2@AEBVPxClothFabricDesc@2@@Z 000000018006f2f0 f   NpFactory.obj
 0001:0006e370       ?createNpClothFabric@NpFactory@physx@@QEAAPEAVNpClothFabric@2@XZ 000000018006f370 f   NpFactory.obj
 0001:0006e3c0       ?releaseClothFabricToPool@NpFactory@physx@@QEAAXAEAVNpClothFabric@2@@Z 000000018006f3c0 f   NpFactory.obj
 0001:0006e430       ?removeClothFabric@NpFactory@physx@@QEAA_NAEAVPxClothFabric@2@@Z 000000018006f430 f   NpFactory.obj
 0001:0006e4c0       ?getNbClothFabrics@NpFactory@physx@@QEBAIXZ 000000018006f4c0 f   NpFactory.obj
 0001:0006e4d0       ?getClothFabrics@NpFactory@physx@@QEBAIPEAPEAVPxClothFabric@2@I@Z 000000018006f4d0 f   NpFactory.obj
 0001:0006e530       ?createCloth@NpFactory@physx@@QEAAPEAVPxCloth@2@AEBVPxTransform@2@AEAVPxClothFabric@2@PEBUPxClothParticle@2@V?$PxFlags@W4Enum@PxClothFlag@physx@@G@2@@Z 000000018006f530 f   NpFactory.obj
 0001:0006e700       ?createMaterial@NpFactory@physx@@QEAAPEAVPxMaterial@2@MMM@Z 000000018006f700 f   NpFactory.obj
 0001:0006e850       ?releaseMaterialToPool@NpFactory@physx@@QEAAXAEAVNpMaterial@2@@Z 000000018006f850 f   NpFactory.obj
 0001:0006e8c0       ?onActorRelease@NpFactory@physx@@QEAAXPEAVPxActor@2@@Z 000000018006f8c0 f   NpFactory.obj
 0001:0006e900       ?onConstraintRelease@NpFactory@physx@@QEAAXPEAVPxConstraint@2@@Z 000000018006f900 f   NpFactory.obj
 0001:0006e940       ?onAggregateRelease@NpFactory@physx@@QEAAXPEAVPxAggregate@2@@Z 000000018006f940 f   NpFactory.obj
 0001:0006e980       ?onArticulationRelease@NpFactory@physx@@QEAAXPEAVPxArticulation@2@@Z 000000018006f980 f   NpFactory.obj
 0001:0006e9c0       ?onShapeRelease@NpFactory@physx@@QEAAXPEAVPxShape@2@@Z 000000018006f9c0 f   NpFactory.obj
 0001:0006ea00       ?acquireConnectorArray@NpFactory@physx@@QEAAPEAVNpConnectorArray@2@XZ 000000018006fa00 f   NpFactory.obj
 0001:0006ea90       ?releaseConnectorArray@NpFactory@physx@@QEAAXPEAVNpConnectorArray@2@@Z 000000018006fa90 f   NpFactory.obj
 0001:0006eb20       ?setNpFactoryListener@NpFactory@physx@@QEAAXAEAVNpFactoryListener@2@@Z 000000018006fb20 f   NpFactory.obj
 0001:0006eb40       ?notifyReleaseTriangleMesh@NpFactory@physx@@EEAAXAEBVPxTriangleMesh@2@@Z 000000018006fb40 f   NpFactory.obj
 0001:0006eb80       ?notifyReleaseHeightField@NpFactory@physx@@EEAAXAEBVPxHeightField@2@@Z 000000018006fb80 f   NpFactory.obj
 0001:0006ebc0       ?notifyReleaseConvexMesh@NpFactory@physx@@EEAAXAEBVPxConvexMesh@2@@Z 000000018006fbc0 f   NpFactory.obj
 0001:0006ec00       ?NpDestroy@physx@@YAXAEAVBase@Scb@1@@Z 000000018006fc00 f   NpFactory.obj
 0001:00070ab0       ??0?$InlineArray@PEAX$0EA@VNamedAllocator@shdfnd@physx@@@shdfnd@physx@@QEAA@AEBVNamedAllocator@12@@Z 0000000180071ab0 f i NpFactory.obj
 0001:00070bd0       ??0NpConnectorArray@physx@@QEAA@XZ 0000000180071bd0 f i NpFactory.obj
 0001:00070d20       ??0NpPtrTableStorageManager@physx@@QEAA@XZ 0000000180071d20 f i NpFactory.obj
 0001:00070f40       ??1?$PoolBase@V?$PtrBlock@$03@NpPtrTableStorageManager@physx@@VNamedAllocator@shdfnd@3@@shdfnd@physx@@QEAA@XZ 0000000180071f40 f i NpFactory.obj
 0001:00071060       ??1?$PoolBase@V?$PtrBlock@$0BA@@NpPtrTableStorageManager@physx@@VNamedAllocator@shdfnd@3@@shdfnd@physx@@QEAA@XZ 0000000180072060 f i NpFactory.obj
 0001:00071180       ??1?$PoolBase@V?$PtrBlock@$0EA@@NpPtrTableStorageManager@physx@@VNamedAllocator@shdfnd@3@@shdfnd@physx@@QEAA@XZ 0000000180072180 f i NpFactory.obj
 0001:000712a0       ??1?$PoolBase@VNpAggregate@physx@@VNamedAllocator@shdfnd@2@@shdfnd@physx@@QEAA@XZ 00000001800722a0 f i NpFactory.obj
 0001:000713c0       ??1?$PoolBase@VNpArticulation@physx@@VNamedAllocator@shdfnd@2@@shdfnd@physx@@QEAA@XZ 00000001800723c0 f i NpFactory.obj
 0001:000714e0       ??1?$PoolBase@VNpArticulationJoint@physx@@VNamedAllocator@shdfnd@2@@shdfnd@physx@@QEAA@XZ 00000001800724e0 f i NpFactory.obj
 0001:00071600       ??1?$PoolBase@VNpArticulationLink@physx@@VNamedAllocator@shdfnd@2@@shdfnd@physx@@QEAA@XZ 0000000180072600 f i NpFactory.obj
 0001:00071720       ??1?$PoolBase@VNpCloth@physx@@VNamedAllocator@shdfnd@2@@shdfnd@physx@@QEAA@XZ 0000000180072720 f i NpFactory.obj
 0001:00071840       ??1?$PoolBase@VNpClothFabric@physx@@VNamedAllocator@shdfnd@2@@shdfnd@physx@@QEAA@XZ 0000000180072840 f i NpFactory.obj
 0001:00071960       ??1?$PoolBase@VNpConnectorArray@physx@@VNamedAllocator@shdfnd@2@@shdfnd@physx@@QEAA@XZ 0000000180072960 f i NpFactory.obj
 0001:00071a80       ??1?$PoolBase@VNpConstraint@physx@@VNamedAllocator@shdfnd@2@@shdfnd@physx@@QEAA@XZ 0000000180072a80 f i NpFactory.obj
 0001:00071ba0       ??1?$PoolBase@VNpMaterial@physx@@VNamedAllocator@shdfnd@2@@shdfnd@physx@@QEAA@XZ 0000000180072ba0 f i NpFactory.obj
 0001:00071cc0       ??1?$PoolBase@VNpParticleFluid@physx@@VNamedAllocator@shdfnd@2@@shdfnd@physx@@QEAA@XZ 0000000180072cc0 f i NpFactory.obj
 0001:00071de0       ??1?$PoolBase@VNpParticleSystem@physx@@VNamedAllocator@shdfnd@2@@shdfnd@physx@@QEAA@XZ 0000000180072de0 f i NpFactory.obj
 0001:00071f00       ??1?$PoolBase@VNpRigidDynamic@physx@@VNamedAllocator@shdfnd@2@@shdfnd@physx@@QEAA@XZ 0000000180072f00 f i NpFactory.obj
 0001:00072020       ??1?$PoolBase@VNpRigidStatic@physx@@VNamedAllocator@shdfnd@2@@shdfnd@physx@@QEAA@XZ 0000000180073020 f i NpFactory.obj
 0001:00072140       ??1?$PoolBase@VNpShape@physx@@VNamedAllocator@shdfnd@2@@shdfnd@physx@@QEAA@XZ 0000000180073140 f i NpFactory.obj
 0001:00072260       ??1NpPtrTableStorageManager@physx@@UEAA@XZ 0000000180073260 f i NpFactory.obj
 0001:000722f0       ??1PtrTableStorageManager@Cm@physx@@MEAA@XZ 00000001800732f0 f i NpFactory.obj
 0001:00072300       ??_ENpFactory@physx@@EEAAPEAXI@Z 0000000180073300 f i NpFactory.obj
 0001:00072300       ??_GNpFactory@physx@@EEAAPEAXI@Z 0000000180073300 f i NpFactory.obj
 0001:00072380       ??_GNpPtrTableStorageManager@physx@@UEAAPEAXI@Z 0000000180073380 f i NpFactory.obj
 0001:00072380       ??_ENpPtrTableStorageManager@physx@@UEAAPEAXI@Z 0000000180073380 f i NpFactory.obj
 0001:00072400       ??_GPtrTableStorageManager@Cm@physx@@MEAAPEAXI@Z 0000000180073400 f i NpFactory.obj
 0001:00072400       ??_EPtrTableStorageManager@Cm@physx@@MEAAPEAXI@Z 0000000180073400 f i NpFactory.obj
 0001:00072b80       ?allocate@?$Array@PEAXV?$InlineAllocator@$0CAA@VNamedAllocator@shdfnd@physx@@@shdfnd@physx@@@shdfnd@physx@@IEAAPEAPEAXI@Z 0000000180073b80 f i NpFactory.obj
 0001:00072c20       ?allocate@?$PoolBase@V?$PtrBlock@$0EA@@NpPtrTableStorageManager@physx@@VNamedAllocator@shdfnd@3@@shdfnd@physx@@QEAAPEAV?$PtrBlock@$0EA@@NpPtrTableStorageManager@3@XZ 0000000180073c20 f i NpFactory.obj
 0001:00072cb0       ?allocate@?$PoolBase@VNpAggregate@physx@@VNamedAllocator@shdfnd@2@@shdfnd@physx@@QEAAPEAVNpAggregate@3@XZ 0000000180073cb0 f i NpFactory.obj
 0001:00072d40       ?allocate@?$PoolBase@VNpArticulation@physx@@VNamedAllocator@shdfnd@2@@shdfnd@physx@@QEAAPEAVNpArticulation@3@XZ 0000000180073d40 f i NpFactory.obj
 0001:00072df0       ?allocate@?$PoolBase@VNpArticulationJoint@physx@@VNamedAllocator@shdfnd@2@@shdfnd@physx@@QEAAPEAVNpArticulationJoint@3@XZ 0000000180073df0 f i NpFactory.obj
 0001:00072ea0       ?allocate@?$PoolBase@VNpArticulationLink@physx@@VNamedAllocator@shdfnd@2@@shdfnd@physx@@QEAAPEAVNpArticulationLink@3@XZ 0000000180073ea0 f i NpFactory.obj
 0001:00072f40       ?allocate@?$PoolBase@VNpCloth@physx@@VNamedAllocator@shdfnd@2@@shdfnd@physx@@QEAAPEAVNpCloth@3@XZ 0000000180073f40 f i NpFactory.obj
 0001:00072ff0       ?allocate@?$PoolBase@VNpConstraint@physx@@VNamedAllocator@shdfnd@2@@shdfnd@physx@@QEAAPEAVNpConstraint@3@XZ 0000000180073ff0 f i NpFactory.obj
 0001:000730b0       ?allocate@?$PoolBase@VNpMaterial@physx@@VNamedAllocator@shdfnd@2@@shdfnd@physx@@QEAAPEAVNpMaterial@3@XZ 00000001800740b0 f i NpFactory.obj
 0001:00073140       ?allocate@?$PoolBase@VNpParticleFluid@physx@@VNamedAllocator@shdfnd@2@@shdfnd@physx@@QEAAPEAVNpParticleFluid@3@XZ 0000000180074140 f i NpFactory.obj
 0001:000731e0       ?allocate@?$PoolBase@VNpParticleSystem@physx@@VNamedAllocator@shdfnd@2@@shdfnd@physx@@QEAAPEAVNpParticleSystem@3@XZ 00000001800741e0 f i NpFactory.obj
 0001:00073280       ?allocate@?$PoolBase@VNpRigidDynamic@physx@@VNamedAllocator@shdfnd@2@@shdfnd@physx@@QEAAPEAVNpRigidDynamic@3@XZ 0000000180074280 f i NpFactory.obj
 0001:00073310       ?allocate@?$PoolBase@VNpRigidStatic@physx@@VNamedAllocator@shdfnd@2@@shdfnd@physx@@QEAAPEAVNpRigidStatic@3@XZ 0000000180074310 f i NpFactory.obj
 0001:000733c0       ?allocate@?$PoolBase@VNpShape@physx@@VNamedAllocator@shdfnd@2@@shdfnd@physx@@QEAAPEAVNpShape@3@XZ 00000001800743c0 f i NpFactory.obj
 0001:00073460       ?allocate@?$ReflectionAllocator@PEAVPxActor@physx@@@shdfnd@physx@@QEAAPEAX_KPEBDH@Z 0000000180074460 f i NpFactory.obj
 0001:00073520       ?allocate@?$ReflectionAllocator@PEAVPxAggregate@physx@@@shdfnd@physx@@QEAAPEAX_KPEBDH@Z 0000000180074520 f i NpFactory.obj
 0001:000735e0       ?allocate@?$ReflectionAllocator@PEAVPxArticulation@physx@@@shdfnd@physx@@QEAAPEAX_KPEBDH@Z 00000001800745e0 f i NpFactory.obj
 0001:000736a0       ?allocate@?$ReflectionAllocator@PEAVPxConstraint@physx@@@shdfnd@physx@@QEAAPEAX_KPEBDH@Z 00000001800746a0 f i NpFactory.obj
 0001:00073760       ?allocate@NpPtrTableStorageManager@physx@@UEAAPEAPEAXI@Z 0000000180074760 f i NpFactory.obj
 0001:00073880       ?allocateSlab@?$PoolBase@V?$PtrBlock@$03@NpPtrTableStorageManager@physx@@VNamedAllocator@shdfnd@3@@shdfnd@physx@@IEAAXXZ 0000000180074880 f i NpFactory.obj
 0001:00073970       ?allocateSlab@?$PoolBase@V?$PtrBlock@$0BA@@NpPtrTableStorageManager@physx@@VNamedAllocator@shdfnd@3@@shdfnd@physx@@IEAAXXZ 0000000180074970 f i NpFactory.obj
 0001:00073a60       ?allocateSlab@?$PoolBase@V?$PtrBlock@$0EA@@NpPtrTableStorageManager@physx@@VNamedAllocator@shdfnd@3@@shdfnd@physx@@IEAAXXZ 0000000180074a60 f i NpFactory.obj
 0001:00073b50       ?allocateSlab@?$PoolBase@VNpAggregate@physx@@VNamedAllocator@shdfnd@2@@shdfnd@physx@@IEAAXXZ 0000000180074b50 f i NpFactory.obj
 0001:00073c40       ?allocateSlab@?$PoolBase@VNpArticulation@physx@@VNamedAllocator@shdfnd@2@@shdfnd@physx@@IEAAXXZ 0000000180074c40 f i NpFactory.obj
 0001:00073d30       ?allocateSlab@?$PoolBase@VNpArticulationJoint@physx@@VNamedAllocator@shdfnd@2@@shdfnd@physx@@IEAAXXZ 0000000180074d30 f i NpFactory.obj
 0001:00073e20       ?allocateSlab@?$PoolBase@VNpArticulationLink@physx@@VNamedAllocator@shdfnd@2@@shdfnd@physx@@IEAAXXZ 0000000180074e20 f i NpFactory.obj
 0001:00073f10       ?allocateSlab@?$PoolBase@VNpCloth@physx@@VNamedAllocator@shdfnd@2@@shdfnd@physx@@IEAAXXZ 0000000180074f10 f i NpFactory.obj
 0001:00074000       ?allocateSlab@?$PoolBase@VNpClothFabric@physx@@VNamedAllocator@shdfnd@2@@shdfnd@physx@@IEAAXXZ 0000000180075000 f i NpFactory.obj
 0001:000740f0       ?allocateSlab@?$PoolBase@VNpConnectorArray@physx@@VNamedAllocator@shdfnd@2@@shdfnd@physx@@IEAAXXZ 00000001800750f0 f i NpFactory.obj
 0001:000741e0       ?allocateSlab@?$PoolBase@VNpConstraint@physx@@VNamedAllocator@shdfnd@2@@shdfnd@physx@@IEAAXXZ 00000001800751e0 f i NpFactory.obj
 0001:000742d0       ?allocateSlab@?$PoolBase@VNpMaterial@physx@@VNamedAllocator@shdfnd@2@@shdfnd@physx@@IEAAXXZ 00000001800752d0 f i NpFactory.obj
 0001:000743c0       ?allocateSlab@?$PoolBase@VNpParticleFluid@physx@@VNamedAllocator@shdfnd@2@@shdfnd@physx@@IEAAXXZ 00000001800753c0 f i NpFactory.obj
 0001:000744b0       ?allocateSlab@?$PoolBase@VNpParticleSystem@physx@@VNamedAllocator@shdfnd@2@@shdfnd@physx@@IEAAXXZ 00000001800754b0 f i NpFactory.obj
 0001:000745a0       ?allocateSlab@?$PoolBase@VNpRigidDynamic@physx@@VNamedAllocator@shdfnd@2@@shdfnd@physx@@IEAAXXZ 00000001800755a0 f i NpFactory.obj
 0001:00074690       ?allocateSlab@?$PoolBase@VNpRigidStatic@physx@@VNamedAllocator@shdfnd@2@@shdfnd@physx@@IEAAXXZ 0000000180075690 f i NpFactory.obj
 0001:00074780       ?allocateSlab@?$PoolBase@VNpShape@physx@@VNamedAllocator@shdfnd@2@@shdfnd@physx@@IEAAXXZ 0000000180075780 f i NpFactory.obj
 0001:00074870       ?canReuse@NpPtrTableStorageManager@physx@@UEAA_NII@Z 0000000180075870 f i NpFactory.obj
 0001:000748e0       ?construct@?$PoolBase@V?$PtrBlock@$03@NpPtrTableStorageManager@physx@@VNamedAllocator@shdfnd@3@@shdfnd@physx@@QEAAPEAV?$PtrBlock@$03@NpPtrTableStorageManager@3@XZ 00000001800758e0 f i NpFactory.obj
 0001:00074960       ?construct@?$PoolBase@V?$PtrBlock@$0BA@@NpPtrTableStorageManager@physx@@VNamedAllocator@shdfnd@3@@shdfnd@physx@@QEAAPEAV?$PtrBlock@$0BA@@NpPtrTableStorageManager@3@XZ 0000000180075960 f i NpFactory.obj
 0001:000749f0       ?construct@?$PoolBase@VNpClothFabric@physx@@VNamedAllocator@shdfnd@2@@shdfnd@physx@@QEAAPEAVNpClothFabric@3@XZ 00000001800759f0 f i NpFactory.obj
 0001:00074a80       ?create@?$HashBase@PEAVPxActor@physx@@PEAV12@U?$Hash@PEAVPxActor@physx@@@shdfnd@2@UGetKey@?$HashSetBase@PEAVPxActor@physx@@U?$Hash@PEAVPxActor@physx@@@shdfnd@2@VNonTrackingAllocator@42@$0A@@internal@42@VNonTrackingAllocator@42@$0A@@internal@shdfnd@physx@@QEAAPEAPEAVPxActor@4@AEBQEAV54@AEA_N@Z 0000000180075a80 f i NpFactory.obj
 0001:00074c70       ?create@?$HashBase@PEAVPxAggregate@physx@@PEAV12@U?$Hash@PEAVPxAggregate@physx@@@shdfnd@2@UGetKey@?$HashSetBase@PEAVPxAggregate@physx@@U?$Hash@PEAVPxAggregate@physx@@@shdfnd@2@VNonTrackingAllocator@42@$0A@@internal@42@VNonTrackingAllocator@42@$0A@@internal@shdfnd@physx@@QEAAPEAPEAVPxAggregate@4@AEBQEAV54@AEA_N@Z 0000000180075c70 f i NpFactory.obj
 0001:00074e60       ?create@?$HashBase@PEAVPxArticulation@physx@@PEAV12@U?$Hash@PEAVPxArticulation@physx@@@shdfnd@2@UGetKey@?$HashSetBase@PEAVPxArticulation@physx@@U?$Hash@PEAVPxArticulation@physx@@@shdfnd@2@VNonTrackingAllocator@42@$0A@@internal@42@VNonTrackingAllocator@42@$0A@@internal@shdfnd@physx@@QEAAPEAPEAVPxArticulation@4@AEBQEAV54@AEA_N@Z 0000000180075e60 f i NpFactory.obj
 0001:00075050       ?create@?$HashBase@PEAVPxConstraint@physx@@PEAV12@U?$Hash@PEAVPxConstraint@physx@@@shdfnd@2@UGetKey@?$HashSetBase@PEAVPxConstraint@physx@@U?$Hash@PEAVPxConstraint@physx@@@shdfnd@2@VNonTrackingAllocator@42@$0A@@internal@42@VNonTrackingAllocator@42@$0A@@internal@shdfnd@physx@@QEAAPEAPEAVPxConstraint@4@AEBQEAV54@AEA_N@Z 0000000180076050 f i NpFactory.obj
 0001:00075240       ?create@?$HashBase@PEAVPxShape@physx@@PEAV12@U?$Hash@PEAVPxShape@physx@@@shdfnd@2@UGetKey@?$HashSetBase@PEAVPxShape@physx@@U?$Hash@PEAVPxShape@physx@@@shdfnd@2@VNonTrackingAllocator@42@$00@internal@42@VNonTrackingAllocator@42@$00@internal@shdfnd@physx@@QEAAPEAPEAVPxShape@4@AEBQEAV54@AEA_N@Z 0000000180076240 f i NpFactory.obj
 0001:00075440       ?deallocate@NpPtrTableStorageManager@physx@@UEAAXPEAPEAXI@Z 0000000180076440 f i NpFactory.obj
 0001:00075540       ?disposeElements@?$PoolBase@V?$PtrBlock@$03@NpPtrTableStorageManager@physx@@VNamedAllocator@shdfnd@3@@shdfnd@physx@@IEAAXXZ 0000000180076540 f i NpFactory.obj
 0001:00075720       ?disposeElements@?$PoolBase@V?$PtrBlock@$0BA@@NpPtrTableStorageManager@physx@@VNamedAllocator@shdfnd@3@@shdfnd@physx@@IEAAXXZ 0000000180076720 f i NpFactory.obj
 0001:00075900       ?disposeElements@?$PoolBase@V?$PtrBlock@$0EA@@NpPtrTableStorageManager@physx@@VNamedAllocator@shdfnd@3@@shdfnd@physx@@IEAAXXZ 0000000180076900 f i NpFactory.obj
 0001:00075ae0       ?disposeElements@?$PoolBase@VNpAggregate@physx@@VNamedAllocator@shdfnd@2@@shdfnd@physx@@IEAAXXZ 0000000180076ae0 f i NpFactory.obj
 0001:00075d20       ?disposeElements@?$PoolBase@VNpArticulation@physx@@VNamedAllocator@shdfnd@2@@shdfnd@physx@@IEAAXXZ 0000000180076d20 f i NpFactory.obj
 0001:00075f60       ?disposeElements@?$PoolBase@VNpArticulationJoint@physx@@VNamedAllocator@shdfnd@2@@shdfnd@physx@@IEAAXXZ 0000000180076f60 f i NpFactory.obj
 0001:000761a0       ?disposeElements@?$PoolBase@VNpArticulationLink@physx@@VNamedAllocator@shdfnd@2@@shdfnd@physx@@IEAAXXZ 00000001800771a0 f i NpFactory.obj
 0001:000763e0       ?disposeElements@?$PoolBase@VNpCloth@physx@@VNamedAllocator@shdfnd@2@@shdfnd@physx@@IEAAXXZ 00000001800773e0 f i NpFactory.obj
 0001:00076620       ?disposeElements@?$PoolBase@VNpClothFabric@physx@@VNamedAllocator@shdfnd@2@@shdfnd@physx@@IEAAXXZ 0000000180077620 f i NpFactory.obj
 0001:00076860       ?disposeElements@?$PoolBase@VNpConnectorArray@physx@@VNamedAllocator@shdfnd@2@@shdfnd@physx@@IEAAXXZ 0000000180077860 f i NpFactory.obj
 0001:00076ac0       ?disposeElements@?$PoolBase@VNpConstraint@physx@@VNamedAllocator@shdfnd@2@@shdfnd@physx@@IEAAXXZ 0000000180077ac0 f i NpFactory.obj
 0001:00076d00       ?disposeElements@?$PoolBase@VNpMaterial@physx@@VNamedAllocator@shdfnd@2@@shdfnd@physx@@IEAAXXZ 0000000180077d00 f i NpFactory.obj
 0001:00076f40       ?disposeElements@?$PoolBase@VNpParticleFluid@physx@@VNamedAllocator@shdfnd@2@@shdfnd@physx@@IEAAXXZ 0000000180077f40 f i NpFactory.obj
 0001:00077180       ?disposeElements@?$PoolBase@VNpParticleSystem@physx@@VNamedAllocator@shdfnd@2@@shdfnd@physx@@IEAAXXZ 0000000180078180 f i NpFactory.obj
 0001:000773c0       ?disposeElements@?$PoolBase@VNpRigidDynamic@physx@@VNamedAllocator@shdfnd@2@@shdfnd@physx@@IEAAXXZ 00000001800783c0 f i NpFactory.obj
 0001:00077600       ?disposeElements@?$PoolBase@VNpRigidStatic@physx@@VNamedAllocator@shdfnd@2@@shdfnd@physx@@IEAAXXZ 0000000180078600 f i NpFactory.obj
 0001:00077840       ?disposeElements@?$PoolBase@VNpShape@physx@@VNamedAllocator@shdfnd@2@@shdfnd@physx@@IEAAXXZ 0000000180078840 f i NpFactory.obj
 0001:00077a80       ?erase@?$HashBase@PEAVPxActor@physx@@PEAV12@U?$Hash@PEAVPxActor@physx@@@shdfnd@2@UGetKey@?$HashSetBase@PEAVPxActor@physx@@U?$Hash@PEAVPxActor@physx@@@shdfnd@2@VNonTrackingAllocator@42@$0A@@internal@42@VNonTrackingAllocator@42@$0A@@internal@shdfnd@physx@@QEAA_NAEBQEAVPxActor@4@@Z 0000000180078a80 f i NpFactory.obj
 0001:00077b90       ?erase@?$HashBase@PEAVPxAggregate@physx@@PEAV12@U?$Hash@PEAVPxAggregate@physx@@@shdfnd@2@UGetKey@?$HashSetBase@PEAVPxAggregate@physx@@U?$Hash@PEAVPxAggregate@physx@@@shdfnd@2@VNonTrackingAllocator@42@$0A@@internal@42@VNonTrackingAllocator@42@$0A@@internal@shdfnd@physx@@QEAA_NAEBQEAVPxAggregate@4@@Z 0000000180078b90 f i NpFactory.obj
 0001:00077ca0       ?erase@?$HashBase@PEAVPxArticulation@physx@@PEAV12@U?$Hash@PEAVPxArticulation@physx@@@shdfnd@2@UGetKey@?$HashSetBase@PEAVPxArticulation@physx@@U?$Hash@PEAVPxArticulation@physx@@@shdfnd@2@VNonTrackingAllocator@42@$0A@@internal@42@VNonTrackingAllocator@42@$0A@@internal@shdfnd@physx@@QEAA_NAEBQEAVPxArticulation@4@@Z 0000000180078ca0 f i NpFactory.obj
 0001:00077db0       ?erase@?$HashBase@PEAVPxConstraint@physx@@PEAV12@U?$Hash@PEAVPxConstraint@physx@@@shdfnd@2@UGetKey@?$HashSetBase@PEAVPxConstraint@physx@@U?$Hash@PEAVPxConstraint@physx@@@shdfnd@2@VNonTrackingAllocator@42@$0A@@internal@42@VNonTrackingAllocator@42@$0A@@internal@shdfnd@physx@@QEAA_NAEBQEAVPxConstraint@4@@Z 0000000180078db0 f i NpFactory.obj
 0001:00077ec0       ?erase@?$HashBase@PEAVPxShape@physx@@PEAV12@U?$Hash@PEAVPxShape@physx@@@shdfnd@2@UGetKey@?$HashSetBase@PEAVPxShape@physx@@U?$Hash@PEAVPxShape@physx@@@shdfnd@2@VNonTrackingAllocator@42@$00@internal@42@VNonTrackingAllocator@42@$00@internal@shdfnd@physx@@QEAA_NAEBQEAVPxShape@4@@Z 0000000180078ec0 f i NpFactory.obj
 0001:00077fd0       ?freeListAdd@?$HashBase@PEAVPxActor@physx@@PEAV12@U?$Hash@PEAVPxActor@physx@@@shdfnd@2@UGetKey@?$HashSetBase@PEAVPxActor@physx@@U?$Hash@PEAVPxActor@physx@@@shdfnd@2@VNonTrackingAllocator@42@$0A@@internal@42@VNonTrackingAllocator@42@$0A@@internal@shdfnd@physx@@AEAAXII@Z 0000000180078fd0 f i NpFactory.obj
 0001:00078110       ?freeListAdd@?$HashBase@PEAVPxAggregate@physx@@PEAV12@U?$Hash@PEAVPxAggregate@physx@@@shdfnd@2@UGetKey@?$HashSetBase@PEAVPxAggregate@physx@@U?$Hash@PEAVPxAggregate@physx@@@shdfnd@2@VNonTrackingAllocator@42@$0A@@internal@42@VNonTrackingAllocator@42@$0A@@internal@shdfnd@physx@@AEAAXII@Z 0000000180079110 f i NpFactory.obj
 0001:00078250       ?freeListAdd@?$HashBase@PEAVPxArticulation@physx@@PEAV12@U?$Hash@PEAVPxArticulation@physx@@@shdfnd@2@UGetKey@?$HashSetBase@PEAVPxArticulation@physx@@U?$Hash@PEAVPxArticulation@physx@@@shdfnd@2@VNonTrackingAllocator@42@$0A@@internal@42@VNonTrackingAllocator@42@$0A@@internal@shdfnd@physx@@AEAAXII@Z 0000000180079250 f i NpFactory.obj
 0001:00078390       ?freeListAdd@?$HashBase@PEAVPxConstraint@physx@@PEAV12@U?$Hash@PEAVPxConstraint@physx@@@shdfnd@2@UGetKey@?$HashSetBase@PEAVPxConstraint@physx@@U?$Hash@PEAVPxConstraint@physx@@@shdfnd@2@VNonTrackingAllocator@42@$0A@@internal@42@VNonTrackingAllocator@42@$0A@@internal@shdfnd@physx@@AEAAXII@Z 0000000180079390 f i NpFactory.obj
 0001:000784d0       ?getMaterial@Shape@Scb@physx@@QEBAPEAVPxMaterial@3@I@Z 00000001800794d0 f i NpFactory.obj
 0001:00078590       ?growAndPushBack@?$Array@PEAVNpClothFabric@physx@@VNamedAllocator@shdfnd@2@@shdfnd@physx@@IEAAAEAPEAVNpClothFabric@3@AEBQEAV43@@Z 0000000180079590 f i NpFactory.obj
 0001:000786a0       ?growAndPushBack@?$Array@PEAVPxActor@physx@@V?$ReflectionAllocator@PEAVPxActor@physx@@@shdfnd@2@@shdfnd@physx@@IEAAAEAPEAVPxActor@3@AEBQEAV43@@Z 00000001800796a0 f i NpFactory.obj
 0001:000787c0       ?growAndPushBack@?$Array@PEAVPxAggregate@physx@@V?$ReflectionAllocator@PEAVPxAggregate@physx@@@shdfnd@2@@shdfnd@physx@@IEAAAEAPEAVPxAggregate@3@AEBQEAV43@@Z 00000001800797c0 f i NpFactory.obj
 0001:000788e0       ?growAndPushBack@?$Array@PEAVPxArticulation@physx@@V?$ReflectionAllocator@PEAVPxArticulation@physx@@@shdfnd@2@@shdfnd@physx@@IEAAAEAPEAVPxArticulation@3@AEBQEAV43@@Z 00000001800798e0 f i NpFactory.obj
 0001:00078a00       ?growAndPushBack@?$Array@PEAVPxConstraint@physx@@V?$ReflectionAllocator@PEAVPxConstraint@physx@@@shdfnd@2@@shdfnd@physx@@IEAAAEAPEAVPxConstraint@3@AEBQEAV43@@Z 0000000180079a00 f i NpFactory.obj
 0001:00078b20       ?growAndPushBack@?$Array@PEAXV?$InlineAllocator@$0CAA@VNamedAllocator@shdfnd@physx@@@shdfnd@physx@@@shdfnd@physx@@IEAAAEAPEAXAEBQEAX@Z 0000000180079b20 f i NpFactory.obj
 0001:00078c30       ?isValid@PxBoxGeometry@physx@@QEBA_NXZ 0000000180079c30 f i NpFactory.obj
 0001:00078cc0       ?isValid@PxCapsuleGeometry@physx@@QEBA_NXZ 0000000180079cc0 f i NpFactory.obj
 0001:00078d30       ?isValid@PxConvexMeshGeometry@physx@@QEBA_NXZ 0000000180079d30 f i NpFactory.obj
 0001:00078e00       ?isValid@PxHeightFieldGeometry@physx@@QEBA_NXZ 0000000180079e00 f i NpFactory.obj
 0001:00078eb0       ?isValid@PxSphereGeometry@physx@@QEBA_NXZ 0000000180079eb0 f i NpFactory.obj
 0001:00078f00       ?isValid@PxTriangleMeshGeometry@physx@@QEBA_NXZ 0000000180079f00 f i NpFactory.obj
 0001:00078fc0       ?isValidForTriangleMesh@PxMeshScale@physx@@QEBA_NXZ 0000000180079fc0 f i NpFactory.obj
 0001:00079020       ?recreate@?$Array@GV?$InlineAllocator@$07VNamedAllocator@shdfnd@physx@@@shdfnd@physx@@@shdfnd@physx@@IEAAXI@Z 000000018007a020 f i NpFactory.obj
 0001:00079120       ?recreate@?$Array@PEAVNpClothFabric@physx@@VNamedAllocator@shdfnd@2@@shdfnd@physx@@IEAAXI@Z 000000018007a120 f i NpFactory.obj
 0001:00079200       ?recreate@?$Array@PEAVPxActor@physx@@V?$ReflectionAllocator@PEAVPxActor@physx@@@shdfnd@2@@shdfnd@physx@@IEAAXI@Z 000000018007a200 f i NpFactory.obj
 0001:000792f0       ?recreate@?$Array@PEAVPxAggregate@physx@@V?$ReflectionAllocator@PEAVPxAggregate@physx@@@shdfnd@2@@shdfnd@physx@@IEAAXI@Z 000000018007a2f0 f i NpFactory.obj
 0001:000793e0       ?recreate@?$Array@PEAVPxArticulation@physx@@V?$ReflectionAllocator@PEAVPxArticulation@physx@@@shdfnd@2@@shdfnd@physx@@IEAAXI@Z 000000018007a3e0 f i NpFactory.obj
 0001:000794d0       ?recreate@?$Array@PEAVPxConstraint@physx@@V?$ReflectionAllocator@PEAVPxConstraint@physx@@@shdfnd@2@@shdfnd@physx@@IEAAXI@Z 000000018007a4d0 f i NpFactory.obj
 0001:000795c0       ?replaceWithLast@?$HashBase@PEAVPxShape@physx@@PEAV12@U?$Hash@PEAVPxShape@physx@@@shdfnd@2@UGetKey@?$HashSetBase@PEAVPxShape@physx@@U?$Hash@PEAVPxShape@physx@@@shdfnd@2@VNonTrackingAllocator@42@$00@internal@42@VNonTrackingAllocator@42@$00@internal@shdfnd@physx@@AEAAXI@Z 000000018007a5c0 f i NpFactory.obj
 0001:000796c0       ?reserveInternal@?$HashBase@PEAVPxActor@physx@@PEAV12@U?$Hash@PEAVPxActor@physx@@@shdfnd@2@UGetKey@?$HashSetBase@PEAVPxActor@physx@@U?$Hash@PEAVPxActor@physx@@@shdfnd@2@VNonTrackingAllocator@42@$0A@@internal@42@VNonTrackingAllocator@42@$0A@@internal@shdfnd@physx@@AEAAXI@Z 000000018007a6c0 f i NpFactory.obj
 0001:00079a60       ?reserveInternal@?$HashBase@PEAVPxAggregate@physx@@PEAV12@U?$Hash@PEAVPxAggregate@physx@@@shdfnd@2@UGetKey@?$HashSetBase@PEAVPxAggregate@physx@@U?$Hash@PEAVPxAggregate@physx@@@shdfnd@2@VNonTrackingAllocator@42@$0A@@internal@42@VNonTrackingAllocator@42@$0A@@internal@shdfnd@physx@@AEAAXI@Z 000000018007aa60 f i NpFactory.obj
 0001:00079e00       ?reserveInternal@?$HashBase@PEAVPxArticulation@physx@@PEAV12@U?$Hash@PEAVPxArticulation@physx@@@shdfnd@2@UGetKey@?$HashSetBase@PEAVPxArticulation@physx@@U?$Hash@PEAVPxArticulation@physx@@@shdfnd@2@VNonTrackingAllocator@42@$0A@@internal@42@VNonTrackingAllocator@42@$0A@@internal@shdfnd@physx@@AEAAXI@Z 000000018007ae00 f i NpFactory.obj
 0001:0007a1a0       ?reserveInternal@?$HashBase@PEAVPxConstraint@physx@@PEAV12@U?$Hash@PEAVPxConstraint@physx@@@shdfnd@2@UGetKey@?$HashSetBase@PEAVPxConstraint@physx@@U?$Hash@PEAVPxConstraint@physx@@@shdfnd@2@VNonTrackingAllocator@42@$0A@@internal@42@VNonTrackingAllocator@42@$0A@@internal@shdfnd@physx@@AEAAXI@Z 000000018007b1a0 f i NpFactory.obj
 0001:0007a540       ?reserveInternal@?$HashBase@PEAVPxShape@physx@@PEAV12@U?$Hash@PEAVPxShape@physx@@@shdfnd@2@UGetKey@?$HashSetBase@PEAVPxShape@physx@@U?$Hash@PEAVPxShape@physx@@@shdfnd@2@VNonTrackingAllocator@42@$00@internal@42@VNonTrackingAllocator@42@$00@internal@shdfnd@physx@@AEAAXI@Z 000000018007b540 f i NpFactory.obj
 0001:0007a7b0       ?resize@?$Array@GV?$InlineAllocator@$07VNamedAllocator@shdfnd@physx@@@shdfnd@physx@@@shdfnd@physx@@QEAAXIAEBG@Z 000000018007b7b0 f i NpFactory.obj
 0001:0007a870       ?onRefCountZero@NpMaterial@physx@@UEAAXXZ 000000018007b870 f   NpMaterial.obj
 0001:0007a8d0       ?resolveReferences@NpMaterial@physx@@UEAAXAEAVPxDeserializationContext@2@@Z 000000018007b8d0 f   NpMaterial.obj
 0001:0007a8f0       ?createObject@NpMaterial@physx@@SAPEAV12@AEAPEAEAEAVPxDeserializationContext@2@@Z 000000018007b8f0 f   NpMaterial.obj
 0001:0007a980       ??0NpMaterial@physx@@QEAA@AEBVMaterialCore@Sc@1@@Z 000000018007b980 f   NpMaterial.obj
 0001:0007aa20       ??1NpMaterial@physx@@UEAA@XZ 000000018007ba20 f   NpMaterial.obj
 0001:0007aa80       ?release@NpMaterial@physx@@UEAAXXZ 000000018007ba80 f   NpMaterial.obj
 0001:0007aac0       ?acquireReference@NpMaterial@physx@@UEAAXXZ 000000018007bac0 f   NpMaterial.obj
 0001:0007aae0       ?getReferenceCount@NpMaterial@physx@@UEBAIXZ 000000018007bae0 f   NpMaterial.obj
 0001:0007aaf0       ?setDynamicFriction@NpMaterial@physx@@UEAAXM@Z 000000018007baf0 f   NpMaterial.obj
 0001:0007aba0       ?getDynamicFriction@NpMaterial@physx@@UEBAMXZ 000000018007bba0 f   NpMaterial.obj
 0001:0007abb0       ?setStaticFriction@NpMaterial@physx@@UEAAXM@Z 000000018007bbb0 f   NpMaterial.obj
 0001:0007ac60       ?getStaticFriction@NpMaterial@physx@@UEBAMXZ 000000018007bc60 f   NpMaterial.obj
 0001:0007ac70       ?setRestitution@NpMaterial@physx@@UEAAXM@Z 000000018007bc70 f   NpMaterial.obj
 0001:0007adb0       ?getRestitution@NpMaterial@physx@@UEBAMXZ 000000018007bdb0 f   NpMaterial.obj
 0001:0007adc0       ?setFlag@NpMaterial@physx@@UEAAXW4Enum@PxMaterialFlag@2@_N@Z 000000018007bdc0 f   NpMaterial.obj
 0001:0007ae00       ?setFlags@NpMaterial@physx@@UEAAXV?$PxFlags@W4Enum@PxMaterialFlag@physx@@G@2@@Z 000000018007be00 f   NpMaterial.obj
 0001:0007ae20       ?getFlags@NpMaterial@physx@@UEBA?AV?$PxFlags@W4Enum@PxMaterialFlag@physx@@G@2@XZ 000000018007be20 f   NpMaterial.obj
 0001:0007ae40       ?setFrictionCombineMode@NpMaterial@physx@@UEAAXW4Enum@PxCombineMode@2@@Z 000000018007be40 f   NpMaterial.obj
 0001:0007ae60       ?getFrictionCombineMode@NpMaterial@physx@@UEBA?AW4Enum@PxCombineMode@2@XZ 000000018007be60 f   NpMaterial.obj
 0001:0007ae70       ?setRestitutionCombineMode@NpMaterial@physx@@UEAAXW4Enum@PxCombineMode@2@@Z 000000018007be70 f   NpMaterial.obj
 0001:0007ae90       ?getRestitutionCombineMode@NpMaterial@physx@@UEBA?AW4Enum@PxCombineMode@2@XZ 000000018007be90 f   NpMaterial.obj
 0001:0007b030       ??1PxMaterial@physx@@MEAA@XZ 000000018007c030 f i NpMaterial.obj
 0001:0007b040       ??_ENpMaterial@physx@@WBI@EAAPEAXI@Z 000000018007c040 f i NpMaterial.obj
 0001:0007b050       ??_ENpMaterial@physx@@UEAAPEAXI@Z 000000018007c050 f i NpMaterial.obj
 0001:0007b050       ??_GNpMaterial@physx@@UEAAPEAXI@Z 000000018007c050 f i NpMaterial.obj
 0001:0007b110       ??_EPxMaterial@physx@@MEAAPEAXI@Z 000000018007c110 f i NpMaterial.obj
 0001:0007b110       ??_GPxMaterial@physx@@MEAAPEAXI@Z 000000018007c110 f i NpMaterial.obj
 0001:0007b150       ?getConcreteTypeName@PxMaterial@physx@@UEBAPEBDXZ 000000018007c150 f i NpMaterial.obj
 0001:0007b160       ?isKindOf@PxMaterial@physx@@MEBA_NPEBD@Z 000000018007c160 f i NpMaterial.obj
 0001:0007b1c0       ?requires@NpMaterial@physx@@UEAAXAEAVPxProcessPxBaseCallback@2@@Z 000000018007c1c0 f i NpMaterial.obj
 0001:0007b1d0       PxGetPhysicsBinaryMetaData 000000018007c1d0 f   NpMetaData.obj
 0001:0007b390       ?getBinaryMetaData_PxBase@physx@@YAXAEAVPxOutputStream@1@@Z 000000018007c390 f   NpMetaData.obj
 0001:0007b4e0       ?getBinaryMetaData@RefCountable@Cm@physx@@SAXAEAVPxOutputStream@3@@Z 000000018007c4e0 f   NpMetaData.obj
 0001:0007b580       ?getBinaryMetaData@NpMaterial@physx@@SAXAEAVPxOutputStream@2@@Z 000000018007c580 f   NpMetaData.obj
 0001:0007b6e0       ?getBinaryMetaData@NpShape@physx@@SAXAEAVPxOutputStream@2@@Z 000000018007c6e0 f   NpMetaData.obj
 0001:0007b970       ?getBinaryMetaData@NpShapeManager@physx@@SAXAEAVPxOutputStream@2@@Z 000000018007c970 f   NpMetaData.obj
 0001:0007baa0       ?getBinaryMetaData@NpConstraint@physx@@SAXAEAVPxOutputStream@2@@Z 000000018007caa0 f   NpMetaData.obj
 0001:0007bc80       ?getBinaryMetaData@NpConnector@physx@@SAXAEAVPxOutputStream@2@@Z 000000018007cc80 f   NpMetaData.obj
 0001:0007bdb0       ?getBinaryMetaData@NpConnectorArray@physx@@SAXAEAVPxOutputStream@2@@Z 000000018007cdb0 f   NpMetaData.obj
 0001:0007bfe0       ?getBinaryMetaData@NpActor@physx@@SAXAEAVPxOutputStream@2@@Z 000000018007cfe0 f   NpMetaData.obj
 0001:0007c0d0       ?getBinaryMetaData@NpRigidStatic@physx@@SAXAEAVPxOutputStream@2@@Z 000000018007d0d0 f   NpMetaData.obj
 0001:0007c330       ?getBinaryMetaData@NpRigidDynamic@physx@@SAXAEAVPxOutputStream@2@@Z 000000018007d330 f   NpMetaData.obj
 0001:0007c590       ?getBinaryMetaData@NpArticulationLinkArray@physx@@SAXAEAVPxOutputStream@2@@Z 000000018007d590 f   NpMetaData.obj
 0001:0007c7c0       ?getBinaryMetaData@NpArticulationLink@physx@@SAXAEAVPxOutputStream@2@@Z 000000018007d7c0 f   NpMetaData.obj
 0001:0007cb20       ?getBinaryMetaData@NpArticulation@physx@@SAXAEAVPxOutputStream@2@@Z 000000018007db20 f   NpMetaData.obj
 0001:0007cd40       ?getBinaryMetaData@NpArticulationJoint@physx@@SAXAEAVPxOutputStream@2@@Z 000000018007dd40 f   NpMetaData.obj
 0001:0007cea0       ?getBinaryMetaData@NpClothFabric@physx@@SAXAEAVPxOutputStream@2@@Z 000000018007dea0 f   NpMetaData.obj
 0001:0007cfc0       ?getBinaryMetaData@NpCloth@physx@@SAXAEAVPxOutputStream@2@@Z 000000018007dfc0 f   NpMetaData.obj
 0001:0007d1b0       ?getBinaryMetaData@NpAggregate@physx@@SAXAEAVPxOutputStream@2@@Z 000000018007e1b0 f   NpMetaData.obj
 0001:0007d360       ?getBinaryMetaData@NpParticleSystem@physx@@SAXAEAVPxOutputStream@2@@Z 000000018007e360 f   NpMetaData.obj
 0001:0007d4c0       ?getBinaryMetaData@NpParticleFluid@physx@@SAXAEAVPxOutputStream@2@@Z 000000018007e4c0 f   NpMetaData.obj
 0001:0007f650       PxRegisterArticulations    0000000180080650 f   NpPhysics.obj
 0001:0007f670       PxRegisterHeightFields     0000000180080670 f   NpPhysics.obj
 0001:0007f6d0       PxRegisterLegacyHeightFields 00000001800806d0 f   NpPhysics.obj
 0001:0007f730       PxRegisterCloth            0000000180080730 f   NpPhysics.obj
 0001:0007f7a0       PxRegisterParticles        00000001800807a0 f   NpPhysics.obj
 0001:0007f7c0       PxCreateBasePhysics        00000001800807c0 f   NpPhysics.obj
 0001:0007f7d0       PxGetPhysics               00000001800807d0 f   NpPhysics.obj
 0001:0007f7e0       ??0NpPhysics@physx@@AEAA@AEBVPxTolerancesScale@1@AEBUPxvOffsetTable@1@_NPEAVPsPvd@pvdsdk@1@@Z 00000001800807e0 f   NpPhysics.obj
 0001:0007fbb0       ??1NpPhysics@physx@@EEAA@XZ 0000000180080bb0 f   NpPhysics.obj
 0001:0007ff10       ?createInstance@NpPhysics@physx@@SAPEAV12@IAEAVPxFoundation@2@AEBVPxTolerancesScale@2@_NPEAVPsPvd@pvdsdk@2@@Z 0000000180080f10 f   NpPhysics.obj
 0001:00080110       ?releaseInstance@NpPhysics@physx@@SAIXZ 0000000180081110 f   NpPhysics.obj
 0001:000801a0       ?release@NpPhysics@physx@@UEAAXXZ 00000001800811a0 f   NpPhysics.obj
 0001:000801b0       ?createScene@NpPhysics@physx@@UEAAPEAVPxScene@2@AEBVPxSceneDesc@2@@Z 00000001800811b0 f   NpPhysics.obj
 0001:00080460       ?releaseSceneInternal@NpPhysics@physx@@QEAAXAEAVPxScene@2@@Z 0000000180081460 f   NpPhysics.obj
 0001:000804f0       ?getNbScenes@NpPhysics@physx@@UEBAIXZ 00000001800814f0 f   NpPhysics.obj
 0001:00080530       ?getScenes@NpPhysics@physx@@UEBAIPEAPEAVPxScene@2@II@Z 0000000180081530 f   NpPhysics.obj
 0001:000805c0       ?createRigidStatic@NpPhysics@physx@@UEAAPEAVPxRigidStatic@2@AEBVPxTransform@2@@Z 00000001800815c0 f   NpPhysics.obj
 0001:000806e0       ?createRigidDynamic@NpPhysics@physx@@UEAAPEAVPxRigidDynamic@2@AEBVPxTransform@2@@Z 00000001800816e0 f   NpPhysics.obj
 0001:00080800       ?createArticulation@NpPhysics@physx@@UEAAPEAVPxArticulation@2@XZ 0000000180081800 f   NpPhysics.obj
 0001:00080820       ?createConstraint@NpPhysics@physx@@UEAAPEAVPxConstraint@2@PEAVPxRigidActor@2@0AEAVPxConstraintConnector@2@AEBUPxConstraintShaderTable@2@I@Z 0000000180081820 f   NpPhysics.obj
 0001:00080840       ?createAggregate@NpPhysics@physx@@UEAAPEAVPxAggregate@2@I_N@Z 0000000180081840 f   NpPhysics.obj
 0001:00080860       ?createShape@NpPhysics@physx@@UEAAPEAVPxShape@2@AEBVPxGeometry@2@PEBQEAVPxMaterial@2@G_NV?$PxFlags@W4Enum@PxShapeFlag@physx@@E@2@@Z 0000000180081860 f   NpPhysics.obj
 0001:00080970       ?getNbShapes@NpPhysics@physx@@UEBAIXZ 0000000180081970 f   NpPhysics.obj
 0001:00080990       ?getShapes@NpPhysics@physx@@UEBAIPEAPEAVPxShape@2@II@Z 0000000180081990 f   NpPhysics.obj
 0001:000809b0       ?createParticleSystem@NpPhysics@physx@@UEAAPEAVPxParticleSystem@2@I_N@Z 00000001800819b0 f   NpPhysics.obj
 0001:000809d0       ?createParticleFluid@NpPhysics@physx@@UEAAPEAVPxParticleFluid@2@I_N@Z 00000001800819d0 f   NpPhysics.obj
 0001:000809f0       ?createCloth@NpPhysics@physx@@UEAAPEAVPxCloth@2@AEBVPxTransform@2@AEAVPxClothFabric@2@PEBUPxClothParticle@2@V?$PxFlags@W4Enum@PxClothFlag@physx@@G@2@@Z 00000001800819f0 f   NpPhysics.obj
 0001:00080b50       ?createMaterial@NpPhysics@physx@@UEAAPEAVPxMaterial@2@MMM@Z 0000000180081b50 f   NpPhysics.obj
 0001:00080b80       ?getNbMaterials@NpPhysics@physx@@UEBAIXZ 0000000180081b80 f   NpPhysics.obj
 0001:00080bc0       ?getMaterials@NpPhysics@physx@@UEBAIPEAPEAVPxMaterial@2@II@Z 0000000180081bc0 f   NpPhysics.obj
 0001:00080c80       ?createTriangleMesh@NpPhysics@physx@@UEAAPEAVPxTriangleMesh@2@AEAVPxInputStream@2@@Z 0000000180081c80 f   NpPhysics.obj
 0001:00080ca0       ?getNbTriangleMeshes@NpPhysics@physx@@UEBAIXZ 0000000180081ca0 f   NpPhysics.obj
 0001:00080cc0       ?getTriangleMeshes@NpPhysics@physx@@UEBAIPEAPEAVPxTriangleMesh@2@II@Z 0000000180081cc0 f   NpPhysics.obj
 0001:00080ce0       ?createHeightField@NpPhysics@physx@@UEAAPEAVPxHeightField@2@AEAVPxInputStream@2@@Z 0000000180081ce0 f   NpPhysics.obj
 0001:00080d00       ?getNbHeightFields@NpPhysics@physx@@UEBAIXZ 0000000180081d00 f   NpPhysics.obj
 0001:00080d20       ?getHeightFields@NpPhysics@physx@@UEBAIPEAPEAVPxHeightField@2@II@Z 0000000180081d20 f   NpPhysics.obj
 0001:00080d40       ?createConvexMesh@NpPhysics@physx@@UEAAPEAVPxConvexMesh@2@AEAVPxInputStream@2@@Z 0000000180081d40 f   NpPhysics.obj
 0001:00080d60       ?getNbConvexMeshes@NpPhysics@physx@@UEBAIXZ 0000000180081d60 f   NpPhysics.obj
 0001:00080d80       ?getConvexMeshes@NpPhysics@physx@@UEBAIPEAPEAVPxConvexMesh@2@II@Z 0000000180081d80 f   NpPhysics.obj
 0001:00080da0       ?createClothFabric@NpPhysics@physx@@UEAAPEAVPxClothFabric@2@AEAVPxInputStream@2@@Z 0000000180081da0 f   NpPhysics.obj
 0001:00080dc0       ?createClothFabric@NpPhysics@physx@@UEAAPEAVPxClothFabric@2@AEBVPxClothFabricDesc@2@@Z 0000000180081dc0 f   NpPhysics.obj
 0001:00080de0       ?getNbClothFabrics@NpPhysics@physx@@UEBAIXZ 0000000180081de0 f   NpPhysics.obj
 0001:00080e00       ?getClothFabrics@NpPhysics@physx@@UEBAIPEAPEAVPxClothFabric@2@I@Z 0000000180081e00 f   NpPhysics.obj
 0001:00080e20       ?registerCloth@NpPhysics@physx@@QEAAXXZ 0000000180081e20 f   NpPhysics.obj
 0001:00080e90       ?registerPhysXIndicatorGpuClient@NpPhysics@physx@@QEAAXXZ 0000000180081e90 f   NpPhysics.obj
 0001:00080ee0       ?unregisterPhysXIndicatorGpuClient@NpPhysics@physx@@QEAAXXZ 0000000180081ee0 f   NpPhysics.obj
 0001:00080f40       ?createPruningStructure@NpPhysics@physx@@UEAAPEAVPxPruningStructure@2@PEBQEAVPxRigidActor@2@I@Z 0000000180081f40 f   NpPhysics.obj
 0001:00081030       ?getTolerancesScale@NpPhysics@physx@@UEBAAEBVPxTolerancesScale@2@XZ 0000000180082030 f   NpPhysics.obj
 0001:00081040       ?getFoundation@NpPhysics@physx@@UEAAAEAVPxFoundation@2@XZ 0000000180082040 f   NpPhysics.obj
 0001:00081050       ?lockScene@NpPhysics@physx@@QEAA_NXZ 0000000180082050 f   NpPhysics.obj
 0001:00081070       ?unlockScene@NpPhysics@physx@@QEAA_NXZ 0000000180082070 f   NpPhysics.obj
 0001:00081090       ?registerDeletionListener@NpPhysics@physx@@UEAAXAEAVPxDeletionListener@2@AEBV?$PxFlags@W4Enum@PxDeletionEventFlag@physx@@E@2@_N@Z 0000000180082090 f   NpPhysics.obj
 0001:00081270       ?unregisterDeletionListener@NpPhysics@physx@@UEAAXAEAVPxDeletionListener@2@@Z 0000000180082270 f   NpPhysics.obj
 0001:000813c0       ?registerDeletionListenerObjects@NpPhysics@physx@@UEAAXAEAVPxDeletionListener@2@PEBQEBVPxBase@2@I@Z 00000001800823c0 f   NpPhysics.obj
 0001:00081570       ?unregisterDeletionListenerObjects@NpPhysics@physx@@UEAAXAEAVPxDeletionListener@2@PEBQEBVPxBase@2@I@Z 0000000180082570 f   NpPhysics.obj
 0001:000816f0       ?notifyDeletionListeners@NpPhysics@physx@@QEAAXPEBVPxBase@2@PEAXW4Enum@PxDeletionEventFlag@2@@Z 00000001800826f0 f   NpPhysics.obj
 0001:000817b0       ?removeMaterialFromTable@NpPhysics@physx@@QEAAXAEAVNpMaterial@2@@Z 00000001800827b0 f   NpPhysics.obj
 0001:00081880       ?updateMaterial@NpPhysics@physx@@QEAAXAEAVNpMaterial@2@@Z 0000000180082880 f   NpPhysics.obj
 0001:00081900       ?sendMaterialTable@NpPhysics@physx@@QEAA_NAEAVNpScene@2@@Z 0000000180082900 f   NpPhysics.obj
 0001:00081980       ?addMaterial@NpPhysics@physx@@QEAAPEAVNpMaterial@2@PEAV32@@Z 0000000180082980 f   NpPhysics.obj
 0001:00081a40       ?initOffsetTables@NpPhysics@physx@@SAXAEAUPxvOffsetTable@2@@Z 0000000180082a40 f   NpPhysics.obj
 0001:00081bd0       PxAddCollectionToPhysics   0000000180082bd0 f   NpPhysics.obj
 0001:00082550       ??0NpDelListenerEntry@NpPhysics@physx@@QEAA@AEBV?$PxFlags@W4Enum@PxDeletionEventFlag@physx@@E@2@_N@Z 0000000180083550 f i NpPhysics.obj
 0001:000825d0       ??0NpMaterialManager@physx@@QEAA@XZ 00000001800835d0 f i NpPhysics.obj
 0001:000826b0       ??1GuMeshFactoryListener@physx@@MEAA@XZ 00000001800836b0 f i NpPhysics.obj
 0001:000826c0       ??1PxPhysics@physx@@UEAA@XZ 00000001800836c0 f i NpPhysics.obj
 0001:000826d0       ??1PxPhysicsInsertionCallback@physx@@MEAA@XZ 00000001800836d0 f i NpPhysics.obj
 0001:000826e0       ??_EGuMeshFactoryListener@physx@@MEAAPEAXI@Z 00000001800836e0 f i NpPhysics.obj
 0001:000826e0       ??_GGuMeshFactoryListener@physx@@MEAAPEAXI@Z 00000001800836e0 f i NpPhysics.obj
 0001:00082720       ??_EMeshDeletionListener@NpPhysics@physx@@UEAAPEAXI@Z 0000000180083720 f i NpPhysics.obj
 0001:00082720       ??_GMeshDeletionListener@NpPhysics@physx@@UEAAPEAXI@Z 0000000180083720 f i NpPhysics.obj
 0001:00082760       ??_ENpPhysics@physx@@EEAAPEAXI@Z 0000000180083760 f i NpPhysics.obj
 0001:00082760       ??_GNpPhysics@physx@@EEAAPEAXI@Z 0000000180083760 f i NpPhysics.obj
 0001:000827e0       ??_ENpPhysicsInsertionCallback@physx@@UEAAPEAXI@Z 00000001800837e0 f i NpPhysics.obj
 0001:000827e0       ??_GNpPhysicsInsertionCallback@physx@@UEAAPEAXI@Z 00000001800837e0 f i NpPhysics.obj
 0001:00082820       ??_EPxPhysics@physx@@UEAAPEAXI@Z 0000000180083820 f i NpPhysics.obj
 0001:00082820       ??_GPxPhysics@physx@@UEAAPEAXI@Z 0000000180083820 f i NpPhysics.obj
 0001:00082860       ??_GPxPhysicsInsertionCallback@physx@@MEAAPEAXI@Z 0000000180083860 f i NpPhysics.obj
 0001:00082860       ??_EPxPhysicsInsertionCallback@physx@@MEAAPEAXI@Z 0000000180083860 f i NpPhysics.obj
 0001:000828a0       ?buildObjectFromData@NpPhysicsInsertionCallback@physx@@UEAAPEAVPxBase@2@W4Enum@PxConcreteType@2@PEAX@Z 00000001800838a0 f i NpPhysics.obj
 0001:00082950       ?create@?$HashBase@PEBVPxBase@physx@@PEBV12@U?$Hash@PEBVPxBase@physx@@@shdfnd@2@UGetKey@?$HashSetBase@PEBVPxBase@physx@@U?$Hash@PEBVPxBase@physx@@@shdfnd@2@VNonTrackingAllocator@42@$0A@@internal@42@VNonTrackingAllocator@42@$0A@@internal@shdfnd@physx@@QEAAPEAPEBVPxBase@4@AEBQEBV54@AEA_N@Z 0000000180083950 f i NpPhysics.obj
 0001:00082b40       ?create@?$HashBase@V?$Pair@QEAVPxDeletionListener@physx@@PEAUNpDelListenerEntry@NpPhysics@2@@shdfnd@physx@@PEAVPxDeletionListener@3@U?$Hash@PEAVPxDeletionListener@physx@@@23@UGetKey@?$HashMapBase@PEAVPxDeletionListener@physx@@PEAUNpDelListenerEntry@NpPhysics@2@U?$Hash@PEAVPxDeletionListener@physx@@@shdfnd@2@VNonTrackingAllocator@62@@internal@23@VNonTrackingAllocator@23@$00@internal@shdfnd@physx@@QEAAPEAV?$Pair@QEAVPxDeletionListener@physx@@PEAUNpDelListenerEntry@NpPhysics@2@@34@AEBQEAVPxDeletionListener@4@AEA_N@Z 0000000180083b40 f i NpPhysics.obj
 0001:00082d40       ?erase@?$HashBase@PEBVPxBase@physx@@PEBV12@U?$Hash@PEBVPxBase@physx@@@shdfnd@2@UGetKey@?$HashSetBase@PEBVPxBase@physx@@U?$Hash@PEBVPxBase@physx@@@shdfnd@2@VNonTrackingAllocator@42@$0A@@internal@42@VNonTrackingAllocator@42@$0A@@internal@shdfnd@physx@@QEAA_NAEBQEBVPxBase@4@@Z 0000000180083d40 f i NpPhysics.obj
 0001:00082e50       ?erase@?$HashBase@V?$Pair@QEAVPxDeletionListener@physx@@PEAUNpDelListenerEntry@NpPhysics@2@@shdfnd@physx@@PEAVPxDeletionListener@3@U?$Hash@PEAVPxDeletionListener@physx@@@23@UGetKey@?$HashMapBase@PEAVPxDeletionListener@physx@@PEAUNpDelListenerEntry@NpPhysics@2@U?$Hash@PEAVPxDeletionListener@physx@@@shdfnd@2@VNonTrackingAllocator@62@@internal@23@VNonTrackingAllocator@23@$00@internal@shdfnd@physx@@QEAA_NAEBQEAVPxDeletionListener@4@@Z 0000000180083e50 f i NpPhysics.obj
 0001:00082f70       ?find@?$HashBase@PEBVPxBase@physx@@PEBV12@U?$Hash@PEBVPxBase@physx@@@shdfnd@2@UGetKey@?$HashSetBase@PEBVPxBase@physx@@U?$Hash@PEBVPxBase@physx@@@shdfnd@2@VNonTrackingAllocator@42@$0A@@internal@42@VNonTrackingAllocator@42@$0A@@internal@shdfnd@physx@@QEBAPEBQEBVPxBase@4@AEBQEBV54@@Z 0000000180083f70 f i NpPhysics.obj
 0001:00083040       ?freeListAdd@?$HashBase@PEBVPxBase@physx@@PEBV12@U?$Hash@PEBVPxBase@physx@@@shdfnd@2@UGetKey@?$HashSetBase@PEBVPxBase@physx@@U?$Hash@PEBVPxBase@physx@@@shdfnd@2@VNonTrackingAllocator@42@$0A@@internal@42@VNonTrackingAllocator@42@$0A@@internal@shdfnd@physx@@AEAAXII@Z 0000000180084040 f i NpPhysics.obj
 0001:00083180       ?getNpPhysicsGpu@NpPhysics@physx@@UEAAAEAVNpPhysicsGpu@2@XZ 0000000180084180 f i NpPhysics.obj
 0001:00083190       ?getPhysicsInsertionCallback@NpPhysics@physx@@UEAAAEAVPxPhysicsInsertionCallback@2@XZ 0000000180084190 f i NpPhysics.obj
 0001:000831a0       ?growAndPushBack@?$Array@IVNamedAllocator@shdfnd@physx@@@shdfnd@physx@@IEAAAEAIAEBI@Z 00000001800841a0 f i NpPhysics.obj
 0001:000832b0       ?growAndPushBack@?$Array@PEAVNpScene@physx@@VNamedAllocator@shdfnd@2@@shdfnd@physx@@IEAAAEAPEAVNpScene@3@AEBQEAV43@@Z 00000001800842b0 f i NpPhysics.obj
 0001:000833c0       ?isValid@PxSceneDesc@physx@@QEBA_NXZ 00000001800843c0 f i NpPhysics.obj
 0001:00083660       ?onGuMeshFactoryBufferRelease@MeshDeletionListener@NpPhysics@physx@@UEAAXPEBVPxBase@3@G@Z 0000000180084660 f i NpPhysics.obj
 0001:00083680       ?releaseMaterials@NpMaterialManager@physx@@QEAAXXZ 0000000180084680 f i NpPhysics.obj
 0001:000837a0       ?replaceWithLast@?$HashBase@V?$Pair@QEAVPxDeletionListener@physx@@PEAUNpDelListenerEntry@NpPhysics@2@@shdfnd@physx@@PEAVPxDeletionListener@3@U?$Hash@PEAVPxDeletionListener@physx@@@23@UGetKey@?$HashMapBase@PEAVPxDeletionListener@physx@@PEAUNpDelListenerEntry@NpPhysics@2@U?$Hash@PEAVPxDeletionListener@physx@@@shdfnd@2@VNonTrackingAllocator@62@@internal@23@VNonTrackingAllocator@23@$00@internal@shdfnd@physx@@AEAAXI@Z 00000001800847a0 f i NpPhysics.obj
 0001:000838d0       ?reserveInternal@?$HashBase@PEBVPxBase@physx@@PEBV12@U?$Hash@PEBVPxBase@physx@@@shdfnd@2@UGetKey@?$HashSetBase@PEBVPxBase@physx@@U?$Hash@PEBVPxBase@physx@@@shdfnd@2@VNonTrackingAllocator@42@$0A@@internal@42@VNonTrackingAllocator@42@$0A@@internal@shdfnd@physx@@AEAAXI@Z 00000001800848d0 f i NpPhysics.obj
 0001:00083c70       ?reserveInternal@?$HashBase@V?$Pair@QEAVPxDeletionListener@physx@@PEAUNpDelListenerEntry@NpPhysics@2@@shdfnd@physx@@PEAVPxDeletionListener@3@U?$Hash@PEAVPxDeletionListener@physx@@@23@UGetKey@?$HashMapBase@PEAVPxDeletionListener@physx@@PEAUNpDelListenerEntry@NpPhysics@2@U?$Hash@PEAVPxDeletionListener@physx@@@shdfnd@2@VNonTrackingAllocator@62@@internal@23@VNonTrackingAllocator@23@$00@internal@shdfnd@physx@@AEAAXI@Z 0000000180084c70 f i NpPhysics.obj
 0001:00083ee0       ?resize@NpMaterialManager@physx@@AEAAXXZ 0000000180084ee0 f i NpPhysics.obj
 0001:00083fe0       ??0PvdSceneQueryCollector@Vd@physx@@QEAA@AEAVScene@Scb@2@_N@Z 0000000180084fe0 f   NpPvdSceneQueryCollector.obj
 0001:00084300       ?release@PvdSceneQueryCollector@Vd@physx@@QEAAXXZ 0000000180085300 f   NpPvdSceneQueryCollector.obj
 0001:000843b0       ?raycast@PvdSceneQueryCollector@Vd@physx@@QEAAXAEBVPxVec3@3@0MPEBUPxRaycastHit@3@IAEBUPxQueryFilterData@3@_N@Z 00000001800853b0 f   NpPvdSceneQueryCollector.obj
 0001:000844f0       ?sweep@PvdSceneQueryCollector@Vd@physx@@QEAAXAEBVPxGeometry@3@AEBVPxTransform@3@AEBVPxVec3@3@MPEBUPxSweepHit@3@IAEBUPxQueryFilterData@3@_N@Z 00000001800854f0 f   NpPvdSceneQueryCollector.obj
 0001:000848f0       ?overlapMultiple@PvdSceneQueryCollector@Vd@physx@@QEAAXAEBVPxGeometry@3@AEBVPxTransform@3@PEBUPxOverlapHit@3@IAEBUPxQueryFilterData@3@@Z 00000001800858f0 f   NpPvdSceneQueryCollector.obj
 0001:00084c20       ?collectAllBatchedHits@PvdSceneQueryCollector@Vd@physx@@QEAAXPEBU?$PxBatchQueryResult@UPxRaycastHit@physx@@@3@IIPEBU?$PxBatchQueryResult@UPxOverlapHit@physx@@@3@IIPEBU?$PxBatchQueryResult@UPxSweepHit@physx@@@3@II@Z 0000000180085c20 f   NpPvdSceneQueryCollector.obj
 0001:00085f00       ?copy@?$Array@UPvdOverlap@Vd@physx@@VNamedAllocator@shdfnd@3@@shdfnd@physx@@KAXPEAUPvdOverlap@Vd@3@0PEBU453@@Z 0000000180086f00 f i NpPvdSceneQueryCollector.obj
 0001:00086260       ?copy@?$Array@UPvdRaycast@Vd@physx@@VNamedAllocator@shdfnd@3@@shdfnd@physx@@KAXPEAUPvdRaycast@Vd@3@0PEBU453@@Z 0000000180087260 f i NpPvdSceneQueryCollector.obj
 0001:00086570       ?copy@?$Array@UPvdSqHit@Vd@physx@@VNamedAllocator@shdfnd@3@@shdfnd@physx@@KAXPEAUPvdSqHit@Vd@3@0PEBU453@@Z 0000000180087570 f i NpPvdSceneQueryCollector.obj
 0001:000868c0       ?copy@?$Array@UPvdSweep@Vd@physx@@VNamedAllocator@shdfnd@3@@shdfnd@physx@@KAXPEAUPvdSweep@Vd@3@0PEBU453@@Z 00000001800878c0 f i NpPvdSceneQueryCollector.obj
 0001:00086bd0       ?copy@?$Array@VPxTransform@physx@@VNamedAllocator@shdfnd@2@@shdfnd@physx@@KAXPEAVPxTransform@3@0PEBV43@@Z 0000000180087bd0 f i NpPvdSceneQueryCollector.obj
 0001:00086dd0       ?growAndPushBack@?$Array@UPvdOverlap@Vd@physx@@VNamedAllocator@shdfnd@3@@shdfnd@physx@@IEAAAEAUPvdOverlap@Vd@3@AEBU453@@Z 0000000180087dd0 f i NpPvdSceneQueryCollector.obj
 0001:00086f30       ?growAndPushBack@?$Array@UPvdRaycast@Vd@physx@@VNamedAllocator@shdfnd@3@@shdfnd@physx@@IEAAAEAUPvdRaycast@Vd@3@AEBU453@@Z 0000000180087f30 f i NpPvdSceneQueryCollector.obj
 0001:00087090       ?growAndPushBack@?$Array@UPvdSqHit@Vd@physx@@VNamedAllocator@shdfnd@3@@shdfnd@physx@@IEAAAEAUPvdSqHit@Vd@3@AEBU453@@Z 0000000180088090 f i NpPvdSceneQueryCollector.obj
 0001:00087200       ?growAndPushBack@?$Array@UPvdSweep@Vd@physx@@VNamedAllocator@shdfnd@3@@shdfnd@physx@@IEAAAEAUPvdSweep@Vd@3@AEBU453@@Z 0000000180088200 f i NpPvdSceneQueryCollector.obj
 0001:00087350       ?growAndPushBack@?$Array@UPxFilterData@physx@@VNamedAllocator@shdfnd@2@@shdfnd@physx@@IEAAAEAUPxFilterData@3@AEBU43@@Z 0000000180088350 f i NpPvdSceneQueryCollector.obj
 0001:00087460       ?growAndPushBack@?$Array@VPxGeometryHolder@physx@@VNamedAllocator@shdfnd@2@@shdfnd@physx@@IEAAAEAVPxGeometryHolder@3@AEBV43@@Z 0000000180088460 f i NpPvdSceneQueryCollector.obj
 0001:000875d0       ?growAndPushBack@?$Array@VPxTransform@physx@@VNamedAllocator@shdfnd@2@@shdfnd@physx@@IEAAAEAVPxTransform@3@AEBV43@@Z 00000001800885d0 f i NpPvdSceneQueryCollector.obj
 0001:00087700       ??0NpReadCheck@physx@@QEAA@PEBVNpScene@1@PEBD@Z 0000000180088700 f   NpReadCheck.obj
 0001:000877f0       ??1NpReadCheck@physx@@QEAA@XZ 00000001800887f0 f   NpReadCheck.obj
 0001:00087900       ?NpRigidDynamicGetShapes@physx@@YAIAEAVBody@Scb@1@AEAPEBQEAX@Z 0000000180088900 f   NpRigidDynamic.obj
 0001:00087940       ?requires@NpRigidDynamic@physx@@UEAAXAEAVPxProcessPxBaseCallback@2@@Z 0000000180088940 f   NpRigidDynamic.obj
 0001:000879b0       ?createObject@NpRigidDynamic@physx@@SAPEAV12@AEAPEAEAEAVPxDeserializationContext@2@@Z 00000001800889b0 f   NpRigidDynamic.obj
 0001:00087a40       ??1NpRigidDynamic@physx@@UEAA@XZ 0000000180088a40 f   NpRigidDynamic.obj
 0001:00087aa0       ?release@NpRigidDynamic@physx@@UEAAXXZ 0000000180088aa0 f   NpRigidDynamic.obj
 0001:00087bb0       ?setGlobalPose@NpRigidDynamic@physx@@UEAAXAEBVPxTransform@2@_N@Z 0000000180088bb0 f   NpRigidDynamic.obj
 0001:00088110       ?setKinematicTarget@NpRigidDynamic@physx@@UEAAXAEBVPxTransform@2@@Z 0000000180089110 f   NpRigidDynamic.obj
 0001:00088630       ?getKinematicTarget@NpRigidDynamic@physx@@UEBA_NAEAVPxTransform@2@@Z 0000000180089630 f   NpRigidDynamic.obj
 0001:00088b10       ?setCMassLocalPose@NpRigidDynamic@physx@@UEAAXAEBVPxTransform@2@@Z 0000000180089b10 f   NpRigidDynamic.obj
 0001:000892d0       ?setLinearDamping@NpRigidDynamic@physx@@UEAAXM@Z 000000018008a2d0 f   NpRigidDynamic.obj
 0001:000893b0       ?getLinearDamping@NpRigidDynamic@physx@@UEBAMXZ 000000018008a3b0 f   NpRigidDynamic.obj
 0001:00089420       ?setAngularDamping@NpRigidDynamic@physx@@UEAAXM@Z 000000018008a420 f   NpRigidDynamic.obj
 0001:00089500       ?getAngularDamping@NpRigidDynamic@physx@@UEBAMXZ 000000018008a500 f   NpRigidDynamic.obj
 0001:00089570       ?setLinearVelocity@NpRigidDynamic@physx@@UEAAXAEBVPxVec3@2@_N@Z 000000018008a570 f   NpRigidDynamic.obj
 0001:000897b0       ?setAngularVelocity@NpRigidDynamic@physx@@UEAAXAEBVPxVec3@2@_N@Z 000000018008a7b0 f   NpRigidDynamic.obj
 0001:000899f0       ?setMaxAngularVelocity@NpRigidDynamic@physx@@UEAAXM@Z 000000018008a9f0 f   NpRigidDynamic.obj
 0001:00089ad0       ?getMaxAngularVelocity@NpRigidDynamic@physx@@UEBAMXZ 000000018008aad0 f   NpRigidDynamic.obj
 0001:00089b40       ?addForce@NpRigidDynamic@physx@@UEAAXAEBVPxVec3@2@W4Enum@PxForceMode@2@_N@Z 000000018008ab40 f   NpRigidDynamic.obj
 0001:00089de0       ?clearForce@NpRigidDynamic@physx@@UEAAXW4Enum@PxForceMode@2@@Z 000000018008ade0 f   NpRigidDynamic.obj
 0001:0008a000       ?addTorque@NpRigidDynamic@physx@@UEAAXAEBVPxVec3@2@W4Enum@PxForceMode@2@_N@Z 000000018008b000 f   NpRigidDynamic.obj
 0001:0008a2a0       ?clearTorque@NpRigidDynamic@physx@@UEAAXW4Enum@PxForceMode@2@@Z 000000018008b2a0 f   NpRigidDynamic.obj
 0001:0008a4c0       ?isSleeping@NpRigidDynamic@physx@@UEBA_NXZ 000000018008b4c0 f   NpRigidDynamic.obj
 0001:0008a570       ?getSleepThreshold@NpRigidDynamic@physx@@UEBAMXZ 000000018008b570 f   NpRigidDynamic.obj
 0001:0008a5e0       ?setSleepThreshold@NpRigidDynamic@physx@@UEAAXM@Z 000000018008b5e0 f   NpRigidDynamic.obj
 0001:0008a6c0       ?getStabilizationThreshold@NpRigidDynamic@physx@@UEBAMXZ 000000018008b6c0 f   NpRigidDynamic.obj
 0001:0008a730       ?setStabilizationThreshold@NpRigidDynamic@physx@@UEAAXM@Z 000000018008b730 f   NpRigidDynamic.obj
 0001:0008a810       ?setWakeCounter@NpRigidDynamic@physx@@UEAAXM@Z 000000018008b810 f   NpRigidDynamic.obj
 0001:0008a9c0       ?getWakeCounter@NpRigidDynamic@physx@@UEBAMXZ 000000018008b9c0 f   NpRigidDynamic.obj
 0001:0008aa10       ?wakeUp@NpRigidDynamic@physx@@UEAAXXZ 000000018008ba10 f   NpRigidDynamic.obj
 0001:0008ab90       ?putToSleep@NpRigidDynamic@physx@@UEAAXXZ 000000018008bb90 f   NpRigidDynamic.obj
 0001:0008ad00       ?setSolverIterationCounts@NpRigidDynamic@physx@@UEAAXII@Z 000000018008bd00 f   NpRigidDynamic.obj
 0001:0008ae00       ?getSolverIterationCounts@NpRigidDynamic@physx@@UEBAXAEAI0@Z 000000018008be00 f   NpRigidDynamic.obj
 0001:0008ae80       ?setContactReportThreshold@NpRigidDynamic@physx@@UEAAXM@Z 000000018008be80 f   NpRigidDynamic.obj
 0001:0008af60       ?getContactReportThreshold@NpRigidDynamic@physx@@UEBAMXZ 000000018008bf60 f   NpRigidDynamic.obj
 0001:0008afd0       ?getRigidDynamicLockFlags@NpRigidDynamic@physx@@UEBA?AV?$PxFlags@W4Enum@PxRigidDynamicLockFlag@physx@@G@2@XZ 000000018008bfd0 f   NpRigidDynamic.obj
 0001:0008b010       ?setRigidDynamicLockFlags@NpRigidDynamic@physx@@UEAAXV?$PxFlags@W4Enum@PxRigidDynamicLockFlag@physx@@G@2@@Z 000000018008c010 f   NpRigidDynamic.obj
 0001:0008b040       ?setRigidDynamicLockFlag@NpRigidDynamic@physx@@UEAAXW4Enum@PxRigidDynamicLockFlag@2@_N@Z 000000018008c040 f   NpRigidDynamic.obj
 0001:0008b0b0       ??0NpRigidDynamic@physx@@QEAA@AEBVPxTransform@1@@Z 000000018008c0b0 f   NpRigidDynamic.obj
 0001:0008b140       ?switchToNoSim@NpRigidDynamic@physx@@UEAAXXZ 000000018008c140 f   NpRigidDynamic.obj
 0001:0008b240       ?switchFromNoSim@NpRigidDynamic@physx@@UEAAXXZ 000000018008c240 f   NpRigidDynamic.obj
 0001:0008b270       ?wakeUpInternalNoKinematicTest@NpRigidDynamic@physx@@QEAAXAEAVBody@Scb@2@_N1@Z 000000018008c270 f   NpRigidDynamic.obj
 0001:0008b2f0       ?visualize@NpRigidDynamic@physx@@QEAAXAEAVRenderOutput@Cm@2@PEAVNpScene@2@@Z 000000018008c2f0 f   NpRigidDynamic.obj
 0001:0008c490       ??0?$NpActorTemplate@VPxRigidDynamic@physx@@@physx@@QEAA@GV?$PxFlags@W4Enum@PxBaseFlag@physx@@G@1@PEBDPEAX@Z 000000018008d490 f i NpRigidDynamic.obj
 0001:0008c500       ??0?$NpRigidActorTemplate@VPxRigidDynamic@physx@@@physx@@QEAA@GV?$PxFlags@W4Enum@PxBaseFlag@physx@@G@1@@Z 000000018008d500 f i NpRigidDynamic.obj
 0001:0008c570       ??0?$NpRigidBodyTemplate@VPxRigidDynamic@physx@@@physx@@QEAA@GV?$PxFlags@W4Enum@PxBaseFlag@physx@@G@1@W4Enum@PxActorType@1@AEBVPxTransform@1@@Z 000000018008d570 f i NpRigidDynamic.obj
 0001:0008c610       ??0?$NpRigidBodyTemplate@VPxRigidDynamic@physx@@@physx@@QEAA@V?$PxFlags@W4Enum@PxBaseFlag@physx@@G@1@@Z 000000018008d610 f i NpRigidDynamic.obj
 0001:0008c6b0       ??1?$NpActorTemplate@VPxRigidDynamic@physx@@@physx@@UEAA@XZ 000000018008d6b0 f i NpRigidDynamic.obj
 0001:0008c6f0       ??1?$NpRigidActorTemplate@VPxRigidDynamic@physx@@@physx@@UEAA@XZ 000000018008d6f0 f i NpRigidDynamic.obj
 0001:0008c750       ??1?$NpRigidBodyTemplate@VPxRigidDynamic@physx@@@physx@@UEAA@XZ 000000018008d750 f i NpRigidDynamic.obj
 0001:0008c7c0       ??1PxRigidDynamic@physx@@MEAA@XZ 000000018008d7c0 f i NpRigidDynamic.obj
 0001:0008c7d0       ??_G?$NpActorTemplate@VPxRigidDynamic@physx@@@physx@@UEAAPEAXI@Z 000000018008d7d0 f i NpRigidDynamic.obj
 0001:0008c7d0       ??_E?$NpActorTemplate@VPxRigidDynamic@physx@@@physx@@UEAAPEAXI@Z 000000018008d7d0 f i NpRigidDynamic.obj
 0001:0008c870       ??_G?$NpRigidActorTemplate@VPxRigidDynamic@physx@@@physx@@UEAAPEAXI@Z 000000018008d870 f i NpRigidDynamic.obj
 0001:0008c870       ??_E?$NpRigidActorTemplate@VPxRigidDynamic@physx@@@physx@@UEAAPEAXI@Z 000000018008d870 f i NpRigidDynamic.obj
 0001:0008c930       ??_G?$NpRigidBodyTemplate@VPxRigidDynamic@physx@@@physx@@UEAAPEAXI@Z 000000018008d930 f i NpRigidDynamic.obj
 0001:0008c930       ??_E?$NpRigidBodyTemplate@VPxRigidDynamic@physx@@@physx@@UEAAPEAXI@Z 000000018008d930 f i NpRigidDynamic.obj
 0001:0008ca00       ??_GNpRigidDynamic@physx@@UEAAPEAXI@Z 000000018008da00 f i NpRigidDynamic.obj
 0001:0008ca00       ??_ENpRigidDynamic@physx@@UEAAPEAXI@Z 000000018008da00 f i NpRigidDynamic.obj
 0001:0008cad0       ??_GPxRigidDynamic@physx@@MEAAPEAXI@Z 000000018008dad0 f i NpRigidDynamic.obj
 0001:0008cad0       ??_EPxRigidDynamic@physx@@MEAAPEAXI@Z 000000018008dad0 f i NpRigidDynamic.obj
 0001:0008cb10       ?addSpatialForce@?$NpRigidBodyTemplate@VPxRigidDynamic@physx@@@physx@@IEAAXPEBVPxVec3@2@0W4Enum@PxForceMode@2@@Z 000000018008db10 f i NpRigidDynamic.obj
 0001:0008ce30       ?attachShape@?$NpRigidActorTemplate@VPxRigidDynamic@physx@@@physx@@UEAAXAEAVPxShape@2@@Z 000000018008de30 f i NpRigidDynamic.obj
 0001:0008cfc0       ?attachShape@?$NpRigidBodyTemplate@VPxRigidDynamic@physx@@@physx@@UEAAXAEAVPxShape@2@@Z 000000018008dfc0 f i NpRigidDynamic.obj
 0001:0008d160       ?clearSpatialForce@?$NpRigidBodyTemplate@VPxRigidDynamic@physx@@@physx@@IEAAXW4Enum@PxForceMode@2@_N1@Z 000000018008e160 f i NpRigidDynamic.obj
 0001:0008d1b0       ?createShape@?$NpRigidBodyTemplate@VPxRigidDynamic@physx@@@physx@@UEAAPEAVPxShape@2@AEBVPxGeometry@2@PEBQEAVPxMaterial@2@GV?$PxFlags@W4Enum@PxShapeFlag@physx@@E@2@@Z 000000018008e1b0 f i NpRigidDynamic.obj
 0001:0008d390       ?detachShape@?$NpRigidActorTemplate@VPxRigidDynamic@physx@@@physx@@UEAAXAEAVPxShape@2@_N@Z 000000018008e390 f i NpRigidDynamic.obj
 0001:0008d4d0       ?exportExtraData@?$NpActorTemplate@VPxRigidDynamic@physx@@@physx@@UEAAXAEAVPxSerializationContext@2@@Z 000000018008e4d0 f i NpRigidDynamic.obj
 0001:0008d4e0       ?exportExtraData@?$NpRigidActorTemplate@VPxRigidDynamic@physx@@@physx@@UEAAXAEAVPxSerializationContext@2@@Z 000000018008e4e0 f i NpRigidDynamic.obj
 0001:0008d520       ?getActorFlags@?$NpActorTemplate@VPxRigidDynamic@physx@@@physx@@UEBA?AV?$PxFlags@W4Enum@PxActorFlag@physx@@E@2@XZ 000000018008e520 f i NpRigidDynamic.obj
 0001:0008d5c0       ?getAggregate@?$NpActorTemplate@VPxRigidDynamic@physx@@@physx@@UEBAPEAVPxAggregate@2@XZ 000000018008e5c0 f i NpRigidDynamic.obj
 0001:0008d5d0       ?getAngularVelocity@?$NpRigidBodyTemplate@VPxRigidDynamic@physx@@@physx@@UEBA?AVPxVec3@2@XZ 000000018008e5d0 f i NpRigidDynamic.obj
 0001:0008d650       ?getCMassLocalPose@?$NpRigidBodyTemplate@VPxRigidDynamic@physx@@@physx@@UEBA?AVPxTransform@2@XZ 000000018008e650 f i NpRigidDynamic.obj
 0001:0008d700       ?getClientBehaviorFlags@?$NpActorTemplate@VPxRigidDynamic@physx@@@physx@@UEBA?AV?$PxFlags@W4Enum@PxActorClientBehaviorFlag@physx@@E@2@XZ 000000018008e700 f i NpRigidDynamic.obj
 0001:0008d7a0       ?getConcreteTypeName@PxRigidDynamic@physx@@UEBAPEBDXZ 000000018008e7a0 f i NpRigidDynamic.obj
 0001:0008d7b0       ?getConstraints@?$NpRigidActorTemplate@VPxRigidDynamic@physx@@@physx@@UEBAIPEAPEAVPxConstraint@2@II@Z 000000018008e7b0 f i NpRigidDynamic.obj
 0001:0008d840       ?getDominanceGroup@?$NpActorTemplate@VPxRigidDynamic@physx@@@physx@@UEBAEXZ 000000018008e840 f i NpRigidDynamic.obj
 0001:0008d8f0       ?getGlobalPose@NpRigidDynamic@physx@@UEBA?AVPxTransform@2@XZ 000000018008e8f0 f i NpRigidDynamic.obj
 0001:0008dd50       ?getInvMass@?$NpRigidBodyTemplate@VPxRigidDynamic@physx@@@physx@@UEBAMXZ 000000018008ed50 f i NpRigidDynamic.obj
 0001:0008ddd0       ?getLinearVelocity@?$NpRigidBodyTemplate@VPxRigidDynamic@physx@@@physx@@UEBA?AVPxVec3@2@XZ 000000018008edd0 f i NpRigidDynamic.obj
 0001:0008de50       ?getMass@?$NpRigidBodyTemplate@VPxRigidDynamic@physx@@@physx@@UEBAMXZ 000000018008ee50 f i NpRigidDynamic.obj
 0001:0008def0       ?getMassSpaceInertiaTensor@?$NpRigidBodyTemplate@VPxRigidDynamic@physx@@@physx@@UEBA?AVPxVec3@2@XZ 000000018008eef0 f i NpRigidDynamic.obj
 0001:0008dfe0       ?getMassSpaceInvInertiaTensor@?$NpRigidBodyTemplate@VPxRigidDynamic@physx@@@physx@@UEBA?AVPxVec3@2@XZ 000000018008efe0 f i NpRigidDynamic.obj
 0001:0008e070       ?getMaxContactImpulse@?$NpRigidBodyTemplate@VPxRigidDynamic@physx@@@physx@@UEBAMXZ 000000018008f070 f i NpRigidDynamic.obj
 0001:0008e0f0       ?getMaxDepenetrationVelocity@?$NpRigidBodyTemplate@VPxRigidDynamic@physx@@@physx@@UEBAMXZ 000000018008f0f0 f i NpRigidDynamic.obj
 0001:0008e180       ?getMinCCDAdvanceCoefficient@?$NpRigidBodyTemplate@VPxRigidDynamic@physx@@@physx@@UEBAMXZ 000000018008f180 f i NpRigidDynamic.obj
 0001:0008e200       ?getName@?$NpActorTemplate@VPxRigidDynamic@physx@@@physx@@UEBAPEBDXZ 000000018008f200 f i NpRigidDynamic.obj
 0001:0008e250       ?getNbConstraints@?$NpRigidActorTemplate@VPxRigidDynamic@physx@@@physx@@UEBAIXZ 000000018008f250 f i NpRigidDynamic.obj
 0001:0008e2b0       ?getNbShapes@?$NpRigidActorTemplate@VPxRigidDynamic@physx@@@physx@@UEBAIXZ 000000018008f2b0 f i NpRigidDynamic.obj
 0001:0008e300       ?getOwnerClient@?$NpActorTemplate@VPxRigidDynamic@physx@@@physx@@UEBAEXZ 000000018008f300 f i NpRigidDynamic.obj
 0001:0008e340       ?getRigidBodyFlags@?$NpRigidBodyTemplate@VPxRigidDynamic@physx@@@physx@@UEBA?AV?$PxFlags@W4Enum@PxRigidBodyFlag@physx@@E@2@XZ 000000018008f340 f i NpRigidDynamic.obj
 0001:0008e3c0       ?getScene@?$NpActorTemplate@VPxRigidDynamic@physx@@@physx@@UEBAPEAVPxScene@2@XZ 000000018008f3c0 f i NpRigidDynamic.obj
 0001:0008e3d0       ?getShapes@?$NpRigidActorTemplate@VPxRigidDynamic@physx@@@physx@@UEBAIPEAPEAVPxShape@2@II@Z 000000018008f3d0 f i NpRigidDynamic.obj
 0001:0008e460       ?getType@NpRigidDynamic@physx@@UEBA?AW4Enum@PxActorType@2@XZ 000000018008f460 f i NpRigidDynamic.obj
 0001:0008e470       ?getWorldBounds@?$NpRigidActorTemplate@VPxRigidDynamic@physx@@@physx@@UEBA?AVPxBounds3@2@M@Z 000000018008f470 f i NpRigidDynamic.obj
 0001:0008e660       ?importExtraData@?$NpRigidActorTemplate@VPxRigidDynamic@physx@@@physx@@QEAAXAEAVPxDeserializationContext@2@@Z 000000018008f660 f i NpRigidDynamic.obj
 0001:0008e6a0       ?isKindOf@PxRigidDynamic@physx@@MEBA_NPEBD@Z 000000018008f6a0 f i NpRigidDynamic.obj
 0001:0008e710       ?release@?$NpActorTemplate@VPxRigidDynamic@physx@@@physx@@UEAAXXZ 000000018008f710 f i NpRigidDynamic.obj
 0001:0008e720       ?release@?$NpRigidActorTemplate@VPxRigidDynamic@physx@@@physx@@UEAAXXZ 000000018008f720 f i NpRigidDynamic.obj
 0001:0008e7e0       ?requires@?$NpRigidActorTemplate@VPxRigidDynamic@physx@@@physx@@UEAAXAEAVPxProcessPxBaseCallback@2@@Z 000000018008f7e0 f i NpRigidDynamic.obj
 0001:0008e870       ?resolveReferences@?$NpActorTemplate@VPxRigidDynamic@physx@@@physx@@UEAAXAEAVPxDeserializationContext@2@@Z 000000018008f870 f i NpRigidDynamic.obj
 0001:0008e880       ?resolveReferences@?$NpRigidActorTemplate@VPxRigidDynamic@physx@@@physx@@UEAAXAEAVPxDeserializationContext@2@@Z 000000018008f880 f i NpRigidDynamic.obj
 0001:0008e930       ?setActorFlag@?$NpActorTemplate@VPxRigidDynamic@physx@@@physx@@UEAAXW4Enum@PxActorFlag@2@_N@Z 000000018008f930 f i NpRigidDynamic.obj
 0001:0008ea30       ?setActorFlag@?$NpRigidActorTemplate@VPxRigidDynamic@physx@@@physx@@UEAAXW4Enum@PxActorFlag@2@_N@Z 000000018008fa30 f i NpRigidDynamic.obj
 0001:0008ed70       ?setActorFlags@?$NpActorTemplate@VPxRigidDynamic@physx@@@physx@@UEAAXV?$PxFlags@W4Enum@PxActorFlag@physx@@E@2@@Z 000000018008fd70 f i NpRigidDynamic.obj
 0001:0008edf0       ?setActorFlags@?$NpRigidActorTemplate@VPxRigidDynamic@physx@@@physx@@UEAAXV?$PxFlags@W4Enum@PxActorFlag@physx@@E@2@@Z 000000018008fdf0 f i NpRigidDynamic.obj
 0001:0008f090       ?setAngularDamping@Body@Scb@physx@@QEAAXM@Z 0000000180090090 f i NpRigidDynamic.obj
 0001:0008f160       ?setCMassLocalPoseInternal@?$NpRigidBodyTemplate@VPxRigidDynamic@physx@@@physx@@IEAAXAEBVPxTransform@2@@Z 0000000180090160 f i NpRigidDynamic.obj
 0001:0008f4c0       ?setClientBehaviorFlags@?$NpActorTemplate@VPxRigidDynamic@physx@@@physx@@UEAAXV?$PxFlags@W4Enum@PxActorClientBehaviorFlag@physx@@E@2@@Z 00000001800904c0 f i NpRigidDynamic.obj
 0001:0008f540       ?setClientBehaviorFlags@?$NpRigidActorTemplate@VPxRigidDynamic@physx@@@physx@@UEAAXV?$PxFlags@W4Enum@PxActorClientBehaviorFlag@physx@@E@2@@Z 0000000180090540 f i NpRigidDynamic.obj
 0001:0008f600       ?setContactReportThreshold@Body@Scb@physx@@QEAAXM@Z 0000000180090600 f i NpRigidDynamic.obj
 0001:0008f6d0       ?setDominanceGroup@?$NpActorTemplate@VPxRigidDynamic@physx@@@physx@@UEAAXE@Z 00000001800906d0 f i NpRigidDynamic.obj
 0001:0008f750       ?setFreezeThreshold@Body@Scb@physx@@QEAAXM@Z 0000000180090750 f i NpRigidDynamic.obj
 0001:0008f820       ?setKinematicTarget@Body@Scb@physx@@QEAAXAEBVPxTransform@3@@Z 0000000180090820 f i NpRigidDynamic.obj
 0001:0008f9d0       ?setLinearDamping@Body@Scb@physx@@QEAAXM@Z 00000001800909d0 f i NpRigidDynamic.obj
 0001:0008faa0       ?setLockFlags@Body@Scb@physx@@QEAAXV?$PxFlags@W4Enum@PxRigidDynamicLockFlag@physx@@G@3@@Z 0000000180090aa0 f i NpRigidDynamic.obj
 0001:0008fb70       ?setMass@?$NpRigidBodyTemplate@VPxRigidDynamic@physx@@@physx@@UEAAXM@Z 0000000180090b70 f i NpRigidDynamic.obj
 0001:0008fce0       ?setMassSpaceInertiaTensor@?$NpRigidBodyTemplate@VPxRigidDynamic@physx@@@physx@@UEAAXAEBVPxVec3@2@@Z 0000000180090ce0 f i NpRigidDynamic.obj
 0001:0008ffc0       ?setMaxAngVelSq@Body@Scb@physx@@QEAAXM@Z 0000000180090fc0 f i NpRigidDynamic.obj
 0001:00090090       ?setMaxContactImpulse@?$NpRigidBodyTemplate@VPxRigidDynamic@physx@@@physx@@UEAAXM@Z 0000000180091090 f i NpRigidDynamic.obj
 0001:00090150       ?setMaxDepenetrationVelocity@?$NpRigidBodyTemplate@VPxRigidDynamic@physx@@@physx@@UEAAXM@Z 0000000180091150 f i NpRigidDynamic.obj
 0001:00090210       ?setMinCCDAdvanceCoefficient@?$NpRigidBodyTemplate@VPxRigidDynamic@physx@@@physx@@UEAAXM@Z 0000000180091210 f i NpRigidDynamic.obj
 0001:00090280       ?setName@?$NpActorTemplate@VPxRigidDynamic@physx@@@physx@@UEAAXPEBD@Z 0000000180091280 f i NpRigidDynamic.obj
 0001:00090320       ?setOwnerClient@?$NpActorTemplate@VPxRigidDynamic@physx@@@physx@@UEAAXE@Z 0000000180091320 f i NpRigidDynamic.obj
 0001:000903c0       ?setRigidBodyFlag@?$NpRigidBodyTemplate@VPxRigidDynamic@physx@@@physx@@UEAAXW4Enum@PxRigidBodyFlag@2@_N@Z 00000001800913c0 f i NpRigidDynamic.obj
 0001:000909b0       ?setRigidBodyFlags@?$NpRigidBodyTemplate@VPxRigidDynamic@physx@@@physx@@UEAAXV?$PxFlags@W4Enum@PxRigidBodyFlag@physx@@E@2@@Z 00000001800919b0 f i NpRigidDynamic.obj
 0001:00090fe0       ?setSleepThreshold@Body@Scb@physx@@QEAAXM@Z 0000000180091fe0 f i NpRigidDynamic.obj
 0001:000910b0       ?setSolverIterationCounts@Body@Scb@physx@@QEAAXG@Z 00000001800920b0 f i NpRigidDynamic.obj
 0001:00091180       ?switchFromNoSim@?$NpRigidActorTemplate@VPxRigidDynamic@physx@@@physx@@UEAAXXZ 0000000180092180 f i NpRigidDynamic.obj
 0001:00091190       ?switchToNoSim@?$NpRigidActorTemplate@VPxRigidDynamic@physx@@@physx@@UEAAXXZ 0000000180092190 f i NpRigidDynamic.obj
 0001:000911a0       ?updateShaderComs@?$NpRigidActorTemplate@VPxRigidDynamic@physx@@@physx@@QEAAXXZ 00000001800921a0 f i NpRigidDynamic.obj
 0001:00091240       ?visualize@?$NpRigidActorTemplate@VPxRigidDynamic@physx@@@physx@@QEAAXAEAVRenderOutput@Cm@2@PEAVNpScene@2@@Z 0000000180092240 f i NpRigidDynamic.obj
 0001:00091250       ?visualize@?$NpRigidBodyTemplate@VPxRigidDynamic@physx@@@physx@@QEAAXAEAVRenderOutput@Cm@2@PEAVNpScene@2@@Z 0000000180092250 f i NpRigidDynamic.obj
 0001:00091710       ?NpRigidStaticGetShapes@physx@@YAIAEAVRigidStatic@Scb@1@AEAPEBQEAX@Z 0000000180092710 f   NpRigidStatic.obj
 0001:00091760       ?requires@NpRigidStatic@physx@@UEAAXAEAVPxProcessPxBaseCallback@2@@Z 0000000180092760 f   NpRigidStatic.obj
 0001:000917d0       ?createObject@NpRigidStatic@physx@@SAPEAV12@AEAPEAEAEAVPxDeserializationContext@2@@Z 00000001800927d0 f   NpRigidStatic.obj
 0001:00091890       ??1NpRigidStatic@physx@@UEAA@XZ 0000000180092890 f   NpRigidStatic.obj
 0001:000918f0       ?release@NpRigidStatic@physx@@UEAAXXZ 00000001800928f0 f   NpRigidStatic.obj
 0001:00091a00       ?createShape@NpRigidStatic@physx@@UEAAPEAVPxShape@2@AEBVPxGeometry@2@PEBQEAVPxMaterial@2@GV?$PxFlags@W4Enum@PxShapeFlag@physx@@E@2@@Z 0000000180092a00 f   NpRigidStatic.obj
 0001:00091b10       ?setGlobalPose@NpRigidStatic@physx@@UEAAXAEBVPxTransform@2@_N@Z 0000000180092b10 f   NpRigidStatic.obj
 0001:00091d50       ?getGlobalPose@NpRigidStatic@physx@@UEBA?AVPxTransform@2@XZ 0000000180092d50 f   NpRigidStatic.obj
 0001:00091de0       ??0NpRigidStatic@physx@@QEAA@AEBVPxTransform@1@@Z 0000000180092de0 f   NpRigidStatic.obj
 0001:00091e60       ?switchToNoSim@NpRigidStatic@physx@@UEAAXXZ 0000000180092e60 f   NpRigidStatic.obj
 0001:00091e90       ?switchFromNoSim@NpRigidStatic@physx@@UEAAXXZ 0000000180092e90 f   NpRigidStatic.obj
 0001:00091ec0       ?checkConstraintValidity@NpRigidStatic@physx@@QEBA_NXZ 0000000180092ec0 f   NpRigidStatic.obj
 0001:00091f40       ?visualize@NpRigidStatic@physx@@QEAAXAEAVRenderOutput@Cm@2@PEAVNpScene@2@@Z 0000000180092f40 f   NpRigidStatic.obj
 0001:000922c0       ??0?$NpActorTemplate@VPxRigidStatic@physx@@@physx@@QEAA@GV?$PxFlags@W4Enum@PxBaseFlag@physx@@G@1@PEBDPEAX@Z 00000001800932c0 f i NpRigidStatic.obj
 0001:00092330       ??0?$NpRigidActorTemplate@VPxRigidStatic@physx@@@physx@@QEAA@GV?$PxFlags@W4Enum@PxBaseFlag@physx@@G@1@@Z 0000000180093330 f i NpRigidStatic.obj
 0001:000923a0       ??0RigidStatic@Scb@physx@@QEAA@AEBVPxTransform@2@@Z 00000001800933a0 f i NpRigidStatic.obj
 0001:00092440       ??1?$NpActorTemplate@VPxRigidStatic@physx@@@physx@@UEAA@XZ 0000000180093440 f i NpRigidStatic.obj
 0001:00092480       ??1?$NpRigidActorTemplate@VPxRigidStatic@physx@@@physx@@UEAA@XZ 0000000180093480 f i NpRigidStatic.obj
 0001:000924e0       ??1PxRigidStatic@physx@@MEAA@XZ 00000001800934e0 f i NpRigidStatic.obj
 0001:000924f0       ??_E?$NpActorTemplate@VPxRigidStatic@physx@@@physx@@UEAAPEAXI@Z 00000001800934f0 f i NpRigidStatic.obj
 0001:000924f0       ??_G?$NpActorTemplate@VPxRigidStatic@physx@@@physx@@UEAAPEAXI@Z 00000001800934f0 f i NpRigidStatic.obj
 0001:00092590       ??_E?$NpRigidActorTemplate@VPxRigidStatic@physx@@@physx@@UEAAPEAXI@Z 0000000180093590 f i NpRigidStatic.obj
 0001:00092590       ??_G?$NpRigidActorTemplate@VPxRigidStatic@physx@@@physx@@UEAAPEAXI@Z 0000000180093590 f i NpRigidStatic.obj
 0001:00092650       ??_ENpRigidStatic@physx@@UEAAPEAXI@Z 0000000180093650 f i NpRigidStatic.obj
 0001:00092650       ??_GNpRigidStatic@physx@@UEAAPEAXI@Z 0000000180093650 f i NpRigidStatic.obj
 0001:00092720       ??_EPxRigidStatic@physx@@MEAAPEAXI@Z 0000000180093720 f i NpRigidStatic.obj
 0001:00092720       ??_GPxRigidStatic@physx@@MEAAPEAXI@Z 0000000180093720 f i NpRigidStatic.obj
 0001:00092760       ?attachShape@?$NpRigidActorTemplate@VPxRigidStatic@physx@@@physx@@UEAAXAEAVPxShape@2@@Z 0000000180093760 f i NpRigidStatic.obj
 0001:000928f0       ?detachShape@?$NpRigidActorTemplate@VPxRigidStatic@physx@@@physx@@UEAAXAEAVPxShape@2@_N@Z 00000001800938f0 f i NpRigidStatic.obj
 0001:00092a30       ?exportExtraData@?$NpActorTemplate@VPxRigidStatic@physx@@@physx@@UEAAXAEAVPxSerializationContext@2@@Z 0000000180093a30 f i NpRigidStatic.obj
 0001:00092a40       ?exportExtraData@?$NpRigidActorTemplate@VPxRigidStatic@physx@@@physx@@UEAAXAEAVPxSerializationContext@2@@Z 0000000180093a40 f i NpRigidStatic.obj
 0001:00092a80       ?getActorFlags@?$NpActorTemplate@VPxRigidStatic@physx@@@physx@@UEBA?AV?$PxFlags@W4Enum@PxActorFlag@physx@@E@2@XZ 0000000180093a80 f i NpRigidStatic.obj
 0001:00092b20       ?getAggregate@?$NpActorTemplate@VPxRigidStatic@physx@@@physx@@UEBAPEAVPxAggregate@2@XZ 0000000180093b20 f i NpRigidStatic.obj
 0001:00092b30       ?getClientBehaviorFlags@?$NpActorTemplate@VPxRigidStatic@physx@@@physx@@UEBA?AV?$PxFlags@W4Enum@PxActorClientBehaviorFlag@physx@@E@2@XZ 0000000180093b30 f i NpRigidStatic.obj
 0001:00092bd0       ?getConcreteTypeName@PxRigidStatic@physx@@UEBAPEBDXZ 0000000180093bd0 f i NpRigidStatic.obj
 0001:00092be0       ?getConstraints@?$NpRigidActorTemplate@VPxRigidStatic@physx@@@physx@@UEBAIPEAPEAVPxConstraint@2@II@Z 0000000180093be0 f i NpRigidStatic.obj
 0001:00092c70       ?getDominanceGroup@?$NpActorTemplate@VPxRigidStatic@physx@@@physx@@UEBAEXZ 0000000180093c70 f i NpRigidStatic.obj
 0001:00092d20       ?getName@?$NpActorTemplate@VPxRigidStatic@physx@@@physx@@UEBAPEBDXZ 0000000180093d20 f i NpRigidStatic.obj
 0001:00092d70       ?getNbConstraints@?$NpRigidActorTemplate@VPxRigidStatic@physx@@@physx@@UEBAIXZ 0000000180093d70 f i NpRigidStatic.obj
 0001:00092dd0       ?getNbShapes@?$NpRigidActorTemplate@VPxRigidStatic@physx@@@physx@@UEBAIXZ 0000000180093dd0 f i NpRigidStatic.obj
 0001:00092e20       ?getOwnerClient@?$NpActorTemplate@VPxRigidStatic@physx@@@physx@@UEBAEXZ 0000000180093e20 f i NpRigidStatic.obj
 0001:00092e60       ?getScene@?$NpActorTemplate@VPxRigidStatic@physx@@@physx@@UEBAPEAVPxScene@2@XZ 0000000180093e60 f i NpRigidStatic.obj
 0001:00092e70       ?getShapes@?$NpRigidActorTemplate@VPxRigidStatic@physx@@@physx@@UEBAIPEAPEAVPxShape@2@II@Z 0000000180093e70 f i NpRigidStatic.obj
 0001:00092f00       ?getType@NpRigidStatic@physx@@UEBA?AW4Enum@PxActorType@2@XZ 0000000180093f00 f i NpRigidStatic.obj
 0001:00092f10       ?getWorldBounds@?$NpRigidActorTemplate@VPxRigidStatic@physx@@@physx@@UEBA?AVPxBounds3@2@M@Z 0000000180093f10 f i NpRigidStatic.obj
 0001:00093100       ?importExtraData@?$NpRigidActorTemplate@VPxRigidStatic@physx@@@physx@@QEAAXAEAVPxDeserializationContext@2@@Z 0000000180094100 f i NpRigidStatic.obj
 0001:00093140       ?isKindOf@PxRigidStatic@physx@@MEBA_NPEBD@Z 0000000180094140 f i NpRigidStatic.obj
 0001:000931a0       ?release@?$NpActorTemplate@VPxRigidStatic@physx@@@physx@@UEAAXXZ 00000001800941a0 f i NpRigidStatic.obj
 0001:000931b0       ?release@?$NpRigidActorTemplate@VPxRigidStatic@physx@@@physx@@UEAAXXZ 00000001800941b0 f i NpRigidStatic.obj
 0001:00093270       ?requires@?$NpRigidActorTemplate@VPxRigidStatic@physx@@@physx@@UEAAXAEAVPxProcessPxBaseCallback@2@@Z 0000000180094270 f i NpRigidStatic.obj
 0001:00093300       ?resolveReferences@?$NpActorTemplate@VPxRigidStatic@physx@@@physx@@UEAAXAEAVPxDeserializationContext@2@@Z 0000000180094300 f i NpRigidStatic.obj
 0001:00093310       ?resolveReferences@?$NpRigidActorTemplate@VPxRigidStatic@physx@@@physx@@UEAAXAEAVPxDeserializationContext@2@@Z 0000000180094310 f i NpRigidStatic.obj
 0001:000933c0       ?setActor2World@RigidStatic@Scb@physx@@QEAAXAEBVPxTransform@3@@Z 00000001800943c0 f i NpRigidStatic.obj
 0001:000934e0       ?setActorFlag@?$NpActorTemplate@VPxRigidStatic@physx@@@physx@@UEAAXW4Enum@PxActorFlag@2@_N@Z 00000001800944e0 f i NpRigidStatic.obj
 0001:000935e0       ?setActorFlag@?$NpRigidActorTemplate@VPxRigidStatic@physx@@@physx@@UEAAXW4Enum@PxActorFlag@2@_N@Z 00000001800945e0 f i NpRigidStatic.obj
 0001:00093920       ?setActorFlags@?$NpActorTemplate@VPxRigidStatic@physx@@@physx@@UEAAXV?$PxFlags@W4Enum@PxActorFlag@physx@@E@2@@Z 0000000180094920 f i NpRigidStatic.obj
 0001:000939a0       ?setActorFlags@?$NpRigidActorTemplate@VPxRigidStatic@physx@@@physx@@UEAAXV?$PxFlags@W4Enum@PxActorFlag@physx@@E@2@@Z 00000001800949a0 f i NpRigidStatic.obj
 0001:00093c40       ?setClientBehaviorFlags@?$NpActorTemplate@VPxRigidStatic@physx@@@physx@@UEAAXV?$PxFlags@W4Enum@PxActorClientBehaviorFlag@physx@@E@2@@Z 0000000180094c40 f i NpRigidStatic.obj
 0001:00093cc0       ?setClientBehaviorFlags@?$NpRigidActorTemplate@VPxRigidStatic@physx@@@physx@@UEAAXV?$PxFlags@W4Enum@PxActorClientBehaviorFlag@physx@@E@2@@Z 0000000180094cc0 f i NpRigidStatic.obj
 0001:00093d80       ?setDominanceGroup@?$NpActorTemplate@VPxRigidStatic@physx@@@physx@@UEAAXE@Z 0000000180094d80 f i NpRigidStatic.obj
 0001:00093e00       ?setName@?$NpActorTemplate@VPxRigidStatic@physx@@@physx@@UEAAXPEBD@Z 0000000180094e00 f i NpRigidStatic.obj
 0001:00093ea0       ?setOwnerClient@?$NpActorTemplate@VPxRigidStatic@physx@@@physx@@UEAAXE@Z 0000000180094ea0 f i NpRigidStatic.obj
 0001:00093f40       ?switchFromNoSim@?$NpRigidActorTemplate@VPxRigidStatic@physx@@@physx@@UEAAXXZ 0000000180094f40 f i NpRigidStatic.obj
 0001:00093f50       ?switchToNoSim@?$NpRigidActorTemplate@VPxRigidStatic@physx@@@physx@@UEAAXXZ 0000000180094f50 f i NpRigidStatic.obj
 0001:00093f60       ?updateShaderComs@?$NpRigidActorTemplate@VPxRigidStatic@physx@@@physx@@QEAAXXZ 0000000180094f60 f i NpRigidStatic.obj
 0001:00094000       ?visualize@?$NpRigidActorTemplate@VPxRigidStatic@physx@@@physx@@QEAAXAEAVRenderOutput@Cm@2@PEAVNpScene@2@@Z 0000000180095000 f i NpRigidStatic.obj
 0001:00094010       ??0NpSceneQueries@physx@@QEAA@AEBVPxSceneDesc@1@@Z 0000000180095010 f   NpScene.obj
 0001:000940e0       ??1NpSceneQueries@physx@@UEAA@XZ 00000001800950e0 f   NpScene.obj
 0001:00094140       ?setData@NpContactCallbackTask@physx@@QEAAXPEAVNpScene@2@PEBUPxContactPairHeader@2@I@Z 0000000180095140 f   NpScene.obj
 0001:00094160       ?run@NpContactCallbackTask@physx@@UEAAXXZ 0000000180095160 f   NpScene.obj
 0001:000942f0       ?release@NpScene@physx@@UEAAXXZ 00000001800952f0 f   NpScene.obj
 0001:000943c0       ?setFlag@NpScene@physx@@UEAAXW4Enum@PxSceneFlag@2@_N@Z 00000001800953c0 f   NpScene.obj
 0001:00094480       ?getFlags@NpScene@physx@@UEBA?AV?$PxFlags@W4Enum@PxSceneFlag@physx@@I@2@XZ 0000000180095480 f   NpScene.obj
 0001:000944e0       ?setGravity@NpScene@physx@@UEAAXAEBVPxVec3@2@@Z 00000001800954e0 f   NpScene.obj
 0001:00094530       ?getGravity@NpScene@physx@@UEBA?AVPxVec3@2@XZ 0000000180095530 f   NpScene.obj
 0001:000945b0       ?setBounceThresholdVelocity@NpScene@physx@@UEAAXM@Z 00000001800955b0 f   NpScene.obj
 0001:00094640       ?getBounceThresholdVelocity@NpScene@physx@@UEBAMXZ 0000000180095640 f   NpScene.obj
 0001:000946a0       ?getFrictionOffsetThreshold@NpScene@physx@@UEBAMXZ 00000001800956a0 f   NpScene.obj
 0001:000946b0       ?setLimits@NpScene@physx@@UEAAXAEBVPxSceneLimits@2@@Z 00000001800956b0 f   NpScene.obj
 0001:00094760       ?getLimits@NpScene@physx@@UEBA?AVPxSceneLimits@2@XZ 0000000180095760 f   NpScene.obj
 0001:000947c0       ?addActor@NpScene@physx@@UEAAXAEAVPxActor@2@@Z 00000001800957c0 f   NpScene.obj
 0001:000949e0       ?removeActor@NpScene@physx@@UEAAXAEAVPxActor@2@_N@Z 00000001800959e0 f   NpScene.obj
 0001:00094b10       ?getNbConstraints@NpScene@physx@@UEBAIXZ 0000000180095b10 f   NpScene.obj
 0001:00094b50       ?getConstraints@NpScene@physx@@UEBAIPEAPEAVPxConstraint@2@II@Z 0000000180095b50 f   NpScene.obj
 0001:00094bf0       ?addArticulation@NpScene@physx@@UEAAXAEAVPxArticulation@2@@Z 0000000180095bf0 f   NpScene.obj
 0001:00094de0       ?removeArticulation@NpScene@physx@@UEAAXAEAVPxArticulation@2@_N@Z 0000000180095de0 f   NpScene.obj
 0001:00094f10       ?getNbArticulations@NpScene@physx@@UEBAIXZ 0000000180095f10 f   NpScene.obj
 0001:00094f50       ?getArticulations@NpScene@physx@@UEBAIPEAPEAVPxArticulation@2@II@Z 0000000180095f50 f   NpScene.obj
 0001:00094ff0       ?addAggregate@NpScene@physx@@UEAAXAEAVPxAggregate@2@@Z 0000000180095ff0 f   NpScene.obj
 0001:00095260       ?removeAggregate@NpScene@physx@@UEAAXAEAVPxAggregate@2@_N@Z 0000000180096260 f   NpScene.obj
 0001:00095520       ?getNbAggregates@NpScene@physx@@UEBAIXZ 0000000180096520 f   NpScene.obj
 0001:00095560       ?getAggregates@NpScene@physx@@UEBAIPEAPEAVPxAggregate@2@II@Z 0000000180096560 f   NpScene.obj
 0001:00095600       ?addCollection@NpScene@physx@@UEAAXAEBVPxCollection@2@@Z 0000000180096600 f   NpScene.obj
 0001:000958f0       ?setDominanceGroupPair@NpScene@physx@@UEAAXEEAEBUPxDominanceGroupPair@2@@Z 00000001800968f0 f   NpScene.obj
 0001:00095a80       ?getDominanceGroupPair@NpScene@physx@@UEBA?AUPxDominanceGroupPair@2@EE@Z 0000000180096a80 f   NpScene.obj
 0001:00095b40       ?getNbActors@NpScene@physx@@UEBAIV?$PxFlags@W4Enum@PxActorTypeFlag@physx@@G@2@@Z 0000000180096b40 f   NpScene.obj
 0001:00095cb0       ?getActors@NpScene@physx@@UEBAIV?$PxFlags@W4Enum@PxActorTypeFlag@physx@@G@2@PEAPEAVPxActor@2@II@Z 0000000180096cb0 f   NpScene.obj
 0001:00095e80       ?getActiveTransforms@NpScene@physx@@UEAAPEBUPxActiveTransform@2@AEAIE@Z 0000000180096e80 f   NpScene.obj
 0001:00095f20       ?getActiveActors@NpScene@physx@@UEAAPEAPEAVPxActor@2@AEAIE@Z 0000000180096f20 f   NpScene.obj
 0001:00095fc0       ?getSimulationStatistics@NpScene@physx@@UEBAXAEAVPxSimulationStatistics@2@@Z 0000000180096fc0 f   NpScene.obj
 0001:00096050       ?createClient@NpScene@physx@@UEAAEXZ 0000000180097050 f   NpScene.obj
 0001:000960f0       ?setClientBehaviorFlags@NpScene@physx@@UEAAXEV?$PxFlags@W4Enum@PxClientBehaviorFlag@physx@@E@2@@Z 00000001800970f0 f   NpScene.obj
 0001:000961d0       ?getClientBehaviorFlags@NpScene@physx@@UEBA?AV?$PxFlags@W4Enum@PxClientBehaviorFlag@physx@@E@2@E@Z 00000001800971d0 f   NpScene.obj
 0001:00096290       ?setFrictionType@NpScene@physx@@UEAAXW4Enum@PxFrictionType@2@@Z 0000000180097290 f   NpScene.obj
 0001:00096320       ?getFrictionType@NpScene@physx@@UEBA?AW4Enum@PxFrictionType@2@XZ 0000000180097320 f   NpScene.obj
 0001:00096360       ?setClothInterCollisionDistance@NpScene@physx@@UEAAXM@Z 0000000180097360 f   NpScene.obj
 0001:00096420       ?getClothInterCollisionDistance@NpScene@physx@@UEBAMXZ 0000000180097420 f   NpScene.obj
 0001:00096470       ?setClothInterCollisionStiffness@NpScene@physx@@UEAAXM@Z 0000000180097470 f   NpScene.obj
 0001:00096530       ?getClothInterCollisionStiffness@NpScene@physx@@UEBAMXZ 0000000180097530 f   NpScene.obj
 0001:00096580       ?setClothInterCollisionNbIterations@NpScene@physx@@UEAAXI@Z 0000000180097580 f   NpScene.obj
 0001:00096610       ?getClothInterCollisionNbIterations@NpScene@physx@@UEBAIXZ 0000000180097610 f   NpScene.obj
 0001:00096650       ?setSimulationEventCallback@NpScene@physx@@UEAAXPEAVPxSimulationEventCallback@2@E@Z 0000000180097650 f   NpScene.obj
 0001:000966f0       ?getSimulationEventCallback@NpScene@physx@@UEBAPEAVPxSimulationEventCallback@2@E@Z 00000001800976f0 f   NpScene.obj
 0001:00096750       ?setContactModifyCallback@NpScene@physx@@UEAAXPEAVPxContactModifyCallback@2@@Z 0000000180097750 f   NpScene.obj
 0001:000967e0       ?getContactModifyCallback@NpScene@physx@@UEBAPEAVPxContactModifyCallback@2@XZ 00000001800977e0 f   NpScene.obj
 0001:00096830       ?setCCDContactModifyCallback@NpScene@physx@@UEAAXPEAVPxCCDContactModifyCallback@2@@Z 0000000180097830 f   NpScene.obj
 0001:000968c0       ?getCCDContactModifyCallback@NpScene@physx@@UEBAPEAVPxCCDContactModifyCallback@2@XZ 00000001800978c0 f   NpScene.obj
 0001:00096910       ?setBroadPhaseCallback@NpScene@physx@@UEAAXPEAVPxBroadPhaseCallback@2@E@Z 0000000180097910 f   NpScene.obj
 0001:000969b0       ?getBroadPhaseCallback@NpScene@physx@@UEBAPEAVPxBroadPhaseCallback@2@E@Z 00000001800979b0 f   NpScene.obj
 0001:00096a10       ?setCCDMaxPasses@NpScene@physx@@UEAAXI@Z 0000000180097a10 f   NpScene.obj
 0001:00096aa0       ?getCCDMaxPasses@NpScene@physx@@UEBAIXZ 0000000180097aa0 f   NpScene.obj
 0001:00096ae0       ?setFilterShaderData@NpScene@physx@@UEAAXPEBXI@Z 0000000180097ae0 f   NpScene.obj
 0001:00096bc0       ?getFilterShaderData@NpScene@physx@@UEBAPEBXXZ 0000000180097bc0 f   NpScene.obj
 0001:00096c00       ?getFilterShaderDataSize@NpScene@physx@@UEBAIXZ 0000000180097c00 f   NpScene.obj
 0001:00096c40       ?getFilterShader@NpScene@physx@@UEBAP6A?AV?$PxFlags@W4Enum@PxFilterFlag@physx@@G@2@IUPxFilterData@2@I0AEAV?$PxFlags@W4Enum@PxPairFlag@physx@@G@2@PEBXI@ZXZ 0000000180097c40 f   NpScene.obj
 0001:00096c80       ?getFilterCallback@NpScene@physx@@UEBAPEAVPxSimulationFilterCallback@2@XZ 0000000180097c80 f   NpScene.obj
 0001:00096cc0       ?resetFiltering@NpScene@physx@@UEAAXAEAVPxActor@2@@Z 0000000180097cc0 f   NpScene.obj
 0001:00096e50       ?resetFiltering@NpScene@physx@@UEAAXAEAVPxRigidActor@2@PEBQEAVPxShape@2@I@Z 0000000180097e50 f   NpScene.obj
 0001:00097010       ?getPhysics@NpScene@physx@@UEAAAEAVPxPhysics@2@XZ 0000000180098010 f   NpScene.obj
 0001:00097020       ?simulate@NpScene@physx@@UEAAXMPEAVPxBaseTask@2@PEAXI_N@Z 0000000180098020 f   NpScene.obj
 0001:00097060       ?advance@NpScene@physx@@UEAAXPEAVPxBaseTask@2@@Z 0000000180098060 f   NpScene.obj
 0001:00097200       ?collide@NpScene@physx@@UEAAXMPEAVPxBaseTask@2@PEAXI_N@Z 0000000180098200 f   NpScene.obj
 0001:00097240       ?checkResults@NpScene@physx@@UEAA_N_N@Z 0000000180098240 f   NpScene.obj
 0001:00097250       ?checkCollision@NpScene@physx@@UEAA_N_N@Z 0000000180098250 f   NpScene.obj
 0001:00097260       ?fetchCollision@NpScene@physx@@UEAA_N_N@Z 0000000180098260 f   NpScene.obj
 0001:000972f0       ?fetchResults@NpScene@physx@@UEAA_N_NPEAI@Z 00000001800982f0 f   NpScene.obj
 0001:00097570       ?fetchResultsStart@NpScene@physx@@UEAA_NAEAPEBUPxContactPairHeader@2@AEAI_N@Z 0000000180098570 f   NpScene.obj
 0001:00097740       ?processCallbacks@NpScene@physx@@UEAAXPEAVPxBaseTask@2@@Z 0000000180098740 f   NpScene.obj
 0001:00097990       ?fetchResultsFinish@NpScene@physx@@UEAAXPEAI@Z 0000000180098990 f   NpScene.obj
 0001:00097b50       ?flushSimulation@NpScene@physx@@UEAAX_N@Z 0000000180098b50 f   NpScene.obj
 0001:00097cb0       ?flushQueryUpdates@NpScene@physx@@UEAAXXZ 0000000180098cb0 f   NpScene.obj
 0001:00097df0       ?getRenderBuffer@NpScene@physx@@UEAAAEBVPxRenderBuffer@2@XZ 0000000180098df0 f   NpScene.obj
 0001:00097e50       ?createBatchQuery@NpScene@physx@@UEAAPEAVPxBatchQuery@2@AEBVPxBatchQueryDesc@2@@Z 0000000180098e50 f   NpScene.obj
 0001:00098040       ?releaseBatchQuery@NpScene@physx@@QEAAXPEAVPxBatchQuery@2@@Z 0000000180099040 f   NpScene.obj
 0001:00098150       ?createVolumeCache@NpScene@physx@@UEAAPEAVPxVolumeCache@2@II@Z 0000000180099150 f   NpScene.obj
 0001:00098230       ?releaseVolumeCache@NpScene@physx@@QEAAXPEAVNpVolumeCache@2@@Z 0000000180099230 f   NpScene.obj
 0001:00098280       ?setDynamicTreeRebuildRateHint@NpScene@physx@@UEAAXI@Z 0000000180099280 f   NpScene.obj
 0001:000982e0       ?getDynamicTreeRebuildRateHint@NpScene@physx@@UEBAIXZ 00000001800992e0 f   NpScene.obj
 0001:00098320       ?forceDynamicTreeRebuild@NpScene@physx@@UEAAX_N0@Z 0000000180099320 f   NpScene.obj
 0001:00098440       ?setSolverBatchSize@NpScene@physx@@UEAAXI@Z 0000000180099440 f   NpScene.obj
 0001:000984d0       ?getSolverBatchSize@NpScene@physx@@UEBAIXZ 00000001800994d0 f   NpScene.obj
 0001:00098540       ?setVisualizationParameter@NpScene@physx@@UEAA_NW4Enum@PxVisualizationParameter@2@M@Z 0000000180099540 f   NpScene.obj
 0001:00098670       ?getVisualizationParameter@NpScene@physx@@UEBAMW4Enum@PxVisualizationParameter@2@@Z 0000000180099670 f   NpScene.obj
 0001:000986f0       ?setVisualizationCullingBox@NpScene@physx@@UEAAXAEBVPxBounds3@2@@Z 00000001800996f0 f   NpScene.obj
 0001:00098890       ?getVisualizationCullingBox@NpScene@physx@@UEBA?AVPxBounds3@2@XZ 0000000180099890 f   NpScene.obj
 0001:00098910       ?setNbContactDataBlocks@NpScene@physx@@UEAAXI@Z 0000000180099910 f   NpScene.obj
 0001:00098970       ?getNbContactDataBlocksUsed@NpScene@physx@@UEBAIXZ 0000000180099970 f   NpScene.obj
 0001:000989d0       ?getMaxNbContactDataBlocksUsed@NpScene@physx@@UEBAIXZ 00000001800999d0 f   NpScene.obj
 0001:00098a30       ?getContactReportStreamBufferSize@NpScene@physx@@UEBAIXZ 0000000180099a30 f   NpScene.obj
 0001:00098a40       ?getTimestamp@NpScene@physx@@UEBAIXZ 0000000180099a40 f   NpScene.obj
 0001:00098a50       ?getSceneQueryStaticTimestamp@NpScene@physx@@UEBAIXZ 0000000180099a50 f   NpScene.obj
 0001:00098a60       ?getCpuDispatcher@NpScene@physx@@UEBAPEAVPxCpuDispatcher@2@XZ 0000000180099a60 f   NpScene.obj
 0001:00098a90       ?getGpuDispatcher@NpScene@physx@@UEBAPEAVPxGpuDispatcher@2@XZ 0000000180099a90 f   NpScene.obj
 0001:00098ac0       ?getStaticStructure@NpScene@physx@@UEBA?AW4Enum@PxPruningStructureType@2@XZ 0000000180099ac0 f   NpScene.obj
 0001:00098ad0       ?getDynamicStructure@NpScene@physx@@UEBA?AW4Enum@PxPruningStructureType@2@XZ 0000000180099ad0 f   NpScene.obj
 0001:00098ae0       ?getBroadPhaseType@NpScene@physx@@UEBA?AW4Enum@PxBroadPhaseType@2@XZ 0000000180099ae0 f   NpScene.obj
 0001:00098b20       ?getBroadPhaseCaps@NpScene@physx@@UEBA_NAEAUPxBroadPhaseCaps@2@@Z 0000000180099b20 f   NpScene.obj
 0001:00098b80       ?getNbBroadPhaseRegions@NpScene@physx@@UEBAIXZ 0000000180099b80 f   NpScene.obj
 0001:00098bc0       ?getBroadPhaseRegions@NpScene@physx@@UEBAIPEAUPxBroadPhaseRegionInfo@2@II@Z 0000000180099bc0 f   NpScene.obj
 0001:00098c30       ?addBroadPhaseRegion@NpScene@physx@@UEAAIAEBUPxBroadPhaseRegion@2@_N@Z 0000000180099c30 f   NpScene.obj
 0001:00098e60       ?removeBroadPhaseRegion@NpScene@physx@@UEAA_NI@Z 0000000180099e60 f   NpScene.obj
 0001:00098ec0       ?addActors@NpScene@physx@@UEAAXPEBQEAVPxActor@2@I@Z 0000000180099ec0 f   NpScene.obj
 0001:00098ed0       ?addActors@NpScene@physx@@UEAAXAEBVPxPruningStructure@2@@Z 0000000180099ed0 f   NpScene.obj
 0001:00098f30       ?removeActors@NpScene@physx@@UEAAXPEBQEAVPxActor@2@I_N@Z 0000000180099f30 f   NpScene.obj
 0001:00099570       ?lockRead@NpScene@physx@@UEAAXPEBDI@Z 000000018009a570 f   NpScene.obj
 0001:000995f0       ?unlockRead@NpScene@physx@@UEAAXXZ 000000018009a5f0 f   NpScene.obj
 0001:000996a0       ?lockWrite@NpScene@physx@@UEAAXPEBDI@Z 000000018009a6a0 f   NpScene.obj
 0001:00099780       ?unlockWrite@NpScene@physx@@UEAAXXZ 000000018009a780 f   NpScene.obj
 0001:00099830       ?getWakeCounterResetValue@NpScene@physx@@UEBAMXZ 000000018009a830 f   NpScene.obj
 0001:00099880       ?shiftOrigin@NpScene@physx@@UEAAXAEBVPxVec3@2@@Z 000000018009a880 f   NpScene.obj
 0001:00099ee0       ?getScenePvdClient@NpScene@physx@@UEAAPEAVPxPvdSceneClient@2@XZ 000000018009aee0 f   NpScene.obj
 0001:00099ef0       ??0NpScene@physx@@QEAA@AEBVPxSceneDesc@1@@Z 000000018009aef0 f   NpScene.obj
 0001:0009a470       ??1NpScene@physx@@UEAA@XZ  000000018009b470 f   NpScene.obj
 0001:0009aa30       ?addActorInternal@NpScene@physx@@QEAAXAEAVPxActor@2@@Z 000000018009ba30 f   NpScene.obj
 0001:0009ab90       ?removeActorInternal@NpScene@physx@@QEAAXAEAVPxActor@2@_N1@Z 000000018009bb90 f   NpScene.obj
 0001:0009ac90       ?addActorsInternal@NpScene@physx@@QEAAXPEIBQEAVPxActor@2@IPEBVPruningStructure@Sq@2@@Z 000000018009bc90 f   NpScene.obj
 0001:0009b4e0       ?addArticulationInternal@NpScene@physx@@QEAAXAEAVPxArticulation@2@@Z 000000018009c4e0 f   NpScene.obj
 0001:0009ba80       ?removeArticulationInternal@NpScene@physx@@QEAAXAEAVPxArticulation@2@_N1@Z 000000018009ca80 f   NpScene.obj
 0001:0009bdd0       ?addMaterial@NpScene@physx@@QEAAXAEBVNpMaterial@2@@Z 000000018009cdd0 f   NpScene.obj
 0001:0009bdf0       ?updateMaterial@NpScene@physx@@QEAAXAEBVNpMaterial@2@@Z 000000018009cdf0 f   NpScene.obj
 0001:0009be10       ?removeMaterial@NpScene@physx@@QEAAXAEBVNpMaterial@2@@Z 000000018009ce10 f   NpScene.obj
 0001:0009be30       ?executeScene@NpScene@physx@@QEAAXPEAVPxBaseTask@2@@Z 000000018009ce30 f   NpScene.obj
 0001:0009be50       ?executeCollide@NpScene@physx@@QEAAXPEAVPxBaseTask@2@@Z 000000018009ce50 f   NpScene.obj
 0001:0009be70       ?executeAdvance@NpScene@physx@@QEAAXPEAVPxBaseTask@2@@Z 000000018009ce70 f   NpScene.obj
 0001:0009be90       ?loadFromDesc@NpScene@physx@@QEAA_NAEBVPxSceneDesc@2@@Z 000000018009ce90 f   NpScene.obj
 0001:0009bf00       ?removeFromRigidActorList@NpScene@physx@@QEAAXAEBI@Z 000000018009cf00 f   NpScene.obj
 0001:0009bf80       ?addArticulationLink@NpScene@physx@@QEAAXAEAVNpArticulationLink@2@@Z 000000018009cf80 f   NpScene.obj
 0001:0009c010       ?addArticulationLinkBody@NpScene@physx@@QEAAXAEAVNpArticulationLink@2@@Z 000000018009d010 f   NpScene.obj
 0001:0009c060       ?addArticulationLinkConstraint@NpScene@physx@@QEAAXAEAVNpArticulationLink@2@@Z 000000018009d060 f   NpScene.obj
 0001:0009c0b0       ?removeArticulationLink@NpScene@physx@@QEAAXAEAVNpArticulationLink@2@_N@Z 000000018009d0b0 f   NpScene.obj
 0001:0009c140       ?startWrite@NpScene@physx@@QEAA?AW4Enum@StartWriteResult@12@_N@Z 000000018009d140 f   NpScene.obj
 0001:0009c260       ?stopWrite@NpScene@physx@@QEAAX_N@Z 000000018009d260 f   NpScene.obj
 0001:0009c2f0       ?startRead@NpScene@physx@@QEBA_NXZ 000000018009d2f0 f   NpScene.obj
 0001:0009c3d0       ?stopRead@NpScene@physx@@QEBAXXZ 000000018009d3d0 f   NpScene.obj
 0001:0009c450       ?checkPositionSanity@NpScene@physx@@QEBAXAEBVPxRigidActor@2@AEBVPxTransform@2@PEBD@Z 000000018009d450 f   NpScene.obj
 0001:0009c4f0       ?addCloth@NpScene@physx@@QEAAXAEAVNpCloth@2@@Z 000000018009d4f0 f   NpScene.obj
 0001:0009c5e0       ?removeCloth@NpScene@physx@@QEAAXAEAVNpCloth@2@@Z 000000018009d5e0 f   NpScene.obj
 0001:0009c6c0       ?updatePhysXIndicator@NpScene@physx@@QEAAXXZ 000000018009d6c0 f   NpScene.obj
 0001:0009c7c0       ?checkResultsInternal@NpScene@physx@@AEAA_N_N@Z 000000018009d7c0 f   NpScene.obj
 0001:0009c890       ?checkCollisionInternal@NpScene@physx@@AEAA_N_N@Z 000000018009d890 f   NpScene.obj
 0001:0009c960       ?simulateOrCollide@NpScene@physx@@AEAAXMPEAVPxBaseTask@2@PEAXI_NPEBDW4Enum@SimulationStage@Sc@2@@Z 000000018009d960 f   NpScene.obj
 0001:0009ce00       ?addRigidStatic@NpScene@physx@@AEAAXAEAVNpRigidStatic@2@_N@Z 000000018009de00 f   NpScene.obj
 0001:0009cf30       ?removeRigidStatic@NpScene@physx@@AEAAXAEAVNpRigidStatic@2@_N1@Z 000000018009df30 f   NpScene.obj
 0001:0009d070       ?addRigidDynamic@NpScene@physx@@AEAAXAEAVNpRigidDynamic@2@_N@Z 000000018009e070 f   NpScene.obj
 0001:0009d1a0       ?removeRigidDynamic@NpScene@physx@@AEAAXAEAVNpRigidDynamic@2@_N1@Z 000000018009e1a0 f   NpScene.obj
 0001:0009d2e0       ?addParticleSystem@NpScene@physx@@AEAAXAEAVNpParticleSystem@2@@Z 000000018009e2e0 f   NpScene.obj
 0001:0009d410       ?removeParticleSystem@NpScene@physx@@AEAAXAEAVNpParticleSystem@2@@Z 000000018009e410 f   NpScene.obj
 0001:0009d520       ?addParticleFluid@NpScene@physx@@AEAAXAEAVNpParticleFluid@2@@Z 000000018009e520 f   NpScene.obj
 0001:0009d610       ?removeParticleFluid@NpScene@physx@@AEAAXAEAVNpParticleFluid@2@@Z 000000018009e610 f   NpScene.obj
 0001:0009d6f0       ?visualize@NpScene@physx@@AEAAXXZ 000000018009e6f0 f   NpScene.obj
 0001:0009daa0       ?updateDirtyShaders@NpScene@physx@@AEAAXXZ 000000018009eaa0 f   NpScene.obj
 0001:0009db80       ?fireOutOfBoundsCallbacks@NpScene@physx@@AEAAXXZ 000000018009eb80 f   NpScene.obj
 0001:0009ddb0       ?fetchResultsPreContactCallbacks@NpScene@physx@@AEAAXXZ 000000018009edb0 f   NpScene.obj
 0001:0009deb0       ?fetchResultsPostContactCallbacks@NpScene@physx@@AEAAXXZ 000000018009eeb0 f   NpScene.obj
 0001:0009e180       ?updateScbStateAndSetupSq@NpScene@physx@@AEAAXAEBVPxRigidActor@2@AEAVActor@Scb@2@AEAVNpShapeManager@2@_NPEBVPxBounds3@2@3@Z 000000018009f180 f   NpScene.obj
 0001:000a0b70       ??$allocArrayBuffer@PEAVShape@Scb@physx@@@Scene@Scb@physx@@AEAAPEAPEAVShape@12@AEAV?$Array@PEAVShape@Scb@physx@@VNamedAllocator@shdfnd@3@@shdfnd@2@IAEAI@Z 00000001800a1b70 f i NpScene.obj
 0001:000a0bd0       ??$append@UPxDebugLine@physx@@@RenderBuffer@Cm@physx@@AEAAXAEAV?$Array@UPxDebugLine@physx@@VNamedAllocator@shdfnd@2@@shdfnd@2@PEBUPxDebugLine@2@I@Z 00000001800a1bd0 f i NpScene.obj
 0001:000a0cc0       ??$append@UPxDebugPoint@physx@@@RenderBuffer@Cm@physx@@AEAAXAEAV?$Array@UPxDebugPoint@physx@@VNamedAllocator@shdfnd@2@@shdfnd@2@PEBUPxDebugPoint@2@I@Z 00000001800a1cc0 f i NpScene.obj
 0001:000a0d80       ??$append@UPxDebugText@physx@@@RenderBuffer@Cm@physx@@AEAAXAEAV?$Array@UPxDebugText@physx@@VNamedAllocator@shdfnd@2@@shdfnd@2@PEBUPxDebugText@2@I@Z 00000001800a1d80 f i NpScene.obj
 0001:000a0e60       ??$append@UPxDebugTriangle@physx@@@RenderBuffer@Cm@physx@@AEAAXAEAV?$Array@UPxDebugTriangle@physx@@VNamedAllocator@shdfnd@2@@shdfnd@2@PEBUPxDebugTriangle@2@I@Z 00000001800a1e60 f i NpScene.obj
 0001:000a0f80       ??0?$InlineArray@PEAVShapeSim@Sc@physx@@$0EA@VNamedAllocator@shdfnd@3@@shdfnd@physx@@QEAA@AEBVNamedAllocator@12@@Z 00000001800a1f80 f i NpScene.obj
 0001:000a10a0       ??0?$InlineArray@VPxBounds3@physx@@$07VNamedAllocator@shdfnd@2@@shdfnd@physx@@QEAA@AEBVNamedAllocator@12@@Z 00000001800a20a0 f i NpScene.obj
 0001:000a11c0       ??0PxBounds3@physx@@QEAA@XZ 00000001800a21c0 f i NpScene.obj
 0001:000a11d0       ??0RenderBuffer@Cm@physx@@QEAA@XZ 00000001800a21d0 f i NpScene.obj
 0001:000a1360       ??1?$Array@IVNamedAllocator@shdfnd@physx@@@shdfnd@physx@@QEAA@XZ 00000001800a2360 f i NpScene.obj
 0001:000a13a0       ??1?$Array@V?$DelegateTask@VScene@Sc@physx@@$1?ccdBroadPhase@123@AEAAXPEAVPxBaseTask@3@@Z@Cm@physx@@VNamedAllocator@shdfnd@3@@shdfnd@physx@@QEAA@XZ 00000001800a23a0 f i NpScene.obj
 0001:000a1430       ??1?$Array@V?$DelegateTask@VScene@Sc@physx@@$1?ccdBroadPhaseAABB@123@AEAAXPEAVPxBaseTask@3@@Z@Cm@physx@@VNamedAllocator@shdfnd@3@@shdfnd@physx@@QEAA@XZ 00000001800a2430 f i NpScene.obj
 0001:000a14c0       ??1?$Array@V?$DelegateTask@VScene@Sc@physx@@$1?postCCDPass@123@AEAAXPEAVPxBaseTask@3@@Z@Cm@physx@@VNamedAllocator@shdfnd@3@@shdfnd@physx@@QEAA@XZ 00000001800a24c0 f i NpScene.obj
 0001:000a1550       ??1?$Array@V?$DelegateTask@VScene@Sc@physx@@$1?updateCCDSinglePass@123@AEAAXPEAVPxBaseTask@3@@Z@Cm@physx@@VNamedAllocator@shdfnd@3@@shdfnd@physx@@QEAA@XZ 00000001800a2550 f i NpScene.obj
 0001:000a15e0       ??1?$Array@V?$DelegateTask@VScene@Sc@physx@@$1?updateCCDSinglePassStage2@123@AEAAXPEAVPxBaseTask@3@@Z@Cm@physx@@VNamedAllocator@shdfnd@3@@shdfnd@physx@@QEAA@XZ 00000001800a25e0 f i NpScene.obj
 0001:000a1670       ??1?$Array@V?$DelegateTask@VScene@Sc@physx@@$1?updateCCDSinglePassStage3@123@AEAAXPEAVPxBaseTask@3@@Z@Cm@physx@@VNamedAllocator@shdfnd@3@@shdfnd@physx@@QEAA@XZ 00000001800a2670 f i NpScene.obj
 0001:000a1700       ??1?$PoolBase@U?$Block@E$0BAA@@Scene@Sc@physx@@VNamedAllocator@shdfnd@4@@shdfnd@physx@@QEAA@XZ 00000001800a2700 f i NpScene.obj
 0001:000a1820       ??1?$PoolBase@U?$Block@E$0BIA@@Scene@Sc@physx@@VNamedAllocator@shdfnd@4@@shdfnd@physx@@QEAA@XZ 00000001800a2820 f i NpScene.obj
 0001:000a1940       ??1?$PoolBase@U?$Block@E$0IA@@Scene@Sc@physx@@VNamedAllocator@shdfnd@4@@shdfnd@physx@@QEAA@XZ 00000001800a2940 f i NpScene.obj
 0001:000a1a60       ??1?$PoolBase@U?$Block@PEAX$07@Scene@Sc@physx@@VNamedAllocator@shdfnd@4@@shdfnd@physx@@QEAA@XZ 00000001800a2a60 f i NpScene.obj
 0001:000a1b80       ??1?$PoolBase@U?$Block@PEAX$0BA@@Scene@Sc@physx@@VNamedAllocator@shdfnd@4@@shdfnd@physx@@QEAA@XZ 00000001800a2b80 f i NpScene.obj
 0001:000a1ca0       ??1?$PoolBase@U?$Block@PEAX$0CA@@Scene@Sc@physx@@VNamedAllocator@shdfnd@4@@shdfnd@physx@@QEAA@XZ 00000001800a2ca0 f i NpScene.obj
 0001:000a1dc0       ??1FanoutTask@Cm@physx@@UEAA@XZ 00000001800a2dc0 f i NpScene.obj
 0001:000a1eb0       ??1FlushPool@Cm@physx@@QEAA@XZ 00000001800a2eb0 f i NpScene.obj
 0001:000a1f80       ??1PvdSceneQueryCollector@Vd@physx@@QEAA@XZ 00000001800a2f80 f i NpScene.obj
 0001:000a2190       ??1PxRenderBuffer@physx@@UEAA@XZ 00000001800a3190 f i NpScene.obj
 0001:000a21a0       ??1PxScene@physx@@MEAA@XZ  00000001800a31a0 f i NpScene.obj
 0001:000a21b0       ??1RenderBuffer@Cm@physx@@UEAA@XZ 00000001800a31b0 f i NpScene.obj
 0001:000a22d0       ??1Scene@Sc@physx@@QEAA@XZ 00000001800a32d0 f i NpScene.obj
 0001:000a2e10       ??1Scene@Scb@physx@@QEAA@XZ 00000001800a3e10 f i NpScene.obj
 0001:000a3130       ??1SqRefFinder@Sc@physx@@UEAA@XZ 00000001800a4130 f i NpScene.obj
 0001:000a3140       ??_G?$DelegateTask@VNpScene@physx@@$H?executeAdvance@12@QEAAXPEAVPxBaseTask@2@@ZA@@Cm@physx@@UEAAPEAXI@Z 00000001800a4140 f i NpScene.obj
 0001:000a3140       ??_E?$DelegateTask@VNpScene@physx@@$H?executeAdvance@12@QEAAXPEAVPxBaseTask@2@@ZA@@Cm@physx@@UEAAPEAXI@Z 00000001800a4140 f i NpScene.obj
 0001:000a31b0       ??_G?$DelegateTask@VNpScene@physx@@$H?executeCollide@12@QEAAXPEAVPxBaseTask@2@@ZA@@Cm@physx@@UEAAPEAXI@Z 00000001800a41b0 f i NpScene.obj
 0001:000a31b0       ??_E?$DelegateTask@VNpScene@physx@@$H?executeCollide@12@QEAAXPEAVPxBaseTask@2@@ZA@@Cm@physx@@UEAAPEAXI@Z 00000001800a41b0 f i NpScene.obj
 0001:000a3220       ??_G?$DelegateTask@VNpScene@physx@@$H?executeScene@12@QEAAXPEAVPxBaseTask@2@@ZA@@Cm@physx@@UEAAPEAXI@Z 00000001800a4220 f i NpScene.obj
 0001:000a3220       ??_E?$DelegateTask@VNpScene@physx@@$H?executeScene@12@QEAAXPEAVPxBaseTask@2@@ZA@@Cm@physx@@UEAAPEAXI@Z 00000001800a4220 f i NpScene.obj
 0001:000a3290       ??_GNpContactCallbackTask@physx@@UEAAPEAXI@Z 00000001800a4290 f i NpScene.obj
 0001:000a3290       ??_ENpContactCallbackTask@physx@@UEAAPEAXI@Z 00000001800a4290 f i NpScene.obj
 0001:000a32d0       ??_ENpScene@physx@@UEAAPEAXI@Z 00000001800a42d0 f i NpScene.obj
 0001:000a32d0       ??_GNpScene@physx@@UEAAPEAXI@Z 00000001800a42d0 f i NpScene.obj
 0001:000a3350       ??_ENpSceneQueries@physx@@UEAAPEAXI@Z 00000001800a4350 f i NpScene.obj
 0001:000a3350       ??_GNpSceneQueries@physx@@UEAAPEAXI@Z 00000001800a4350 f i NpScene.obj
 0001:000a33e0       ??_GPxLightCpuTask@physx@@UEAAPEAXI@Z 00000001800a43e0 f i NpScene.obj
 0001:000a33e0       ??_EPxLightCpuTask@physx@@UEAAPEAXI@Z 00000001800a43e0 f i NpScene.obj
 0001:000a3420       ??_EPxRenderBuffer@physx@@UEAAPEAXI@Z 00000001800a4420 f i NpScene.obj
 0001:000a3420       ??_GPxRenderBuffer@physx@@UEAAPEAXI@Z 00000001800a4420 f i NpScene.obj
 0001:000a3460       ??_GPxScene@physx@@MEAAPEAXI@Z 00000001800a4460 f i NpScene.obj
 0001:000a3460       ??_EPxScene@physx@@MEAAPEAXI@Z 00000001800a4460 f i NpScene.obj
 0001:000a34a0       ??_GRenderBuffer@Cm@physx@@UEAAPEAXI@Z 00000001800a44a0 f i NpScene.obj
 0001:000a34a0       ??_ERenderBuffer@Cm@physx@@UEAAPEAXI@Z 00000001800a44a0 f i NpScene.obj
 0001:000a3520       ??_GSceneCompletion@NpScene@physx@@UEAAPEAXI@Z 00000001800a4520 f i NpScene.obj
 0001:000a3520       ??_ESceneCompletion@NpScene@physx@@UEAAPEAXI@Z 00000001800a4520 f i NpScene.obj
 0001:000a3560       ??_GSqRefFinder@@UEAAPEAXI@Z 00000001800a4560 f i NpScene.obj
 0001:000a3560       ??_ESqRefFinder@@UEAAPEAXI@Z 00000001800a4560 f i NpScene.obj
 0001:000a35a0       ??_GSqRefFinder@Sc@physx@@UEAAPEAXI@Z 00000001800a45a0 f i NpScene.obj
 0001:000a35a0       ??_ESqRefFinder@Sc@physx@@UEAAPEAXI@Z 00000001800a45a0 f i NpScene.obj
 0001:000a35e0       ??_GTask@Cm@physx@@UEAAPEAXI@Z 00000001800a45e0 f i NpScene.obj
 0001:000a35e0       ??_ETask@Cm@physx@@UEAAPEAXI@Z 00000001800a45e0 f i NpScene.obj
 0001:000a3620       ?addReference@PxLightCpuTask@physx@@UEAAXXZ 00000001800a4620 f i NpScene.obj
 0001:000a3640       ?allocate@?$Array@VPxBounds3@physx@@V?$InlineAllocator@$0MA@VNamedAllocator@shdfnd@physx@@@shdfnd@2@@shdfnd@physx@@IEAAPEAVPxBounds3@3@I@Z 00000001800a4640 f i NpScene.obj
 0001:000a36e0       ?append@RenderBuffer@Cm@physx@@UEAAXAEBVPxRenderBuffer@3@@Z 00000001800a46e0 f i NpScene.obj
 0001:000a37d0       ?clear@RenderBuffer@Cm@physx@@UEAAXXZ 00000001800a47d0 f i NpScene.obj
 0001:000a37f0       ?copy@?$Array@UPxDebugLine@physx@@VNamedAllocator@shdfnd@2@@shdfnd@physx@@KAXPEAUPxDebugLine@3@0PEBU43@@Z 00000001800a47f0 f i NpScene.obj
 0001:000a3a00       ?copy@?$Array@UPxDebugPoint@physx@@VNamedAllocator@shdfnd@2@@shdfnd@physx@@KAXPEAUPxDebugPoint@3@0PEBU43@@Z 00000001800a4a00 f i NpScene.obj
 0001:000a3b70       ?copy@?$Array@UPxDebugText@physx@@VNamedAllocator@shdfnd@2@@shdfnd@physx@@KAXPEAUPxDebugText@3@0PEBU43@@Z 00000001800a4b70 f i NpScene.obj
 0001:000a3d40       ?copy@?$Array@UPxDebugTriangle@physx@@VNamedAllocator@shdfnd@2@@shdfnd@physx@@KAXPEAUPxDebugTriangle@3@0PEBU43@@Z 00000001800a4d40 f i NpScene.obj
 0001:000a4010       ?copy@?$Array@VPxBounds3@physx@@V?$InlineAllocator@$0MA@VNamedAllocator@shdfnd@physx@@@shdfnd@2@@shdfnd@physx@@KAXPEAVPxBounds3@3@0PEBV43@@Z 00000001800a5010 f i NpScene.obj
 0001:000a41e0       ?create@?$HashBase@PEAVNpVolumeCache@physx@@PEAV12@U?$Hash@PEAVNpVolumeCache@physx@@@shdfnd@2@UGetKey@?$HashSetBase@PEAVNpVolumeCache@physx@@U?$Hash@PEAVNpVolumeCache@physx@@@shdfnd@2@VNonTrackingAllocator@42@$0A@@internal@42@VNonTrackingAllocator@42@$0A@@internal@shdfnd@physx@@QEAAPEAPEAVNpVolumeCache@4@AEBQEAV54@AEA_N@Z 00000001800a51e0 f i NpScene.obj
 0001:000a43d0       ?create@?$HashBase@PEAVPxAggregate@physx@@PEAV12@U?$Hash@PEAVPxAggregate@physx@@@shdfnd@2@UGetKey@?$HashSetBase@PEAVPxAggregate@physx@@U?$Hash@PEAVPxAggregate@physx@@@shdfnd@2@VNonTrackingAllocator@42@$00@internal@42@VNonTrackingAllocator@42@$00@internal@shdfnd@physx@@QEAAPEAPEAVPxAggregate@4@AEBQEAV54@AEA_N@Z 00000001800a53d0 f i NpScene.obj
 0001:000a45d0       ?create@?$HashBase@PEAVPxArticulation@physx@@PEAV12@U?$Hash@PEAVPxArticulation@physx@@@shdfnd@2@UGetKey@?$HashSetBase@PEAVPxArticulation@physx@@U?$Hash@PEAVPxArticulation@physx@@@shdfnd@2@VNonTrackingAllocator@42@$00@internal@42@VNonTrackingAllocator@42@$00@internal@shdfnd@physx@@QEAAPEAPEAVPxArticulation@4@AEBQEAV54@AEA_N@Z 00000001800a55d0 f i NpScene.obj
 0001:000a47d0       ?create@?$HashBase@PEAVPxCloth@physx@@PEAV12@U?$Hash@PEAVPxCloth@physx@@@shdfnd@2@UGetKey@?$HashSetBase@PEAVPxCloth@physx@@U?$Hash@PEAVPxCloth@physx@@@shdfnd@2@VNonTrackingAllocator@42@$00@internal@42@VNonTrackingAllocator@42@$00@internal@shdfnd@physx@@QEAAPEAPEAVPxCloth@4@AEBQEAV54@AEA_N@Z 00000001800a57d0 f i NpScene.obj
 0001:000a49d0       ?create@?$HashBase@PEAVPxParticleBase@physx@@PEAV12@U?$Hash@PEAVPxParticleBase@physx@@@shdfnd@2@UGetKey@?$HashSetBase@PEAVPxParticleBase@physx@@U?$Hash@PEAVPxParticleBase@physx@@@shdfnd@2@VNonTrackingAllocator@42@$00@internal@42@VNonTrackingAllocator@42@$00@internal@shdfnd@physx@@QEAAPEAPEAVPxParticleBase@4@AEBQEAV54@AEA_N@Z 00000001800a59d0 f i NpScene.obj
 0001:000a4bd0       ?createClient@Scene@Scb@physx@@QEAAEXZ 00000001800a5bd0 f i NpScene.obj
 0001:000a4c50       ?disposeElements@?$PoolBase@U?$Block@E$0BAA@@Scene@Sc@physx@@VNamedAllocator@shdfnd@4@@shdfnd@physx@@IEAAXXZ 00000001800a5c50 f i NpScene.obj
 0001:000a4e30       ?disposeElements@?$PoolBase@U?$Block@E$0BIA@@Scene@Sc@physx@@VNamedAllocator@shdfnd@4@@shdfnd@physx@@IEAAXXZ 00000001800a5e30 f i NpScene.obj
 0001:000a5010       ?disposeElements@?$PoolBase@U?$Block@E$0IA@@Scene@Sc@physx@@VNamedAllocator@shdfnd@4@@shdfnd@physx@@IEAAXXZ 00000001800a6010 f i NpScene.obj
 0001:000a51f0       ?disposeElements@?$PoolBase@U?$Block@PEAX$07@Scene@Sc@physx@@VNamedAllocator@shdfnd@4@@shdfnd@physx@@IEAAXXZ 00000001800a61f0 f i NpScene.obj
 0001:000a53d0       ?disposeElements@?$PoolBase@U?$Block@PEAX$0BA@@Scene@Sc@physx@@VNamedAllocator@shdfnd@4@@shdfnd@physx@@IEAAXXZ 00000001800a63d0 f i NpScene.obj
 0001:000a55b0       ?disposeElements@?$PoolBase@U?$Block@PEAX$0CA@@Scene@Sc@physx@@VNamedAllocator@shdfnd@4@@shdfnd@physx@@IEAAXXZ 00000001800a65b0 f i NpScene.obj
 0001:000a5790       ?erase@?$HashBase@PEAVNpVolumeCache@physx@@PEAV12@U?$Hash@PEAVNpVolumeCache@physx@@@shdfnd@2@UGetKey@?$HashSetBase@PEAVNpVolumeCache@physx@@U?$Hash@PEAVNpVolumeCache@physx@@@shdfnd@2@VNonTrackingAllocator@42@$0A@@internal@42@VNonTrackingAllocator@42@$0A@@internal@shdfnd@physx@@QEAA_NAEBQEAVNpVolumeCache@4@@Z 00000001800a6790 f i NpScene.obj
 0001:000a58a0       ?erase@?$HashBase@PEAVPxCloth@physx@@PEAV12@U?$Hash@PEAVPxCloth@physx@@@shdfnd@2@UGetKey@?$HashSetBase@PEAVPxCloth@physx@@U?$Hash@PEAVPxCloth@physx@@@shdfnd@2@VNonTrackingAllocator@42@$00@internal@42@VNonTrackingAllocator@42@$00@internal@shdfnd@physx@@QEAA_NAEBQEAVPxCloth@4@@Z 00000001800a68a0 f i NpScene.obj
 0001:000a59b0       ?find@SqRefFinder@@UEAAIPEBVPxRigidBody@physx@@PEBVPxShape@3@@Z 00000001800a69b0 f i NpScene.obj
 0001:000a59e0       ?flush@NpScene@physx@@UEAAX_N@Z 00000001800a69e0 f i NpScene.obj
 0001:000a59f0       ?flush@Scene@Scb@physx@@QEAAX_N@Z 00000001800a69f0 f i NpScene.obj
 0001:000a5ae0       ?freeListAdd@?$HashBase@PEAVNpVolumeCache@physx@@PEAV12@U?$Hash@PEAVNpVolumeCache@physx@@@shdfnd@2@UGetKey@?$HashSetBase@PEAVNpVolumeCache@physx@@U?$Hash@PEAVNpVolumeCache@physx@@@shdfnd@2@VNonTrackingAllocator@42@$0A@@internal@42@VNonTrackingAllocator@42@$0A@@internal@shdfnd@physx@@AEAAXII@Z 00000001800a6ae0 f i NpScene.obj
 0001:000a5c20       ?getDominanceGroupPair@Scene@Scb@physx@@QEBA?AUPxDominanceGroupPair@3@EE@Z 00000001800a6c20 f i NpScene.obj
 0001:000a5d20       ?getLines@RenderBuffer@Cm@physx@@UEBAPEBUPxDebugLine@3@XZ 00000001800a6d20 f i NpScene.obj
 0001:000a5d30       ?getName@?$DelegateTask@VNpScene@physx@@$H?executeAdvance@12@QEAAXPEAVPxBaseTask@2@@ZA@@Cm@physx@@UEBAPEBDXZ 00000001800a6d30 f i NpScene.obj
 0001:000a5d40       ?getName@?$DelegateTask@VNpScene@physx@@$H?executeCollide@12@QEAAXPEAVPxBaseTask@2@@ZA@@Cm@physx@@UEBAPEBDXZ 00000001800a6d40 f i NpScene.obj
 0001:000a5d50       ?getName@?$DelegateTask@VNpScene@physx@@$H?executeScene@12@QEAAXPEAVPxBaseTask@2@@ZA@@Cm@physx@@UEBAPEBDXZ 00000001800a6d50 f i NpScene.obj
 0001:000a5d60       ?getName@NpContactCallbackTask@physx@@UEBAPEBDXZ 00000001800a6d60 f i NpScene.obj
 0001:000a5d70       ?getName@SceneCompletion@NpScene@physx@@UEBAPEBDXZ 00000001800a6d70 f i NpScene.obj
 0001:000a5d80       ?getNbLines@RenderBuffer@Cm@physx@@UEBAIXZ 00000001800a6d80 f i NpScene.obj
 0001:000a5d90       ?getNbPoints@RenderBuffer@Cm@physx@@UEBAIXZ 00000001800a6d90 f i NpScene.obj
 0001:000a5da0       ?getNbTexts@RenderBuffer@Cm@physx@@UEBAIXZ 00000001800a6da0 f i NpScene.obj
 0001:000a5db0       ?getNbTriangles@RenderBuffer@Cm@physx@@UEBAIXZ 00000001800a6db0 f i NpScene.obj
 0001:000a5dc0       ?getPoints@RenderBuffer@Cm@physx@@UEBAPEBUPxDebugPoint@3@XZ 00000001800a6dc0 f i NpScene.obj
 0001:000a5dd0       ?getReference@PxLightCpuTask@physx@@UEBAHXZ 00000001800a6dd0 f i NpScene.obj
 0001:000a5de0       ?getTaskManager@NpScene@physx@@UEAAPEAVPxTaskManager@2@XZ 00000001800a6de0 f i NpScene.obj
 0001:000a5df0       ?getTaskManager@NpScene@physx@@UEBAPEAVPxTaskManager@2@XZ 00000001800a6df0 f i NpScene.obj
 0001:000a5e00       ?getTexts@RenderBuffer@Cm@physx@@UEBAPEBUPxDebugText@3@XZ 00000001800a6e00 f i NpScene.obj
 0001:000a5e10       ?getTriangles@RenderBuffer@Cm@physx@@UEBAPEBUPxDebugTriangle@3@XZ 00000001800a6e10 f i NpScene.obj
 0001:000a5e20       ?growAndPushBack@?$Array@PEAVNpBatchQuery@physx@@VNamedAllocator@shdfnd@2@@shdfnd@physx@@IEAAAEAPEAVNpBatchQuery@3@AEBQEAV43@@Z 00000001800a6e20 f i NpScene.obj
 0001:000a5f30       ?growAndPushBack@?$Array@PEAVNpVolumeCache@physx@@VNamedAllocator@shdfnd@2@@shdfnd@physx@@IEAAAEAPEAVNpVolumeCache@3@AEBQEAV43@@Z 00000001800a6f30 f i NpScene.obj
 0001:000a6040       ?growAndPushBack@?$Array@PEAVPxActor@physx@@VNamedAllocator@shdfnd@2@@shdfnd@physx@@IEAAAEAPEAVPxActor@3@AEBQEAV43@@Z 00000001800a7040 f i NpScene.obj
 0001:000a6150       ?growAndPushBack@?$Array@PEAVPxRigidActor@physx@@VNamedAllocator@shdfnd@2@@shdfnd@physx@@IEAAAEAPEAVPxRigidActor@3@AEBQEAV43@@Z 00000001800a7150 f i NpScene.obj
 0001:000a6260       ?growAndPushBack@?$Array@UPxDebugLine@physx@@VNamedAllocator@shdfnd@2@@shdfnd@physx@@IEAAAEAUPxDebugLine@3@AEBU43@@Z 00000001800a7260 f i NpScene.obj
 0001:000a63a0       ?growAndPushBack@?$Array@UPxDebugPoint@physx@@VNamedAllocator@shdfnd@2@@shdfnd@physx@@IEAAAEAUPxDebugPoint@3@AEBU43@@Z 00000001800a73a0 f i NpScene.obj
 0001:000a64c0       ?growAndPushBack@?$Array@UPxDebugText@physx@@VNamedAllocator@shdfnd@2@@shdfnd@physx@@IEAAAEAUPxDebugText@3@AEBU43@@Z 00000001800a74c0 f i NpScene.obj
 0001:000a65f0       ?growAndPushBack@?$Array@UPxDebugTriangle@physx@@VNamedAllocator@shdfnd@2@@shdfnd@physx@@IEAAAEAUPxDebugTriangle@3@AEBU43@@Z 00000001800a75f0 f i NpScene.obj
 0001:000a6760       ?isAddedShape@RigidObject@Scb@physx@@QEAA_NAEAVShape@23@@Z 00000001800a7760 f i NpScene.obj
 0001:000a6820       ?recreate@?$Array@GVNamedAllocator@shdfnd@physx@@@shdfnd@physx@@IEAAXI@Z 00000001800a7820 f i NpScene.obj
 0001:000a68f0       ?recreate@?$Array@PEAVNpVolumeCache@physx@@VNamedAllocator@shdfnd@2@@shdfnd@physx@@IEAAXI@Z 00000001800a78f0 f i NpScene.obj
 0001:000a69d0       ?recreate@?$Array@PEAVPxRigidActor@physx@@VNamedAllocator@shdfnd@2@@shdfnd@physx@@IEAAXI@Z 00000001800a79d0 f i NpScene.obj
 0001:000a6ab0       ?recreate@?$Array@PEAVShape@Scb@physx@@VNamedAllocator@shdfnd@3@@shdfnd@physx@@IEAAXI@Z 00000001800a7ab0 f i NpScene.obj
 0001:000a6b90       ?recreate@?$Array@UPxDebugLine@physx@@VNamedAllocator@shdfnd@2@@shdfnd@physx@@IEAAXI@Z 00000001800a7b90 f i NpScene.obj
 0001:000a6c50       ?recreate@?$Array@UPxDebugPoint@physx@@VNamedAllocator@shdfnd@2@@shdfnd@physx@@IEAAXI@Z 00000001800a7c50 f i NpScene.obj
 0001:000a6d10       ?recreate@?$Array@UPxDebugText@physx@@VNamedAllocator@shdfnd@2@@shdfnd@physx@@IEAAXI@Z 00000001800a7d10 f i NpScene.obj
 0001:000a6dd0       ?recreate@?$Array@UPxDebugTriangle@physx@@VNamedAllocator@shdfnd@2@@shdfnd@physx@@IEAAXI@Z 00000001800a7dd0 f i NpScene.obj
 0001:000a6ea0       ?recreate@?$Array@VPxBounds3@physx@@V?$InlineAllocator@$0MA@VNamedAllocator@shdfnd@physx@@@shdfnd@2@@shdfnd@physx@@IEAAXI@Z 00000001800a7ea0 f i NpScene.obj
 0001:000a6f40       ?release@PxLightCpuTask@physx@@UEAAXXZ 00000001800a7f40 f i NpScene.obj
 0001:000a6f60       ?release@SceneCompletion@NpScene@physx@@UEAAXXZ 00000001800a7f60 f i NpScene.obj
 0001:000a6fa0       ?removeReference@PxLightCpuTask@physx@@UEAAXXZ 00000001800a7fa0 f i NpScene.obj
 0001:000a6fc0       ?replaceWithLast@?$HashBase@PEAVPxCloth@physx@@PEAV12@U?$Hash@PEAVPxCloth@physx@@@shdfnd@2@UGetKey@?$HashSetBase@PEAVPxCloth@physx@@U?$Hash@PEAVPxCloth@physx@@@shdfnd@2@VNonTrackingAllocator@42@$00@internal@42@VNonTrackingAllocator@42@$00@internal@shdfnd@physx@@AEAAXI@Z 00000001800a7fc0 f i NpScene.obj
 0001:000a70c0       ?reserveInternal@?$HashBase@PEAVNpVolumeCache@physx@@PEAV12@U?$Hash@PEAVNpVolumeCache@physx@@@shdfnd@2@UGetKey@?$HashSetBase@PEAVNpVolumeCache@physx@@U?$Hash@PEAVNpVolumeCache@physx@@@shdfnd@2@VNonTrackingAllocator@42@$0A@@internal@42@VNonTrackingAllocator@42@$0A@@internal@shdfnd@physx@@AEAAXI@Z 00000001800a80c0 f i NpScene.obj
 0001:000a7460       ?reserveInternal@?$HashBase@PEAVPxAggregate@physx@@PEAV12@U?$Hash@PEAVPxAggregate@physx@@@shdfnd@2@UGetKey@?$HashSetBase@PEAVPxAggregate@physx@@U?$Hash@PEAVPxAggregate@physx@@@shdfnd@2@VNonTrackingAllocator@42@$00@internal@42@VNonTrackingAllocator@42@$00@internal@shdfnd@physx@@AEAAXI@Z 00000001800a8460 f i NpScene.obj
 0001:000a76d0       ?reserveInternal@?$HashBase@PEAVPxArticulation@physx@@PEAV12@U?$Hash@PEAVPxArticulation@physx@@@shdfnd@2@UGetKey@?$HashSetBase@PEAVPxArticulation@physx@@U?$Hash@PEAVPxArticulation@physx@@@shdfnd@2@VNonTrackingAllocator@42@$00@internal@42@VNonTrackingAllocator@42@$00@internal@shdfnd@physx@@AEAAXI@Z 00000001800a86d0 f i NpScene.obj
 0001:000a7940       ?reserveInternal@?$HashBase@PEAVPxCloth@physx@@PEAV12@U?$Hash@PEAVPxCloth@physx@@@shdfnd@2@UGetKey@?$HashSetBase@PEAVPxCloth@physx@@U?$Hash@PEAVPxCloth@physx@@@shdfnd@2@VNonTrackingAllocator@42@$00@internal@42@VNonTrackingAllocator@42@$00@internal@shdfnd@physx@@AEAAXI@Z 00000001800a8940 f i NpScene.obj
 0001:000a7bb0       ?reserveInternal@?$HashBase@PEAVPxParticleBase@physx@@PEAV12@U?$Hash@PEAVPxParticleBase@physx@@@shdfnd@2@UGetKey@?$HashSetBase@PEAVPxParticleBase@physx@@U?$Hash@PEAVPxParticleBase@physx@@@shdfnd@2@VNonTrackingAllocator@42@$00@internal@42@VNonTrackingAllocator@42@$00@internal@shdfnd@physx@@AEAAXI@Z 00000001800a8bb0 f i NpScene.obj
 0001:000a7e20       ?resetFiltering@?$NpRigidActorTemplate@VPxArticulationLink@physx@@@physx@@QEAA_NAEAVRigidObject@Scb@2@PEBQEAVPxShape@2@I@Z 00000001800a8e20 f i NpScene.obj
 0001:000a8220       ?resetFiltering@?$NpRigidActorTemplate@VPxRigidDynamic@physx@@@physx@@QEAA_NAEAVRigidObject@Scb@2@PEBQEAVPxShape@2@I@Z 00000001800a9220 f i NpScene.obj
 0001:000a8620       ?resetFiltering@?$NpRigidActorTemplate@VPxRigidStatic@physx@@@physx@@QEAA_NAEAVRigidObject@Scb@2@PEBQEAVPxShape@2@I@Z 00000001800a9620 f i NpScene.obj
 0001:000a8a20       ?resetFiltering@ParticleSystem@Scb@physx@@QEAAXXZ 00000001800a9a20 f i NpScene.obj
 0001:000a8ac0       ?resetFiltering@RigidObject@Scb@physx@@QEAAXPEBQEAVShape@23@I@Z 00000001800a9ac0 f i NpScene.obj
 0001:000a8e10       ?resize@?$Array@GVNamedAllocator@shdfnd@physx@@@shdfnd@physx@@QEAAXIAEBG@Z 00000001800a9e10 f i NpScene.obj
 0001:000a8ed0       ?resize@?$Array@PEAVShape@Scb@physx@@VNamedAllocator@shdfnd@3@@shdfnd@physx@@QEAAXIAEBQEAVShape@Scb@3@@Z 00000001800a9ed0 f i NpScene.obj
 0001:000a8f90       ?resizeUninitialized@?$Array@VPxBounds3@physx@@V?$InlineAllocator@$0MA@VNamedAllocator@shdfnd@physx@@@shdfnd@2@@shdfnd@physx@@QEAAXI@Z 00000001800a9f90 f i NpScene.obj
 0001:000a8ff0       ?run@Task@Cm@physx@@UEAAXXZ 00000001800a9ff0 f i NpScene.obj
 0001:000a9040       ?runInternal@?$DelegateTask@VNpScene@physx@@$H?executeAdvance@12@QEAAXPEAVPxBaseTask@2@@ZA@@Cm@physx@@UEAAXXZ 00000001800aa040 f i NpScene.obj
 0001:000a9050       ?runInternal@?$DelegateTask@VNpScene@physx@@$H?executeCollide@12@QEAAXPEAVPxBaseTask@2@@ZA@@Cm@physx@@UEAAXXZ 00000001800aa050 f i NpScene.obj
 0001:000a9060       ?runInternal@?$DelegateTask@VNpScene@physx@@$H?executeScene@12@QEAAXPEAVPxBaseTask@2@@ZA@@Cm@physx@@UEAAXXZ 00000001800aa060 f i NpScene.obj
 0001:000a9070       ?runInternal@SceneCompletion@NpScene@physx@@UEAAXXZ 00000001800aa070 f i NpScene.obj
 0001:000a9080       ?setContinuation@PxLightCpuTask@physx@@QEAAXPEAVPxBaseTask@2@@Z 00000001800aa080 f i NpScene.obj
 0001:000a90d0       ?setDominanceGroupPair@Scene@Scb@physx@@QEAAXEEAEBUPxDominanceGroupPair@3@@Z 00000001800aa0d0 f i NpScene.obj
 0001:000a9140       ?setDominancePair@SceneBuffer@Scb@physx@@QEAAXIIAEBUPxDominanceGroupPair@3@@Z 00000001800aa140 f i NpScene.obj
 0001:000a9220       ?setFlags@Scene@Scb@physx@@QEAAXV?$PxFlags@W4Enum@PxSceneFlag@physx@@I@3@@Z 00000001800aa220 f i NpScene.obj
 0001:000a92c0       ?setGravity@Scene@Scb@physx@@QEAAXAEBVPxVec3@3@@Z 00000001800aa2c0 f i NpScene.obj
 0001:000a9360       ?shift@RenderBuffer@Cm@physx@@QEAAXAEBVPxVec3@3@@Z 00000001800aa360 f i NpScene.obj
 0001:000a95d0       ?raycast@NpSceneQueries@physx@@UEBA_NAEBVPxVec3@2@0MAEAU?$PxHitCallback@UPxRaycastHit@physx@@@2@V?$PxFlags@W4Enum@PxHitFlag@physx@@G@2@AEBUPxQueryFilterData@2@PEAVPxQueryFilterCallback@2@PEBUPxQueryCache@2@@Z 00000001800aa5d0 f   NpSceneQueries.obj
 0001:000a9780       ?sweep@NpSceneQueries@physx@@UEBA_NAEBVPxGeometry@2@AEBVPxTransform@2@AEBVPxVec3@2@MAEAU?$PxHitCallback@UPxSweepHit@physx@@@2@V?$PxFlags@W4Enum@PxHitFlag@physx@@G@2@AEBUPxQueryFilterData@2@PEAVPxQueryFilterCallback@2@PEBUPxQueryCache@2@M@Z 00000001800aa780 f   NpSceneQueries.obj
 0001:000a9a70       ?overlap@NpSceneQueries@physx@@UEBA_NAEBVPxGeometry@2@AEBVPxTransform@2@AEAU?$PxHitCallback@UPxOverlapHit@physx@@@2@AEBUPxQueryFilterData@2@PEAVPxQueryFilterCallback@2@@Z 00000001800aaa70 f   NpSceneQueries.obj
 0001:000a9f20       ??$multiQuery@UPxOverlapHit@physx@@@NpSceneQueries@physx@@QEBA_NAEBUMultiQueryInput@1@AEAU?$PxHitCallback@UPxOverlapHit@physx@@@1@V?$PxFlags@W4Enum@PxHitFlag@physx@@G@1@PEBUPxQueryCache@1@AEBUPxQueryFilterData@1@PEAVPxQueryFilterCallback@1@PEAUBatchQueryFilterData@1@@Z 00000001800aaf20 f i NpSceneQueries.obj
 0001:000aa410       ??$multiQuery@UPxRaycastHit@physx@@@NpSceneQueries@physx@@QEBA_NAEBUMultiQueryInput@1@AEAU?$PxHitCallback@UPxRaycastHit@physx@@@1@V?$PxFlags@W4Enum@PxHitFlag@physx@@G@1@PEBUPxQueryCache@1@AEBUPxQueryFilterData@1@PEAVPxQueryFilterCallback@1@PEAUBatchQueryFilterData@1@@Z 00000001800ab410 f i NpSceneQueries.obj
 0001:000aaa90       ??$multiQuery@UPxSweepHit@physx@@@NpSceneQueries@physx@@QEBA_NAEBUMultiQueryInput@1@AEAU?$PxHitCallback@UPxSweepHit@physx@@@1@V?$PxFlags@W4Enum@PxHitFlag@physx@@G@1@PEBUPxQueryCache@1@AEBUPxQueryFilterData@1@PEAVPxQueryFilterCallback@1@PEAUBatchQueryFilterData@1@@Z 00000001800aba90 f i NpSceneQueries.obj
 0001:000ab200       ??0?$CapturePvdOnReturn@UPxOverlapHit@physx@@@@QEAA@PEBVNpSceneQueries@physx@@AEBUMultiQueryInput@2@V?$PxFlags@W4Enum@PxHitFlag@physx@@G@2@PEBUPxQueryCache@2@AEBUPxQueryFilterData@2@PEAVPxQueryFilterCallback@2@PEAUBatchQueryFilterData@2@AEAU?$PxHitCallback@UPxOverlapHit@physx@@@2@@Z 00000001800ac200 f i NpSceneQueries.obj
 0001:000ab310       ??0?$CapturePvdOnReturn@UPxRaycastHit@physx@@@@QEAA@PEBVNpSceneQueries@physx@@AEBUMultiQueryInput@2@V?$PxFlags@W4Enum@PxHitFlag@physx@@G@2@PEBUPxQueryCache@2@AEBUPxQueryFilterData@2@PEAVPxQueryFilterCallback@2@PEAUBatchQueryFilterData@2@AEAU?$PxHitCallback@UPxRaycastHit@physx@@@2@@Z 00000001800ac310 f i NpSceneQueries.obj
 0001:000ab450       ??0?$CapturePvdOnReturn@UPxSweepHit@physx@@@@QEAA@PEBVNpSceneQueries@physx@@AEBUMultiQueryInput@2@V?$PxFlags@W4Enum@PxHitFlag@physx@@G@2@PEBUPxQueryCache@2@AEBUPxQueryFilterData@2@PEAVPxQueryFilterCallback@2@PEAUBatchQueryFilterData@2@AEAU?$PxHitCallback@UPxSweepHit@physx@@@2@@Z 00000001800ac450 f i NpSceneQueries.obj
 0001:000ab590       ??0PxOverlapHit@physx@@QEAA@XZ 00000001800ac590 f i NpSceneQueries.obj
 0001:000ab5b0       ??0PxRaycastHit@physx@@QEAA@XZ 00000001800ac5b0 f i NpSceneQueries.obj
 0001:000ab5f0       ??0PxSweepHit@physx@@QEAA@XZ 00000001800ac5f0 f i NpSceneQueries.obj
 0001:000ab630       ??1?$CapturePvdOnReturn@UPxOverlapHit@physx@@@@UEAA@XZ 00000001800ac630 f i NpSceneQueries.obj
 0001:000ab850       ??1?$CapturePvdOnReturn@UPxRaycastHit@physx@@@@UEAA@XZ 00000001800ac850 f i NpSceneQueries.obj
 0001:000abb50       ??1?$CapturePvdOnReturn@UPxSweepHit@physx@@@@UEAA@XZ 00000001800acb50 f i NpSceneQueries.obj
 0001:000abe40       ??1PrunerCallback@Sq@physx@@UEAA@XZ 00000001800ace40 f i NpSceneQueries.obj
 0001:000abe50       ??_G?$CapturePvdOnReturn@UPxOverlapHit@physx@@@@UEAAPEAXI@Z 00000001800ace50 f i NpSceneQueries.obj
 0001:000abe50       ??_E?$CapturePvdOnReturn@UPxOverlapHit@physx@@@@UEAAPEAXI@Z 00000001800ace50 f i NpSceneQueries.obj
 0001:000abea0       ??_E?$CapturePvdOnReturn@UPxRaycastHit@physx@@@@UEAAPEAXI@Z 00000001800acea0 f i NpSceneQueries.obj
 0001:000abea0       ??_G?$CapturePvdOnReturn@UPxRaycastHit@physx@@@@UEAAPEAXI@Z 00000001800acea0 f i NpSceneQueries.obj
 0001:000abef0       ??_E?$CapturePvdOnReturn@UPxSweepHit@physx@@@@UEAAPEAXI@Z 00000001800acef0 f i NpSceneQueries.obj
 0001:000abef0       ??_G?$CapturePvdOnReturn@UPxSweepHit@physx@@@@UEAAPEAXI@Z 00000001800acef0 f i NpSceneQueries.obj
 0001:000abf40       ??_G?$MultiQueryCallback@UPxOverlapHit@physx@@@@UEAAPEAXI@Z 00000001800acf40 f i NpSceneQueries.obj
 0001:000abf40       ??_E?$MultiQueryCallback@UPxOverlapHit@physx@@@@UEAAPEAXI@Z 00000001800acf40 f i NpSceneQueries.obj
 0001:000abf80       ??_G?$MultiQueryCallback@UPxRaycastHit@physx@@@@UEAAPEAXI@Z 00000001800acf80 f i NpSceneQueries.obj
 0001:000abf80       ??_E?$MultiQueryCallback@UPxRaycastHit@physx@@@@UEAAPEAXI@Z 00000001800acf80 f i NpSceneQueries.obj
 0001:000abfc0       ??_G?$MultiQueryCallback@UPxSweepHit@physx@@@@UEAAPEAXI@Z 00000001800acfc0 f i NpSceneQueries.obj
 0001:000abfc0       ??_E?$MultiQueryCallback@UPxSweepHit@physx@@@@UEAAPEAXI@Z 00000001800acfc0 f i NpSceneQueries.obj
 0001:000ac000       ??_EPrunerCallback@Sq@physx@@UEAAPEAXI@Z 00000001800ad000 f i NpSceneQueries.obj
 0001:000ac000       ??_GPrunerCallback@Sq@physx@@UEAAPEAXI@Z 00000001800ad000 f i NpSceneQueries.obj
 0001:000ac040       ?copy@?$Array@UPxRaycastHit@physx@@VNamedAllocator@shdfnd@2@@shdfnd@physx@@KAXPEAUPxRaycastHit@3@0PEBU43@@Z 00000001800ad040 f i NpSceneQueries.obj
 0001:000ac370       ?copy@?$Array@UPxSweepHit@physx@@VNamedAllocator@shdfnd@2@@shdfnd@physx@@KAXPEAUPxSweepHit@3@0PEBU43@@Z 00000001800ad370 f i NpSceneQueries.obj
 0001:000ac670       ?growAndPushBack@?$Array@UPxOverlapHit@physx@@VNamedAllocator@shdfnd@2@@shdfnd@physx@@IEAAAEAUPxOverlapHit@3@AEBU43@@Z 00000001800ad670 f i NpSceneQueries.obj
 0001:000ac790       ?growAndPushBack@?$Array@UPxRaycastHit@physx@@VNamedAllocator@shdfnd@2@@shdfnd@physx@@IEAAAEAUPxRaycastHit@3@AEBU43@@Z 00000001800ad790 f i NpSceneQueries.obj
 0001:000ac900       ?growAndPushBack@?$Array@UPxSweepHit@physx@@VNamedAllocator@shdfnd@2@@shdfnd@physx@@IEAAAEAUPxSweepHit@3@AEBU43@@Z 00000001800ad900 f i NpSceneQueries.obj
 0001:000aca60       ?invoke@?$MultiQueryCallback@UPxOverlapHit@physx@@@@UEAA_NAEAMAEBUPrunerPayload@Sq@physx@@@Z 00000001800ada60 f i NpSceneQueries.obj
 0001:000ad130       ?invoke@?$MultiQueryCallback@UPxRaycastHit@physx@@@@UEAA_NAEAMAEBUPrunerPayload@Sq@physx@@@Z 00000001800ae130 f i NpSceneQueries.obj
 0001:000add50       ?invoke@?$MultiQueryCallback@UPxSweepHit@physx@@@@UEAA_NAEAMAEBUPrunerPayload@Sq@physx@@@Z 00000001800aed50 f i NpSceneQueries.obj
 0001:000af060       ?processTouches@?$CapturePvdOnReturn@UPxOverlapHit@physx@@@@UEAA_NPEBUPxOverlapHit@physx@@I@Z 00000001800b0060 f i NpSceneQueries.obj
 0001:000af120       ?processTouches@?$CapturePvdOnReturn@UPxRaycastHit@physx@@@@UEAA_NPEBUPxRaycastHit@physx@@I@Z 00000001800b0120 f i NpSceneQueries.obj
 0001:000af240       ?processTouches@?$CapturePvdOnReturn@UPxSweepHit@physx@@@@UEAA_NPEBUPxSweepHit@physx@@I@Z 00000001800b0240 f i NpSceneQueries.obj
 0001:000af350       PxRegisterPhysicsSerializers 00000001800b0350 f   NpSerializerAdapter.obj
 0001:000afa70       PxUnregisterPhysicsSerializers 00000001800b0a70 f   NpSerializerAdapter.obj
 0001:000b01d0       ??1PxProcessPxBaseCallback@physx@@UEAA@XZ 00000001800b11d0 f i NpSerializerAdapter.obj
 0001:000b01e0       ??1PxSerializer@physx@@UEAA@XZ 00000001800b11e0 f i NpSerializerAdapter.obj
 0001:000b01f0       ??_E?$PxSerializerDefaultAdapter@VBV4TriangleMesh@Gu@physx@@@physx@@UEAAPEAXI@Z 00000001800b11f0 f i NpSerializerAdapter.obj
 0001:000b01f0       ??_G?$PxSerializerDefaultAdapter@VBV4TriangleMesh@Gu@physx@@@physx@@UEAAPEAXI@Z 00000001800b11f0 f i NpSerializerAdapter.obj
 0001:000b0230       ??_E?$PxSerializerDefaultAdapter@VConvexMesh@Gu@physx@@@physx@@UEAAPEAXI@Z 00000001800b1230 f i NpSerializerAdapter.obj
 0001:000b0230       ??_G?$PxSerializerDefaultAdapter@VConvexMesh@Gu@physx@@@physx@@UEAAPEAXI@Z 00000001800b1230 f i NpSerializerAdapter.obj
 0001:000b0270       ??_G?$PxSerializerDefaultAdapter@VHeightField@Gu@physx@@@physx@@UEAAPEAXI@Z 00000001800b1270 f i NpSerializerAdapter.obj
 0001:000b0270       ??_E?$PxSerializerDefaultAdapter@VHeightField@Gu@physx@@@physx@@UEAAPEAXI@Z 00000001800b1270 f i NpSerializerAdapter.obj
 0001:000b02b0       ??_E?$PxSerializerDefaultAdapter@VNpAggregate@physx@@@physx@@UEAAPEAXI@Z 00000001800b12b0 f i NpSerializerAdapter.obj
 0001:000b02b0       ??_G?$PxSerializerDefaultAdapter@VNpAggregate@physx@@@physx@@UEAAPEAXI@Z 00000001800b12b0 f i NpSerializerAdapter.obj
 0001:000b02f0       ??_E?$PxSerializerDefaultAdapter@VNpArticulation@physx@@@physx@@UEAAPEAXI@Z 00000001800b12f0 f i NpSerializerAdapter.obj
 0001:000b02f0       ??_G?$PxSerializerDefaultAdapter@VNpArticulation@physx@@@physx@@UEAAPEAXI@Z 00000001800b12f0 f i NpSerializerAdapter.obj
 0001:000b0330       ??_E?$PxSerializerDefaultAdapter@VNpArticulationJoint@physx@@@physx@@UEAAPEAXI@Z 00000001800b1330 f i NpSerializerAdapter.obj
 0001:000b0330       ??_G?$PxSerializerDefaultAdapter@VNpArticulationJoint@physx@@@physx@@UEAAPEAXI@Z 00000001800b1330 f i NpSerializerAdapter.obj
 0001:000b0370       ??_E?$PxSerializerDefaultAdapter@VNpArticulationLink@physx@@@physx@@UEAAPEAXI@Z 00000001800b1370 f i NpSerializerAdapter.obj
 0001:000b0370       ??_G?$PxSerializerDefaultAdapter@VNpArticulationLink@physx@@@physx@@UEAAPEAXI@Z 00000001800b1370 f i NpSerializerAdapter.obj
 0001:000b03b0       ??_E?$PxSerializerDefaultAdapter@VNpCloth@physx@@@physx@@UEAAPEAXI@Z 00000001800b13b0 f i NpSerializerAdapter.obj
 0001:000b03b0       ??_G?$PxSerializerDefaultAdapter@VNpCloth@physx@@@physx@@UEAAPEAXI@Z 00000001800b13b0 f i NpSerializerAdapter.obj
 0001:000b03f0       ??_E?$PxSerializerDefaultAdapter@VNpClothFabric@physx@@@physx@@UEAAPEAXI@Z 00000001800b13f0 f i NpSerializerAdapter.obj
 0001:000b03f0       ??_G?$PxSerializerDefaultAdapter@VNpClothFabric@physx@@@physx@@UEAAPEAXI@Z 00000001800b13f0 f i NpSerializerAdapter.obj
 0001:000b0430       ??_G?$PxSerializerDefaultAdapter@VNpConstraint@physx@@@physx@@UEAAPEAXI@Z 00000001800b1430 f i NpSerializerAdapter.obj
 0001:000b0430       ??_E?$PxSerializerDefaultAdapter@VNpConstraint@physx@@@physx@@UEAAPEAXI@Z 00000001800b1430 f i NpSerializerAdapter.obj
 0001:000b0470       ??_E?$PxSerializerDefaultAdapter@VNpMaterial@physx@@@physx@@UEAAPEAXI@Z 00000001800b1470 f i NpSerializerAdapter.obj
 0001:000b0470       ??_G?$PxSerializerDefaultAdapter@VNpMaterial@physx@@@physx@@UEAAPEAXI@Z 00000001800b1470 f i NpSerializerAdapter.obj
 0001:000b04b0       ??_G?$PxSerializerDefaultAdapter@VNpParticleFluid@physx@@@physx@@UEAAPEAXI@Z 00000001800b14b0 f i NpSerializerAdapter.obj
 0001:000b04b0       ??_E?$PxSerializerDefaultAdapter@VNpParticleFluid@physx@@@physx@@UEAAPEAXI@Z 00000001800b14b0 f i NpSerializerAdapter.obj
 0001:000b04f0       ??_E?$PxSerializerDefaultAdapter@VNpParticleSystem@physx@@@physx@@UEAAPEAXI@Z 00000001800b14f0 f i NpSerializerAdapter.obj
 0001:000b04f0       ??_G?$PxSerializerDefaultAdapter@VNpParticleSystem@physx@@@physx@@UEAAPEAXI@Z 00000001800b14f0 f i NpSerializerAdapter.obj
 0001:000b0530       ??_G?$PxSerializerDefaultAdapter@VNpRigidDynamic@physx@@@physx@@UEAAPEAXI@Z 00000001800b1530 f i NpSerializerAdapter.obj
 0001:000b0530       ??_E?$PxSerializerDefaultAdapter@VNpRigidDynamic@physx@@@physx@@UEAAPEAXI@Z 00000001800b1530 f i NpSerializerAdapter.obj
 0001:000b0570       ??_E?$PxSerializerDefaultAdapter@VNpRigidStatic@physx@@@physx@@UEAAPEAXI@Z 00000001800b1570 f i NpSerializerAdapter.obj
 0001:000b0570       ??_G?$PxSerializerDefaultAdapter@VNpRigidStatic@physx@@@physx@@UEAAPEAXI@Z 00000001800b1570 f i NpSerializerAdapter.obj
 0001:000b05b0       ??_G?$PxSerializerDefaultAdapter@VNpShape@physx@@@physx@@UEAAPEAXI@Z 00000001800b15b0 f i NpSerializerAdapter.obj
 0001:000b05b0       ??_E?$PxSerializerDefaultAdapter@VNpShape@physx@@@physx@@UEAAPEAXI@Z 00000001800b15b0 f i NpSerializerAdapter.obj
 0001:000b05f0       ??_G?$PxSerializerDefaultAdapter@VPruningStructure@Sq@physx@@@physx@@UEAAPEAXI@Z 00000001800b15f0 f i NpSerializerAdapter.obj
 0001:000b05f0       ??_E?$PxSerializerDefaultAdapter@VPruningStructure@Sq@physx@@@physx@@UEAAPEAXI@Z 00000001800b15f0 f i NpSerializerAdapter.obj
 0001:000b0630       ??_E?$PxSerializerDefaultAdapter@VRTreeTriangleMesh@Gu@physx@@@physx@@UEAAPEAXI@Z 00000001800b1630 f i NpSerializerAdapter.obj
 0001:000b0630       ??_G?$PxSerializerDefaultAdapter@VRTreeTriangleMesh@Gu@physx@@@physx@@UEAAPEAXI@Z 00000001800b1630 f i NpSerializerAdapter.obj
 0001:000b0670       ??_EPxProcessPxBaseCallback@physx@@UEAAPEAXI@Z 00000001800b1670 f i NpSerializerAdapter.obj
 0001:000b0670       ??_GPxProcessPxBaseCallback@physx@@UEAAPEAXI@Z 00000001800b1670 f i NpSerializerAdapter.obj
 0001:000b06b0       ??_GPxSerializer@physx@@UEAAPEAXI@Z 00000001800b16b0 f i NpSerializerAdapter.obj
 0001:000b06b0       ??_EPxSerializer@physx@@UEAAPEAXI@Z 00000001800b16b0 f i NpSerializerAdapter.obj
 0001:000b06f0       ??_GRequiresCallback@?1??registerReferences@?$PxSerializerDefaultAdapter@VBV4TriangleMesh@Gu@physx@@@physx@@UEBAXAEAVPxBase@3@AEAVPxSerializationContext@3@@Z@UEAAPEAXI@Z 00000001800b16f0 f i NpSerializerAdapter.obj
 0001:000b06f0       ??_ERequiresCallback@?1??registerReferences@?$PxSerializerDefaultAdapter@VBV4TriangleMesh@Gu@physx@@@physx@@UEBAXAEAVPxBase@3@AEAVPxSerializationContext@3@@Z@UEAAPEAXI@Z 00000001800b16f0 f i NpSerializerAdapter.obj
 0001:000b0730       ??_ERequiresCallback@?1??registerReferences@?$PxSerializerDefaultAdapter@VConvexMesh@Gu@physx@@@physx@@UEBAXAEAVPxBase@3@AEAVPxSerializationContext@3@@Z@UEAAPEAXI@Z 00000001800b1730 f i NpSerializerAdapter.obj
 0001:000b0730       ??_GRequiresCallback@?1??registerReferences@?$PxSerializerDefaultAdapter@VConvexMesh@Gu@physx@@@physx@@UEBAXAEAVPxBase@3@AEAVPxSerializationContext@3@@Z@UEAAPEAXI@Z 00000001800b1730 f i NpSerializerAdapter.obj
 0001:000b0770       ??_ERequiresCallback@?1??registerReferences@?$PxSerializerDefaultAdapter@VHeightField@Gu@physx@@@physx@@UEBAXAEAVPxBase@3@AEAVPxSerializationContext@3@@Z@UEAAPEAXI@Z 00000001800b1770 f i NpSerializerAdapter.obj
 0001:000b0770       ??_GRequiresCallback@?1??registerReferences@?$PxSerializerDefaultAdapter@VHeightField@Gu@physx@@@physx@@UEBAXAEAVPxBase@3@AEAVPxSerializationContext@3@@Z@UEAAPEAXI@Z 00000001800b1770 f i NpSerializerAdapter.obj
 0001:000b07b0       ??_ERequiresCallback@?1??registerReferences@?$PxSerializerDefaultAdapter@VNpAggregate@physx@@@physx@@UEBAXAEAVPxBase@3@AEAVPxSerializationContext@3@@Z@UEAAPEAXI@Z 00000001800b17b0 f i NpSerializerAdapter.obj
 0001:000b07b0       ??_GRequiresCallback@?1??registerReferences@?$PxSerializerDefaultAdapter@VNpAggregate@physx@@@physx@@UEBAXAEAVPxBase@3@AEAVPxSerializationContext@3@@Z@UEAAPEAXI@Z 00000001800b17b0 f i NpSerializerAdapter.obj
 0001:000b07f0       ??_ERequiresCallback@?1??registerReferences@?$PxSerializerDefaultAdapter@VNpArticulation@physx@@@physx@@UEBAXAEAVPxBase@3@AEAVPxSerializationContext@3@@Z@UEAAPEAXI@Z 00000001800b17f0 f i NpSerializerAdapter.obj
 0001:000b07f0       ??_GRequiresCallback@?1??registerReferences@?$PxSerializerDefaultAdapter@VNpArticulation@physx@@@physx@@UEBAXAEAVPxBase@3@AEAVPxSerializationContext@3@@Z@UEAAPEAXI@Z 00000001800b17f0 f i NpSerializerAdapter.obj
 0001:000b0830       ??_GRequiresCallback@?1??registerReferences@?$PxSerializerDefaultAdapter@VNpArticulationJoint@physx@@@physx@@UEBAXAEAVPxBase@3@AEAVPxSerializationContext@3@@Z@UEAAPEAXI@Z 00000001800b1830 f i NpSerializerAdapter.obj
 0001:000b0830       ??_ERequiresCallback@?1??registerReferences@?$PxSerializerDefaultAdapter@VNpArticulationJoint@physx@@@physx@@UEBAXAEAVPxBase@3@AEAVPxSerializationContext@3@@Z@UEAAPEAXI@Z 00000001800b1830 f i NpSerializerAdapter.obj
 0001:000b0870       ??_ERequiresCallback@?1??registerReferences@?$PxSerializerDefaultAdapter@VNpArticulationLink@physx@@@physx@@UEBAXAEAVPxBase@3@AEAVPxSerializationContext@3@@Z@UEAAPEAXI@Z 00000001800b1870 f i NpSerializerAdapter.obj
 0001:000b0870       ??_GRequiresCallback@?1??registerReferences@?$PxSerializerDefaultAdapter@VNpArticulationLink@physx@@@physx@@UEBAXAEAVPxBase@3@AEAVPxSerializationContext@3@@Z@UEAAPEAXI@Z 00000001800b1870 f i NpSerializerAdapter.obj
 0001:000b08b0       ??_GRequiresCallback@?1??registerReferences@?$PxSerializerDefaultAdapter@VNpCloth@physx@@@physx@@UEBAXAEAVPxBase@3@AEAVPxSerializationContext@3@@Z@UEAAPEAXI@Z 00000001800b18b0 f i NpSerializerAdapter.obj
 0001:000b08b0       ??_ERequiresCallback@?1??registerReferences@?$PxSerializerDefaultAdapter@VNpCloth@physx@@@physx@@UEBAXAEAVPxBase@3@AEAVPxSerializationContext@3@@Z@UEAAPEAXI@Z 00000001800b18b0 f i NpSerializerAdapter.obj
 0001:000b08f0       ??_GRequiresCallback@?1??registerReferences@?$PxSerializerDefaultAdapter@VNpClothFabric@physx@@@physx@@UEBAXAEAVPxBase@3@AEAVPxSerializationContext@3@@Z@UEAAPEAXI@Z 00000001800b18f0 f i NpSerializerAdapter.obj
 0001:000b08f0       ??_ERequiresCallback@?1??registerReferences@?$PxSerializerDefaultAdapter@VNpClothFabric@physx@@@physx@@UEBAXAEAVPxBase@3@AEAVPxSerializationContext@3@@Z@UEAAPEAXI@Z 00000001800b18f0 f i NpSerializerAdapter.obj
 0001:000b0930       ??_ERequiresCallback@?1??registerReferences@?$PxSerializerDefaultAdapter@VNpConstraint@physx@@@physx@@UEBAXAEAVPxBase@3@AEAVPxSerializationContext@3@@Z@UEAAPEAXI@Z 00000001800b1930 f i NpSerializerAdapter.obj
 0001:000b0930       ??_GRequiresCallback@?1??registerReferences@?$PxSerializerDefaultAdapter@VNpConstraint@physx@@@physx@@UEBAXAEAVPxBase@3@AEAVPxSerializationContext@3@@Z@UEAAPEAXI@Z 00000001800b1930 f i NpSerializerAdapter.obj
 0001:000b0970       ??_ERequiresCallback@?1??registerReferences@?$PxSerializerDefaultAdapter@VNpMaterial@physx@@@physx@@UEBAXAEAVPxBase@3@AEAVPxSerializationContext@3@@Z@UEAAPEAXI@Z 00000001800b1970 f i NpSerializerAdapter.obj
 0001:000b0970       ??_GRequiresCallback@?1??registerReferences@?$PxSerializerDefaultAdapter@VNpMaterial@physx@@@physx@@UEBAXAEAVPxBase@3@AEAVPxSerializationContext@3@@Z@UEAAPEAXI@Z 00000001800b1970 f i NpSerializerAdapter.obj
 0001:000b09b0       ??_GRequiresCallback@?1??registerReferences@?$PxSerializerDefaultAdapter@VNpParticleFluid@physx@@@physx@@UEBAXAEAVPxBase@3@AEAVPxSerializationContext@3@@Z@UEAAPEAXI@Z 00000001800b19b0 f i NpSerializerAdapter.obj
 0001:000b09b0       ??_ERequiresCallback@?1??registerReferences@?$PxSerializerDefaultAdapter@VNpParticleFluid@physx@@@physx@@UEBAXAEAVPxBase@3@AEAVPxSerializationContext@3@@Z@UEAAPEAXI@Z 00000001800b19b0 f i NpSerializerAdapter.obj
 0001:000b09f0       ??_ERequiresCallback@?1??registerReferences@?$PxSerializerDefaultAdapter@VNpParticleSystem@physx@@@physx@@UEBAXAEAVPxBase@3@AEAVPxSerializationContext@3@@Z@UEAAPEAXI@Z 00000001800b19f0 f i NpSerializerAdapter.obj
 0001:000b09f0       ??_GRequiresCallback@?1??registerReferences@?$PxSerializerDefaultAdapter@VNpParticleSystem@physx@@@physx@@UEBAXAEAVPxBase@3@AEAVPxSerializationContext@3@@Z@UEAAPEAXI@Z 00000001800b19f0 f i NpSerializerAdapter.obj
 0001:000b0a30       ??_GRequiresCallback@?1??registerReferences@?$PxSerializerDefaultAdapter@VNpRigidDynamic@physx@@@physx@@UEBAXAEAVPxBase@3@AEAVPxSerializationContext@3@@Z@UEAAPEAXI@Z 00000001800b1a30 f i NpSerializerAdapter.obj
 0001:000b0a30       ??_ERequiresCallback@?1??registerReferences@?$PxSerializerDefaultAdapter@VNpRigidDynamic@physx@@@physx@@UEBAXAEAVPxBase@3@AEAVPxSerializationContext@3@@Z@UEAAPEAXI@Z 00000001800b1a30 f i NpSerializerAdapter.obj
 0001:000b0a70       ??_GRequiresCallback@?1??registerReferences@?$PxSerializerDefaultAdapter@VNpRigidStatic@physx@@@physx@@UEBAXAEAVPxBase@3@AEAVPxSerializationContext@3@@Z@UEAAPEAXI@Z 00000001800b1a70 f i NpSerializerAdapter.obj
 0001:000b0a70       ??_ERequiresCallback@?1??registerReferences@?$PxSerializerDefaultAdapter@VNpRigidStatic@physx@@@physx@@UEBAXAEAVPxBase@3@AEAVPxSerializationContext@3@@Z@UEAAPEAXI@Z 00000001800b1a70 f i NpSerializerAdapter.obj
 0001:000b0ab0       ??_GRequiresCallback@?1??registerReferences@?$PxSerializerDefaultAdapter@VNpShape@physx@@@physx@@UEBAXAEAVPxBase@3@AEAVPxSerializationContext@3@@Z@UEAAPEAXI@Z 00000001800b1ab0 f i NpSerializerAdapter.obj
 0001:000b0ab0       ??_ERequiresCallback@?1??registerReferences@?$PxSerializerDefaultAdapter@VNpShape@physx@@@physx@@UEBAXAEAVPxBase@3@AEAVPxSerializationContext@3@@Z@UEAAPEAXI@Z 00000001800b1ab0 f i NpSerializerAdapter.obj
 0001:000b0af0       ??_ERequiresCallback@?1??registerReferences@?$PxSerializerDefaultAdapter@VPruningStructure@Sq@physx@@@physx@@UEBAXAEAVPxBase@3@AEAVPxSerializationContext@3@@Z@UEAAPEAXI@Z 00000001800b1af0 f i NpSerializerAdapter.obj
 0001:000b0af0       ??_GRequiresCallback@?1??registerReferences@?$PxSerializerDefaultAdapter@VPruningStructure@Sq@physx@@@physx@@UEBAXAEAVPxBase@3@AEAVPxSerializationContext@3@@Z@UEAAPEAXI@Z 00000001800b1af0 f i NpSerializerAdapter.obj
 0001:000b0b30       ??_ERequiresCallback@?1??registerReferences@?$PxSerializerDefaultAdapter@VRTreeTriangleMesh@Gu@physx@@@physx@@UEBAXAEAVPxBase@3@AEAVPxSerializationContext@3@@Z@UEAAPEAXI@Z 00000001800b1b30 f i NpSerializerAdapter.obj
 0001:000b0b30       ??_GRequiresCallback@?1??registerReferences@?$PxSerializerDefaultAdapter@VRTreeTriangleMesh@Gu@physx@@@physx@@UEBAXAEAVPxBase@3@AEAVPxSerializationContext@3@@Z@UEAAPEAXI@Z 00000001800b1b30 f i NpSerializerAdapter.obj
 0001:000b0b70       ?createObject@?$PxSerializerDefaultAdapter@VBV4TriangleMesh@Gu@physx@@@physx@@UEBAPEAVPxBase@2@AEAPEAEAEAVPxDeserializationContext@2@@Z 00000001800b1b70 f i NpSerializerAdapter.obj
 0001:000b0b80       ?createObject@?$PxSerializerDefaultAdapter@VConvexMesh@Gu@physx@@@physx@@UEBAPEAVPxBase@2@AEAPEAEAEAVPxDeserializationContext@2@@Z 00000001800b1b80 f i NpSerializerAdapter.obj
 0001:000b0b90       ?createObject@?$PxSerializerDefaultAdapter@VHeightField@Gu@physx@@@physx@@UEBAPEAVPxBase@2@AEAPEAEAEAVPxDeserializationContext@2@@Z 00000001800b1b90 f i NpSerializerAdapter.obj
 0001:000b0ba0       ?createObject@?$PxSerializerDefaultAdapter@VNpAggregate@physx@@@physx@@UEBAPEAVPxBase@2@AEAPEAEAEAVPxDeserializationContext@2@@Z 00000001800b1ba0 f i NpSerializerAdapter.obj
 0001:000b0bb0       ?createObject@?$PxSerializerDefaultAdapter@VNpArticulation@physx@@@physx@@UEBAPEAVPxBase@2@AEAPEAEAEAVPxDeserializationContext@2@@Z 00000001800b1bb0 f i NpSerializerAdapter.obj
 0001:000b0bc0       ?createObject@?$PxSerializerDefaultAdapter@VNpArticulationJoint@physx@@@physx@@UEBAPEAVPxBase@2@AEAPEAEAEAVPxDeserializationContext@2@@Z 00000001800b1bc0 f i NpSerializerAdapter.obj
 0001:000b0bd0       ?createObject@?$PxSerializerDefaultAdapter@VNpArticulationLink@physx@@@physx@@UEBAPEAVPxBase@2@AEAPEAEAEAVPxDeserializationContext@2@@Z 00000001800b1bd0 f i NpSerializerAdapter.obj
 0001:000b0be0       ?createObject@?$PxSerializerDefaultAdapter@VNpCloth@physx@@@physx@@UEBAPEAVPxBase@2@AEAPEAEAEAVPxDeserializationContext@2@@Z 00000001800b1be0 f i NpSerializerAdapter.obj
 0001:000b0bf0       ?createObject@?$PxSerializerDefaultAdapter@VNpClothFabric@physx@@@physx@@UEBAPEAVPxBase@2@AEAPEAEAEAVPxDeserializationContext@2@@Z 00000001800b1bf0 f i NpSerializerAdapter.obj
 0001:000b0c00       ?createObject@?$PxSerializerDefaultAdapter@VNpConstraint@physx@@@physx@@UEBAPEAVPxBase@2@AEAPEAEAEAVPxDeserializationContext@2@@Z 00000001800b1c00 f i NpSerializerAdapter.obj
 0001:000b0c10       ?createObject@?$PxSerializerDefaultAdapter@VNpMaterial@physx@@@physx@@UEBAPEAVPxBase@2@AEAPEAEAEAVPxDeserializationContext@2@@Z 00000001800b1c10 f i NpSerializerAdapter.obj
 0001:000b0c20       ?createObject@?$PxSerializerDefaultAdapter@VNpParticleFluid@physx@@@physx@@UEBAPEAVPxBase@2@AEAPEAEAEAVPxDeserializationContext@2@@Z 00000001800b1c20 f i NpSerializerAdapter.obj
 0001:000b0c30       ?createObject@?$PxSerializerDefaultAdapter@VNpParticleSystem@physx@@@physx@@UEBAPEAVPxBase@2@AEAPEAEAEAVPxDeserializationContext@2@@Z 00000001800b1c30 f i NpSerializerAdapter.obj
 0001:000b0c40       ?createObject@?$PxSerializerDefaultAdapter@VNpRigidDynamic@physx@@@physx@@UEBAPEAVPxBase@2@AEAPEAEAEAVPxDeserializationContext@2@@Z 00000001800b1c40 f i NpSerializerAdapter.obj
 0001:000b0c50       ?createObject@?$PxSerializerDefaultAdapter@VNpRigidStatic@physx@@@physx@@UEBAPEAVPxBase@2@AEAPEAEAEAVPxDeserializationContext@2@@Z 00000001800b1c50 f i NpSerializerAdapter.obj
 0001:000b0c60       ?createObject@?$PxSerializerDefaultAdapter@VNpShape@physx@@@physx@@UEBAPEAVPxBase@2@AEAPEAEAEAVPxDeserializationContext@2@@Z 00000001800b1c60 f i NpSerializerAdapter.obj
 0001:000b0c70       ?createObject@?$PxSerializerDefaultAdapter@VPruningStructure@Sq@physx@@@physx@@UEBAPEAVPxBase@2@AEAPEAEAEAVPxDeserializationContext@2@@Z 00000001800b1c70 f i NpSerializerAdapter.obj
 0001:000b0c80       ?createObject@?$PxSerializerDefaultAdapter@VRTreeTriangleMesh@Gu@physx@@@physx@@UEBAPEAVPxBase@2@AEAPEAEAEAVPxDeserializationContext@2@@Z 00000001800b1c80 f i NpSerializerAdapter.obj
 0001:000b0c90       ?exportData@?$PxSerializerDefaultAdapter@VBV4TriangleMesh@Gu@physx@@@physx@@UEBAXAEAVPxBase@2@AEAVPxSerializationContext@2@@Z 00000001800b1c90 f i NpSerializerAdapter.obj
 0001:000b0cb0       ?exportData@?$PxSerializerDefaultAdapter@VConvexMesh@Gu@physx@@@physx@@UEBAXAEAVPxBase@2@AEAVPxSerializationContext@2@@Z 00000001800b1cb0 f i NpSerializerAdapter.obj
 0001:000b0cd0       ?exportData@?$PxSerializerDefaultAdapter@VHeightField@Gu@physx@@@physx@@UEBAXAEAVPxBase@2@AEAVPxSerializationContext@2@@Z 00000001800b1cd0 f i NpSerializerAdapter.obj
 0001:000b0cf0       ?exportData@?$PxSerializerDefaultAdapter@VNpAggregate@physx@@@physx@@UEBAXAEAVPxBase@2@AEAVPxSerializationContext@2@@Z 00000001800b1cf0 f i NpSerializerAdapter.obj
 0001:000b0d10       ?exportData@?$PxSerializerDefaultAdapter@VNpArticulation@physx@@@physx@@UEBAXAEAVPxBase@2@AEAVPxSerializationContext@2@@Z 00000001800b1d10 f i NpSerializerAdapter.obj
 0001:000b0d30       ?exportData@?$PxSerializerDefaultAdapter@VNpArticulationJoint@physx@@@physx@@UEBAXAEAVPxBase@2@AEAVPxSerializationContext@2@@Z 00000001800b1d30 f i NpSerializerAdapter.obj
 0001:000b0d50       ?exportData@?$PxSerializerDefaultAdapter@VNpArticulationLink@physx@@@physx@@UEBAXAEAVPxBase@2@AEAVPxSerializationContext@2@@Z 00000001800b1d50 f i NpSerializerAdapter.obj
 0001:000b0d70       ?exportData@?$PxSerializerDefaultAdapter@VNpCloth@physx@@@physx@@UEBAXAEAVPxBase@2@AEAVPxSerializationContext@2@@Z 00000001800b1d70 f i NpSerializerAdapter.obj
 0001:000b0d90       ?exportData@?$PxSerializerDefaultAdapter@VNpClothFabric@physx@@@physx@@UEBAXAEAVPxBase@2@AEAVPxSerializationContext@2@@Z 00000001800b1d90 f i NpSerializerAdapter.obj
 0001:000b0db0       ?exportData@?$PxSerializerDefaultAdapter@VNpConstraint@physx@@@physx@@UEBAXAEAVPxBase@2@AEAVPxSerializationContext@2@@Z 00000001800b1db0 f i NpSerializerAdapter.obj
 0001:000b0dd0       ?exportData@?$PxSerializerDefaultAdapter@VNpMaterial@physx@@@physx@@UEBAXAEAVPxBase@2@AEAVPxSerializationContext@2@@Z 00000001800b1dd0 f i NpSerializerAdapter.obj
 0001:000b0df0       ?exportData@?$PxSerializerDefaultAdapter@VNpParticleFluid@physx@@@physx@@UEBAXAEAVPxBase@2@AEAVPxSerializationContext@2@@Z 00000001800b1df0 f i NpSerializerAdapter.obj
 0001:000b0e10       ?exportData@?$PxSerializerDefaultAdapter@VNpParticleSystem@physx@@@physx@@UEBAXAEAVPxBase@2@AEAVPxSerializationContext@2@@Z 00000001800b1e10 f i NpSerializerAdapter.obj
 0001:000b0e30       ?exportData@?$PxSerializerDefaultAdapter@VNpRigidDynamic@physx@@@physx@@UEBAXAEAVPxBase@2@AEAVPxSerializationContext@2@@Z 00000001800b1e30 f i NpSerializerAdapter.obj
 0001:000b0ef0       ?exportData@?$PxSerializerDefaultAdapter@VNpRigidStatic@physx@@@physx@@UEBAXAEAVPxBase@2@AEAVPxSerializationContext@2@@Z 00000001800b1ef0 f i NpSerializerAdapter.obj
 0001:000b0f10       ?exportData@?$PxSerializerDefaultAdapter@VNpShape@physx@@@physx@@UEBAXAEAVPxBase@2@AEAVPxSerializationContext@2@@Z 00000001800b1f10 f i NpSerializerAdapter.obj
 0001:000b0f30       ?exportData@?$PxSerializerDefaultAdapter@VPruningStructure@Sq@physx@@@physx@@UEBAXAEAVPxBase@2@AEAVPxSerializationContext@2@@Z 00000001800b1f30 f i NpSerializerAdapter.obj
 0001:000b0f50       ?exportData@?$PxSerializerDefaultAdapter@VRTreeTriangleMesh@Gu@physx@@@physx@@UEBAXAEAVPxBase@2@AEAVPxSerializationContext@2@@Z 00000001800b1f50 f i NpSerializerAdapter.obj
 0001:000b0f70       ?exportExtraData@?$PxSerializerDefaultAdapter@VBV4TriangleMesh@Gu@physx@@@physx@@UEBAXAEAVPxBase@2@AEAVPxSerializationContext@2@@Z 00000001800b1f70 f i NpSerializerAdapter.obj
 0001:000b0f90       ?exportExtraData@?$PxSerializerDefaultAdapter@VConvexMesh@Gu@physx@@@physx@@UEBAXAEAVPxBase@2@AEAVPxSerializationContext@2@@Z 00000001800b1f90 f i NpSerializerAdapter.obj
 0001:000b0fa0       ?exportExtraData@?$PxSerializerDefaultAdapter@VHeightField@Gu@physx@@@physx@@UEBAXAEAVPxBase@2@AEAVPxSerializationContext@2@@Z 00000001800b1fa0 f i NpSerializerAdapter.obj
 0001:000b0fc0       ?exportExtraData@?$PxSerializerDefaultAdapter@VNpAggregate@physx@@@physx@@UEBAXAEAVPxBase@2@AEAVPxSerializationContext@2@@Z 00000001800b1fc0 f i NpSerializerAdapter.obj
 0001:000b0fd0       ?exportExtraData@?$PxSerializerDefaultAdapter@VNpArticulation@physx@@@physx@@UEBAXAEAVPxBase@2@AEAVPxSerializationContext@2@@Z 00000001800b1fd0 f i NpSerializerAdapter.obj
 0001:000b0ff0       ?exportExtraData@?$PxSerializerDefaultAdapter@VNpArticulationJoint@physx@@@physx@@UEBAXAEAVPxBase@2@AEAVPxSerializationContext@2@@Z 00000001800b1ff0 f i NpSerializerAdapter.obj
 0001:000b1000       ?exportExtraData@?$PxSerializerDefaultAdapter@VNpArticulationLink@physx@@@physx@@UEBAXAEAVPxBase@2@AEAVPxSerializationContext@2@@Z 00000001800b2000 f i NpSerializerAdapter.obj
 0001:000b1020       ?exportExtraData@?$PxSerializerDefaultAdapter@VNpCloth@physx@@@physx@@UEBAXAEAVPxBase@2@AEAVPxSerializationContext@2@@Z 00000001800b2020 f i NpSerializerAdapter.obj
 0001:000b1040       ?exportExtraData@?$PxSerializerDefaultAdapter@VNpClothFabric@physx@@@physx@@UEBAXAEAVPxBase@2@AEAVPxSerializationContext@2@@Z 00000001800b2040 f i NpSerializerAdapter.obj
 0001:000b1060       ?exportExtraData@?$PxSerializerDefaultAdapter@VNpConstraint@physx@@@physx@@UEBAXAEAVPxBase@2@AEAVPxSerializationContext@2@@Z 00000001800b2060 f i NpSerializerAdapter.obj
 0001:000b1070       ?exportExtraData@?$PxSerializerDefaultAdapter@VNpMaterial@physx@@@physx@@UEBAXAEAVPxBase@2@AEAVPxSerializationContext@2@@Z 00000001800b2070 f i NpSerializerAdapter.obj
 0001:000b1080       ?exportExtraData@?$PxSerializerDefaultAdapter@VNpParticleFluid@physx@@@physx@@UEBAXAEAVPxBase@2@AEAVPxSerializationContext@2@@Z 00000001800b2080 f i NpSerializerAdapter.obj
 0001:000b10a0       ?exportExtraData@?$PxSerializerDefaultAdapter@VNpParticleSystem@physx@@@physx@@UEBAXAEAVPxBase@2@AEAVPxSerializationContext@2@@Z 00000001800b20a0 f i NpSerializerAdapter.obj
 0001:000b10c0       ?exportExtraData@?$PxSerializerDefaultAdapter@VNpRigidDynamic@physx@@@physx@@UEBAXAEAVPxBase@2@AEAVPxSerializationContext@2@@Z 00000001800b20c0 f i NpSerializerAdapter.obj
 0001:000b10e0       ?exportExtraData@?$PxSerializerDefaultAdapter@VNpRigidStatic@physx@@@physx@@UEBAXAEAVPxBase@2@AEAVPxSerializationContext@2@@Z 00000001800b20e0 f i NpSerializerAdapter.obj
 0001:000b1100       ?exportExtraData@?$PxSerializerDefaultAdapter@VNpShape@physx@@@physx@@UEBAXAEAVPxBase@2@AEAVPxSerializationContext@2@@Z 00000001800b2100 f i NpSerializerAdapter.obj
 0001:000b1120       ?exportExtraData@?$PxSerializerDefaultAdapter@VPruningStructure@Sq@physx@@@physx@@UEBAXAEAVPxBase@2@AEAVPxSerializationContext@2@@Z 00000001800b2120 f i NpSerializerAdapter.obj
 0001:000b1130       ?exportExtraData@?$PxSerializerDefaultAdapter@VRTreeTriangleMesh@Gu@physx@@@physx@@UEBAXAEAVPxBase@2@AEAVPxSerializationContext@2@@Z 00000001800b2130 f i NpSerializerAdapter.obj
 0001:000b1150       ?getClassSize@?$PxSerializerDefaultAdapter@VBV4TriangleMesh@Gu@physx@@@physx@@UEBA_KXZ 00000001800b2150 f i NpSerializerAdapter.obj
 0001:000b1160       ?getClassSize@?$PxSerializerDefaultAdapter@VConvexMesh@Gu@physx@@@physx@@UEBA_KXZ 00000001800b2160 f i NpSerializerAdapter.obj
 0001:000b1170       ?getClassSize@?$PxSerializerDefaultAdapter@VHeightField@Gu@physx@@@physx@@UEBA_KXZ 00000001800b2170 f i NpSerializerAdapter.obj
 0001:000b1180       ?getClassSize@?$PxSerializerDefaultAdapter@VNpAggregate@physx@@@physx@@UEBA_KXZ 00000001800b2180 f i NpSerializerAdapter.obj
 0001:000b1190       ?getClassSize@?$PxSerializerDefaultAdapter@VNpArticulation@physx@@@physx@@UEBA_KXZ 00000001800b2190 f i NpSerializerAdapter.obj
 0001:000b11a0       ?getClassSize@?$PxSerializerDefaultAdapter@VNpArticulationJoint@physx@@@physx@@UEBA_KXZ 00000001800b21a0 f i NpSerializerAdapter.obj
 0001:000b11b0       ?getClassSize@?$PxSerializerDefaultAdapter@VNpArticulationLink@physx@@@physx@@UEBA_KXZ 00000001800b21b0 f i NpSerializerAdapter.obj
 0001:000b11c0       ?getClassSize@?$PxSerializerDefaultAdapter@VNpCloth@physx@@@physx@@UEBA_KXZ 00000001800b21c0 f i NpSerializerAdapter.obj
 0001:000b11d0       ?getClassSize@?$PxSerializerDefaultAdapter@VNpClothFabric@physx@@@physx@@UEBA_KXZ 00000001800b21d0 f i NpSerializerAdapter.obj
 0001:000b11e0       ?getClassSize@?$PxSerializerDefaultAdapter@VNpConstraint@physx@@@physx@@UEBA_KXZ 00000001800b21e0 f i NpSerializerAdapter.obj
 0001:000b11f0       ?getClassSize@?$PxSerializerDefaultAdapter@VNpMaterial@physx@@@physx@@UEBA_KXZ 00000001800b21f0 f i NpSerializerAdapter.obj
 0001:000b1200       ?getClassSize@?$PxSerializerDefaultAdapter@VNpParticleFluid@physx@@@physx@@UEBA_KXZ 00000001800b2200 f i NpSerializerAdapter.obj
 0001:000b1210       ?getClassSize@?$PxSerializerDefaultAdapter@VNpParticleSystem@physx@@@physx@@UEBA_KXZ 00000001800b2210 f i NpSerializerAdapter.obj
 0001:000b1220       ?getClassSize@?$PxSerializerDefaultAdapter@VNpRigidDynamic@physx@@@physx@@UEBA_KXZ 00000001800b2220 f i NpSerializerAdapter.obj
 0001:000b1230       ?getClassSize@?$PxSerializerDefaultAdapter@VNpRigidStatic@physx@@@physx@@UEBA_KXZ 00000001800b2230 f i NpSerializerAdapter.obj
 0001:000b1240       ?getClassSize@?$PxSerializerDefaultAdapter@VNpShape@physx@@@physx@@UEBA_KXZ 00000001800b2240 f i NpSerializerAdapter.obj
 0001:000b1250       ?getClassSize@?$PxSerializerDefaultAdapter@VPruningStructure@Sq@physx@@@physx@@UEBA_KXZ 00000001800b2250 f i NpSerializerAdapter.obj
 0001:000b1260       ?getClassSize@?$PxSerializerDefaultAdapter@VRTreeTriangleMesh@Gu@physx@@@physx@@UEBA_KXZ 00000001800b2260 f i NpSerializerAdapter.obj
 0001:000b1270       ?getConcreteTypeName@?$PxSerializerDefaultAdapter@VBV4TriangleMesh@Gu@physx@@@physx@@UEBAPEBDXZ 00000001800b2270 f i NpSerializerAdapter.obj
 0001:000b1280       ?getConcreteTypeName@?$PxSerializerDefaultAdapter@VConvexMesh@Gu@physx@@@physx@@UEBAPEBDXZ 00000001800b2280 f i NpSerializerAdapter.obj
 0001:000b1290       ?getConcreteTypeName@?$PxSerializerDefaultAdapter@VHeightField@Gu@physx@@@physx@@UEBAPEBDXZ 00000001800b2290 f i NpSerializerAdapter.obj
 0001:000b12a0       ?getConcreteTypeName@?$PxSerializerDefaultAdapter@VNpAggregate@physx@@@physx@@UEBAPEBDXZ 00000001800b22a0 f i NpSerializerAdapter.obj
 0001:000b12b0       ?getConcreteTypeName@?$PxSerializerDefaultAdapter@VNpArticulation@physx@@@physx@@UEBAPEBDXZ 00000001800b22b0 f i NpSerializerAdapter.obj
 0001:000b12c0       ?getConcreteTypeName@?$PxSerializerDefaultAdapter@VNpArticulationJoint@physx@@@physx@@UEBAPEBDXZ 00000001800b22c0 f i NpSerializerAdapter.obj
 0001:000b12d0       ?getConcreteTypeName@?$PxSerializerDefaultAdapter@VNpArticulationLink@physx@@@physx@@UEBAPEBDXZ 00000001800b22d0 f i NpSerializerAdapter.obj
 0001:000b12e0       ?getConcreteTypeName@?$PxSerializerDefaultAdapter@VNpCloth@physx@@@physx@@UEBAPEBDXZ 00000001800b22e0 f i NpSerializerAdapter.obj
 0001:000b12f0       ?getConcreteTypeName@?$PxSerializerDefaultAdapter@VNpClothFabric@physx@@@physx@@UEBAPEBDXZ 00000001800b22f0 f i NpSerializerAdapter.obj
 0001:000b1300       ?getConcreteTypeName@?$PxSerializerDefaultAdapter@VNpConstraint@physx@@@physx@@UEBAPEBDXZ 00000001800b2300 f i NpSerializerAdapter.obj
 0001:000b1310       ?getConcreteTypeName@?$PxSerializerDefaultAdapter@VNpMaterial@physx@@@physx@@UEBAPEBDXZ 00000001800b2310 f i NpSerializerAdapter.obj
 0001:000b1320       ?getConcreteTypeName@?$PxSerializerDefaultAdapter@VNpParticleFluid@physx@@@physx@@UEBAPEBDXZ 00000001800b2320 f i NpSerializerAdapter.obj
 0001:000b1330       ?getConcreteTypeName@?$PxSerializerDefaultAdapter@VNpParticleSystem@physx@@@physx@@UEBAPEBDXZ 00000001800b2330 f i NpSerializerAdapter.obj
 0001:000b1340       ?getConcreteTypeName@?$PxSerializerDefaultAdapter@VNpRigidDynamic@physx@@@physx@@UEBAPEBDXZ 00000001800b2340 f i NpSerializerAdapter.obj
 0001:000b1350       ?getConcreteTypeName@?$PxSerializerDefaultAdapter@VNpRigidStatic@physx@@@physx@@UEBAPEBDXZ 00000001800b2350 f i NpSerializerAdapter.obj
 0001:000b1360       ?getConcreteTypeName@?$PxSerializerDefaultAdapter@VNpShape@physx@@@physx@@UEBAPEBDXZ 00000001800b2360 f i NpSerializerAdapter.obj
 0001:000b1370       ?getConcreteTypeName@?$PxSerializerDefaultAdapter@VPruningStructure@Sq@physx@@@physx@@UEBAPEBDXZ 00000001800b2370 f i NpSerializerAdapter.obj
 0001:000b1380       ?getConcreteTypeName@?$PxSerializerDefaultAdapter@VRTreeTriangleMesh@Gu@physx@@@physx@@UEBAPEBDXZ 00000001800b2380 f i NpSerializerAdapter.obj
 0001:000b1390       ?isSubordinate@?$PxSerializerDefaultAdapter@VBV4TriangleMesh@Gu@physx@@@physx@@UEBA_NXZ 00000001800b2390 f i NpSerializerAdapter.obj
 0001:000b13a0       ?isSubordinate@?$PxSerializerDefaultAdapter@VConvexMesh@Gu@physx@@@physx@@UEBA_NXZ 00000001800b23a0 f i NpSerializerAdapter.obj
 0001:000b13b0       ?isSubordinate@?$PxSerializerDefaultAdapter@VHeightField@Gu@physx@@@physx@@UEBA_NXZ 00000001800b23b0 f i NpSerializerAdapter.obj
 0001:000b13c0       ?isSubordinate@?$PxSerializerDefaultAdapter@VNpAggregate@physx@@@physx@@UEBA_NXZ 00000001800b23c0 f i NpSerializerAdapter.obj
 0001:000b13d0       ?isSubordinate@?$PxSerializerDefaultAdapter@VNpArticulation@physx@@@physx@@UEBA_NXZ 00000001800b23d0 f i NpSerializerAdapter.obj
 0001:000b13e0       ?isSubordinate@?$PxSerializerDefaultAdapter@VNpArticulationJoint@physx@@@physx@@UEBA_NXZ 00000001800b23e0 f i NpSerializerAdapter.obj
 0001:000b13f0       ?isSubordinate@?$PxSerializerDefaultAdapter@VNpArticulationLink@physx@@@physx@@UEBA_NXZ 00000001800b23f0 f i NpSerializerAdapter.obj
 0001:000b1400       ?isSubordinate@?$PxSerializerDefaultAdapter@VNpCloth@physx@@@physx@@UEBA_NXZ 00000001800b2400 f i NpSerializerAdapter.obj
 0001:000b1410       ?isSubordinate@?$PxSerializerDefaultAdapter@VNpClothFabric@physx@@@physx@@UEBA_NXZ 00000001800b2410 f i NpSerializerAdapter.obj
 0001:000b1420       ?isSubordinate@?$PxSerializerDefaultAdapter@VNpConstraint@physx@@@physx@@UEBA_NXZ 00000001800b2420 f i NpSerializerAdapter.obj
 0001:000b1430       ?isSubordinate@?$PxSerializerDefaultAdapter@VNpMaterial@physx@@@physx@@UEBA_NXZ 00000001800b2430 f i NpSerializerAdapter.obj
 0001:000b1440       ?isSubordinate@?$PxSerializerDefaultAdapter@VNpParticleFluid@physx@@@physx@@UEBA_NXZ 00000001800b2440 f i NpSerializerAdapter.obj
 0001:000b1450       ?isSubordinate@?$PxSerializerDefaultAdapter@VNpParticleSystem@physx@@@physx@@UEBA_NXZ 00000001800b2450 f i NpSerializerAdapter.obj
 0001:000b1460       ?isSubordinate@?$PxSerializerDefaultAdapter@VNpRigidDynamic@physx@@@physx@@UEBA_NXZ 00000001800b2460 f i NpSerializerAdapter.obj
 0001:000b1470       ?isSubordinate@?$PxSerializerDefaultAdapter@VNpRigidStatic@physx@@@physx@@UEBA_NXZ 00000001800b2470 f i NpSerializerAdapter.obj
 0001:000b1480       ?isSubordinate@?$PxSerializerDefaultAdapter@VNpShape@physx@@@physx@@UEBA_NXZ 00000001800b2480 f i NpSerializerAdapter.obj
 0001:000b1490       ?isSubordinate@?$PxSerializerDefaultAdapter@VPruningStructure@Sq@physx@@@physx@@UEBA_NXZ 00000001800b2490 f i NpSerializerAdapter.obj
 0001:000b14a0       ?isSubordinate@?$PxSerializerDefaultAdapter@VRTreeTriangleMesh@Gu@physx@@@physx@@UEBA_NXZ 00000001800b24a0 f i NpSerializerAdapter.obj
 0001:000b1710       ?registerReferences@?$PxSerializerDefaultAdapter@VBV4TriangleMesh@Gu@physx@@@physx@@UEBAXAEAVPxBase@2@AEAVPxSerializationContext@2@@Z 00000001800b2710 f i NpSerializerAdapter.obj
 0001:000b1780       ?registerReferences@?$PxSerializerDefaultAdapter@VConvexMesh@Gu@physx@@@physx@@UEBAXAEAVPxBase@2@AEAVPxSerializationContext@2@@Z 00000001800b2780 f i NpSerializerAdapter.obj
 0001:000b17f0       ?registerReferences@?$PxSerializerDefaultAdapter@VHeightField@Gu@physx@@@physx@@UEBAXAEAVPxBase@2@AEAVPxSerializationContext@2@@Z 00000001800b27f0 f i NpSerializerAdapter.obj
 0001:000b1860       ?registerReferences@?$PxSerializerDefaultAdapter@VNpAggregate@physx@@@physx@@UEBAXAEAVPxBase@2@AEAVPxSerializationContext@2@@Z 00000001800b2860 f i NpSerializerAdapter.obj
 0001:000b18c0       ?registerReferences@?$PxSerializerDefaultAdapter@VNpArticulation@physx@@@physx@@UEBAXAEAVPxBase@2@AEAVPxSerializationContext@2@@Z 00000001800b28c0 f i NpSerializerAdapter.obj
 0001:000b1930       ?registerReferences@?$PxSerializerDefaultAdapter@VNpArticulationJoint@physx@@@physx@@UEBAXAEAVPxBase@2@AEAVPxSerializationContext@2@@Z 00000001800b2930 f i NpSerializerAdapter.obj
 0001:000b19a0       ?registerReferences@?$PxSerializerDefaultAdapter@VNpArticulationLink@physx@@@physx@@UEBAXAEAVPxBase@2@AEAVPxSerializationContext@2@@Z 00000001800b29a0 f i NpSerializerAdapter.obj
 0001:000b1a10       ?registerReferences@?$PxSerializerDefaultAdapter@VNpCloth@physx@@@physx@@UEBAXAEAVPxBase@2@AEAVPxSerializationContext@2@@Z 00000001800b2a10 f i NpSerializerAdapter.obj
 0001:000b1a80       ?registerReferences@?$PxSerializerDefaultAdapter@VNpClothFabric@physx@@@physx@@UEBAXAEAVPxBase@2@AEAVPxSerializationContext@2@@Z 00000001800b2a80 f i NpSerializerAdapter.obj
 0001:000b1af0       ?registerReferences@?$PxSerializerDefaultAdapter@VNpConstraint@physx@@@physx@@UEBAXAEAVPxBase@2@AEAVPxSerializationContext@2@@Z 00000001800b2af0 f i NpSerializerAdapter.obj
 0001:000b1b60       ?registerReferences@?$PxSerializerDefaultAdapter@VNpMaterial@physx@@@physx@@UEBAXAEAVPxBase@2@AEAVPxSerializationContext@2@@Z 00000001800b2b60 f i NpSerializerAdapter.obj
 0001:000b1bd0       ?registerReferences@?$PxSerializerDefaultAdapter@VNpParticleFluid@physx@@@physx@@UEBAXAEAVPxBase@2@AEAVPxSerializationContext@2@@Z 00000001800b2bd0 f i NpSerializerAdapter.obj
 0001:000b1c40       ?registerReferences@?$PxSerializerDefaultAdapter@VNpParticleSystem@physx@@@physx@@UEBAXAEAVPxBase@2@AEAVPxSerializationContext@2@@Z 00000001800b2c40 f i NpSerializerAdapter.obj
 0001:000b1cb0       ?registerReferences@?$PxSerializerDefaultAdapter@VNpRigidDynamic@physx@@@physx@@UEBAXAEAVPxBase@2@AEAVPxSerializationContext@2@@Z 00000001800b2cb0 f i NpSerializerAdapter.obj
 0001:000b1d20       ?registerReferences@?$PxSerializerDefaultAdapter@VNpRigidStatic@physx@@@physx@@UEBAXAEAVPxBase@2@AEAVPxSerializationContext@2@@Z 00000001800b2d20 f i NpSerializerAdapter.obj
 0001:000b1d90       ?registerReferences@?$PxSerializerDefaultAdapter@VNpShape@physx@@@physx@@UEBAXAEAVPxBase@2@AEAVPxSerializationContext@2@@Z 00000001800b2d90 f i NpSerializerAdapter.obj
 0001:000b1e00       ?registerReferences@?$PxSerializerDefaultAdapter@VPruningStructure@Sq@physx@@@physx@@UEBAXAEAVPxBase@2@AEAVPxSerializationContext@2@@Z 00000001800b2e00 f i NpSerializerAdapter.obj
 0001:000b1e60       ?registerReferences@?$PxSerializerDefaultAdapter@VRTreeTriangleMesh@Gu@physx@@@physx@@UEBAXAEAVPxBase@2@AEAVPxSerializationContext@2@@Z 00000001800b2e60 f i NpSerializerAdapter.obj
 0001:000b1ed0       ?requires@?$PxSerializerDefaultAdapter@VBV4TriangleMesh@Gu@physx@@@physx@@UEBAXAEAVPxBase@2@AEAVPxProcessPxBaseCallback@2@@Z 00000001800b2ed0 f i NpSerializerAdapter.obj
 0001:000b1ef0       ?requires@?$PxSerializerDefaultAdapter@VConvexMesh@Gu@physx@@@physx@@UEBAXAEAVPxBase@2@AEAVPxProcessPxBaseCallback@2@@Z 00000001800b2ef0 f i NpSerializerAdapter.obj
 0001:000b1f10       ?requires@?$PxSerializerDefaultAdapter@VHeightField@Gu@physx@@@physx@@UEBAXAEAVPxBase@2@AEAVPxProcessPxBaseCallback@2@@Z 00000001800b2f10 f i NpSerializerAdapter.obj
 0001:000b1f30       ?requires@?$PxSerializerDefaultAdapter@VNpAggregate@physx@@@physx@@UEBAXAEAVPxBase@2@AEAVPxProcessPxBaseCallback@2@@Z 00000001800b2f30 f i NpSerializerAdapter.obj
 0001:000b1f40       ?requires@?$PxSerializerDefaultAdapter@VNpArticulation@physx@@@physx@@UEBAXAEAVPxBase@2@AEAVPxProcessPxBaseCallback@2@@Z 00000001800b2f40 f i NpSerializerAdapter.obj
 0001:000b1f60       ?requires@?$PxSerializerDefaultAdapter@VNpArticulationJoint@physx@@@physx@@UEBAXAEAVPxBase@2@AEAVPxProcessPxBaseCallback@2@@Z 00000001800b2f60 f i NpSerializerAdapter.obj
 0001:000b1f80       ?requires@?$PxSerializerDefaultAdapter@VNpArticulationLink@physx@@@physx@@UEBAXAEAVPxBase@2@AEAVPxProcessPxBaseCallback@2@@Z 00000001800b2f80 f i NpSerializerAdapter.obj
 0001:000b1fa0       ?requires@?$PxSerializerDefaultAdapter@VNpCloth@physx@@@physx@@UEBAXAEAVPxBase@2@AEAVPxProcessPxBaseCallback@2@@Z 00000001800b2fa0 f i NpSerializerAdapter.obj
 0001:000b1fc0       ?requires@?$PxSerializerDefaultAdapter@VNpClothFabric@physx@@@physx@@UEBAXAEAVPxBase@2@AEAVPxProcessPxBaseCallback@2@@Z 00000001800b2fc0 f i NpSerializerAdapter.obj
 0001:000b1fe0       ?requires@?$PxSerializerDefaultAdapter@VNpConstraint@physx@@@physx@@UEBAXAEAVPxBase@2@AEAVPxProcessPxBaseCallback@2@@Z 00000001800b2fe0 f i NpSerializerAdapter.obj
 0001:000b2000       ?requires@?$PxSerializerDefaultAdapter@VNpMaterial@physx@@@physx@@UEBAXAEAVPxBase@2@AEAVPxProcessPxBaseCallback@2@@Z 00000001800b3000 f i NpSerializerAdapter.obj
 0001:000b2020       ?requires@?$PxSerializerDefaultAdapter@VNpParticleFluid@physx@@@physx@@UEBAXAEAVPxBase@2@AEAVPxProcessPxBaseCallback@2@@Z 00000001800b3020 f i NpSerializerAdapter.obj
 0001:000b2040       ?requires@?$PxSerializerDefaultAdapter@VNpParticleSystem@physx@@@physx@@UEBAXAEAVPxBase@2@AEAVPxProcessPxBaseCallback@2@@Z 00000001800b3040 f i NpSerializerAdapter.obj
 0001:000b2060       ?requires@?$PxSerializerDefaultAdapter@VNpRigidDynamic@physx@@@physx@@UEBAXAEAVPxBase@2@AEAVPxProcessPxBaseCallback@2@@Z 00000001800b3060 f i NpSerializerAdapter.obj
 0001:000b2080       ?requires@?$PxSerializerDefaultAdapter@VNpRigidStatic@physx@@@physx@@UEBAXAEAVPxBase@2@AEAVPxProcessPxBaseCallback@2@@Z 00000001800b3080 f i NpSerializerAdapter.obj
 0001:000b20a0       ?requires@?$PxSerializerDefaultAdapter@VNpShape@physx@@@physx@@UEBAXAEAVPxBase@2@AEAVPxProcessPxBaseCallback@2@@Z 00000001800b30a0 f i NpSerializerAdapter.obj
 0001:000b20c0       ?requires@?$PxSerializerDefaultAdapter@VPruningStructure@Sq@physx@@@physx@@UEBAXAEAVPxBase@2@AEAVPxProcessPxBaseCallback@2@@Z 00000001800b30c0 f i NpSerializerAdapter.obj
 0001:000b20d0       ?requires@?$PxSerializerDefaultAdapter@VRTreeTriangleMesh@Gu@physx@@@physx@@UEBAXAEAVPxBase@2@AEAVPxProcessPxBaseCallback@2@@Z 00000001800b30d0 f i NpSerializerAdapter.obj
 0001:000b20f0       ?NpShapeGetScPtrOffset@physx@@YA_KXZ 00000001800b30f0 f   NpShape.obj
 0001:000b2100       ?NpShapeIncRefCount@physx@@YAXAEAVShape@Scb@1@@Z 00000001800b3100 f   NpShape.obj
 0001:000b2120       ?NpShapeDecRefCount@physx@@YAXAEAVShape@Scb@1@@Z 00000001800b3120 f   NpShape.obj
 0001:000b2160       ?NpShapeGetScRigidObjectFromScbSLOW@physx@@YAPEAVRigidCore@Sc@1@AEBVShape@Scb@1@@Z 00000001800b3160 f   NpShape.obj
 0001:000b21d0       ??0NpShape@physx@@QEAA@V?$PxFlags@W4Enum@PxBaseFlag@physx@@G@1@@Z 00000001800b31d0 f   NpShape.obj
 0001:000b2250       ?exportExtraData@NpShape@physx@@UEAAXAEAVPxSerializationContext@2@@Z 00000001800b3250 f   NpShape.obj
 0001:000b2290       ?importExtraData@NpShape@physx@@QEAAXAEAVPxDeserializationContext@2@@Z 00000001800b3290 f   NpShape.obj
 0001:000b22e0       ?requires@NpShape@physx@@UEAAXAEAVPxProcessPxBaseCallback@2@@Z 00000001800b32e0 f   NpShape.obj
 0001:000b2440       ?resolveReferences@NpShape@physx@@QEAAXAEAVPxDeserializationContext@2@@Z 00000001800b3440 f   NpShape.obj
 0001:000b25b0       ?createObject@NpShape@physx@@SAPEAV12@AEAPEAEAEAVPxDeserializationContext@2@@Z 00000001800b35b0 f   NpShape.obj
 0001:000b2650       ??0NpShape@physx@@QEAA@AEBVPxGeometry@1@V?$PxFlags@W4Enum@PxShapeFlag@physx@@E@1@PEBGG_N@Z 00000001800b3650 f   NpShape.obj
 0001:000b2750       ??1NpShape@physx@@UEAA@XZ  00000001800b3750 f   NpShape.obj
 0001:000b2890       ?release@NpShape@physx@@UEAAXXZ 00000001800b3890 f   NpShape.obj
 0001:000b2960       ?acquireReference@NpShape@physx@@UEAAXXZ 00000001800b3960 f   NpShape.obj
 0001:000b2980       ?getGeometryType@NpShape@physx@@UEBA?AW4Enum@PxGeometryType@2@XZ 00000001800b3980 f   NpShape.obj
 0001:000b29d0       ?setGeometry@NpShape@physx@@UEAAXAEBVPxGeometry@2@@Z 00000001800b39d0 f   NpShape.obj
 0001:000b2bf0       ?getGeometry@NpShape@physx@@UEBA?AVPxGeometryHolder@2@XZ 00000001800b3bf0 f   NpShape.obj
 0001:000b2c30       ?getBoxGeometry@NpShape@physx@@UEBA_NAEAVPxBoxGeometry@2@@Z 00000001800b3c30 f   NpShape.obj
 0001:000b2cd0       ?getSphereGeometry@NpShape@physx@@UEBA_NAEAVPxSphereGeometry@2@@Z 00000001800b3cd0 f   NpShape.obj
 0001:000b2d60       ?getCapsuleGeometry@NpShape@physx@@UEBA_NAEAVPxCapsuleGeometry@2@@Z 00000001800b3d60 f   NpShape.obj
 0001:000b2e00       ?getPlaneGeometry@NpShape@physx@@UEBA_NAEAVPxPlaneGeometry@2@@Z 00000001800b3e00 f   NpShape.obj
 0001:000b2e90       ?getConvexMeshGeometry@NpShape@physx@@UEBA_NAEAVPxConvexMeshGeometry@2@@Z 00000001800b3e90 f   NpShape.obj
 0001:000b2f70       ?getTriangleMeshGeometry@NpShape@physx@@UEBA_NAEAVPxTriangleMeshGeometry@2@@Z 00000001800b3f70 f   NpShape.obj
 0001:000b3050       ?getHeightFieldGeometry@NpShape@physx@@UEBA_NAEAVPxHeightFieldGeometry@2@@Z 00000001800b4050 f   NpShape.obj
 0001:000b3110       ?getActor@NpShape@physx@@UEBAPEAVPxRigidActor@2@XZ 00000001800b4110 f   NpShape.obj
 0001:000b3160       ?setLocalPose@NpShape@physx@@UEAAXAEBVPxTransform@2@@Z 00000001800b4160 f   NpShape.obj
 0001:000b3330       ?getLocalPose@NpShape@physx@@UEBA?AVPxTransform@2@XZ 00000001800b4330 f   NpShape.obj
 0001:000b33c0       ?setSimulationFilterData@NpShape@physx@@UEAAXAEBUPxFilterData@2@@Z 00000001800b43c0 f   NpShape.obj
 0001:000b3480       ?getSimulationFilterData@NpShape@physx@@UEBA?AUPxFilterData@2@XZ 00000001800b4480 f   NpShape.obj
 0001:000b34f0       ?setQueryFilterData@NpShape@physx@@UEAAXAEBUPxFilterData@2@@Z 00000001800b44f0 f   NpShape.obj
 0001:000b35d0       ?getQueryFilterData@NpShape@physx@@UEBA?AUPxFilterData@2@XZ 00000001800b45d0 f   NpShape.obj
 0001:000b3630       ?setMaterials@NpShape@physx@@UEAAXPEBQEAVPxMaterial@2@G@Z 00000001800b4630 f   NpShape.obj
 0001:000b3860       ?getNbMaterials@NpShape@physx@@UEBAGXZ 00000001800b4860 f   NpShape.obj
 0001:000b38e0       ?getMaterials@NpShape@physx@@UEBAIPEAPEAVPxMaterial@2@II@Z 00000001800b48e0 f   NpShape.obj
 0001:000b3970       ?getMaterialFromInternalFaceIndex@NpShape@physx@@UEBAPEAVPxMaterial@2@I@Z 00000001800b4970 f   NpShape.obj
 0001:000b3b10       ?setContactOffset@NpShape@physx@@UEAAXM@Z 00000001800b4b10 f   NpShape.obj
 0001:000b3c80       ?getContactOffset@NpShape@physx@@UEBAMXZ 00000001800b4c80 f   NpShape.obj
 0001:000b3cf0       ?setRestOffset@NpShape@physx@@UEAAXM@Z 00000001800b4cf0 f   NpShape.obj
 0001:000b3e50       ?getRestOffset@NpShape@physx@@UEBAMXZ 00000001800b4e50 f   NpShape.obj
 0001:000b3ec0       ?setFlag@NpShape@physx@@UEAAXW4Enum@PxShapeFlag@2@_N@Z 00000001800b4ec0 f   NpShape.obj
 0001:000b4000       ?setFlags@NpShape@physx@@UEAAXV?$PxFlags@W4Enum@PxShapeFlag@physx@@E@2@@Z 00000001800b5000 f   NpShape.obj
 0001:000b4100       ?getFlags@NpShape@physx@@UEBA?AV?$PxFlags@W4Enum@PxShapeFlag@physx@@E@2@XZ 00000001800b5100 f   NpShape.obj
 0001:000b4170       ?isExclusive@NpShape@physx@@UEBA_NXZ 00000001800b5170 f   NpShape.obj
 0001:000b41d0       ?setName@NpShape@physx@@UEAAXPEBD@Z 00000001800b51d0 f   NpShape.obj
 0001:000b42b0       ?getName@NpShape@physx@@UEBAPEBDXZ 00000001800b52b0 f   NpShape.obj
 0001:000b4300       ?onRefCountZero@NpShape@physx@@UEAAXXZ 00000001800b5300 f   NpShape.obj
 0001:000b4330       ?setFlagsInternal@NpShape@physx@@QEAAXV?$PxFlags@W4Enum@PxShapeFlag@physx@@E@2@@Z 00000001800b5330 f   NpShape.obj
 0001:000b4580       ?checkMaterialSetup@NpShape@physx@@SA_NAEBVPxGeometry@2@PEBDPEBQEAVPxMaterial@2@G@Z 00000001800b5580 f   NpShape.obj
 0001:000b47a0       ?onActorAttach@NpShape@physx@@QEAAXAEAVPxRigidActor@2@@Z 00000001800b57a0 f   NpShape.obj
 0001:000b47f0       ?onActorDetach@NpShape@physx@@QEAAXXZ 00000001800b57f0 f   NpShape.obj
 0001:000b4850       ?getScRigidObjectExclusive@NpShape@physx@@QEBAAEAVRigidCore@Sc@2@XZ 00000001800b5850 f   NpShape.obj
 0001:000b4870       ?releaseInternal@NpShape@physx@@QEAAXXZ 00000001800b5870 f   NpShape.obj
 0001:000b48b0       ?getOwnerScene@NpShape@physx@@QEBAPEAVNpScene@2@XZ 00000001800b58b0 f   NpShape.obj
 0001:000b48d0       ?getAPIScene@NpShape@physx@@AEBAPEAVNpScene@2@XZ 00000001800b58d0 f   NpShape.obj
 0001:000b48e0       ?incMeshRefCount@NpShape@physx@@AEAAXXZ 00000001800b58e0 f   NpShape.obj
 0001:000b4910       ?decMeshRefCount@NpShape@physx@@AEAAXXZ 00000001800b5910 f   NpShape.obj
 0001:000b4950       ?getMeshRefCountable@NpShape@physx@@AEAAPEAVRefCountable@Cm@2@XZ 00000001800b5950 f   NpShape.obj
 0001:000b4a20       ?isWritable@NpShape@physx@@AEAA_NXZ 00000001800b5a20 f   NpShape.obj
 0001:000b4a50       ?updateSQ@NpShape@physx@@AEAAXPEBD@Z 00000001800b5a50 f   NpShape.obj
 0001:000b55b0       ??$allocArrayBuffer@G@Scene@Scb@physx@@AEAAPEAGAEAV?$Array@GVNamedAllocator@shdfnd@physx@@@shdfnd@2@IAEAI@Z 00000001800b65b0 f i NpShape.obj
 0001:000b5610       ??1PxShape@physx@@MEAA@XZ  00000001800b6610 f i NpShape.obj
 0001:000b5620       ??_ENpShape@physx@@WBI@EAAPEAXI@Z 00000001800b6620 f i NpShape.obj
 0001:000b5630       ??_GNpShape@physx@@UEAAPEAXI@Z 00000001800b6630 f i NpShape.obj
 0001:000b5630       ??_ENpShape@physx@@UEAAPEAXI@Z 00000001800b6630 f i NpShape.obj
 0001:000b56b0       ??_GPxShape@physx@@MEAAPEAXI@Z 00000001800b66b0 f i NpShape.obj
 0001:000b56b0       ??_EPxShape@physx@@MEAAPEAXI@Z 00000001800b66b0 f i NpShape.obj
 0001:000b56f0       ?getConcreteTypeName@PxShape@physx@@UEBAPEBDXZ 00000001800b66f0 f i NpShape.obj
 0001:000b5700       ?getMaterials@Shape@Scb@physx@@QEBAIPEAPEAVPxMaterial@3@II@Z 00000001800b6700 f i NpShape.obj
 0001:000b5810       ?isKindOf@PxShape@physx@@MEBA_NPEBD@Z 00000001800b6810 f i NpShape.obj
 0001:000b5870       ?setContactOffset@Shape@Scb@physx@@QEAAXM@Z 00000001800b6870 f i NpShape.obj
 0001:000b59c0       ?setFlags@Shape@Scb@physx@@QEAAXV?$PxFlags@W4Enum@PxShapeFlag@physx@@E@3@@Z 00000001800b69c0 f i NpShape.obj
 0001:000b5af0       ?setGeometry@Shape@Scb@physx@@QEAAPEAUShapeBuffer@23@AEBVPxGeometry@3@@Z 00000001800b6af0 f i NpShape.obj
 0001:000b5c50       ?setMaterials@Shape@Scb@physx@@QEAA_NPEBQEAVPxMaterial@3@G@Z 00000001800b6c50 f i NpShape.obj
 0001:000b5df0       ?setRestOffset@Shape@Scb@physx@@QEAAXM@Z 00000001800b6df0 f i NpShape.obj
 0001:000b5f40       ?setShape2Actor@Shape@Scb@physx@@QEAAXAEBVPxTransform@3@@Z 00000001800b6f40 f i NpShape.obj
 0001:000b60d0       ?setSimulationFilterData@Shape@Scb@physx@@QEAAXAEBUPxFilterData@3@@Z 00000001800b70d0 f i NpShape.obj
 0001:000b6210       ??0NpShapeManager@physx@@QEAA@W4PxEMPTY@1@@Z 00000001800b7210 f   NpShapeManager.obj
 0001:000b6250       ?exportExtraData@NpShapeManager@physx@@QEAAXAEAVPxSerializationContext@2@@Z 00000001800b7250 f   NpShapeManager.obj
 0001:000b6290       ?importExtraData@NpShapeManager@physx@@QEAAXAEAVPxDeserializationContext@2@@Z 00000001800b7290 f   NpShapeManager.obj
 0001:000b62d0       ??0NpShapeManager@physx@@QEAA@XZ 00000001800b72d0 f   NpShapeManager.obj
 0001:000b6300       ??1NpShapeManager@physx@@QEAA@XZ 00000001800b7300 f   NpShapeManager.obj
 0001:000b6360       ?getShapes@NpShapeManager@physx@@QEBAIPEAPEAVPxShape@2@II@Z 00000001800b7360 f   NpShapeManager.obj
 0001:000b63c0       ?attachShape@NpShapeManager@physx@@QEAAXAEAVNpShape@2@AEAVPxRigidActor@2@@Z 00000001800b73c0 f   NpShapeManager.obj
 0001:000b64a0       ?detachShape@NpShapeManager@physx@@QEAAXAEAVNpShape@2@AEAVPxRigidActor@2@_N@Z 00000001800b74a0 f   NpShapeManager.obj
 0001:000b65b0       ?shapeIsAttached@NpShapeManager@physx@@QEBA_NAEAVNpShape@2@@Z 00000001800b75b0 f   NpShapeManager.obj
 0001:000b65d0       ?detachAll@NpShapeManager@physx@@QEAAXPEAVNpScene@2@@Z 00000001800b75d0 f   NpShapeManager.obj
 0001:000b6660       ?teardownSceneQuery@NpShapeManager@physx@@QEAAXAEAVSceneQueryManager@Sq@2@AEBVNpShape@2@@Z 00000001800b7660 f   NpShapeManager.obj
 0001:000b66f0       ?setupSceneQuery@NpShapeManager@physx@@QEAAXAEAVSceneQueryManager@Sq@2@AEBVPxRigidActor@2@AEBVNpShape@2@@Z 00000001800b76f0 f   NpShapeManager.obj
 0001:000b6740       ?setupAllSceneQuery@NpShapeManager@physx@@QEAAXPEAVNpScene@2@AEBVPxRigidActor@2@_NPEBVPxBounds3@2@@Z 00000001800b7740 f   NpShapeManager.obj
 0001:000b6850       ?teardownAllSceneQuery@NpShapeManager@physx@@QEAAXAEAVSceneQueryManager@Sq@2@@Z 00000001800b7850 f   NpShapeManager.obj
 0001:000b6920       ?markAllSceneQueryForUpdate@NpShapeManager@physx@@QEAAXAEAVSceneQueryManager@Sq@2@@Z 00000001800b7920 f   NpShapeManager.obj
 0001:000b69a0       ?findSceneQueryData@NpShapeManager@physx@@QEBA_KAEBVNpShape@2@@Z 00000001800b79a0 f   NpShapeManager.obj
 0001:000b69e0       ?getWorldBounds@NpShapeManager@physx@@QEBA?AVPxBounds3@2@AEBVPxRigidActor@2@@Z 00000001800b79e0 f   NpShapeManager.obj
 0001:000b6d60       ?clearShapesOnRelease@NpShapeManager@physx@@QEAAXAEAVScene@Scb@2@AEAVPxRigidActor@2@@Z 00000001800b7d60 f   NpShapeManager.obj
 0001:000b6e00       ?releaseExclusiveUserReferences@NpShapeManager@physx@@QEAAXXZ 00000001800b7e00 f   NpShapeManager.obj
 0001:000b6e60       ?visualize@NpShapeManager@physx@@QEAAXAEAVRenderOutput@Cm@2@PEAVNpScene@2@AEBVPxRigidActor@2@@Z 00000001800b7e60 f   NpShapeManager.obj
 0001:000b7620       ?setupSceneQuery@NpShapeManager@physx@@IEAAXAEAVSceneQueryManager@Sq@2@AEBVPxRigidActor@2@I@Z 00000001800b8620 f   NpShapeManager.obj
 0001:000b76b0       ?teardownSceneQuery@NpShapeManager@physx@@IEAAXAEAVSceneQueryManager@Sq@2@I@Z 00000001800b86b0 f   NpShapeManager.obj
 0001:000b7cd0       ??0PxMat44@physx@@QEAA@AEBVPxTransform@1@@Z 00000001800b8cd0 f i NpShapeManager.obj
 0001:000b7ee0       ??0PxVec4@physx@@QEAA@XZ   00000001800b8ee0 f i NpShapeManager.obj
 0001:000b8230       ?growAndPushBack@?$Array@PEAVShape@Scb@physx@@V?$InlineAllocator@$0CA@VNamedAllocator@shdfnd@physx@@@shdfnd@3@@shdfnd@physx@@IEAAAEAPEAVShape@Scb@3@AEBQEAV453@@Z 00000001800b9230 f i NpShapeManager.obj
 0001:000b8320       ?growAndPushBack@?$Array@URemovedShape@Scb@physx@@V?$InlineAllocator@$0EA@VNamedAllocator@shdfnd@physx@@@shdfnd@3@@shdfnd@physx@@IEAAAEAURemovedShape@Scb@3@AEBU453@@Z 00000001800b9320 f i NpShapeManager.obj
 0001:000b8470       ?onShapeAttach@RigidObject@Scb@physx@@QEAAXAEAVShape@23@@Z 00000001800b9470 f i NpShapeManager.obj
 0001:000b86f0       ?onShapeDetach@RigidObject@Scb@physx@@QEAAXAEAVShape@23@_N1@Z 00000001800b96f0 f i NpShapeManager.obj
 0001:000bc290       ?PxCreateSpatialIndex@physx@@YAPEAVPxSpatialIndex@1@XZ 00000001800bd290 f   NpSpatialIndex.obj
 0001:000bc330       ??0NpSpatialIndex@physx@@QEAA@XZ 00000001800bd330 f   NpSpatialIndex.obj
 0001:000bc370       ??1NpSpatialIndex@physx@@UEAA@XZ 00000001800bd370 f   NpSpatialIndex.obj
 0001:000bc3b0       ?insert@NpSpatialIndex@physx@@UEAAIAEAVPxSpatialIndexItem@2@AEBVPxBounds3@2@@Z 00000001800bd3b0 f   NpSpatialIndex.obj
 0001:000bc640       ?update@NpSpatialIndex@physx@@UEAAXIAEBVPxBounds3@2@@Z 00000001800bd640 f   NpSpatialIndex.obj
 0001:000bc8e0       ?remove@NpSpatialIndex@physx@@UEAAXI@Z 00000001800bd8e0 f   NpSpatialIndex.obj
 0001:000bc940       ?overlap@NpSpatialIndex@physx@@UEBAXAEBVPxBounds3@2@AEAUPxSpatialOverlapCallback@2@@Z 00000001800bd940 f   NpSpatialIndex.obj
 0001:000bccb0       ?raycast@NpSpatialIndex@physx@@UEBAXAEBVPxVec3@2@0MAEAUPxSpatialLocationCallback@2@@Z 00000001800bdcb0 f   NpSpatialIndex.obj
 0001:000bcfe0       ?sweep@NpSpatialIndex@physx@@UEBAXAEBVPxBounds3@2@AEBVPxVec3@2@MAEAUPxSpatialLocationCallback@2@@Z 00000001800bdfe0 f   NpSpatialIndex.obj
 0001:000bd520       ?rebuildFull@NpSpatialIndex@physx@@UEAAXXZ 00000001800be520 f   NpSpatialIndex.obj
 0001:000bd580       ?setIncrementalRebuildRate@NpSpatialIndex@physx@@UEAAXI@Z 00000001800be580 f   NpSpatialIndex.obj
 0001:000bd5a0       ?rebuildStep@NpSpatialIndex@physx@@UEAAXXZ 00000001800be5a0 f   NpSpatialIndex.obj
 0001:000bd600       ?release@NpSpatialIndex@physx@@UEAAXXZ 00000001800be600 f   NpSpatialIndex.obj
 0001:000bd620       ?flushUpdates@NpSpatialIndex@physx@@AEBAXXZ 00000001800be620 f   NpSpatialIndex.obj
 0001:000bdb40       ??1PxSpatialIndex@physx@@MEAA@XZ 00000001800beb40 f i NpSpatialIndex.obj
 0001:000bdb50       ??_GLocationCallback@?A0xf6eba22d@@UEAAPEAXI@Z 00000001800beb50 f i NpSpatialIndex.obj
 0001:000bdb50       ??_ELocationCallback@?A0xf6eba22d@@UEAAPEAXI@Z 00000001800beb50 f i NpSpatialIndex.obj
 0001:000bdb90       ??_ENpSpatialIndex@physx@@UEAAPEAXI@Z 00000001800beb90 f i NpSpatialIndex.obj
 0001:000bdb90       ??_GNpSpatialIndex@physx@@UEAAPEAXI@Z 00000001800beb90 f i NpSpatialIndex.obj
 0001:000bdc30       ??_GOverlapCallback@?A0xf6eba22d@@UEAAPEAXI@Z 00000001800bec30 f i NpSpatialIndex.obj
 0001:000bdc30       ??_EOverlapCallback@?A0xf6eba22d@@UEAAPEAXI@Z 00000001800bec30 f i NpSpatialIndex.obj
 0001:000bdc70       ??_EPxSpatialIndex@physx@@MEAAPEAXI@Z 00000001800bec70 f i NpSpatialIndex.obj
 0001:000bdc70       ??_GPxSpatialIndex@physx@@MEAAPEAXI@Z 00000001800bec70 f i NpSpatialIndex.obj
 0001:000bdcb0       ?flush@NpSpatialIndex@physx@@UEAAXXZ 00000001800becb0 f i NpSpatialIndex.obj
 0001:000bddd0       ??0NpVolumeCache@physx@@QEAA@PEAVSceneQueryManager@Sq@1@II@Z 00000001800bedd0 f   NpVolumeCache.obj
 0001:000bdeb0       ??1NpVolumeCache@physx@@UEAA@XZ 00000001800beeb0 f   NpVolumeCache.obj
 0001:000bdf30       ?isValid@NpVolumeCache@physx@@UEBA_NXZ 00000001800bef30 f   NpVolumeCache.obj
 0001:000bdf70       ?isValid@NpVolumeCache@physx@@QEBA_NI@Z 00000001800bef70 f   NpVolumeCache.obj
 0001:000bdfc0       ?fill@NpVolumeCache@physx@@UEAA?AW4FillStatus@PxVolumeCache@2@AEBVPxGeometry@2@AEBVPxTransform@2@@Z 00000001800befc0 f   NpVolumeCache.obj
 0001:000be100       ?fillInternal@NpVolumeCache@physx@@QEAA?AW4FillStatus@PxVolumeCache@2@IPEBUPxOverlapHit@2@H@Z 00000001800bf100 f   NpVolumeCache.obj
 0001:000be410       ?getCacheVolume@NpVolumeCache@physx@@UEAA_NAEAVPxGeometryHolder@2@AEAVPxTransform@2@@Z 00000001800bf410 f   NpVolumeCache.obj
 0001:000be470       ?getNbCachedShapes@NpVolumeCache@physx@@UEAAHXZ 00000001800bf470 f   NpVolumeCache.obj
 0001:000be4b0       ?invalidate@NpVolumeCache@physx@@UEAAXXZ 00000001800bf4b0 f   NpVolumeCache.obj
 0001:000be4e0       ?release@NpVolumeCache@physx@@UEAAXXZ 00000001800bf4e0 f   NpVolumeCache.obj
 0001:000be500       ?forEach@NpVolumeCache@physx@@UEAAXAEAUIterator@PxVolumeCache@2@@Z 00000001800bf500 f   NpVolumeCache.obj
 0001:000be720       ?setMaxNbStaticShapes@NpVolumeCache@physx@@UEAAXI@Z 00000001800bf720 f   NpVolumeCache.obj
 0001:000be750       ?getMaxNbStaticShapes@NpVolumeCache@physx@@UEAAIXZ 00000001800bf750 f   NpVolumeCache.obj
 0001:000be760       ?setMaxNbDynamicShapes@NpVolumeCache@physx@@UEAAXI@Z 00000001800bf760 f   NpVolumeCache.obj
 0001:000be7a0       ?getMaxNbDynamicShapes@NpVolumeCache@physx@@UEAAIXZ 00000001800bf7a0 f   NpVolumeCache.obj
 0001:000be7b0       ?raycast@NpVolumeCache@physx@@UEBA_NAEBVPxVec3@2@0MAEAU?$PxHitCallback@UPxRaycastHit@physx@@@2@V?$PxFlags@W4Enum@PxHitFlag@physx@@G@2@AEBUPxQueryFilterData@2@PEAVPxQueryFilterCallback@2@@Z 00000001800bf7b0 f   NpVolumeCache.obj
 0001:000be880       ?sweep@NpVolumeCache@physx@@UEBA_NAEBVPxGeometry@2@AEBVPxTransform@2@AEBVPxVec3@2@MAEAU?$PxHitCallback@UPxSweepHit@physx@@@2@V?$PxFlags@W4Enum@PxHitFlag@physx@@G@2@AEBUPxQueryFilterData@2@PEAVPxQueryFilterCallback@2@M@Z 00000001800bf880 f   NpVolumeCache.obj
 0001:000be960       ?overlap@NpVolumeCache@physx@@UEBA_NAEBVPxGeometry@2@AEBVPxTransform@2@AEAU?$PxHitCallback@UPxOverlapHit@physx@@@2@AEBUPxQueryFilterData@2@PEAVPxQueryFilterCallback@2@@Z 00000001800bf960 f   NpVolumeCache.obj
 0001:000bea10       ?onOriginShift@NpVolumeCache@physx@@QEAAXAEBVPxVec3@2@@Z 00000001800bfa10 f   NpVolumeCache.obj
 0001:000beef0       ??$multiQuery@UPxOverlapHit@physx@@@NpVolumeCache@physx@@QEBA_NAEBUMultiQueryInput@1@AEAU?$PxHitCallback@UPxOverlapHit@physx@@@1@V?$PxFlags@W4Enum@PxHitFlag@physx@@G@1@AEBUPxQueryFilterData@1@PEAVPxQueryFilterCallback@1@M@Z 00000001800bfef0 f i NpVolumeCache.obj
 0001:000bf800       ??$multiQuery@UPxRaycastHit@physx@@@NpVolumeCache@physx@@QEBA_NAEBUMultiQueryInput@1@AEAU?$PxHitCallback@UPxRaycastHit@physx@@@1@V?$PxFlags@W4Enum@PxHitFlag@physx@@G@1@AEBUPxQueryFilterData@1@PEAVPxQueryFilterCallback@1@M@Z 00000001800c0800 f i NpVolumeCache.obj
 0001:000c0640       ??$multiQuery@UPxSweepHit@physx@@@NpVolumeCache@physx@@QEBA_NAEBUMultiQueryInput@1@AEAU?$PxHitCallback@UPxSweepHit@physx@@@1@V?$PxFlags@W4Enum@PxHitFlag@physx@@G@1@AEBUPxQueryFilterData@1@PEAVPxQueryFilterCallback@1@M@Z 00000001800c1640 f i NpVolumeCache.obj
 0001:000c1510       ??1?$Array@UPxActorShape@physx@@VNamedAllocator@shdfnd@2@@shdfnd@physx@@QEAA@XZ 00000001800c2510 f i NpVolumeCache.obj
 0001:000c1550       ??1PxVolumeCache@physx@@MEAA@XZ 00000001800c2550 f i NpVolumeCache.obj
 0001:000c1560       ??_F?$Array@UPxActorShape@physx@@VNamedAllocator@shdfnd@2@@shdfnd@physx@@QEAAXXZ 00000001800c2560 f i NpVolumeCache.obj
 0001:000c15b0       ??_GNpVolumeCache@physx@@UEAAPEAXI@Z 00000001800c25b0 f i NpVolumeCache.obj
 0001:000c15b0       ??_ENpVolumeCache@physx@@UEAAPEAXI@Z 00000001800c25b0 f i NpVolumeCache.obj
 0001:000c1630       ??_ENpVolumeCacheSqCallback@physx@@UEAAPEAXI@Z 00000001800c2630 f i NpVolumeCache.obj
 0001:000c1630       ??_GNpVolumeCacheSqCallback@physx@@UEAAPEAXI@Z 00000001800c2630 f i NpVolumeCache.obj
 0001:000c1670       ??_GPxVolumeCache@physx@@MEAAPEAXI@Z 00000001800c2670 f i NpVolumeCache.obj
 0001:000c1670       ??_EPxVolumeCache@physx@@MEAAPEAXI@Z 00000001800c2670 f i NpVolumeCache.obj
 0001:000c16b0       ?doQuery@?$SceneQueryAny@UPxRaycastHit@physx@@@physx@@SA_NPEAVPxScene@2@AEBUMultiQueryInput@2@AEAU?$PxHitCallback@UPxRaycastHit@physx@@@2@V?$PxFlags@W4Enum@PxHitFlag@physx@@G@2@AEBUPxQueryFilterData@2@PEAVPxQueryFilterCallback@2@@Z 00000001800c26b0 f i NpVolumeCache.obj
 0001:000c1750       ?doQuery@?$SceneQueryAny@UPxSweepHit@physx@@@physx@@SA_NPEAVPxScene@2@AEBUMultiQueryInput@2@AEAU?$PxHitCallback@UPxSweepHit@physx@@@2@V?$PxFlags@W4Enum@PxHitFlag@physx@@G@2@AEBUPxQueryFilterData@2@PEAVPxQueryFilterCallback@2@@Z 00000001800c2750 f i NpVolumeCache.obj
 0001:000c18b0       ?growAndPushBack@?$Array@UPxActorShape@physx@@VNamedAllocator@shdfnd@2@@shdfnd@physx@@IEAAAEAUPxActorShape@3@AEBU43@@Z 00000001800c28b0 f i NpVolumeCache.obj
 0001:000c19c0       ?processTouches@NpVolumeCacheSqCallback@physx@@UEAA_NPEBUPxOverlapHit@2@I@Z 00000001800c29c0 f i NpVolumeCache.obj
 0001:000c1a80       ?recreate@?$Array@UPxActorShape@physx@@VNamedAllocator@shdfnd@2@@shdfnd@physx@@IEAAXI@Z 00000001800c2a80 f i NpVolumeCache.obj
 0001:000c1b60       ?resize@?$Array@UPxActorShape@physx@@VNamedAllocator@shdfnd@2@@shdfnd@physx@@QEAAXIAEBUPxActorShape@3@@Z 00000001800c2b60 f i NpVolumeCache.obj
 0001:000c1c30       ??0NpWriteCheck@physx@@QEAA@PEAVNpScene@1@PEBD_N@Z 00000001800c2c30 f   NpWriteCheck.obj
 0001:000c1d40       ??1NpWriteCheck@physx@@QEAA@XZ 00000001800c2d40 f   NpWriteCheck.obj
 0001:000c1e50       ??0PvdMetaDataBinding@Vd@physx@@QEAA@XZ 00000001800c2e50 f   PvdMetaDataPvdBinding.obj
 0001:000c1ef0       ??1PvdMetaDataBinding@Vd@physx@@QEAA@XZ 00000001800c2ef0 f   PvdMetaDataPvdBinding.obj
 0001:000c2030       ?registerSDKProperties@PvdMetaDataBinding@Vd@physx@@QEAAXAEAVPvdDataStream@pvdsdk@3@@Z 00000001800c3030 f   PvdMetaDataPvdBinding.obj
 0001:000c5050       ?sendAllProperties@PvdMetaDataBinding@Vd@physx@@QEAAXAEAVPvdDataStream@pvdsdk@3@AEBVPxPhysics@3@@Z 00000001800c6050 f   PvdMetaDataPvdBinding.obj
 0001:000c5220       ?sendAllProperties@PvdMetaDataBinding@Vd@physx@@QEAAXAEAVPvdDataStream@pvdsdk@3@AEBVPxScene@3@@Z 00000001800c6220 f   PvdMetaDataPvdBinding.obj
 0001:000c5540       ?sendBeginFrame@PvdMetaDataBinding@Vd@physx@@QEAAXAEAVPvdDataStream@pvdsdk@3@PEBVPxScene@3@M@Z 00000001800c6540 f   PvdMetaDataPvdBinding.obj
 0001:000c5640       ?sendContacts@PvdMetaDataBinding@Vd@physx@@QEAAXAEAVPvdDataStream@pvdsdk@3@AEBVPxScene@3@AEAV?$Array@UContact@Sc@physx@@VNamedAllocator@shdfnd@3@@shdfnd@3@@Z 00000001800c6640 f   PvdMetaDataPvdBinding.obj
 0001:000c57f0       ?sendContacts@PvdMetaDataBinding@Vd@physx@@QEAAXAEAVPvdDataStream@pvdsdk@3@AEBVPxScene@3@@Z 00000001800c67f0 f   PvdMetaDataPvdBinding.obj
 0001:000c5860       ?sendSceneQueries@PvdMetaDataBinding@Vd@physx@@QEAAXAEAVPvdDataStream@pvdsdk@3@AEBVPxScene@3@PEAVPsPvd@53@@Z 00000001800c6860 f   PvdMetaDataPvdBinding.obj
 0001:000c5d20       ?sendStats@PvdMetaDataBinding@Vd@physx@@QEAAXAEAVPvdDataStream@pvdsdk@3@PEBVPxScene@3@PEAX@Z 00000001800c6d20 f   PvdMetaDataPvdBinding.obj
 0001:000c5e00       ?sendEndFrame@PvdMetaDataBinding@Vd@physx@@QEAAXAEAVPvdDataStream@pvdsdk@3@PEBVPxScene@3@@Z 00000001800c6e00 f   PvdMetaDataPvdBinding.obj
 0001:000c5e20       ?createInstance@PvdMetaDataBinding@Vd@physx@@QEAAXAEAVPvdDataStream@pvdsdk@3@AEBVPxMaterial@3@AEBVPxPhysics@3@@Z 00000001800c6e20 f   PvdMetaDataPvdBinding.obj
 0001:000c5f10       ?sendAllProperties@PvdMetaDataBinding@Vd@physx@@QEAAXAEAVPvdDataStream@pvdsdk@3@AEBVPxMaterial@3@@Z 00000001800c6f10 f   PvdMetaDataPvdBinding.obj
 0001:000c5f90       ?destroyInstance@PvdMetaDataBinding@Vd@physx@@QEAAXAEAVPvdDataStream@pvdsdk@3@AEBVPxMaterial@3@AEBVPxPhysics@3@@Z 00000001800c6f90 f   PvdMetaDataPvdBinding.obj
 0001:000c5fe0       ?createInstance@PvdMetaDataBinding@Vd@physx@@QEAAXAEAVPvdDataStream@pvdsdk@3@AEBVPxHeightField@3@AEBVPxPhysics@3@@Z 00000001800c6fe0 f   PvdMetaDataPvdBinding.obj
 0001:000c60d0       ?sendAllProperties@PvdMetaDataBinding@Vd@physx@@QEAAXAEAVPvdDataStream@pvdsdk@3@AEBVPxHeightField@3@@Z 00000001800c70d0 f   PvdMetaDataPvdBinding.obj
 0001:000c6290       ?destroyInstance@PvdMetaDataBinding@Vd@physx@@QEAAXAEAVPvdDataStream@pvdsdk@3@AEBVPxHeightField@3@AEBVPxPhysics@3@@Z 00000001800c7290 f   PvdMetaDataPvdBinding.obj
 0001:000c62e0       ?createInstance@PvdMetaDataBinding@Vd@physx@@QEAAXAEAVPvdDataStream@pvdsdk@3@AEBVPxConvexMesh@3@AEBVPxPhysics@3@@Z 00000001800c72e0 f   PvdMetaDataPvdBinding.obj
 0001:000c6630       ?destroyInstance@PvdMetaDataBinding@Vd@physx@@QEAAXAEAVPvdDataStream@pvdsdk@3@AEBVPxConvexMesh@3@AEBVPxPhysics@3@@Z 00000001800c7630 f   PvdMetaDataPvdBinding.obj
 0001:000c6680       ?createInstance@PvdMetaDataBinding@Vd@physx@@QEAAXAEAVPvdDataStream@pvdsdk@3@AEBVPxTriangleMesh@3@AEBVPxPhysics@3@@Z 00000001800c7680 f   PvdMetaDataPvdBinding.obj
 0001:000c6960       ?destroyInstance@PvdMetaDataBinding@Vd@physx@@QEAAXAEAVPvdDataStream@pvdsdk@3@AEBVPxTriangleMesh@3@AEBVPxPhysics@3@@Z 00000001800c7960 f   PvdMetaDataPvdBinding.obj
 0001:000c69b0       ?createInstance@PvdMetaDataBinding@Vd@physx@@QEAAXAEAVPvdDataStream@pvdsdk@3@AEBVPxRigidStatic@3@AEBVPxScene@3@AEBVPxPhysics@3@PEAVPsPvd@53@@Z 00000001800c79b0 f   PvdMetaDataPvdBinding.obj
 0001:000c6a20       ?sendAllProperties@PvdMetaDataBinding@Vd@physx@@QEAAXAEAVPvdDataStream@pvdsdk@3@AEBVPxRigidStatic@3@@Z 00000001800c7a20 f   PvdMetaDataPvdBinding.obj
 0001:000c6ab0       ?destroyInstance@PvdMetaDataBinding@Vd@physx@@QEAAXAEAVPvdDataStream@pvdsdk@3@AEBVPxRigidStatic@3@AEBVPxScene@3@@Z 00000001800c7ab0 f   PvdMetaDataPvdBinding.obj
 0001:000c6b10       ?createInstance@PvdMetaDataBinding@Vd@physx@@QEAAXAEAVPvdDataStream@pvdsdk@3@AEBVPxRigidDynamic@3@AEBVPxScene@3@AEBVPxPhysics@3@PEAVPsPvd@53@@Z 00000001800c7b10 f   PvdMetaDataPvdBinding.obj
 0001:000c6b80       ?sendAllProperties@PvdMetaDataBinding@Vd@physx@@QEAAXAEAVPvdDataStream@pvdsdk@3@AEBVPxRigidDynamic@3@@Z 00000001800c7b80 f   PvdMetaDataPvdBinding.obj
 0001:000c6c10       ?destroyInstance@PvdMetaDataBinding@Vd@physx@@QEAAXAEAVPvdDataStream@pvdsdk@3@AEBVPxRigidDynamic@3@AEBVPxScene@3@@Z 00000001800c7c10 f   PvdMetaDataPvdBinding.obj
 0001:000c6c70       ?createInstance@PvdMetaDataBinding@Vd@physx@@QEAAXAEAVPvdDataStream@pvdsdk@3@AEBVPxArticulation@3@AEBVPxScene@3@AEBVPxPhysics@3@PEAVPsPvd@53@@Z 00000001800c7c70 f   PvdMetaDataPvdBinding.obj
 0001:000c6f20       ?sendAllProperties@PvdMetaDataBinding@Vd@physx@@QEAAXAEAVPvdDataStream@pvdsdk@3@AEBVPxArticulation@3@@Z 00000001800c7f20 f   PvdMetaDataPvdBinding.obj
 0001:000c6fb0       ?destroyInstance@PvdMetaDataBinding@Vd@physx@@QEAAXAEAVPvdDataStream@pvdsdk@3@AEBVPxArticulation@3@AEBVPxScene@3@@Z 00000001800c7fb0 f   PvdMetaDataPvdBinding.obj
 0001:000c7000       ?createInstance@PvdMetaDataBinding@Vd@physx@@QEAAXAEAVPvdDataStream@pvdsdk@3@AEBVPxArticulationLink@3@AEBVPxPhysics@3@PEAVPsPvd@53@@Z 00000001800c8000 f   PvdMetaDataPvdBinding.obj
 0001:000c7180       ?sendAllProperties@PvdMetaDataBinding@Vd@physx@@QEAAXAEAVPvdDataStream@pvdsdk@3@AEBVPxArticulationLink@3@@Z 00000001800c8180 f   PvdMetaDataPvdBinding.obj
 0001:000c7210       ?destroyInstance@PvdMetaDataBinding@Vd@physx@@QEAAXAEAVPvdDataStream@pvdsdk@3@AEBVPxArticulationLink@3@@Z 00000001800c8210 f   PvdMetaDataPvdBinding.obj
 0001:000c7280       ?createInstance@PvdMetaDataBinding@Vd@physx@@QEAAXAEAVPvdDataStream@pvdsdk@3@AEBVPxShape@3@AEBVPxRigidActor@3@AEBVPxPhysics@3@PEAVPsPvd@53@@Z 00000001800c8280 f   PvdMetaDataPvdBinding.obj
 0001:000c76b0       ?sendAllProperties@PvdMetaDataBinding@Vd@physx@@QEAAXAEAVPvdDataStream@pvdsdk@3@AEBVPxShape@3@@Z 00000001800c86b0 f   PvdMetaDataPvdBinding.obj
 0001:000c7740       ?releaseAndRecreateGeometry@PvdMetaDataBinding@Vd@physx@@QEAAXAEAVPvdDataStream@pvdsdk@3@AEBVPxShape@3@AEAVPxPhysics@3@PEAVPsPvd@53@@Z 00000001800c8740 f   PvdMetaDataPvdBinding.obj
 0001:000c7860       ?updateMaterials@PvdMetaDataBinding@Vd@physx@@QEAAXAEAVPvdDataStream@pvdsdk@3@AEBVPxShape@3@PEAVPsPvd@53@@Z 00000001800c8860 f   PvdMetaDataPvdBinding.obj
 0001:000c7900       ?destroyInstance@PvdMetaDataBinding@Vd@physx@@QEAAXAEAVPvdDataStream@pvdsdk@3@AEBVPxShape@3@AEBVPxRigidActor@3@@Z 00000001800c8900 f   PvdMetaDataPvdBinding.obj
 0001:000c7c60       ?sendAllProperties@PvdMetaDataBinding@Vd@physx@@QEAAXAEAVPvdDataStream@pvdsdk@3@AEBVPxArticulationJoint@3@@Z 00000001800c8c60 f   PvdMetaDataPvdBinding.obj
 0001:000c7cf0       ?updateDynamicActorsAndArticulations@PvdMetaDataBinding@Vd@physx@@QEAAXAEAVPvdDataStream@pvdsdk@3@PEBVPxScene@3@PEAVPvdVisualizer@23@@Z 00000001800c8cf0 f   PvdMetaDataPvdBinding.obj
 0001:000c7fd0       ?originShift@PvdMetaDataBinding@Vd@physx@@QEAAXAEAVPvdDataStream@pvdsdk@3@PEBVPxScene@3@VPxVec3@3@@Z 00000001800c8fd0 f   PvdMetaDataPvdBinding.obj
 0001:000c8020       ?createInstance@PvdMetaDataBinding@Vd@physx@@QEAAXAEAVPvdDataStream@pvdsdk@3@AEBVPxParticleSystem@3@AEBVPxScene@3@@Z 00000001800c9020 f   PvdMetaDataPvdBinding.obj
 0001:000c80c0       ?sendAllProperties@PvdMetaDataBinding@Vd@physx@@QEAAXAEAVPvdDataStream@pvdsdk@3@AEBVPxParticleSystem@3@@Z 00000001800c90c0 f   PvdMetaDataPvdBinding.obj
 0001:000c8150       ?sendArrays@PvdMetaDataBinding@Vd@physx@@QEAAXAEAVPvdDataStream@pvdsdk@3@AEBVPxParticleSystem@3@AEAVPxParticleReadData@3@I@Z 00000001800c9150 f   PvdMetaDataPvdBinding.obj
 0001:000c82d0       ?destroyInstance@PvdMetaDataBinding@Vd@physx@@QEAAXAEAVPvdDataStream@pvdsdk@3@AEBVPxParticleSystem@3@AEBVPxScene@3@@Z 00000001800c92d0 f   PvdMetaDataPvdBinding.obj
 0001:000c8320       ?createInstance@PvdMetaDataBinding@Vd@physx@@QEAAXAEAVPvdDataStream@pvdsdk@3@AEBVPxParticleFluid@3@AEBVPxScene@3@@Z 00000001800c9320 f   PvdMetaDataPvdBinding.obj
 0001:000c83c0       ?sendAllProperties@PvdMetaDataBinding@Vd@physx@@QEAAXAEAVPvdDataStream@pvdsdk@3@AEBVPxParticleFluid@3@@Z 00000001800c93c0 f   PvdMetaDataPvdBinding.obj
 0001:000c8450       ?sendArrays@PvdMetaDataBinding@Vd@physx@@QEAAXAEAVPvdDataStream@pvdsdk@3@AEBVPxParticleFluid@3@AEAVPxParticleFluidReadData@3@I@Z 00000001800c9450 f   PvdMetaDataPvdBinding.obj
 0001:000c8650       ?destroyInstance@PvdMetaDataBinding@Vd@physx@@QEAAXAEAVPvdDataStream@pvdsdk@3@AEBVPxParticleFluid@3@AEBVPxScene@3@@Z 00000001800c9650 f   PvdMetaDataPvdBinding.obj
 0001:000c86a0       ?createInstance@PvdMetaDataBinding@Vd@physx@@QEAAXAEAVPvdDataStream@pvdsdk@3@AEBVPxClothFabric@3@AEBVPxPhysics@3@@Z 00000001800c96a0 f   PvdMetaDataPvdBinding.obj
 0001:000c8790       ?sendAllProperties@PvdMetaDataBinding@Vd@physx@@QEAAXAEAVPvdDataStream@pvdsdk@3@AEBVPxClothFabric@3@@Z 00000001800c9790 f   PvdMetaDataPvdBinding.obj
 0001:000c88f0       ?destroyInstance@PvdMetaDataBinding@Vd@physx@@QEAAXAEAVPvdDataStream@pvdsdk@3@AEBVPxClothFabric@3@AEBVPxPhysics@3@@Z 00000001800c98f0 f   PvdMetaDataPvdBinding.obj
 0001:000c8940       ?createInstance@PvdMetaDataBinding@Vd@physx@@QEAAXAEAVPvdDataStream@pvdsdk@3@AEBVPxCloth@3@AEBVPxScene@3@AEBVPxPhysics@3@PEAVPsPvd@53@@Z 00000001800c9940 f   PvdMetaDataPvdBinding.obj
 0001:000c8a50       ?sendAllProperties@PvdMetaDataBinding@Vd@physx@@QEAAXAEAVPvdDataStream@pvdsdk@3@AEBVPxCloth@3@@Z 00000001800c9a50 f   PvdMetaDataPvdBinding.obj
 0001:000c8b10       ?sendSimpleProperties@PvdMetaDataBinding@Vd@physx@@QEAAXAEAVPvdDataStream@pvdsdk@3@AEBVPxCloth@3@@Z 00000001800c9b10 f   PvdMetaDataPvdBinding.obj
 0001:000c8ba0       ?sendMotionConstraints@PvdMetaDataBinding@Vd@physx@@QEAAXAEAVPvdDataStream@pvdsdk@3@AEBVPxCloth@3@@Z 00000001800c9ba0 f   PvdMetaDataPvdBinding.obj
 0001:000c8c70       ?sendCollisionSpheres@PvdMetaDataBinding@Vd@physx@@QEAAXAEAVPvdDataStream@pvdsdk@3@AEBVPxCloth@3@_N@Z 00000001800c9c70 f   PvdMetaDataPvdBinding.obj
 0001:000c8e30       ?sendCollisionTriangles@PvdMetaDataBinding@Vd@physx@@QEAAXAEAVPvdDataStream@pvdsdk@3@AEBVPxCloth@3@@Z 00000001800c9e30 f   PvdMetaDataPvdBinding.obj
 0001:000c9060       ?sendVirtualParticles@PvdMetaDataBinding@Vd@physx@@QEAAXAEAVPvdDataStream@pvdsdk@3@AEBVPxCloth@3@@Z 00000001800ca060 f   PvdMetaDataPvdBinding.obj
 0001:000c91c0       ?sendSeparationConstraints@PvdMetaDataBinding@Vd@physx@@QEAAXAEAVPvdDataStream@pvdsdk@3@AEBVPxCloth@3@@Z 00000001800ca1c0 f   PvdMetaDataPvdBinding.obj
 0001:000c92a0       ?sendRestPositions@PvdMetaDataBinding@Vd@physx@@QEAAXAEAVPvdDataStream@pvdsdk@3@AEBVPxCloth@3@@Z 00000001800ca2a0 f   PvdMetaDataPvdBinding.obj
 0001:000c9370       ?sendSelfCollisionIndices@PvdMetaDataBinding@Vd@physx@@QEAAXAEAVPvdDataStream@pvdsdk@3@AEBVPxCloth@3@@Z 00000001800ca370 f   PvdMetaDataPvdBinding.obj
 0001:000c9450       ?sendParticleAccelerations@PvdMetaDataBinding@Vd@physx@@QEAAXAEAVPvdDataStream@pvdsdk@3@AEBVPxCloth@3@@Z 00000001800ca450 f   PvdMetaDataPvdBinding.obj
 0001:000c9520       ?updateCloths@PvdMetaDataBinding@Vd@physx@@QEAAXAEAVPvdDataStream@pvdsdk@3@AEBVPxScene@3@@Z 00000001800ca520 f   PvdMetaDataPvdBinding.obj
 0001:000c9810       ?destroyInstance@PvdMetaDataBinding@Vd@physx@@QEAAXAEAVPvdDataStream@pvdsdk@3@AEBVPxCloth@3@AEBVPxScene@3@@Z 00000001800ca810 f   PvdMetaDataPvdBinding.obj
 0001:000c9890       ?createInstance@PvdMetaDataBinding@Vd@physx@@QEAAXAEAVPvdDataStream@pvdsdk@3@AEBVPxAggregate@3@AEBVPxScene@3@@Z 00000001800ca890 f   PvdMetaDataPvdBinding.obj
 0001:000c98e0       ?sendAllProperties@PvdMetaDataBinding@Vd@physx@@QEAAXAEAVPvdDataStream@pvdsdk@3@AEBVPxAggregate@3@@Z 00000001800ca8e0 f   PvdMetaDataPvdBinding.obj
 0001:000c9960       ?destroyInstance@PvdMetaDataBinding@Vd@physx@@QEAAXAEAVPvdDataStream@pvdsdk@3@AEBVPxAggregate@3@AEBVPxScene@3@@Z 00000001800ca960 f   PvdMetaDataPvdBinding.obj
 0001:000c99b0       ?detachAggregateActor@PvdMetaDataBinding@Vd@physx@@QEAAXAEAVPvdDataStream@pvdsdk@3@AEBVPxAggregate@3@AEBVPxActor@3@@Z 00000001800ca9b0 f   PvdMetaDataPvdBinding.obj
 0001:000c99d0       ?attachAggregateActor@PvdMetaDataBinding@Vd@physx@@QEAAXAEAVPvdDataStream@pvdsdk@3@AEBVPxAggregate@3@AEBVPxActor@3@@Z 00000001800ca9d0 f   PvdMetaDataPvdBinding.obj
 0001:000c99f0       ??$registrarPhysicsObject@VPxConvexMeshGeometry@physx@@@PvdMetaDataBinding@Vd@physx@@QEAAXAEAVPvdDataStream@pvdsdk@2@AEBVPxConvexMeshGeometry@2@PEAVPsPvd@42@@Z 00000001800ca9f0 f   PvdMetaDataPvdBinding.obj
 0001:000c9a50       ??$registrarPhysicsObject@VPxTriangleMeshGeometry@physx@@@PvdMetaDataBinding@Vd@physx@@QEAAXAEAVPvdDataStream@pvdsdk@2@AEBVPxTriangleMeshGeometry@2@PEAVPsPvd@42@@Z 00000001800caa50 f   PvdMetaDataPvdBinding.obj
 0001:000c9ab0       ??$registrarPhysicsObject@VPxHeightFieldGeometry@physx@@@PvdMetaDataBinding@Vd@physx@@QEAAXAEAVPvdDataStream@pvdsdk@2@AEBVPxHeightFieldGeometry@2@PEAVPsPvd@42@@Z 00000001800caab0 f   PvdMetaDataPvdBinding.obj
 0001:000c9b10       ??RConvexMeshBuilder@Vd@physx@@QEAAXIM@Z 00000001800cab10 f   PvdMetaDataPvdBinding.obj
 0001:000cc7b0       ??$?R$0BA@VPxMaterial@physx@@V?$PxFlags@W4Enum@PxMaterialFlag@physx@@G@1@@?$PvdPropertyFilter@UPvdClassInfoDefine@Vd@physx@@@Vd@physx@@QEAAXAEBU?$PxReadOnlyPropertyInfo@$0BA@VPxMaterial@physx@@V?$PxFlags@W4Enum@PxMaterialFlag@physx@@G@2@@2@I@Z 00000001800cd7b0 f i PvdMetaDataPvdBinding.obj
 0001:000cc890       ??$?R$0BA@VPxMaterial@physx@@V?$PxFlags@W4Enum@PxMaterialFlag@physx@@G@1@@?$PvdPropertyFilter@UPvdClassInfoValueStructDefine@Vd@physx@@@Vd@physx@@QEAAXAEBU?$PxReadOnlyPropertyInfo@$0BA@VPxMaterial@physx@@V?$PxFlags@W4Enum@PxMaterialFlag@physx@@G@2@@2@I@Z 00000001800cd890 f i PvdMetaDataPvdBinding.obj
 0001:000cc940       ??$?R$0BAA@VPxHeightFieldDesc@physx@@I@?$PvdPropertyFilter@UPvdClassInfoDefine@Vd@physx@@@Vd@physx@@QEAAXAEBU?$PxReadOnlyPropertyInfo@$0BAA@VPxHeightFieldDesc@physx@@I@2@I@Z 00000001800cd940 f i PvdMetaDataPvdBinding.obj
 0001:000cc9f0       ??$?R$0BAA@VPxHeightFieldDesc@physx@@I@?$PvdPropertyFilter@UPvdClassInfoValueStructDefine@Vd@physx@@@Vd@physx@@QEAAXAEBU?$PxReadOnlyPropertyInfo@$0BAA@VPxHeightFieldDesc@physx@@I@2@I@Z 00000001800cd9f0 f i PvdMetaDataPvdBinding.obj
 0001:000ccaa0       ??$?R$0BAB@VPxHeightFieldDesc@physx@@I@?$PvdPropertyFilter@UPvdClassInfoDefine@Vd@physx@@@Vd@physx@@QEAAXAEBU?$PxReadOnlyPropertyInfo@$0BAB@VPxHeightFieldDesc@physx@@I@2@I@Z 00000001800cdaa0 f i PvdMetaDataPvdBinding.obj
 0001:000ccb50       ??$?R$0BAB@VPxHeightFieldDesc@physx@@I@?$PvdPropertyFilter@UPvdClassInfoValueStructDefine@Vd@physx@@@Vd@physx@@QEAAXAEBU?$PxReadOnlyPropertyInfo@$0BAB@VPxHeightFieldDesc@physx@@I@2@I@Z 00000001800cdb50 f i PvdMetaDataPvdBinding.obj
 0001:000ccc00       ??$?R$0BAC@VPxHeightFieldDesc@physx@@W4Enum@PxHeightFieldFormat@1@@?$PvdPropertyFilter@UPvdClassInfoDefine@Vd@physx@@@Vd@physx@@QEAAXAEBU?$PxReadOnlyPropertyInfo@$0BAC@VPxHeightFieldDesc@physx@@W4Enum@PxHeightFieldFormat@2@@2@I@Z 00000001800cdc00 f i PvdMetaDataPvdBinding.obj
 0001:000ccce0       ??$?R$0BAC@VPxHeightFieldDesc@physx@@W4Enum@PxHeightFieldFormat@1@@?$PvdPropertyFilter@UPvdClassInfoValueStructDefine@Vd@physx@@@Vd@physx@@QEAAXAEBU?$PxReadOnlyPropertyInfo@$0BAC@VPxHeightFieldDesc@physx@@W4Enum@PxHeightFieldFormat@2@@2@I@Z 00000001800cdce0 f i PvdMetaDataPvdBinding.obj
 0001:000ccd90       ??$?R$0BAE@VPxHeightFieldDesc@physx@@M@?$PvdPropertyFilter@UPvdClassInfoDefine@Vd@physx@@@Vd@physx@@QEAAXAEBU?$PxReadOnlyPropertyInfo@$0BAE@VPxHeightFieldDesc@physx@@M@2@I@Z 00000001800cdd90 f i PvdMetaDataPvdBinding.obj
 0001:000cce40       ??$?R$0BAE@VPxHeightFieldDesc@physx@@M@?$PvdPropertyFilter@UPvdClassInfoValueStructDefine@Vd@physx@@@Vd@physx@@QEAAXAEBU?$PxReadOnlyPropertyInfo@$0BAE@VPxHeightFieldDesc@physx@@M@2@I@Z 00000001800cde40 f i PvdMetaDataPvdBinding.obj
 0001:000ccef0       ??$?R$0BAF@VPxHeightFieldDesc@physx@@M@?$PvdPropertyFilter@UPvdClassInfoDefine@Vd@physx@@@Vd@physx@@QEAAXAEBU?$PxReadOnlyPropertyInfo@$0BAF@VPxHeightFieldDesc@physx@@M@2@I@Z 00000001800cdef0 f i PvdMetaDataPvdBinding.obj
 0001:000ccfa0       ??$?R$0BAF@VPxHeightFieldDesc@physx@@M@?$PvdPropertyFilter@UPvdClassInfoValueStructDefine@Vd@physx@@@Vd@physx@@QEAAXAEBU?$PxReadOnlyPropertyInfo@$0BAF@VPxHeightFieldDesc@physx@@M@2@I@Z 00000001800cdfa0 f i PvdMetaDataPvdBinding.obj
 0001:000cd050       ??$?R$0BAG@VPxHeightFieldDesc@physx@@V?$PxFlags@W4Enum@PxHeightFieldFlag@physx@@G@1@@?$PvdPropertyFilter@UPvdClassInfoDefine@Vd@physx@@@Vd@physx@@QEAAXAEBU?$PxReadOnlyPropertyInfo@$0BAG@VPxHeightFieldDesc@physx@@V?$PxFlags@W4Enum@PxHeightFieldFlag@physx@@G@2@@2@I@Z 00000001800ce050 f i PvdMetaDataPvdBinding.obj
 0001:000cd130       ??$?R$0BAG@VPxHeightFieldDesc@physx@@V?$PxFlags@W4Enum@PxHeightFieldFlag@physx@@G@1@@?$PvdPropertyFilter@UPvdClassInfoValueStructDefine@Vd@physx@@@Vd@physx@@QEAAXAEBU?$PxReadOnlyPropertyInfo@$0BAG@VPxHeightFieldDesc@physx@@V?$PxFlags@W4Enum@PxHeightFieldFlag@physx@@G@2@@2@I@Z 00000001800ce130 f i PvdMetaDataPvdBinding.obj
 0001:000cd1e0       ??$?R$0BB@VPxMaterial@physx@@W4Enum@PxCombineMode@1@@?$PvdPropertyFilter@UPvdClassInfoDefine@Vd@physx@@@Vd@physx@@QEAAXAEBU?$PxReadOnlyPropertyInfo@$0BB@VPxMaterial@physx@@W4Enum@PxCombineMode@2@@2@I@Z 00000001800ce1e0 f i PvdMetaDataPvdBinding.obj
 0001:000cd2c0       ??$?R$0BB@VPxMaterial@physx@@W4Enum@PxCombineMode@1@@?$PvdPropertyFilter@UPvdClassInfoValueStructDefine@Vd@physx@@@Vd@physx@@QEAAXAEBU?$PxReadOnlyPropertyInfo@$0BB@VPxMaterial@physx@@W4Enum@PxCombineMode@2@@2@I@Z 00000001800ce2c0 f i PvdMetaDataPvdBinding.obj
 0001:000cd370       ??$?R$0BC@VPxMaterial@physx@@W4Enum@PxCombineMode@1@@?$PvdPropertyFilter@UPvdClassInfoDefine@Vd@physx@@@Vd@physx@@QEAAXAEBU?$PxReadOnlyPropertyInfo@$0BC@VPxMaterial@physx@@W4Enum@PxCombineMode@2@@2@I@Z 00000001800ce370 f i PvdMetaDataPvdBinding.obj
 0001:000cd450       ??$?R$0BC@VPxMaterial@physx@@W4Enum@PxCombineMode@1@@?$PvdPropertyFilter@UPvdClassInfoValueStructDefine@Vd@physx@@@Vd@physx@@QEAAXAEBU?$PxReadOnlyPropertyInfo@$0BC@VPxMaterial@physx@@W4Enum@PxCombineMode@2@@2@I@Z 00000001800ce450 f i PvdMetaDataPvdBinding.obj
 0001:000cd500       ??$?R$0BD@VPxMaterial@physx@@PEBD@?$PvdPropertyFilter@UPvdClassInfoDefine@Vd@physx@@@Vd@physx@@QEAAXAEBU?$PxReadOnlyPropertyInfo@$0BD@VPxMaterial@physx@@PEBD@2@I@Z 00000001800ce500 f i PvdMetaDataPvdBinding.obj
 0001:000cd5b0       ??$?R$0BD@VPxMaterial@physx@@PEBD@?$PvdPropertyFilter@UPvdClassInfoValueStructDefine@Vd@physx@@@Vd@physx@@QEAAXAEBU?$PxReadOnlyPropertyInfo@$0BD@VPxMaterial@physx@@PEBD@2@I@Z 00000001800ce5b0 f i PvdMetaDataPvdBinding.obj
 0001:000cd660       ??$?R$0BDA@UPxClothParticle@physx@@VPxVec3@1@@?$PvdPropertyFilter@UPvdClassInfoDefine@Vd@physx@@@Vd@physx@@QEAAXAEBU?$PxReadOnlyPropertyInfo@$0BDA@UPxClothParticle@physx@@VPxVec3@2@@2@I@Z 00000001800ce660 f i PvdMetaDataPvdBinding.obj
 0001:000cd710       ??$?R$0BDB@UPxClothParticle@physx@@M@?$PvdPropertyFilter@UPvdClassInfoDefine@Vd@physx@@@Vd@physx@@QEAAXAEBU?$PxReadOnlyPropertyInfo@$0BDB@UPxClothParticle@physx@@M@2@I@Z 00000001800ce710 f i PvdMetaDataPvdBinding.obj
 0001:000cd7c0       ??$?R$0BDE@UPxClothFabricPhase@physx@@W4Enum@PxClothFabricPhaseType@1@@?$PvdPropertyFilter@UPvdClassInfoDefine@Vd@physx@@@Vd@physx@@QEAAXAEBU?$PxReadOnlyPropertyInfo@$0BDE@UPxClothFabricPhase@physx@@W4Enum@PxClothFabricPhaseType@2@@2@I@Z 00000001800ce7c0 f i PvdMetaDataPvdBinding.obj
 0001:000cd8a0       ??$?R$0BDF@UPxClothFabricPhase@physx@@I@?$PvdPropertyFilter@UPvdClassInfoDefine@Vd@physx@@@Vd@physx@@QEAAXAEBU?$PxReadOnlyPropertyInfo@$0BDF@UPxClothFabricPhase@physx@@I@2@I@Z 00000001800ce8a0 f i PvdMetaDataPvdBinding.obj
 0001:000cd950       ??$?R$0BDI@VPxSceneLimits@physx@@I@?$PvdPropertyFilter@UPvdClassInfoDefine@Vd@physx@@@Vd@physx@@QEAAXAEBU?$PxReadOnlyPropertyInfo@$0BDI@VPxSceneLimits@physx@@I@2@I@Z 00000001800ce950 f i PvdMetaDataPvdBinding.obj
 0001:000cda00       ??$?R$0BDI@VPxSceneLimits@physx@@I@?$PvdPropertyFilter@UPvdClassInfoValueStructDefine@Vd@physx@@@Vd@physx@@QEAAXAEBU?$PxReadOnlyPropertyInfo@$0BDI@VPxSceneLimits@physx@@I@2@I@Z 00000001800cea00 f i PvdMetaDataPvdBinding.obj
 0001:000cdaa0       ??$?R$0BDJ@VPxSceneLimits@physx@@I@?$PvdPropertyFilter@UPvdClassInfoDefine@Vd@physx@@@Vd@physx@@QEAAXAEBU?$PxReadOnlyPropertyInfo@$0BDJ@VPxSceneLimits@physx@@I@2@I@Z 00000001800ceaa0 f i PvdMetaDataPvdBinding.obj
 0001:000cdb50       ??$?R$0BDJ@VPxSceneLimits@physx@@I@?$PvdPropertyFilter@UPvdClassInfoValueStructDefine@Vd@physx@@@Vd@physx@@QEAAXAEBU?$PxReadOnlyPropertyInfo@$0BDJ@VPxSceneLimits@physx@@I@2@I@Z 00000001800ceb50 f i PvdMetaDataPvdBinding.obj
 0001:000cdc00       ??$?R$0BDK@VPxSceneLimits@physx@@I@?$PvdPropertyFilter@UPvdClassInfoDefine@Vd@physx@@@Vd@physx@@QEAAXAEBU?$PxReadOnlyPropertyInfo@$0BDK@VPxSceneLimits@physx@@I@2@I@Z 00000001800cec00 f i PvdMetaDataPvdBinding.obj
 0001:000cdcb0       ??$?R$0BDK@VPxSceneLimits@physx@@I@?$PvdPropertyFilter@UPvdClassInfoValueStructDefine@Vd@physx@@@Vd@physx@@QEAAXAEBU?$PxReadOnlyPropertyInfo@$0BDK@VPxSceneLimits@physx@@I@2@I@Z 00000001800cecb0 f i PvdMetaDataPvdBinding.obj
 0001:000cdd60       ??$?R$0BDL@VPxSceneLimits@physx@@I@?$PvdPropertyFilter@UPvdClassInfoDefine@Vd@physx@@@Vd@physx@@QEAAXAEBU?$PxReadOnlyPropertyInfo@$0BDL@VPxSceneLimits@physx@@I@2@I@Z 00000001800ced60 f i PvdMetaDataPvdBinding.obj
 0001:000cde10       ??$?R$0BDL@VPxSceneLimits@physx@@I@?$PvdPropertyFilter@UPvdClassInfoValueStructDefine@Vd@physx@@@Vd@physx@@QEAAXAEBU?$PxReadOnlyPropertyInfo@$0BDL@VPxSceneLimits@physx@@I@2@I@Z 00000001800cee10 f i PvdMetaDataPvdBinding.obj
 0001:000cdec0       ??$?R$0BDM@VPxSceneLimits@physx@@I@?$PvdPropertyFilter@UPvdClassInfoDefine@Vd@physx@@@Vd@physx@@QEAAXAEBU?$PxReadOnlyPropertyInfo@$0BDM@VPxSceneLimits@physx@@I@2@I@Z 00000001800ceec0 f i PvdMetaDataPvdBinding.obj
 0001:000cdf70       ??$?R$0BDM@VPxSceneLimits@physx@@I@?$PvdPropertyFilter@UPvdClassInfoValueStructDefine@Vd@physx@@@Vd@physx@@QEAAXAEBU?$PxReadOnlyPropertyInfo@$0BDM@VPxSceneLimits@physx@@I@2@I@Z 00000001800cef70 f i PvdMetaDataPvdBinding.obj
 0001:000ce020       ??$?R$0BDN@VPxSceneLimits@physx@@I@?$PvdPropertyFilter@UPvdClassInfoDefine@Vd@physx@@@Vd@physx@@QEAAXAEBU?$PxReadOnlyPropertyInfo@$0BDN@VPxSceneLimits@physx@@I@2@I@Z 00000001800cf020 f i PvdMetaDataPvdBinding.obj
 0001:000ce0d0       ??$?R$0BDN@VPxSceneLimits@physx@@I@?$PvdPropertyFilter@UPvdClassInfoValueStructDefine@Vd@physx@@@Vd@physx@@QEAAXAEBU?$PxReadOnlyPropertyInfo@$0BDN@VPxSceneLimits@physx@@I@2@I@Z 00000001800cf0d0 f i PvdMetaDataPvdBinding.obj
 0001:000ce180       ??$?R$0BDO@VPxSceneLimits@physx@@I@?$PvdPropertyFilter@UPvdClassInfoDefine@Vd@physx@@@Vd@physx@@QEAAXAEBU?$PxReadOnlyPropertyInfo@$0BDO@VPxSceneLimits@physx@@I@2@I@Z 00000001800cf180 f i PvdMetaDataPvdBinding.obj
 0001:000ce230       ??$?R$0BDO@VPxSceneLimits@physx@@I@?$PvdPropertyFilter@UPvdClassInfoValueStructDefine@Vd@physx@@@Vd@physx@@QEAAXAEBU?$PxReadOnlyPropertyInfo@$0BDO@VPxSceneLimits@physx@@I@2@I@Z 00000001800cf230 f i PvdMetaDataPvdBinding.obj
 0001:000ce2e0       ??$?R$0BDP@VPxSceneLimits@physx@@I@?$PvdPropertyFilter@UPvdClassInfoDefine@Vd@physx@@@Vd@physx@@QEAAXAEBU?$PxReadOnlyPropertyInfo@$0BDP@VPxSceneLimits@physx@@I@2@I@Z 00000001800cf2e0 f i PvdMetaDataPvdBinding.obj
 0001:000ce390       ??$?R$0BDP@VPxSceneLimits@physx@@I@?$PvdPropertyFilter@UPvdClassInfoValueStructDefine@Vd@physx@@@Vd@physx@@QEAAXAEBU?$PxReadOnlyPropertyInfo@$0BDP@VPxSceneLimits@physx@@I@2@I@Z 00000001800cf390 f i PvdMetaDataPvdBinding.obj
 0001:000ce440       ??$?R$0BEA@VPxSceneLimits@physx@@I@?$PvdPropertyFilter@UPvdClassInfoDefine@Vd@physx@@@Vd@physx@@QEAAXAEBU?$PxReadOnlyPropertyInfo@$0BEA@VPxSceneLimits@physx@@I@2@I@Z 00000001800cf440 f i PvdMetaDataPvdBinding.obj
 0001:000ce4f0       ??$?R$0BEA@VPxSceneLimits@physx@@I@?$PvdPropertyFilter@UPvdClassInfoValueStructDefine@Vd@physx@@@Vd@physx@@QEAAXAEBU?$PxReadOnlyPropertyInfo@$0BEA@VPxSceneLimits@physx@@I@2@I@Z 00000001800cf4f0 f i PvdMetaDataPvdBinding.obj
 0001:000ce5a0       ??$?R$0BED@UPxgDynamicsMemoryConfig@physx@@I@?$PvdPropertyFilter@UPvdClassInfoDefine@Vd@physx@@@Vd@physx@@QEAAXAEBU?$PxReadOnlyPropertyInfo@$0BED@UPxgDynamicsMemoryConfig@physx@@I@2@I@Z 00000001800cf5a0 f i PvdMetaDataPvdBinding.obj
 0001:000ce650       ??$?R$0BED@UPxgDynamicsMemoryConfig@physx@@I@?$PvdPropertyFilter@UPvdClassInfoValueStructDefine@Vd@physx@@@Vd@physx@@QEAAXAEBU?$PxReadOnlyPropertyInfo@$0BED@UPxgDynamicsMemoryConfig@physx@@I@2@I@Z 00000001800cf650 f i PvdMetaDataPvdBinding.obj
 0001:000ce6f0       ??$?R$0BEE@UPxgDynamicsMemoryConfig@physx@@I@?$PvdPropertyFilter@UPvdClassInfoDefine@Vd@physx@@@Vd@physx@@QEAAXAEBU?$PxReadOnlyPropertyInfo@$0BEE@UPxgDynamicsMemoryConfig@physx@@I@2@I@Z 00000001800cf6f0 f i PvdMetaDataPvdBinding.obj
 0001:000ce7a0       ??$?R$0BEE@UPxgDynamicsMemoryConfig@physx@@I@?$PvdPropertyFilter@UPvdClassInfoValueStructDefine@Vd@physx@@@Vd@physx@@QEAAXAEBU?$PxReadOnlyPropertyInfo@$0BEE@UPxgDynamicsMemoryConfig@physx@@I@2@I@Z 00000001800cf7a0 f i PvdMetaDataPvdBinding.obj
 0001:000ce850       ??$?R$0BEF@UPxgDynamicsMemoryConfig@physx@@I@?$PvdPropertyFilter@UPvdClassInfoDefine@Vd@physx@@@Vd@physx@@QEAAXAEBU?$PxReadOnlyPropertyInfo@$0BEF@UPxgDynamicsMemoryConfig@physx@@I@2@I@Z 00000001800cf850 f i PvdMetaDataPvdBinding.obj
 0001:000ce900       ??$?R$0BEF@UPxgDynamicsMemoryConfig@physx@@I@?$PvdPropertyFilter@UPvdClassInfoValueStructDefine@Vd@physx@@@Vd@physx@@QEAAXAEBU?$PxReadOnlyPropertyInfo@$0BEF@UPxgDynamicsMemoryConfig@physx@@I@2@I@Z 00000001800cf900 f i PvdMetaDataPvdBinding.obj
 0001:000ce9b0       ??$?R$0BEG@UPxgDynamicsMemoryConfig@physx@@I@?$PvdPropertyFilter@UPvdClassInfoDefine@Vd@physx@@@Vd@physx@@QEAAXAEBU?$PxReadOnlyPropertyInfo@$0BEG@UPxgDynamicsMemoryConfig@physx@@I@2@I@Z 00000001800cf9b0 f i PvdMetaDataPvdBinding.obj
 0001:000cea60       ??$?R$0BEG@UPxgDynamicsMemoryConfig@physx@@I@?$PvdPropertyFilter@UPvdClassInfoValueStructDefine@Vd@physx@@@Vd@physx@@QEAAXAEBU?$PxReadOnlyPropertyInfo@$0BEG@UPxgDynamicsMemoryConfig@physx@@I@2@I@Z 00000001800cfa60 f i PvdMetaDataPvdBinding.obj
 0001:000ceb10       ??$?R$0BEH@UPxgDynamicsMemoryConfig@physx@@I@?$PvdPropertyFilter@UPvdClassInfoDefine@Vd@physx@@@Vd@physx@@QEAAXAEBU?$PxReadOnlyPropertyInfo@$0BEH@UPxgDynamicsMemoryConfig@physx@@I@2@I@Z 00000001800cfb10 f i PvdMetaDataPvdBinding.obj
 0001:000cebc0       ??$?R$0BEH@UPxgDynamicsMemoryConfig@physx@@I@?$PvdPropertyFilter@UPvdClassInfoValueStructDefine@Vd@physx@@@Vd@physx@@QEAAXAEBU?$PxReadOnlyPropertyInfo@$0BEH@UPxgDynamicsMemoryConfig@physx@@I@2@I@Z 00000001800cfbc0 f i PvdMetaDataPvdBinding.obj
 0001:000cec70       ??$?R$0BEI@UPxgDynamicsMemoryConfig@physx@@I@?$PvdPropertyFilter@UPvdClassInfoDefine@Vd@physx@@@Vd@physx@@QEAAXAEBU?$PxReadOnlyPropertyInfo@$0BEI@UPxgDynamicsMemoryConfig@physx@@I@2@I@Z 00000001800cfc70 f i PvdMetaDataPvdBinding.obj
 0001:000ced20       ??$?R$0BEI@UPxgDynamicsMemoryConfig@physx@@I@?$PvdPropertyFilter@UPvdClassInfoValueStructDefine@Vd@physx@@@Vd@physx@@QEAAXAEBU?$PxReadOnlyPropertyInfo@$0BEI@UPxgDynamicsMemoryConfig@physx@@I@2@I@Z 00000001800cfd20 f i PvdMetaDataPvdBinding.obj
 0001:000cedd0       ??$?R$0BEJ@UPxgDynamicsMemoryConfig@physx@@I@?$PvdPropertyFilter@UPvdClassInfoDefine@Vd@physx@@@Vd@physx@@QEAAXAEBU?$PxReadOnlyPropertyInfo@$0BEJ@UPxgDynamicsMemoryConfig@physx@@I@2@I@Z 00000001800cfdd0 f i PvdMetaDataPvdBinding.obj
 0001:000cee80       ??$?R$0BEJ@UPxgDynamicsMemoryConfig@physx@@I@?$PvdPropertyFilter@UPvdClassInfoValueStructDefine@Vd@physx@@@Vd@physx@@QEAAXAEBU?$PxReadOnlyPropertyInfo@$0BEJ@UPxgDynamicsMemoryConfig@physx@@I@2@I@Z 00000001800cfe80 f i PvdMetaDataPvdBinding.obj
 0001:000cef30       ??$?R$0BEK@UPxgDynamicsMemoryConfig@physx@@I@?$PvdPropertyFilter@UPvdClassInfoDefine@Vd@physx@@@Vd@physx@@QEAAXAEBU?$PxReadOnlyPropertyInfo@$0BEK@UPxgDynamicsMemoryConfig@physx@@I@2@I@Z 00000001800cff30 f i PvdMetaDataPvdBinding.obj
 0001:000cefe0       ??$?R$0BEK@UPxgDynamicsMemoryConfig@physx@@I@?$PvdPropertyFilter@UPvdClassInfoValueStructDefine@Vd@physx@@@Vd@physx@@QEAAXAEBU?$PxReadOnlyPropertyInfo@$0BEK@UPxgDynamicsMemoryConfig@physx@@I@2@I@Z 00000001800cffe0 f i PvdMetaDataPvdBinding.obj
 0001:000cf090       ??$?R$0BEO@VPxSceneDesc@physx@@_N@?$PvdPropertyFilter@UPvdClassInfoDefine@Vd@physx@@@Vd@physx@@QEAAXAEBU?$PxReadOnlyPropertyInfo@$0BEO@VPxSceneDesc@physx@@_N@2@I@Z 00000001800d0090 f i PvdMetaDataPvdBinding.obj
 0001:000cf140       ??$?R$0BEO@VPxSceneDesc@physx@@_N@?$PvdPropertyFilter@UPvdClassInfoValueStructDefine@Vd@physx@@@Vd@physx@@QEAAXAEBU?$PxReadOnlyPropertyInfo@$0BEO@VPxSceneDesc@physx@@_N@2@I@Z 00000001800d0140 f i PvdMetaDataPvdBinding.obj
 0001:000cf1e0       ??$?R$0BEP@VPxSceneDesc@physx@@VPxVec3@1@@?$PvdPropertyFilter@UPvdClassInfoDefine@Vd@physx@@@Vd@physx@@QEAAXAEBU?$PxReadOnlyPropertyInfo@$0BEP@VPxSceneDesc@physx@@VPxVec3@2@@2@I@Z 00000001800d01e0 f i PvdMetaDataPvdBinding.obj
 0001:000cf290       ??$?R$0BEP@VPxSceneDesc@physx@@VPxVec3@1@@?$PvdPropertyFilter@UPvdClassInfoValueStructDefine@Vd@physx@@@Vd@physx@@QEAAXAEBU?$PxReadOnlyPropertyInfo@$0BEP@VPxSceneDesc@physx@@VPxVec3@2@@2@I@Z 00000001800d0290 f i PvdMetaDataPvdBinding.obj
 0001:000cf340       ??$?R$0BFE@VPxSceneDesc@physx@@I@?$PvdPropertyFilter@UPvdClassInfoDefine@Vd@physx@@@Vd@physx@@QEAAXAEBU?$PxReadOnlyPropertyInfo@$0BFE@VPxSceneDesc@physx@@I@2@I@Z 00000001800d0340 f i PvdMetaDataPvdBinding.obj
 0001:000cf3f0       ??$?R$0BFE@VPxSceneDesc@physx@@I@?$PvdPropertyFilter@UPvdClassInfoValueStructDefine@Vd@physx@@@Vd@physx@@QEAAXAEBU?$PxReadOnlyPropertyInfo@$0BFE@VPxSceneDesc@physx@@I@2@I@Z 00000001800d03f0 f i PvdMetaDataPvdBinding.obj
 0001:000cf4a0       ??$?R$0BFH@VPxSceneDesc@physx@@W4Enum@PxBroadPhaseType@1@@?$PvdPropertyFilter@UPvdClassInfoDefine@Vd@physx@@@Vd@physx@@QEAAXAEBU?$PxReadOnlyPropertyInfo@$0BFH@VPxSceneDesc@physx@@W4Enum@PxBroadPhaseType@2@@2@I@Z 00000001800d04a0 f i PvdMetaDataPvdBinding.obj
 0001:000cf580       ??$?R$0BFH@VPxSceneDesc@physx@@W4Enum@PxBroadPhaseType@1@@?$PvdPropertyFilter@UPvdClassInfoValueStructDefine@Vd@physx@@@Vd@physx@@QEAAXAEBU?$PxReadOnlyPropertyInfo@$0BFH@VPxSceneDesc@physx@@W4Enum@PxBroadPhaseType@2@@2@I@Z 00000001800d0580 f i PvdMetaDataPvdBinding.obj
 0001:000cf630       ??$?R$0BFJ@VPxSceneDesc@physx@@VPxSceneLimits@1@@?$PvdPropertyFilter@UPvdClassInfoDefine@Vd@physx@@@Vd@physx@@QEAAXAEBU?$PxReadOnlyPropertyInfo@$0BFJ@VPxSceneDesc@physx@@VPxSceneLimits@2@@2@I@Z 00000001800d0630 f i PvdMetaDataPvdBinding.obj
 0001:000cf740       ??$?R$0BFJ@VPxSceneDesc@physx@@VPxSceneLimits@1@@?$PvdPropertyFilter@UPvdClassInfoValueStructDefine@Vd@physx@@@Vd@physx@@QEAAXAEBU?$PxReadOnlyPropertyInfo@$0BFJ@VPxSceneDesc@physx@@VPxSceneLimits@2@@2@I@Z 00000001800d0740 f i PvdMetaDataPvdBinding.obj
 0001:000cf840       ??$?R$0BFK@VPxSceneDesc@physx@@W4Enum@PxFrictionType@1@@?$PvdPropertyFilter@UPvdClassInfoDefine@Vd@physx@@@Vd@physx@@QEAAXAEBU?$PxReadOnlyPropertyInfo@$0BFK@VPxSceneDesc@physx@@W4Enum@PxFrictionType@2@@2@I@Z 00000001800d0840 f i PvdMetaDataPvdBinding.obj
 0001:000cf920       ??$?R$0BFK@VPxSceneDesc@physx@@W4Enum@PxFrictionType@1@@?$PvdPropertyFilter@UPvdClassInfoValueStructDefine@Vd@physx@@@Vd@physx@@QEAAXAEBU?$PxReadOnlyPropertyInfo@$0BFK@VPxSceneDesc@physx@@W4Enum@PxFrictionType@2@@2@I@Z 00000001800d0920 f i PvdMetaDataPvdBinding.obj
 0001:000cf9d0       ??$?R$0BFL@VPxSceneDesc@physx@@M@?$PvdPropertyFilter@UPvdClassInfoDefine@Vd@physx@@@Vd@physx@@QEAAXAEBU?$PxReadOnlyPropertyInfo@$0BFL@VPxSceneDesc@physx@@M@2@I@Z 00000001800d09d0 f i PvdMetaDataPvdBinding.obj
 0001:000cfa80       ??$?R$0BFL@VPxSceneDesc@physx@@M@?$PvdPropertyFilter@UPvdClassInfoValueStructDefine@Vd@physx@@@Vd@physx@@QEAAXAEBU?$PxReadOnlyPropertyInfo@$0BFL@VPxSceneDesc@physx@@M@2@I@Z 00000001800d0a80 f i PvdMetaDataPvdBinding.obj
 0001:000cfb30       ??$?R$0BFM@VPxSceneDesc@physx@@M@?$PvdPropertyFilter@UPvdClassInfoDefine@Vd@physx@@@Vd@physx@@QEAAXAEBU?$PxReadOnlyPropertyInfo@$0BFM@VPxSceneDesc@physx@@M@2@I@Z 00000001800d0b30 f i PvdMetaDataPvdBinding.obj
 0001:000cfbe0       ??$?R$0BFM@VPxSceneDesc@physx@@M@?$PvdPropertyFilter@UPvdClassInfoValueStructDefine@Vd@physx@@@Vd@physx@@QEAAXAEBU?$PxReadOnlyPropertyInfo@$0BFM@VPxSceneDesc@physx@@M@2@I@Z 00000001800d0be0 f i PvdMetaDataPvdBinding.obj
 0001:000cfc90       ??$?R$0BFN@VPxSceneDesc@physx@@M@?$PvdPropertyFilter@UPvdClassInfoDefine@Vd@physx@@@Vd@physx@@QEAAXAEBU?$PxReadOnlyPropertyInfo@$0BFN@VPxSceneDesc@physx@@M@2@I@Z 00000001800d0c90 f i PvdMetaDataPvdBinding.obj
 0001:000cfd40       ??$?R$0BFN@VPxSceneDesc@physx@@M@?$PvdPropertyFilter@UPvdClassInfoValueStructDefine@Vd@physx@@@Vd@physx@@QEAAXAEBU?$PxReadOnlyPropertyInfo@$0BFN@VPxSceneDesc@physx@@M@2@I@Z 00000001800d0d40 f i PvdMetaDataPvdBinding.obj
 0001:000cfdf0       ??$?R$0BFO@VPxSceneDesc@physx@@V?$PxFlags@W4Enum@PxSceneFlag@physx@@I@1@@?$PvdPropertyFilter@UPvdClassInfoDefine@Vd@physx@@@Vd@physx@@QEAAXAEBU?$PxReadOnlyPropertyInfo@$0BFO@VPxSceneDesc@physx@@V?$PxFlags@W4Enum@PxSceneFlag@physx@@I@2@@2@I@Z 00000001800d0df0 f i PvdMetaDataPvdBinding.obj
 0001:000cfed0       ??$?R$0BFO@VPxSceneDesc@physx@@V?$PxFlags@W4Enum@PxSceneFlag@physx@@I@1@@?$PvdPropertyFilter@UPvdClassInfoValueStructDefine@Vd@physx@@@Vd@physx@@QEAAXAEBU?$PxReadOnlyPropertyInfo@$0BFO@VPxSceneDesc@physx@@V?$PxFlags@W4Enum@PxSceneFlag@physx@@I@2@@2@I@Z 00000001800d0ed0 f i PvdMetaDataPvdBinding.obj
 0001:000cff80       ??$?R$0BGB@VPxSceneDesc@physx@@W4Enum@PxPruningStructureType@1@@?$PvdPropertyFilter@UPvdClassInfoDefine@Vd@physx@@@Vd@physx@@QEAAXAEBU?$PxReadOnlyPropertyInfo@$0BGB@VPxSceneDesc@physx@@W4Enum@PxPruningStructureType@2@@2@I@Z 00000001800d0f80 f i PvdMetaDataPvdBinding.obj
 0001:000d0060       ??$?R$0BGB@VPxSceneDesc@physx@@W4Enum@PxPruningStructureType@1@@?$PvdPropertyFilter@UPvdClassInfoValueStructDefine@Vd@physx@@@Vd@physx@@QEAAXAEBU?$PxReadOnlyPropertyInfo@$0BGB@VPxSceneDesc@physx@@W4Enum@PxPruningStructureType@2@@2@I@Z 00000001800d1060 f i PvdMetaDataPvdBinding.obj
 0001:000d0110       ??$?R$0BGC@VPxSceneDesc@physx@@W4Enum@PxPruningStructureType@1@@?$PvdPropertyFilter@UPvdClassInfoDefine@Vd@physx@@@Vd@physx@@QEAAXAEBU?$PxReadOnlyPropertyInfo@$0BGC@VPxSceneDesc@physx@@W4Enum@PxPruningStructureType@2@@2@I@Z 00000001800d1110 f i PvdMetaDataPvdBinding.obj
 0001:000d01f0       ??$?R$0BGC@VPxSceneDesc@physx@@W4Enum@PxPruningStructureType@1@@?$PvdPropertyFilter@UPvdClassInfoValueStructDefine@Vd@physx@@@Vd@physx@@QEAAXAEBU?$PxReadOnlyPropertyInfo@$0BGC@VPxSceneDesc@physx@@W4Enum@PxPruningStructureType@2@@2@I@Z 00000001800d11f0 f i PvdMetaDataPvdBinding.obj
 0001:000d02a0       ??$?R$0BGD@VPxSceneDesc@physx@@I@?$PvdPropertyFilter@UPvdClassInfoDefine@Vd@physx@@@Vd@physx@@QEAAXAEBU?$PxReadOnlyPropertyInfo@$0BGD@VPxSceneDesc@physx@@I@2@I@Z 00000001800d12a0 f i PvdMetaDataPvdBinding.obj
 0001:000d0350       ??$?R$0BGD@VPxSceneDesc@physx@@I@?$PvdPropertyFilter@UPvdClassInfoValueStructDefine@Vd@physx@@@Vd@physx@@QEAAXAEBU?$PxReadOnlyPropertyInfo@$0BGD@VPxSceneDesc@physx@@I@2@I@Z 00000001800d1350 f i PvdMetaDataPvdBinding.obj
 0001:000d0400       ??$?R$0BGF@VPxSceneDesc@physx@@I@?$PvdPropertyFilter@UPvdClassInfoDefine@Vd@physx@@@Vd@physx@@QEAAXAEBU?$PxReadOnlyPropertyInfo@$0BGF@VPxSceneDesc@physx@@I@2@I@Z 00000001800d1400 f i PvdMetaDataPvdBinding.obj
 0001:000d04b0       ??$?R$0BGF@VPxSceneDesc@physx@@I@?$PvdPropertyFilter@UPvdClassInfoValueStructDefine@Vd@physx@@@Vd@physx@@QEAAXAEBU?$PxReadOnlyPropertyInfo@$0BGF@VPxSceneDesc@physx@@I@2@I@Z 00000001800d14b0 f i PvdMetaDataPvdBinding.obj
 0001:000d0560       ??$?R$0BGG@VPxSceneDesc@physx@@I@?$PvdPropertyFilter@UPvdClassInfoDefine@Vd@physx@@@Vd@physx@@QEAAXAEBU?$PxReadOnlyPropertyInfo@$0BGG@VPxSceneDesc@physx@@I@2@I@Z 00000001800d1560 f i PvdMetaDataPvdBinding.obj
 0001:000d0610       ??$?R$0BGG@VPxSceneDesc@physx@@I@?$PvdPropertyFilter@UPvdClassInfoValueStructDefine@Vd@physx@@@Vd@physx@@QEAAXAEBU?$PxReadOnlyPropertyInfo@$0BGG@VPxSceneDesc@physx@@I@2@I@Z 00000001800d1610 f i PvdMetaDataPvdBinding.obj
 0001:000d06c0       ??$?R$0BGH@VPxSceneDesc@physx@@I@?$PvdPropertyFilter@UPvdClassInfoDefine@Vd@physx@@@Vd@physx@@QEAAXAEBU?$PxReadOnlyPropertyInfo@$0BGH@VPxSceneDesc@physx@@I@2@I@Z 00000001800d16c0 f i PvdMetaDataPvdBinding.obj
 0001:000d0770       ??$?R$0BGH@VPxSceneDesc@physx@@I@?$PvdPropertyFilter@UPvdClassInfoValueStructDefine@Vd@physx@@@Vd@physx@@QEAAXAEBU?$PxReadOnlyPropertyInfo@$0BGH@VPxSceneDesc@physx@@I@2@I@Z 00000001800d1770 f i PvdMetaDataPvdBinding.obj
 0001:000d0820       ??$?R$0BGI@VPxSceneDesc@physx@@I@?$PvdPropertyFilter@UPvdClassInfoDefine@Vd@physx@@@Vd@physx@@QEAAXAEBU?$PxReadOnlyPropertyInfo@$0BGI@VPxSceneDesc@physx@@I@2@I@Z 00000001800d1820 f i PvdMetaDataPvdBinding.obj
 0001:000d08d0       ??$?R$0BGI@VPxSceneDesc@physx@@I@?$PvdPropertyFilter@UPvdClassInfoValueStructDefine@Vd@physx@@@Vd@physx@@QEAAXAEBU?$PxReadOnlyPropertyInfo@$0BGI@VPxSceneDesc@physx@@I@2@I@Z 00000001800d18d0 f i PvdMetaDataPvdBinding.obj
 0001:000d0980       ??$?R$0BGJ@VPxSceneDesc@physx@@I@?$PvdPropertyFilter@UPvdClassInfoDefine@Vd@physx@@@Vd@physx@@QEAAXAEBU?$PxReadOnlyPropertyInfo@$0BGJ@VPxSceneDesc@physx@@I@2@I@Z 00000001800d1980 f i PvdMetaDataPvdBinding.obj
 0001:000d0a30       ??$?R$0BGJ@VPxSceneDesc@physx@@I@?$PvdPropertyFilter@UPvdClassInfoValueStructDefine@Vd@physx@@@Vd@physx@@QEAAXAEBU?$PxReadOnlyPropertyInfo@$0BGJ@VPxSceneDesc@physx@@I@2@I@Z 00000001800d1a30 f i PvdMetaDataPvdBinding.obj
 0001:000d0ae0       ??$?R$0BGK@VPxSceneDesc@physx@@M@?$PvdPropertyFilter@UPvdClassInfoDefine@Vd@physx@@@Vd@physx@@QEAAXAEBU?$PxReadOnlyPropertyInfo@$0BGK@VPxSceneDesc@physx@@M@2@I@Z 00000001800d1ae0 f i PvdMetaDataPvdBinding.obj
 0001:000d0b90       ??$?R$0BGK@VPxSceneDesc@physx@@M@?$PvdPropertyFilter@UPvdClassInfoValueStructDefine@Vd@physx@@@Vd@physx@@QEAAXAEBU?$PxReadOnlyPropertyInfo@$0BGK@VPxSceneDesc@physx@@M@2@I@Z 00000001800d1b90 f i PvdMetaDataPvdBinding.obj
 0001:000d0c40       ??$?R$0BGL@VPxSceneDesc@physx@@VPxBounds3@1@@?$PvdPropertyFilter@UPvdClassInfoDefine@Vd@physx@@@Vd@physx@@QEAAXAEBU?$PxReadOnlyPropertyInfo@$0BGL@VPxSceneDesc@physx@@VPxBounds3@2@@2@I@Z 00000001800d1c40 f i PvdMetaDataPvdBinding.obj
 0001:000d0cf0       ??$?R$0BGL@VPxSceneDesc@physx@@VPxBounds3@1@@?$PvdPropertyFilter@UPvdClassInfoValueStructDefine@Vd@physx@@@Vd@physx@@QEAAXAEBU?$PxReadOnlyPropertyInfo@$0BGL@VPxSceneDesc@physx@@VPxBounds3@2@@2@I@Z 00000001800d1cf0 f i PvdMetaDataPvdBinding.obj
 0001:000d0da0       ??$?R$0BGM@VPxSceneDesc@physx@@UPxgDynamicsMemoryConfig@1@@?$PvdPropertyFilter@UPvdClassInfoDefine@Vd@physx@@@Vd@physx@@QEAAXAEBU?$PxReadOnlyPropertyInfo@$0BGM@VPxSceneDesc@physx@@UPxgDynamicsMemoryConfig@2@@2@I@Z 00000001800d1da0 f i PvdMetaDataPvdBinding.obj
 0001:000d0eb0       ??$?R$0BGM@VPxSceneDesc@physx@@UPxgDynamicsMemoryConfig@1@@?$PvdPropertyFilter@UPvdClassInfoValueStructDefine@Vd@physx@@@Vd@physx@@QEAAXAEBU?$PxReadOnlyPropertyInfo@$0BGM@VPxSceneDesc@physx@@UPxgDynamicsMemoryConfig@2@@2@I@Z 00000001800d1eb0 f i PvdMetaDataPvdBinding.obj
 0001:000d0fb0       ??$?R$0BGN@VPxSceneDesc@physx@@I@?$PvdPropertyFilter@UPvdClassInfoDefine@Vd@physx@@@Vd@physx@@QEAAXAEBU?$PxReadOnlyPropertyInfo@$0BGN@VPxSceneDesc@physx@@I@2@I@Z 00000001800d1fb0 f i PvdMetaDataPvdBinding.obj
 0001:000d1060       ??$?R$0BGN@VPxSceneDesc@physx@@I@?$PvdPropertyFilter@UPvdClassInfoValueStructDefine@Vd@physx@@@Vd@physx@@QEAAXAEBU?$PxReadOnlyPropertyInfo@$0BGN@VPxSceneDesc@physx@@I@2@I@Z 00000001800d2060 f i PvdMetaDataPvdBinding.obj
 0001:000d1110       ??$?R$0BGO@VPxSceneDesc@physx@@I@?$PvdPropertyFilter@UPvdClassInfoDefine@Vd@physx@@@Vd@physx@@QEAAXAEBU?$PxReadOnlyPropertyInfo@$0BGO@VPxSceneDesc@physx@@I@2@I@Z 00000001800d2110 f i PvdMetaDataPvdBinding.obj
 0001:000d11c0       ??$?R$0BGO@VPxSceneDesc@physx@@I@?$PvdPropertyFilter@UPvdClassInfoValueStructDefine@Vd@physx@@@Vd@physx@@QEAAXAEBU?$PxReadOnlyPropertyInfo@$0BGO@VPxSceneDesc@physx@@I@2@I@Z 00000001800d21c0 f i PvdMetaDataPvdBinding.obj
 0001:000d1270       ??$?R$0BHB@VPxSimulationStatistics@physx@@I@?$PvdPropertyFilter@UPvdClassInfoDefine@Vd@physx@@@Vd@physx@@QEAAXAEBU?$PxReadOnlyPropertyInfo@$0BHB@VPxSimulationStatistics@physx@@I@2@I@Z 00000001800d2270 f i PvdMetaDataPvdBinding.obj
 0001:000d1320       ??$?R$0BHB@VPxSimulationStatistics@physx@@I@?$PvdPropertyFilter@UPvdClassInfoValueStructDefine@Vd@physx@@@Vd@physx@@QEAAXAEBU?$PxReadOnlyPropertyInfo@$0BHB@VPxSimulationStatistics@physx@@I@2@I@Z 00000001800d2320 f i PvdMetaDataPvdBinding.obj
 0001:000d13c0       ??$?R$0BHC@VPxSimulationStatistics@physx@@I@?$PvdPropertyFilter@UPvdClassInfoDefine@Vd@physx@@@Vd@physx@@QEAAXAEBU?$PxReadOnlyPropertyInfo@$0BHC@VPxSimulationStatistics@physx@@I@2@I@Z 00000001800d23c0 f i PvdMetaDataPvdBinding.obj
 0001:000d1470       ??$?R$0BHC@VPxSimulationStatistics@physx@@I@?$PvdPropertyFilter@UPvdClassInfoValueStructDefine@Vd@physx@@@Vd@physx@@QEAAXAEBU?$PxReadOnlyPropertyInfo@$0BHC@VPxSimulationStatistics@physx@@I@2@I@Z 00000001800d2470 f i PvdMetaDataPvdBinding.obj
 0001:000d1520       ??$?R$0BHD@VPxSimulationStatistics@physx@@I@?$PvdPropertyFilter@UPvdClassInfoDefine@Vd@physx@@@Vd@physx@@QEAAXAEBU?$PxReadOnlyPropertyInfo@$0BHD@VPxSimulationStatistics@physx@@I@2@I@Z 00000001800d2520 f i PvdMetaDataPvdBinding.obj
 0001:000d15d0       ??$?R$0BHD@VPxSimulationStatistics@physx@@I@?$PvdPropertyFilter@UPvdClassInfoValueStructDefine@Vd@physx@@@Vd@physx@@QEAAXAEBU?$PxReadOnlyPropertyInfo@$0BHD@VPxSimulationStatistics@physx@@I@2@I@Z 00000001800d25d0 f i PvdMetaDataPvdBinding.obj
 0001:000d1680       ??$?R$0BHE@VPxSimulationStatistics@physx@@I@?$PvdPropertyFilter@UPvdClassInfoDefine@Vd@physx@@@Vd@physx@@QEAAXAEBU?$PxReadOnlyPropertyInfo@$0BHE@VPxSimulationStatistics@physx@@I@2@I@Z 00000001800d2680 f i PvdMetaDataPvdBinding.obj
 0001:000d1730       ??$?R$0BHE@VPxSimulationStatistics@physx@@I@?$PvdPropertyFilter@UPvdClassInfoValueStructDefine@Vd@physx@@@Vd@physx@@QEAAXAEBU?$PxReadOnlyPropertyInfo@$0BHE@VPxSimulationStatistics@physx@@I@2@I@Z 00000001800d2730 f i PvdMetaDataPvdBinding.obj
 0001:000d17e0       ??$?R$0BHF@VPxSimulationStatistics@physx@@I@?$PvdPropertyFilter@UPvdClassInfoDefine@Vd@physx@@@Vd@physx@@QEAAXAEBU?$PxReadOnlyPropertyInfo@$0BHF@VPxSimulationStatistics@physx@@I@2@I@Z 00000001800d27e0 f i PvdMetaDataPvdBinding.obj
 0001:000d1890       ??$?R$0BHF@VPxSimulationStatistics@physx@@I@?$PvdPropertyFilter@UPvdClassInfoValueStructDefine@Vd@physx@@@Vd@physx@@QEAAXAEBU?$PxReadOnlyPropertyInfo@$0BHF@VPxSimulationStatistics@physx@@I@2@I@Z 00000001800d2890 f i PvdMetaDataPvdBinding.obj
 0001:000d1940       ??$?R$0BHG@VPxSimulationStatistics@physx@@I@?$PvdPropertyFilter@UPvdClassInfoDefine@Vd@physx@@@Vd@physx@@QEAAXAEBU?$PxReadOnlyPropertyInfo@$0BHG@VPxSimulationStatistics@physx@@I@2@I@Z 00000001800d2940 f i PvdMetaDataPvdBinding.obj
 0001:000d19f0       ??$?R$0BHG@VPxSimulationStatistics@physx@@I@?$PvdPropertyFilter@UPvdClassInfoValueStructDefine@Vd@physx@@@Vd@physx@@QEAAXAEBU?$PxReadOnlyPropertyInfo@$0BHG@VPxSimulationStatistics@physx@@I@2@I@Z 00000001800d29f0 f i PvdMetaDataPvdBinding.obj
 0001:000d1aa0       ??$?R$0BHH@VPxSimulationStatistics@physx@@I@?$PvdPropertyFilter@UPvdClassInfoDefine@Vd@physx@@@Vd@physx@@QEAAXAEBU?$PxReadOnlyPropertyInfo@$0BHH@VPxSimulationStatistics@physx@@I@2@I@Z 00000001800d2aa0 f i PvdMetaDataPvdBinding.obj
 0001:000d1b50       ??$?R$0BHH@VPxSimulationStatistics@physx@@I@?$PvdPropertyFilter@UPvdClassInfoValueStructDefine@Vd@physx@@@Vd@physx@@QEAAXAEBU?$PxReadOnlyPropertyInfo@$0BHH@VPxSimulationStatistics@physx@@I@2@I@Z 00000001800d2b50 f i PvdMetaDataPvdBinding.obj
 0001:000d1c00       ??$?R$0BHI@VPxSimulationStatistics@physx@@I@?$PvdPropertyFilter@UPvdClassInfoDefine@Vd@physx@@@Vd@physx@@QEAAXAEBU?$PxReadOnlyPropertyInfo@$0BHI@VPxSimulationStatistics@physx@@I@2@I@Z 00000001800d2c00 f i PvdMetaDataPvdBinding.obj
 0001:000d1cb0       ??$?R$0BHI@VPxSimulationStatistics@physx@@I@?$PvdPropertyFilter@UPvdClassInfoValueStructDefine@Vd@physx@@@Vd@physx@@QEAAXAEBU?$PxReadOnlyPropertyInfo@$0BHI@VPxSimulationStatistics@physx@@I@2@I@Z 00000001800d2cb0 f i PvdMetaDataPvdBinding.obj
 0001:000d1d60       ??$?R$0BHJ@VPxSimulationStatistics@physx@@I@?$PvdPropertyFilter@UPvdClassInfoDefine@Vd@physx@@@Vd@physx@@QEAAXAEBU?$PxReadOnlyPropertyInfo@$0BHJ@VPxSimulationStatistics@physx@@I@2@I@Z 00000001800d2d60 f i PvdMetaDataPvdBinding.obj
 0001:000d1e10       ??$?R$0BHJ@VPxSimulationStatistics@physx@@I@?$PvdPropertyFilter@UPvdClassInfoValueStructDefine@Vd@physx@@@Vd@physx@@QEAAXAEBU?$PxReadOnlyPropertyInfo@$0BHJ@VPxSimulationStatistics@physx@@I@2@I@Z 00000001800d2e10 f i PvdMetaDataPvdBinding.obj
 0001:000d1ec0       ??$?R$0BHK@VPxSimulationStatistics@physx@@I@?$PvdPropertyFilter@UPvdClassInfoDefine@Vd@physx@@@Vd@physx@@QEAAXAEBU?$PxReadOnlyPropertyInfo@$0BHK@VPxSimulationStatistics@physx@@I@2@I@Z 00000001800d2ec0 f i PvdMetaDataPvdBinding.obj
 0001:000d1f70       ??$?R$0BHK@VPxSimulationStatistics@physx@@I@?$PvdPropertyFilter@UPvdClassInfoValueStructDefine@Vd@physx@@@Vd@physx@@QEAAXAEBU?$PxReadOnlyPropertyInfo@$0BHK@VPxSimulationStatistics@physx@@I@2@I@Z 00000001800d2f70 f i PvdMetaDataPvdBinding.obj
 0001:000d2020       ??$?R$0BHL@VPxSimulationStatistics@physx@@I@?$PvdPropertyFilter@UPvdClassInfoDefine@Vd@physx@@@Vd@physx@@QEAAXAEBU?$PxReadOnlyPropertyInfo@$0BHL@VPxSimulationStatistics@physx@@I@2@I@Z 00000001800d3020 f i PvdMetaDataPvdBinding.obj
 0001:000d20d0       ??$?R$0BHL@VPxSimulationStatistics@physx@@I@?$PvdPropertyFilter@UPvdClassInfoValueStructDefine@Vd@physx@@@Vd@physx@@QEAAXAEBU?$PxReadOnlyPropertyInfo@$0BHL@VPxSimulationStatistics@physx@@I@2@I@Z 00000001800d30d0 f i PvdMetaDataPvdBinding.obj
 0001:000d2180       ??$?R$0BHM@VPxSimulationStatistics@physx@@I@?$PvdPropertyFilter@UPvdClassInfoDefine@Vd@physx@@@Vd@physx@@QEAAXAEBU?$PxReadOnlyPropertyInfo@$0BHM@VPxSimulationStatistics@physx@@I@2@I@Z 00000001800d3180 f i PvdMetaDataPvdBinding.obj
 0001:000d2230       ??$?R$0BHM@VPxSimulationStatistics@physx@@I@?$PvdPropertyFilter@UPvdClassInfoValueStructDefine@Vd@physx@@@Vd@physx@@QEAAXAEBU?$PxReadOnlyPropertyInfo@$0BHM@VPxSimulationStatistics@physx@@I@2@I@Z 00000001800d3230 f i PvdMetaDataPvdBinding.obj
 0001:000d22e0       ??$?R$0BHN@VPxSimulationStatistics@physx@@I@?$PvdPropertyFilter@UPvdClassInfoDefine@Vd@physx@@@Vd@physx@@QEAAXAEBU?$PxReadOnlyPropertyInfo@$0BHN@VPxSimulationStatistics@physx@@I@2@I@Z 00000001800d32e0 f i PvdMetaDataPvdBinding.obj
 0001:000d2390       ??$?R$0BHN@VPxSimulationStatistics@physx@@I@?$PvdPropertyFilter@UPvdClassInfoValueStructDefine@Vd@physx@@@Vd@physx@@QEAAXAEBU?$PxReadOnlyPropertyInfo@$0BHN@VPxSimulationStatistics@physx@@I@2@I@Z 00000001800d3390 f i PvdMetaDataPvdBinding.obj
 0001:000d2440       ??$?R$0BHO@VPxSimulationStatistics@physx@@I@?$PvdPropertyFilter@UPvdClassInfoDefine@Vd@physx@@@Vd@physx@@QEAAXAEBU?$PxReadOnlyPropertyInfo@$0BHO@VPxSimulationStatistics@physx@@I@2@I@Z 00000001800d3440 f i PvdMetaDataPvdBinding.obj
 0001:000d24f0       ??$?R$0BHO@VPxSimulationStatistics@physx@@I@?$PvdPropertyFilter@UPvdClassInfoValueStructDefine@Vd@physx@@@Vd@physx@@QEAAXAEBU?$PxReadOnlyPropertyInfo@$0BHO@VPxSimulationStatistics@physx@@I@2@I@Z 00000001800d34f0 f i PvdMetaDataPvdBinding.obj
 0001:000d25a0       ??$?R$0BHP@VPxSimulationStatistics@physx@@I@?$PvdPropertyFilter@UPvdClassInfoDefine@Vd@physx@@@Vd@physx@@QEAAXAEBU?$PxReadOnlyPropertyInfo@$0BHP@VPxSimulationStatistics@physx@@I@2@I@Z 00000001800d35a0 f i PvdMetaDataPvdBinding.obj
 0001:000d2650       ??$?R$0BHP@VPxSimulationStatistics@physx@@I@?$PvdPropertyFilter@UPvdClassInfoValueStructDefine@Vd@physx@@@Vd@physx@@QEAAXAEBU?$PxReadOnlyPropertyInfo@$0BHP@VPxSimulationStatistics@physx@@I@2@I@Z 00000001800d3650 f i PvdMetaDataPvdBinding.obj
 0001:000d2700       ??$?R$0BI@VPxActor@physx@@PEBD@?$PvdPropertyFilter@UPvdClassInfoDefine@Vd@physx@@@Vd@physx@@QEAAXAEBU?$PxReadOnlyPropertyInfo@$0BI@VPxActor@physx@@PEBD@2@I@Z 00000001800d3700 f i PvdMetaDataPvdBinding.obj
 0001:000d27b0       ??$?R$0BI@VPxActor@physx@@PEBD@?$PvdPropertyFilter@UPvdClassInfoValueStructDefine@Vd@physx@@@Vd@physx@@QEAAXAEBU?$PxReadOnlyPropertyInfo@$0BI@VPxActor@physx@@PEBD@2@I@Z 00000001800d37b0 f i PvdMetaDataPvdBinding.obj
 0001:000d2860       ??$?R$0BIA@VPxSimulationStatistics@physx@@I@?$PvdPropertyFilter@UPvdClassInfoDefine@Vd@physx@@@Vd@physx@@QEAAXAEBU?$PxReadOnlyPropertyInfo@$0BIA@VPxSimulationStatistics@physx@@I@2@I@Z 00000001800d3860 f i PvdMetaDataPvdBinding.obj
 0001:000d2910       ??$?R$0BIA@VPxSimulationStatistics@physx@@I@?$PvdPropertyFilter@UPvdClassInfoValueStructDefine@Vd@physx@@@Vd@physx@@QEAAXAEBU?$PxReadOnlyPropertyInfo@$0BIA@VPxSimulationStatistics@physx@@I@2@I@Z 00000001800d3910 f i PvdMetaDataPvdBinding.obj
 0001:000d29c0       ??$?R$0BIB@VPxSimulationStatistics@physx@@I@?$PvdPropertyFilter@UPvdClassInfoDefine@Vd@physx@@@Vd@physx@@QEAAXAEBU?$PxReadOnlyPropertyInfo@$0BIB@VPxSimulationStatistics@physx@@I@2@I@Z 00000001800d39c0 f i PvdMetaDataPvdBinding.obj
 0001:000d2a70       ??$?R$0BIB@VPxSimulationStatistics@physx@@I@?$PvdPropertyFilter@UPvdClassInfoValueStructDefine@Vd@physx@@@Vd@physx@@QEAAXAEBU?$PxReadOnlyPropertyInfo@$0BIB@VPxSimulationStatistics@physx@@I@2@I@Z 00000001800d3a70 f i PvdMetaDataPvdBinding.obj
 0001:000d2b20       ??$?R$0BIC@VPxSimulationStatistics@physx@@I@?$PvdPropertyFilter@UPvdClassInfoDefine@Vd@physx@@@Vd@physx@@QEAAXAEBU?$PxReadOnlyPropertyInfo@$0BIC@VPxSimulationStatistics@physx@@I@2@I@Z 00000001800d3b20 f i PvdMetaDataPvdBinding.obj
 0001:000d2bd0       ??$?R$0BIC@VPxSimulationStatistics@physx@@I@?$PvdPropertyFilter@UPvdClassInfoValueStructDefine@Vd@physx@@@Vd@physx@@QEAAXAEBU?$PxReadOnlyPropertyInfo@$0BIC@VPxSimulationStatistics@physx@@I@2@I@Z 00000001800d3bd0 f i PvdMetaDataPvdBinding.obj
 0001:000d2c80       ??$?R$0BID@VPxSimulationStatistics@physx@@I@?$PvdPropertyFilter@UPvdClassInfoDefine@Vd@physx@@@Vd@physx@@QEAAXAEBU?$PxReadOnlyPropertyInfo@$0BID@VPxSimulationStatistics@physx@@I@2@I@Z 00000001800d3c80 f i PvdMetaDataPvdBinding.obj
 0001:000d2d30       ??$?R$0BID@VPxSimulationStatistics@physx@@I@?$PvdPropertyFilter@UPvdClassInfoValueStructDefine@Vd@physx@@@Vd@physx@@QEAAXAEBU?$PxReadOnlyPropertyInfo@$0BID@VPxSimulationStatistics@physx@@I@2@I@Z 00000001800d3d30 f i PvdMetaDataPvdBinding.obj
 0001:000d2de0       ??$?R$0BIE@VPxSimulationStatistics@physx@@I@?$PvdPropertyFilter@UPvdClassInfoDefine@Vd@physx@@@Vd@physx@@QEAAXAEBU?$PxReadOnlyPropertyInfo@$0BIE@VPxSimulationStatistics@physx@@I@2@I@Z 00000001800d3de0 f i PvdMetaDataPvdBinding.obj
 0001:000d2e90       ??$?R$0BIE@VPxSimulationStatistics@physx@@I@?$PvdPropertyFilter@UPvdClassInfoValueStructDefine@Vd@physx@@@Vd@physx@@QEAAXAEBU?$PxReadOnlyPropertyInfo@$0BIE@VPxSimulationStatistics@physx@@I@2@I@Z 00000001800d3e90 f i PvdMetaDataPvdBinding.obj
 0001:000d2f40       ??$?R$0BIF@VPxSimulationStatistics@physx@@I@?$PvdPropertyFilter@UPvdClassInfoDefine@Vd@physx@@@Vd@physx@@QEAAXAEBU?$PxReadOnlyPropertyInfo@$0BIF@VPxSimulationStatistics@physx@@I@2@I@Z 00000001800d3f40 f i PvdMetaDataPvdBinding.obj
 0001:000d2ff0       ??$?R$0BIF@VPxSimulationStatistics@physx@@I@?$PvdPropertyFilter@UPvdClassInfoValueStructDefine@Vd@physx@@@Vd@physx@@QEAAXAEBU?$PxReadOnlyPropertyInfo@$0BIF@VPxSimulationStatistics@physx@@I@2@I@Z 00000001800d3ff0 f i PvdMetaDataPvdBinding.obj
 0001:000d30a0       ??$?R$0BIG@VPxSimulationStatistics@physx@@M@?$PvdPropertyFilter@UPvdClassInfoDefine@Vd@physx@@@Vd@physx@@QEAAXAEBU?$PxReadOnlyPropertyInfo@$0BIG@VPxSimulationStatistics@physx@@M@2@I@Z 00000001800d40a0 f i PvdMetaDataPvdBinding.obj
 0001:000d3150       ??$?R$0BIG@VPxSimulationStatistics@physx@@M@?$PvdPropertyFilter@UPvdClassInfoValueStructDefine@Vd@physx@@@Vd@physx@@QEAAXAEBU?$PxReadOnlyPropertyInfo@$0BIG@VPxSimulationStatistics@physx@@M@2@I@Z 00000001800d4150 f i PvdMetaDataPvdBinding.obj
 0001:000d3200       ??$?R$0BJ@VPxActor@physx@@V?$PxFlags@W4Enum@PxActorFlag@physx@@E@1@@?$PvdPropertyFilter@UPvdClassInfoDefine@Vd@physx@@@Vd@physx@@QEAAXAEBU?$PxReadOnlyPropertyInfo@$0BJ@VPxActor@physx@@V?$PxFlags@W4Enum@PxActorFlag@physx@@E@2@@2@I@Z 00000001800d4200 f i PvdMetaDataPvdBinding.obj
 0001:000d32e0       ??$?R$0BJN@UPxClothStretchConfig@physx@@M@?$PvdPropertyFilter@UPvdClassInfoDefine@Vd@physx@@@Vd@physx@@QEAAXAEBU?$PxReadOnlyPropertyInfo@$0BJN@UPxClothStretchConfig@physx@@M@2@I@Z 00000001800d42e0 f i PvdMetaDataPvdBinding.obj
 0001:000d3390       ??$?R$0BJO@UPxClothStretchConfig@physx@@M@?$PvdPropertyFilter@UPvdClassInfoDefine@Vd@physx@@@Vd@physx@@QEAAXAEBU?$PxReadOnlyPropertyInfo@$0BJO@UPxClothStretchConfig@physx@@M@2@I@Z 00000001800d4390 f i PvdMetaDataPvdBinding.obj
 0001:000d3440       ??$?R$0BJP@UPxClothStretchConfig@physx@@M@?$PvdPropertyFilter@UPvdClassInfoDefine@Vd@physx@@@Vd@physx@@QEAAXAEBU?$PxReadOnlyPropertyInfo@$0BJP@UPxClothStretchConfig@physx@@M@2@I@Z 00000001800d4440 f i PvdMetaDataPvdBinding.obj
 0001:000d34f0       ??$?R$0BK@VPxActor@physx@@E@?$PvdPropertyFilter@UPvdClassInfoDefine@Vd@physx@@@Vd@physx@@QEAAXAEBU?$PxReadOnlyPropertyInfo@$0BK@VPxActor@physx@@E@2@I@Z 00000001800d44f0 f i PvdMetaDataPvdBinding.obj
 0001:000d35a0       ??$?R$0BK@VPxActor@physx@@E@?$PvdPropertyFilter@UPvdClassInfoValueStructDefine@Vd@physx@@@Vd@physx@@QEAAXAEBU?$PxReadOnlyPropertyInfo@$0BK@VPxActor@physx@@E@2@I@Z 00000001800d45a0 f i PvdMetaDataPvdBinding.obj
 0001:000d3650       ??$?R$0BKA@UPxClothStretchConfig@physx@@M@?$PvdPropertyFilter@UPvdClassInfoDefine@Vd@physx@@@Vd@physx@@QEAAXAEBU?$PxReadOnlyPropertyInfo@$0BKA@UPxClothStretchConfig@physx@@M@2@I@Z 00000001800d4650 f i PvdMetaDataPvdBinding.obj
 0001:000d3700       ??$?R$0BKD@UPxClothTetherConfig@physx@@M@?$PvdPropertyFilter@UPvdClassInfoDefine@Vd@physx@@@Vd@physx@@QEAAXAEBU?$PxReadOnlyPropertyInfo@$0BKD@UPxClothTetherConfig@physx@@M@2@I@Z 00000001800d4700 f i PvdMetaDataPvdBinding.obj
 0001:000d37b0       ??$?R$0BKD@UPxClothTetherConfig@physx@@M@?$PvdPropertyFilter@UPvdClassInfoValueStructDefine@Vd@physx@@@Vd@physx@@QEAAXAEBU?$PxReadOnlyPropertyInfo@$0BKD@UPxClothTetherConfig@physx@@M@2@I@Z 00000001800d47b0 f i PvdMetaDataPvdBinding.obj
 0001:000d3850       ??$?R$0BKE@UPxClothTetherConfig@physx@@M@?$PvdPropertyFilter@UPvdClassInfoDefine@Vd@physx@@@Vd@physx@@QEAAXAEBU?$PxReadOnlyPropertyInfo@$0BKE@UPxClothTetherConfig@physx@@M@2@I@Z 00000001800d4850 f i PvdMetaDataPvdBinding.obj
 0001:000d3900       ??$?R$0BKE@UPxClothTetherConfig@physx@@M@?$PvdPropertyFilter@UPvdClassInfoValueStructDefine@Vd@physx@@@Vd@physx@@QEAAXAEBU?$PxReadOnlyPropertyInfo@$0BKE@UPxClothTetherConfig@physx@@M@2@I@Z 00000001800d4900 f i PvdMetaDataPvdBinding.obj
 0001:000d39b0       ??$?R$0BKH@UPxClothMotionConstraintConfig@physx@@M@?$PvdPropertyFilter@UPvdClassInfoDefine@Vd@physx@@@Vd@physx@@QEAAXAEBU?$PxReadOnlyPropertyInfo@$0BKH@UPxClothMotionConstraintConfig@physx@@M@2@I@Z 00000001800d49b0 f i PvdMetaDataPvdBinding.obj
 0001:000d3a60       ??$?R$0BKH@UPxClothMotionConstraintConfig@physx@@M@?$PvdPropertyFilter@UPvdClassInfoValueStructDefine@Vd@physx@@@Vd@physx@@QEAAXAEBU?$PxReadOnlyPropertyInfo@$0BKH@UPxClothMotionConstraintConfig@physx@@M@2@I@Z 00000001800d4a60 f i PvdMetaDataPvdBinding.obj
 0001:000d3b00       ??$?R$0BKI@UPxClothMotionConstraintConfig@physx@@M@?$PvdPropertyFilter@UPvdClassInfoDefine@Vd@physx@@@Vd@physx@@QEAAXAEBU?$PxReadOnlyPropertyInfo@$0BKI@UPxClothMotionConstraintConfig@physx@@M@2@I@Z 00000001800d4b00 f i PvdMetaDataPvdBinding.obj
 0001:000d3bb0       ??$?R$0BKI@UPxClothMotionConstraintConfig@physx@@M@?$PvdPropertyFilter@UPvdClassInfoValueStructDefine@Vd@physx@@@Vd@physx@@QEAAXAEBU?$PxReadOnlyPropertyInfo@$0BKI@UPxClothMotionConstraintConfig@physx@@M@2@I@Z 00000001800d4bb0 f i PvdMetaDataPvdBinding.obj
 0001:000d3c60       ??$?R$0BKJ@UPxClothMotionConstraintConfig@physx@@M@?$PvdPropertyFilter@UPvdClassInfoDefine@Vd@physx@@@Vd@physx@@QEAAXAEBU?$PxReadOnlyPropertyInfo@$0BKJ@UPxClothMotionConstraintConfig@physx@@M@2@I@Z 00000001800d4c60 f i PvdMetaDataPvdBinding.obj
 0001:000d3d10       ??$?R$0BKJ@UPxClothMotionConstraintConfig@physx@@M@?$PvdPropertyFilter@UPvdClassInfoValueStructDefine@Vd@physx@@@Vd@physx@@QEAAXAEBU?$PxReadOnlyPropertyInfo@$0BKJ@UPxClothMotionConstraintConfig@physx@@M@2@I@Z 00000001800d4d10 f i PvdMetaDataPvdBinding.obj
 0001:000d3dc0       ??$?R$0BL@VPxActor@physx@@E@?$PvdPropertyFilter@UPvdClassInfoDefine@Vd@physx@@@Vd@physx@@QEAAXAEBU?$PxReadOnlyPropertyInfo@$0BL@VPxActor@physx@@E@2@I@Z 00000001800d4dc0 f i PvdMetaDataPvdBinding.obj
 0001:000d3e70       ??$?R$0BL@VPxActor@physx@@E@?$PvdPropertyFilter@UPvdClassInfoValueStructDefine@Vd@physx@@@Vd@physx@@QEAAXAEBU?$PxReadOnlyPropertyInfo@$0BL@VPxActor@physx@@E@2@I@Z 00000001800d4e70 f i PvdMetaDataPvdBinding.obj
 0001:000d3f20       ??$?R$0BM@VPxActor@physx@@V?$PxFlags@W4Enum@PxActorClientBehaviorFlag@physx@@E@1@@?$PvdPropertyFilter@UPvdClassInfoDefine@Vd@physx@@@Vd@physx@@QEAAXAEBU?$PxReadOnlyPropertyInfo@$0BM@VPxActor@physx@@V?$PxFlags@W4Enum@PxActorClientBehaviorFlag@physx@@E@2@@2@I@Z 00000001800d4f20 f i PvdMetaDataPvdBinding.obj
 0001:000d4000       ??$?R$0CB@VPxRigidActor@physx@@VPxTransform@1@@?$PvdPropertyFilter@UPvdClassInfoDefine@Vd@physx@@@Vd@physx@@QEAAXAEBU?$PxReadOnlyPropertyInfo@$0CB@VPxRigidActor@physx@@VPxTransform@2@@2@I@Z 00000001800d5000 f i PvdMetaDataPvdBinding.obj
 0001:000d40b0       ??$?R$0CB@VPxRigidActor@physx@@VPxTransform@1@@?$PvdPropertyFilter@UPvdClassInfoValueStructDefine@Vd@physx@@@Vd@physx@@QEAAXAEBU?$PxReadOnlyPropertyInfo@$0CB@VPxRigidActor@physx@@VPxTransform@2@@2@I@Z 00000001800d50b0 f i PvdMetaDataPvdBinding.obj
 0001:000d4160       ??$?R$0CG@VPxRigidBody@physx@@VPxTransform@1@@?$PvdPropertyFilter@UPvdClassInfoDefine@Vd@physx@@@Vd@physx@@QEAAXAEBU?$PxReadOnlyPropertyInfo@$0CG@VPxRigidBody@physx@@VPxTransform@2@@2@I@Z 00000001800d5160 f i PvdMetaDataPvdBinding.obj
 0001:000d4210       ??$?R$0CG@VPxRigidBody@physx@@VPxTransform@1@@?$PvdPropertyFilter@UPvdClassInfoValueStructDefine@Vd@physx@@@Vd@physx@@QEAAXAEBU?$PxReadOnlyPropertyInfo@$0CG@VPxRigidBody@physx@@VPxTransform@2@@2@I@Z 00000001800d5210 f i PvdMetaDataPvdBinding.obj
 0001:000d42c0       ??$?R$0CH@VPxRigidBody@physx@@M@?$PvdPropertyFilter@UPvdClassInfoDefine@Vd@physx@@@Vd@physx@@QEAAXAEBU?$PxReadOnlyPropertyInfo@$0CH@VPxRigidBody@physx@@M@2@I@Z 00000001800d52c0 f i PvdMetaDataPvdBinding.obj
 0001:000d4370       ??$?R$0CH@VPxRigidBody@physx@@M@?$PvdPropertyFilter@UPvdClassInfoValueStructDefine@Vd@physx@@@Vd@physx@@QEAAXAEBU?$PxReadOnlyPropertyInfo@$0CH@VPxRigidBody@physx@@M@2@I@Z 00000001800d5370 f i PvdMetaDataPvdBinding.obj
 0001:000d4420       ??$?R$0CI@VPxRigidBody@physx@@M@?$PvdPropertyFilter@UPvdClassInfoDefine@Vd@physx@@@Vd@physx@@QEAAXAEBU?$PxReadOnlyPropertyInfo@$0CI@VPxRigidBody@physx@@M@2@I@Z 00000001800d5420 f i PvdMetaDataPvdBinding.obj
 0001:000d44d0       ??$?R$0CI@VPxRigidBody@physx@@M@?$PvdPropertyFilter@UPvdClassInfoValueStructDefine@Vd@physx@@@Vd@physx@@QEAAXAEBU?$PxReadOnlyPropertyInfo@$0CI@VPxRigidBody@physx@@M@2@I@Z 00000001800d54d0 f i PvdMetaDataPvdBinding.obj
 0001:000d4580       ??$?R$0CJ@VPxRigidBody@physx@@VPxVec3@1@@?$PvdPropertyFilter@UPvdClassInfoDefine@Vd@physx@@@Vd@physx@@QEAAXAEBU?$PxReadOnlyPropertyInfo@$0CJ@VPxRigidBody@physx@@VPxVec3@2@@2@I@Z 00000001800d5580 f i PvdMetaDataPvdBinding.obj
 0001:000d4630       ??$?R$0CJ@VPxRigidBody@physx@@VPxVec3@1@@?$PvdPropertyFilter@UPvdClassInfoValueStructDefine@Vd@physx@@@Vd@physx@@QEAAXAEBU?$PxReadOnlyPropertyInfo@$0CJ@VPxRigidBody@physx@@VPxVec3@2@@2@I@Z 00000001800d5630 f i PvdMetaDataPvdBinding.obj
 0001:000d46e0       ??$?R$0CK@VPxRigidBody@physx@@VPxVec3@1@@?$PvdPropertyFilter@UPvdClassInfoDefine@Vd@physx@@@Vd@physx@@QEAAXAEBU?$PxReadOnlyPropertyInfo@$0CK@VPxRigidBody@physx@@VPxVec3@2@@2@I@Z 00000001800d56e0 f i PvdMetaDataPvdBinding.obj
 0001:000d4790       ??$?R$0CK@VPxRigidBody@physx@@VPxVec3@1@@?$PvdPropertyFilter@UPvdClassInfoValueStructDefine@Vd@physx@@@Vd@physx@@QEAAXAEBU?$PxReadOnlyPropertyInfo@$0CK@VPxRigidBody@physx@@VPxVec3@2@@2@I@Z 00000001800d5790 f i PvdMetaDataPvdBinding.obj
 0001:000d4840       ??$?R$0CL@VPxRigidBody@physx@@VPxVec3@1@@?$PvdPropertyFilter@UPvdClassInfoDefine@Vd@physx@@@Vd@physx@@QEAAXAEBU?$PxReadOnlyPropertyInfo@$0CL@VPxRigidBody@physx@@VPxVec3@2@@2@I@Z 00000001800d5840 f i PvdMetaDataPvdBinding.obj
 0001:000d48f0       ??$?R$0CL@VPxRigidBody@physx@@VPxVec3@1@@?$PvdPropertyFilter@UPvdClassInfoValueStructDefine@Vd@physx@@@Vd@physx@@QEAAXAEBU?$PxReadOnlyPropertyInfo@$0CL@VPxRigidBody@physx@@VPxVec3@2@@2@I@Z 00000001800d58f0 f i PvdMetaDataPvdBinding.obj
 0001:000d49a0       ??$?R$0CM@VPxRigidBody@physx@@VPxVec3@1@@?$PvdPropertyFilter@UPvdClassInfoDefine@Vd@physx@@@Vd@physx@@QEAAXAEBU?$PxReadOnlyPropertyInfo@$0CM@VPxRigidBody@physx@@VPxVec3@2@@2@I@Z 00000001800d59a0 f i PvdMetaDataPvdBinding.obj
 0001:000d4a50       ??$?R$0CM@VPxRigidBody@physx@@VPxVec3@1@@?$PvdPropertyFilter@UPvdClassInfoValueStructDefine@Vd@physx@@@Vd@physx@@QEAAXAEBU?$PxReadOnlyPropertyInfo@$0CM@VPxRigidBody@physx@@VPxVec3@2@@2@I@Z 00000001800d5a50 f i PvdMetaDataPvdBinding.obj
 0001:000d4b00       ??$?R$0CN@VPxRigidBody@physx@@V?$PxFlags@W4Enum@PxRigidBodyFlag@physx@@E@1@@?$PvdPropertyFilter@UPvdClassInfoDefine@Vd@physx@@@Vd@physx@@QEAAXAEBU?$PxReadOnlyPropertyInfo@$0CN@VPxRigidBody@physx@@V?$PxFlags@W4Enum@PxRigidBodyFlag@physx@@E@2@@2@I@Z 00000001800d5b00 f i PvdMetaDataPvdBinding.obj
 0001:000d4be0       ??$?R$0CO@VPxRigidBody@physx@@M@?$PvdPropertyFilter@UPvdClassInfoDefine@Vd@physx@@@Vd@physx@@QEAAXAEBU?$PxReadOnlyPropertyInfo@$0CO@VPxRigidBody@physx@@M@2@I@Z 00000001800d5be0 f i PvdMetaDataPvdBinding.obj
 0001:000d4c90       ??$?R$0CO@VPxRigidBody@physx@@M@?$PvdPropertyFilter@UPvdClassInfoValueStructDefine@Vd@physx@@@Vd@physx@@QEAAXAEBU?$PxReadOnlyPropertyInfo@$0CO@VPxRigidBody@physx@@M@2@I@Z 00000001800d5c90 f i PvdMetaDataPvdBinding.obj
 0001:000d4d40       ??$?R$0CP@VPxRigidBody@physx@@M@?$PvdPropertyFilter@UPvdClassInfoDefine@Vd@physx@@@Vd@physx@@QEAAXAEBU?$PxReadOnlyPropertyInfo@$0CP@VPxRigidBody@physx@@M@2@I@Z 00000001800d5d40 f i PvdMetaDataPvdBinding.obj
 0001:000d4df0       ??$?R$0CP@VPxRigidBody@physx@@M@?$PvdPropertyFilter@UPvdClassInfoValueStructDefine@Vd@physx@@@Vd@physx@@QEAAXAEBU?$PxReadOnlyPropertyInfo@$0CP@VPxRigidBody@physx@@M@2@I@Z 00000001800d5df0 f i PvdMetaDataPvdBinding.obj
 0001:000d4ea0       ??$?R$0DA@VPxRigidBody@physx@@M@?$PvdPropertyFilter@UPvdClassInfoDefine@Vd@physx@@@Vd@physx@@QEAAXAEBU?$PxReadOnlyPropertyInfo@$0DA@VPxRigidBody@physx@@M@2@I@Z 00000001800d5ea0 f i PvdMetaDataPvdBinding.obj
 0001:000d4f50       ??$?R$0DA@VPxRigidBody@physx@@M@?$PvdPropertyFilter@UPvdClassInfoValueStructDefine@Vd@physx@@@Vd@physx@@QEAAXAEBU?$PxReadOnlyPropertyInfo@$0DA@VPxRigidBody@physx@@M@2@I@Z 00000001800d5f50 f i PvdMetaDataPvdBinding.obj
 0001:000d5000       ??$?R$0DD@VPxRigidDynamic@physx@@M@?$PvdPropertyFilter@UPvdClassInfoDefine@Vd@physx@@@Vd@physx@@QEAAXAEBU?$PxReadOnlyPropertyInfo@$0DD@VPxRigidDynamic@physx@@M@2@I@Z 00000001800d6000 f i PvdMetaDataPvdBinding.obj
 0001:000d50b0       ??$?R$0DD@VPxRigidDynamic@physx@@M@?$PvdPropertyFilter@UPvdClassInfoValueStructDefine@Vd@physx@@@Vd@physx@@QEAAXAEBU?$PxReadOnlyPropertyInfo@$0DD@VPxRigidDynamic@physx@@M@2@I@Z 00000001800d60b0 f i PvdMetaDataPvdBinding.obj
 0001:000d5160       ??$?R$0DE@VPxRigidDynamic@physx@@M@?$PvdPropertyFilter@UPvdClassInfoDefine@Vd@physx@@@Vd@physx@@QEAAXAEBU?$PxReadOnlyPropertyInfo@$0DE@VPxRigidDynamic@physx@@M@2@I@Z 00000001800d6160 f i PvdMetaDataPvdBinding.obj
 0001:000d5210       ??$?R$0DE@VPxRigidDynamic@physx@@M@?$PvdPropertyFilter@UPvdClassInfoValueStructDefine@Vd@physx@@@Vd@physx@@QEAAXAEBU?$PxReadOnlyPropertyInfo@$0DE@VPxRigidDynamic@physx@@M@2@I@Z 00000001800d6210 f i PvdMetaDataPvdBinding.obj
 0001:000d52c0       ??$?R$0DF@VPxRigidDynamic@physx@@M@?$PvdPropertyFilter@UPvdClassInfoDefine@Vd@physx@@@Vd@physx@@QEAAXAEBU?$PxReadOnlyPropertyInfo@$0DF@VPxRigidDynamic@physx@@M@2@I@Z 00000001800d62c0 f i PvdMetaDataPvdBinding.obj
 0001:000d5370       ??$?R$0DF@VPxRigidDynamic@physx@@M@?$PvdPropertyFilter@UPvdClassInfoValueStructDefine@Vd@physx@@@Vd@physx@@QEAAXAEBU?$PxReadOnlyPropertyInfo@$0DF@VPxRigidDynamic@physx@@M@2@I@Z 00000001800d6370 f i PvdMetaDataPvdBinding.obj
 0001:000d5420       ??$?R$0DG@VPxRigidDynamic@physx@@_N@?$PvdPropertyFilter@UPvdClassInfoDefine@Vd@physx@@@Vd@physx@@QEAAXAEBU?$PxReadOnlyPropertyInfo@$0DG@VPxRigidDynamic@physx@@_N@2@I@Z 00000001800d6420 f i PvdMetaDataPvdBinding.obj
 0001:000d54d0       ??$?R$0DG@VPxRigidDynamic@physx@@_N@?$PvdPropertyFilter@UPvdClassInfoValueStructDefine@Vd@physx@@@Vd@physx@@QEAAXAEBU?$PxReadOnlyPropertyInfo@$0DG@VPxRigidDynamic@physx@@_N@2@I@Z 00000001800d64d0 f i PvdMetaDataPvdBinding.obj
 0001:000d5580       ??$?R$0DH@VPxRigidDynamic@physx@@M@?$PvdPropertyFilter@UPvdClassInfoDefine@Vd@physx@@@Vd@physx@@QEAAXAEBU?$PxReadOnlyPropertyInfo@$0DH@VPxRigidDynamic@physx@@M@2@I@Z 00000001800d6580 f i PvdMetaDataPvdBinding.obj
 0001:000d5630       ??$?R$0DH@VPxRigidDynamic@physx@@M@?$PvdPropertyFilter@UPvdClassInfoValueStructDefine@Vd@physx@@@Vd@physx@@QEAAXAEBU?$PxReadOnlyPropertyInfo@$0DH@VPxRigidDynamic@physx@@M@2@I@Z 00000001800d6630 f i PvdMetaDataPvdBinding.obj
 0001:000d56e0       ??$?R$0DI@VPxRigidDynamic@physx@@M@?$PvdPropertyFilter@UPvdClassInfoDefine@Vd@physx@@@Vd@physx@@QEAAXAEBU?$PxReadOnlyPropertyInfo@$0DI@VPxRigidDynamic@physx@@M@2@I@Z 00000001800d66e0 f i PvdMetaDataPvdBinding.obj
 0001:000d5790       ??$?R$0DI@VPxRigidDynamic@physx@@M@?$PvdPropertyFilter@UPvdClassInfoValueStructDefine@Vd@physx@@@Vd@physx@@QEAAXAEBU?$PxReadOnlyPropertyInfo@$0DI@VPxRigidDynamic@physx@@M@2@I@Z 00000001800d6790 f i PvdMetaDataPvdBinding.obj
 0001:000d5840       ??$?R$0DJ@VPxRigidDynamic@physx@@V?$PxFlags@W4Enum@PxRigidDynamicLockFlag@physx@@G@1@@?$PvdPropertyFilter@UPvdClassInfoDefine@Vd@physx@@@Vd@physx@@QEAAXAEBU?$PxReadOnlyPropertyInfo@$0DJ@VPxRigidDynamic@physx@@V?$PxFlags@W4Enum@PxRigidDynamicLockFlag@physx@@G@2@@2@I@Z 00000001800d6840 f i PvdMetaDataPvdBinding.obj
 0001:000d5920       ??$?R$0DJ@VPxRigidDynamic@physx@@V?$PxFlags@W4Enum@PxRigidDynamicLockFlag@physx@@G@1@@?$PvdPropertyFilter@UPvdClassInfoValueStructDefine@Vd@physx@@@Vd@physx@@QEAAXAEBU?$PxReadOnlyPropertyInfo@$0DJ@VPxRigidDynamic@physx@@V?$PxFlags@W4Enum@PxRigidDynamicLockFlag@physx@@G@2@@2@I@Z 00000001800d6920 f i PvdMetaDataPvdBinding.obj
 0001:000d59d0       ??$?R$0DK@VPxRigidDynamic@physx@@M@?$PvdPropertyFilter@UPvdClassInfoDefine@Vd@physx@@@Vd@physx@@QEAAXAEBU?$PxReadOnlyPropertyInfo@$0DK@VPxRigidDynamic@physx@@M@2@I@Z 00000001800d69d0 f i PvdMetaDataPvdBinding.obj
 0001:000d5a80       ??$?R$0DK@VPxRigidDynamic@physx@@M@?$PvdPropertyFilter@UPvdClassInfoValueStructDefine@Vd@physx@@@Vd@physx@@QEAAXAEBU?$PxReadOnlyPropertyInfo@$0DK@VPxRigidDynamic@physx@@M@2@I@Z 00000001800d6a80 f i PvdMetaDataPvdBinding.obj
 0001:000d5b30       ??$?R$0DL@VPxRigidDynamic@physx@@I@?$PvdPropertyFilter@UPvdClassInfoDefine@Vd@physx@@@Vd@physx@@QEAAXAEBU?$PxRangePropertyInfo@$0DL@VPxRigidDynamic@physx@@I@2@I@Z 00000001800d6b30 f i PvdMetaDataPvdBinding.obj
 0001:000d5cb0       ??$?R$0DL@VPxRigidDynamic@physx@@I@?$PvdPropertyFilter@UPvdClassInfoValueStructDefine@Vd@physx@@@Vd@physx@@QEAAXAEBU?$PxRangePropertyInfo@$0DL@VPxRigidDynamic@physx@@I@2@I@Z 00000001800d6cb0 f i PvdMetaDataPvdBinding.obj
 0001:000d5e20       ??$?R$0DM@VPxRigidDynamic@physx@@M@?$PvdPropertyFilter@UPvdClassInfoDefine@Vd@physx@@@Vd@physx@@QEAAXAEBU?$PxReadOnlyPropertyInfo@$0DM@VPxRigidDynamic@physx@@M@2@I@Z 00000001800d6e20 f i PvdMetaDataPvdBinding.obj
 0001:000d5ed0       ??$?R$0DM@VPxRigidDynamic@physx@@M@?$PvdPropertyFilter@UPvdClassInfoValueStructDefine@Vd@physx@@@Vd@physx@@QEAAXAEBU?$PxReadOnlyPropertyInfo@$0DM@VPxRigidDynamic@physx@@M@2@I@Z 00000001800d6ed0 f i PvdMetaDataPvdBinding.obj
 0001:000d5f80       ??$?R$0DN@VPxRigidDynamic@physx@@PEBD@?$PvdPropertyFilter@UPvdClassInfoDefine@Vd@physx@@@Vd@physx@@QEAAXAEBU?$PxReadOnlyPropertyInfo@$0DN@VPxRigidDynamic@physx@@PEBD@2@I@Z 00000001800d6f80 f i PvdMetaDataPvdBinding.obj
 0001:000d6030       ??$?R$0DN@VPxRigidDynamic@physx@@PEBD@?$PvdPropertyFilter@UPvdClassInfoValueStructDefine@Vd@physx@@@Vd@physx@@QEAAXAEBU?$PxReadOnlyPropertyInfo@$0DN@VPxRigidDynamic@physx@@PEBD@2@I@Z 00000001800d7030 f i PvdMetaDataPvdBinding.obj
 0001:000d60e0       ??$?R$0EA@VPxRigidStatic@physx@@PEBD@?$PvdPropertyFilter@UPvdClassInfoDefine@Vd@physx@@@Vd@physx@@QEAAXAEBU?$PxReadOnlyPropertyInfo@$0EA@VPxRigidStatic@physx@@PEBD@2@I@Z 00000001800d70e0 f i PvdMetaDataPvdBinding.obj
 0001:000d6190       ??$?R$0EA@VPxRigidStatic@physx@@PEBD@?$PvdPropertyFilter@UPvdClassInfoValueStructDefine@Vd@physx@@@Vd@physx@@QEAAXAEBU?$PxReadOnlyPropertyInfo@$0EA@VPxRigidStatic@physx@@PEBD@2@I@Z 00000001800d7190 f i PvdMetaDataPvdBinding.obj
 0001:000d6240       ??$?R$0EF@VPxArticulationLink@physx@@PEBD@?$PvdPropertyFilter@UPvdClassInfoDefine@Vd@physx@@@Vd@physx@@QEAAXAEBU?$PxReadOnlyPropertyInfo@$0EF@VPxArticulationLink@physx@@PEBD@2@I@Z 00000001800d7240 f i PvdMetaDataPvdBinding.obj
 0001:000d62f0       ??$?R$0EF@VPxArticulationLink@physx@@PEBD@?$PvdPropertyFilter@UPvdClassInfoValueStructDefine@Vd@physx@@@Vd@physx@@QEAAXAEBU?$PxReadOnlyPropertyInfo@$0EF@VPxArticulationLink@physx@@PEBD@2@I@Z 00000001800d72f0 f i PvdMetaDataPvdBinding.obj
 0001:000d63a0       ??$?R$0EI@VPxArticulationJoint@physx@@VPxTransform@1@@?$PvdPropertyFilter@UPvdClassInfoDefine@Vd@physx@@@Vd@physx@@QEAAXAEBU?$PxReadOnlyPropertyInfo@$0EI@VPxArticulationJoint@physx@@VPxTransform@2@@2@I@Z 00000001800d73a0 f i PvdMetaDataPvdBinding.obj
 0001:000d6450       ??$?R$0EI@VPxArticulationJoint@physx@@VPxTransform@1@@?$PvdPropertyFilter@UPvdClassInfoValueStructDefine@Vd@physx@@@Vd@physx@@QEAAXAEBU?$PxReadOnlyPropertyInfo@$0EI@VPxArticulationJoint@physx@@VPxTransform@2@@2@I@Z 00000001800d7450 f i PvdMetaDataPvdBinding.obj
 0001:000d64f0       ??$?R$0EJ@VPxArticulationJoint@physx@@VPxTransform@1@@?$PvdPropertyFilter@UPvdClassInfoDefine@Vd@physx@@@Vd@physx@@QEAAXAEBU?$PxReadOnlyPropertyInfo@$0EJ@VPxArticulationJoint@physx@@VPxTransform@2@@2@I@Z 00000001800d74f0 f i PvdMetaDataPvdBinding.obj
 0001:000d65a0       ??$?R$0EJ@VPxArticulationJoint@physx@@VPxTransform@1@@?$PvdPropertyFilter@UPvdClassInfoValueStructDefine@Vd@physx@@@Vd@physx@@QEAAXAEBU?$PxReadOnlyPropertyInfo@$0EJ@VPxArticulationJoint@physx@@VPxTransform@2@@2@I@Z 00000001800d75a0 f i PvdMetaDataPvdBinding.obj
 0001:000d6650       ??$?R$0EK@VPxArticulationJoint@physx@@VPxQuat@1@@?$PvdPropertyFilter@UPvdClassInfoDefine@Vd@physx@@@Vd@physx@@QEAAXAEBU?$PxReadOnlyPropertyInfo@$0EK@VPxArticulationJoint@physx@@VPxQuat@2@@2@I@Z 00000001800d7650 f i PvdMetaDataPvdBinding.obj
 0001:000d6700       ??$?R$0EK@VPxArticulationJoint@physx@@VPxQuat@1@@?$PvdPropertyFilter@UPvdClassInfoValueStructDefine@Vd@physx@@@Vd@physx@@QEAAXAEBU?$PxReadOnlyPropertyInfo@$0EK@VPxArticulationJoint@physx@@VPxQuat@2@@2@I@Z 00000001800d7700 f i PvdMetaDataPvdBinding.obj
 0001:000d67b0       ??$?R$0EL@VPxArticulationJoint@physx@@VPxVec3@1@@?$PvdPropertyFilter@UPvdClassInfoDefine@Vd@physx@@@Vd@physx@@QEAAXAEBU?$PxReadOnlyPropertyInfo@$0EL@VPxArticulationJoint@physx@@VPxVec3@2@@2@I@Z 00000001800d77b0 f i PvdMetaDataPvdBinding.obj
 0001:000d6860       ??$?R$0EL@VPxArticulationJoint@physx@@VPxVec3@1@@?$PvdPropertyFilter@UPvdClassInfoValueStructDefine@Vd@physx@@@Vd@physx@@QEAAXAEBU?$PxReadOnlyPropertyInfo@$0EL@VPxArticulationJoint@physx@@VPxVec3@2@@2@I@Z 00000001800d7860 f i PvdMetaDataPvdBinding.obj
 0001:000d6910       ??$?R$0EM@VPxArticulationJoint@physx@@W4Enum@PxArticulationJointDriveType@1@@?$PvdPropertyFilter@UPvdClassInfoDefine@Vd@physx@@@Vd@physx@@QEAAXAEBU?$PxReadOnlyPropertyInfo@$0EM@VPxArticulationJoint@physx@@W4Enum@PxArticulationJointDriveType@2@@2@I@Z 00000001800d7910 f i PvdMetaDataPvdBinding.obj
 0001:000d69f0       ??$?R$0EM@VPxArticulationJoint@physx@@W4Enum@PxArticulationJointDriveType@1@@?$PvdPropertyFilter@UPvdClassInfoValueStructDefine@Vd@physx@@@Vd@physx@@QEAAXAEBU?$PxReadOnlyPropertyInfo@$0EM@VPxArticulationJoint@physx@@W4Enum@PxArticulationJointDriveType@2@@2@I@Z 00000001800d79f0 f i PvdMetaDataPvdBinding.obj
 0001:000d6aa0       ??$?R$0EN@VPxArticulationJoint@physx@@M@?$PvdPropertyFilter@UPvdClassInfoDefine@Vd@physx@@@Vd@physx@@QEAAXAEBU?$PxReadOnlyPropertyInfo@$0EN@VPxArticulationJoint@physx@@M@2@I@Z 00000001800d7aa0 f i PvdMetaDataPvdBinding.obj
 0001:000d6b50       ??$?R$0EN@VPxArticulationJoint@physx@@M@?$PvdPropertyFilter@UPvdClassInfoValueStructDefine@Vd@physx@@@Vd@physx@@QEAAXAEBU?$PxReadOnlyPropertyInfo@$0EN@VPxArticulationJoint@physx@@M@2@I@Z 00000001800d7b50 f i PvdMetaDataPvdBinding.obj
 0001:000d6c00       ??$?R$0EO@VPxArticulationJoint@physx@@M@?$PvdPropertyFilter@UPvdClassInfoDefine@Vd@physx@@@Vd@physx@@QEAAXAEBU?$PxReadOnlyPropertyInfo@$0EO@VPxArticulationJoint@physx@@M@2@I@Z 00000001800d7c00 f i PvdMetaDataPvdBinding.obj
 0001:000d6cb0       ??$?R$0EO@VPxArticulationJoint@physx@@M@?$PvdPropertyFilter@UPvdClassInfoValueStructDefine@Vd@physx@@@Vd@physx@@QEAAXAEBU?$PxReadOnlyPropertyInfo@$0EO@VPxArticulationJoint@physx@@M@2@I@Z 00000001800d7cb0 f i PvdMetaDataPvdBinding.obj
 0001:000d6d60       ??$?R$0EP@VPxArticulationJoint@physx@@M@?$PvdPropertyFilter@UPvdClassInfoDefine@Vd@physx@@@Vd@physx@@QEAAXAEBU?$PxReadOnlyPropertyInfo@$0EP@VPxArticulationJoint@physx@@M@2@I@Z 00000001800d7d60 f i PvdMetaDataPvdBinding.obj
 0001:000d6e10       ??$?R$0EP@VPxArticulationJoint@physx@@M@?$PvdPropertyFilter@UPvdClassInfoValueStructDefine@Vd@physx@@@Vd@physx@@QEAAXAEBU?$PxReadOnlyPropertyInfo@$0EP@VPxArticulationJoint@physx@@M@2@I@Z 00000001800d7e10 f i PvdMetaDataPvdBinding.obj
 0001:000d6ec0       ??$?R$0FA@VPxArticulationJoint@physx@@M@?$PvdPropertyFilter@UPvdClassInfoDefine@Vd@physx@@@Vd@physx@@QEAAXAEBU?$PxReadOnlyPropertyInfo@$0FA@VPxArticulationJoint@physx@@M@2@I@Z 00000001800d7ec0 f i PvdMetaDataPvdBinding.obj
 0001:000d6f70       ??$?R$0FA@VPxArticulationJoint@physx@@M@?$PvdPropertyFilter@UPvdClassInfoValueStructDefine@Vd@physx@@@Vd@physx@@QEAAXAEBU?$PxReadOnlyPropertyInfo@$0FA@VPxArticulationJoint@physx@@M@2@I@Z 00000001800d7f70 f i PvdMetaDataPvdBinding.obj
 0001:000d7020       ??$?R$0FB@VPxArticulationJoint@physx@@M@?$PvdPropertyFilter@UPvdClassInfoDefine@Vd@physx@@@Vd@physx@@QEAAXAEBU?$PxRangePropertyInfo@$0FB@VPxArticulationJoint@physx@@M@2@I@Z 00000001800d8020 f i PvdMetaDataPvdBinding.obj
 0001:000d71a0       ??$?R$0FB@VPxArticulationJoint@physx@@M@?$PvdPropertyFilter@UPvdClassInfoValueStructDefine@Vd@physx@@@Vd@physx@@QEAAXAEBU?$PxRangePropertyInfo@$0FB@VPxArticulationJoint@physx@@M@2@I@Z 00000001800d81a0 f i PvdMetaDataPvdBinding.obj
 0001:000d7310       ??$?R$0FC@VPxArticulationJoint@physx@@M@?$PvdPropertyFilter@UPvdClassInfoDefine@Vd@physx@@@Vd@physx@@QEAAXAEBU?$PxReadOnlyPropertyInfo@$0FC@VPxArticulationJoint@physx@@M@2@I@Z 00000001800d8310 f i PvdMetaDataPvdBinding.obj
 0001:000d73c0       ??$?R$0FC@VPxArticulationJoint@physx@@M@?$PvdPropertyFilter@UPvdClassInfoValueStructDefine@Vd@physx@@@Vd@physx@@QEAAXAEBU?$PxReadOnlyPropertyInfo@$0FC@VPxArticulationJoint@physx@@M@2@I@Z 00000001800d83c0 f i PvdMetaDataPvdBinding.obj
 0001:000d7470       ??$?R$0FD@VPxArticulationJoint@physx@@M@?$PvdPropertyFilter@UPvdClassInfoDefine@Vd@physx@@@Vd@physx@@QEAAXAEBU?$PxReadOnlyPropertyInfo@$0FD@VPxArticulationJoint@physx@@M@2@I@Z 00000001800d8470 f i PvdMetaDataPvdBinding.obj
 0001:000d7520       ??$?R$0FD@VPxArticulationJoint@physx@@M@?$PvdPropertyFilter@UPvdClassInfoValueStructDefine@Vd@physx@@@Vd@physx@@QEAAXAEBU?$PxReadOnlyPropertyInfo@$0FD@VPxArticulationJoint@physx@@M@2@I@Z 00000001800d8520 f i PvdMetaDataPvdBinding.obj
 0001:000d75d0       ??$?R$0FE@VPxArticulationJoint@physx@@M@?$PvdPropertyFilter@UPvdClassInfoDefine@Vd@physx@@@Vd@physx@@QEAAXAEBU?$PxReadOnlyPropertyInfo@$0FE@VPxArticulationJoint@physx@@M@2@I@Z 00000001800d85d0 f i PvdMetaDataPvdBinding.obj
 0001:000d7680       ??$?R$0FE@VPxArticulationJoint@physx@@M@?$PvdPropertyFilter@UPvdClassInfoValueStructDefine@Vd@physx@@@Vd@physx@@QEAAXAEBU?$PxReadOnlyPropertyInfo@$0FE@VPxArticulationJoint@physx@@M@2@I@Z 00000001800d8680 f i PvdMetaDataPvdBinding.obj
 0001:000d7730       ??$?R$0FF@VPxArticulationJoint@physx@@_N@?$PvdPropertyFilter@UPvdClassInfoDefine@Vd@physx@@@Vd@physx@@QEAAXAEBU?$PxReadOnlyPropertyInfo@$0FF@VPxArticulationJoint@physx@@_N@2@I@Z 00000001800d8730 f i PvdMetaDataPvdBinding.obj
 0001:000d77e0       ??$?R$0FF@VPxArticulationJoint@physx@@_N@?$PvdPropertyFilter@UPvdClassInfoValueStructDefine@Vd@physx@@@Vd@physx@@QEAAXAEBU?$PxReadOnlyPropertyInfo@$0FF@VPxArticulationJoint@physx@@_N@2@I@Z 00000001800d87e0 f i PvdMetaDataPvdBinding.obj
 0001:000d7890       ??$?R$0FG@VPxArticulationJoint@physx@@M@?$PvdPropertyFilter@UPvdClassInfoDefine@Vd@physx@@@Vd@physx@@QEAAXAEBU?$PxRangePropertyInfo@$0FG@VPxArticulationJoint@physx@@M@2@I@Z 00000001800d8890 f i PvdMetaDataPvdBinding.obj
 0001:000d7a10       ??$?R$0FG@VPxArticulationJoint@physx@@M@?$PvdPropertyFilter@UPvdClassInfoValueStructDefine@Vd@physx@@@Vd@physx@@QEAAXAEBU?$PxRangePropertyInfo@$0FG@VPxArticulationJoint@physx@@M@2@I@Z 00000001800d8a10 f i PvdMetaDataPvdBinding.obj
 0001:000d7b80       ??$?R$0FH@VPxArticulationJoint@physx@@_N@?$PvdPropertyFilter@UPvdClassInfoDefine@Vd@physx@@@Vd@physx@@QEAAXAEBU?$PxReadOnlyPropertyInfo@$0FH@VPxArticulationJoint@physx@@_N@2@I@Z 00000001800d8b80 f i PvdMetaDataPvdBinding.obj
 0001:000d7c30       ??$?R$0FH@VPxArticulationJoint@physx@@_N@?$PvdPropertyFilter@UPvdClassInfoValueStructDefine@Vd@physx@@@Vd@physx@@QEAAXAEBU?$PxReadOnlyPropertyInfo@$0FH@VPxArticulationJoint@physx@@_N@2@I@Z 00000001800d8c30 f i PvdMetaDataPvdBinding.obj
 0001:000d7ce0       ??$?R$0FI@VPxArticulationJoint@physx@@M@?$PvdPropertyFilter@UPvdClassInfoDefine@Vd@physx@@@Vd@physx@@QEAAXAEBU?$PxReadOnlyPropertyInfo@$0FI@VPxArticulationJoint@physx@@M@2@I@Z 00000001800d8ce0 f i PvdMetaDataPvdBinding.obj
 0001:000d7d90       ??$?R$0FI@VPxArticulationJoint@physx@@M@?$PvdPropertyFilter@UPvdClassInfoValueStructDefine@Vd@physx@@@Vd@physx@@QEAAXAEBU?$PxReadOnlyPropertyInfo@$0FI@VPxArticulationJoint@physx@@M@2@I@Z 00000001800d8d90 f i PvdMetaDataPvdBinding.obj
 0001:000d7e40       ??$?R$0FJ@VPxArticulationJoint@physx@@PEBD@?$PvdPropertyFilter@UPvdClassInfoDefine@Vd@physx@@@Vd@physx@@QEAAXAEBU?$PxReadOnlyPropertyInfo@$0FJ@VPxArticulationJoint@physx@@PEBD@2@I@Z 00000001800d8e40 f i PvdMetaDataPvdBinding.obj
 0001:000d7ef0       ??$?R$0FJ@VPxArticulationJoint@physx@@PEBD@?$PvdPropertyFilter@UPvdClassInfoValueStructDefine@Vd@physx@@@Vd@physx@@QEAAXAEBU?$PxReadOnlyPropertyInfo@$0FJ@VPxArticulationJoint@physx@@PEBD@2@I@Z 00000001800d8ef0 f i PvdMetaDataPvdBinding.obj
 0001:000d7fa0       ??$?R$0FN@VPxArticulation@physx@@I@?$PvdPropertyFilter@UPvdClassInfoDefine@Vd@physx@@@Vd@physx@@QEAAXAEBU?$PxReadOnlyPropertyInfo@$0FN@VPxArticulation@physx@@I@2@I@Z 00000001800d8fa0 f i PvdMetaDataPvdBinding.obj
 0001:000d8050       ??$?R$0FN@VPxArticulation@physx@@I@?$PvdPropertyFilter@UPvdClassInfoValueStructDefine@Vd@physx@@@Vd@physx@@QEAAXAEBU?$PxReadOnlyPropertyInfo@$0FN@VPxArticulation@physx@@I@2@I@Z 00000001800d9050 f i PvdMetaDataPvdBinding.obj
 0001:000d8100       ??$?R$0FO@VPxArticulation@physx@@M@?$PvdPropertyFilter@UPvdClassInfoDefine@Vd@physx@@@Vd@physx@@QEAAXAEBU?$PxReadOnlyPropertyInfo@$0FO@VPxArticulation@physx@@M@2@I@Z 00000001800d9100 f i PvdMetaDataPvdBinding.obj
 0001:000d81b0       ??$?R$0FO@VPxArticulation@physx@@M@?$PvdPropertyFilter@UPvdClassInfoValueStructDefine@Vd@physx@@@Vd@physx@@QEAAXAEBU?$PxReadOnlyPropertyInfo@$0FO@VPxArticulation@physx@@M@2@I@Z 00000001800d91b0 f i PvdMetaDataPvdBinding.obj
 0001:000d8260       ??$?R$0FP@VPxArticulation@physx@@I@?$PvdPropertyFilter@UPvdClassInfoDefine@Vd@physx@@@Vd@physx@@QEAAXAEBU?$PxReadOnlyPropertyInfo@$0FP@VPxArticulation@physx@@I@2@I@Z 00000001800d9260 f i PvdMetaDataPvdBinding.obj
 0001:000d8310       ??$?R$0FP@VPxArticulation@physx@@I@?$PvdPropertyFilter@UPvdClassInfoValueStructDefine@Vd@physx@@@Vd@physx@@QEAAXAEBU?$PxReadOnlyPropertyInfo@$0FP@VPxArticulation@physx@@I@2@I@Z 00000001800d9310 f i PvdMetaDataPvdBinding.obj
 0001:000d83c0       ??$?R$0GA@VPxArticulation@physx@@I@?$PvdPropertyFilter@UPvdClassInfoDefine@Vd@physx@@@Vd@physx@@QEAAXAEBU?$PxReadOnlyPropertyInfo@$0GA@VPxArticulation@physx@@I@2@I@Z 00000001800d93c0 f i PvdMetaDataPvdBinding.obj
 0001:000d8470       ??$?R$0GA@VPxArticulation@physx@@I@?$PvdPropertyFilter@UPvdClassInfoValueStructDefine@Vd@physx@@@Vd@physx@@QEAAXAEBU?$PxReadOnlyPropertyInfo@$0GA@VPxArticulation@physx@@I@2@I@Z 00000001800d9470 f i PvdMetaDataPvdBinding.obj
 0001:000d8520       ??$?R$0GB@VPxArticulation@physx@@I@?$PvdPropertyFilter@UPvdClassInfoDefine@Vd@physx@@@Vd@physx@@QEAAXAEBU?$PxRangePropertyInfo@$0GB@VPxArticulation@physx@@I@2@I@Z 00000001800d9520 f i PvdMetaDataPvdBinding.obj
 0001:000d86a0       ??$?R$0GB@VPxArticulation@physx@@I@?$PvdPropertyFilter@UPvdClassInfoValueStructDefine@Vd@physx@@@Vd@physx@@QEAAXAEBU?$PxRangePropertyInfo@$0GB@VPxArticulation@physx@@I@2@I@Z 00000001800d96a0 f i PvdMetaDataPvdBinding.obj
 0001:000d8810       ??$?R$0GC@VPxArticulation@physx@@_N@?$PvdPropertyFilter@UPvdClassInfoDefine@Vd@physx@@@Vd@physx@@QEAAXAEBU?$PxReadOnlyPropertyInfo@$0GC@VPxArticulation@physx@@_N@2@I@Z 00000001800d9810 f i PvdMetaDataPvdBinding.obj
 0001:000d88c0       ??$?R$0GC@VPxArticulation@physx@@_N@?$PvdPropertyFilter@UPvdClassInfoValueStructDefine@Vd@physx@@@Vd@physx@@QEAAXAEBU?$PxReadOnlyPropertyInfo@$0GC@VPxArticulation@physx@@_N@2@I@Z 00000001800d98c0 f i PvdMetaDataPvdBinding.obj
 0001:000d8970       ??$?R$0GD@VPxArticulation@physx@@M@?$PvdPropertyFilter@UPvdClassInfoDefine@Vd@physx@@@Vd@physx@@QEAAXAEBU?$PxReadOnlyPropertyInfo@$0GD@VPxArticulation@physx@@M@2@I@Z 00000001800d9970 f i PvdMetaDataPvdBinding.obj
 0001:000d8a20       ??$?R$0GD@VPxArticulation@physx@@M@?$PvdPropertyFilter@UPvdClassInfoValueStructDefine@Vd@physx@@@Vd@physx@@QEAAXAEBU?$PxReadOnlyPropertyInfo@$0GD@VPxArticulation@physx@@M@2@I@Z 00000001800d9a20 f i PvdMetaDataPvdBinding.obj
 0001:000d8ad0       ??$?R$0GE@VPxArticulation@physx@@M@?$PvdPropertyFilter@UPvdClassInfoDefine@Vd@physx@@@Vd@physx@@QEAAXAEBU?$PxReadOnlyPropertyInfo@$0GE@VPxArticulation@physx@@M@2@I@Z 00000001800d9ad0 f i PvdMetaDataPvdBinding.obj
 0001:000d8b80       ??$?R$0GE@VPxArticulation@physx@@M@?$PvdPropertyFilter@UPvdClassInfoValueStructDefine@Vd@physx@@@Vd@physx@@QEAAXAEBU?$PxReadOnlyPropertyInfo@$0GE@VPxArticulation@physx@@M@2@I@Z 00000001800d9b80 f i PvdMetaDataPvdBinding.obj
 0001:000d8c30       ??$?R$0GF@VPxArticulation@physx@@M@?$PvdPropertyFilter@UPvdClassInfoDefine@Vd@physx@@@Vd@physx@@QEAAXAEBU?$PxReadOnlyPropertyInfo@$0GF@VPxArticulation@physx@@M@2@I@Z 00000001800d9c30 f i PvdMetaDataPvdBinding.obj
 0001:000d8ce0       ??$?R$0GF@VPxArticulation@physx@@M@?$PvdPropertyFilter@UPvdClassInfoValueStructDefine@Vd@physx@@@Vd@physx@@QEAAXAEBU?$PxReadOnlyPropertyInfo@$0GF@VPxArticulation@physx@@M@2@I@Z 00000001800d9ce0 f i PvdMetaDataPvdBinding.obj
 0001:000d8d90       ??$?R$0GH@VPxArticulation@physx@@PEBD@?$PvdPropertyFilter@UPvdClassInfoDefine@Vd@physx@@@Vd@physx@@QEAAXAEBU?$PxReadOnlyPropertyInfo@$0GH@VPxArticulation@physx@@PEBD@2@I@Z 00000001800d9d90 f i PvdMetaDataPvdBinding.obj
 0001:000d8e40       ??$?R$0GH@VPxArticulation@physx@@PEBD@?$PvdPropertyFilter@UPvdClassInfoValueStructDefine@Vd@physx@@@Vd@physx@@QEAAXAEBU?$PxReadOnlyPropertyInfo@$0GH@VPxArticulation@physx@@PEBD@2@I@Z 00000001800d9e40 f i PvdMetaDataPvdBinding.obj
 0001:000d8ef0       ??$?R$0GJ@VPxArticulation@physx@@PEBD@?$PvdPropertyFilter@UPvdClassInfoDefine@Vd@physx@@@Vd@physx@@QEAAXAEBU?$PxReadOnlyPropertyInfo@$0GJ@VPxArticulation@physx@@PEBD@2@I@Z 00000001800d9ef0 f i PvdMetaDataPvdBinding.obj
 0001:000d8fa0       ??$?R$0GJ@VPxArticulation@physx@@PEBD@?$PvdPropertyFilter@UPvdClassInfoValueStructDefine@Vd@physx@@@Vd@physx@@QEAAXAEBU?$PxReadOnlyPropertyInfo@$0GJ@VPxArticulation@physx@@PEBD@2@I@Z 00000001800d9fa0 f i PvdMetaDataPvdBinding.obj
 0001:000d9050       ??$?R$0GN@VPxAggregate@physx@@I@?$PvdPropertyFilter@UPvdClassInfoDefine@Vd@physx@@@Vd@physx@@QEAAXAEBU?$PxReadOnlyPropertyInfo@$0GN@VPxAggregate@physx@@I@2@I@Z 00000001800da050 f i PvdMetaDataPvdBinding.obj
 0001:000d9100       ??$?R$0GN@VPxAggregate@physx@@I@?$PvdPropertyFilter@UPvdClassInfoValueStructDefine@Vd@physx@@@Vd@physx@@QEAAXAEBU?$PxReadOnlyPropertyInfo@$0GN@VPxAggregate@physx@@I@2@I@Z 00000001800da100 f i PvdMetaDataPvdBinding.obj
 0001:000d91a0       ??$?R$0GP@VPxAggregate@physx@@_N@?$PvdPropertyFilter@UPvdClassInfoDefine@Vd@physx@@@Vd@physx@@QEAAXAEBU?$PxReadOnlyPropertyInfo@$0GP@VPxAggregate@physx@@_N@2@I@Z 00000001800da1a0 f i PvdMetaDataPvdBinding.obj
 0001:000d9250       ??$?R$0GP@VPxAggregate@physx@@_N@?$PvdPropertyFilter@UPvdClassInfoValueStructDefine@Vd@physx@@@Vd@physx@@QEAAXAEBU?$PxReadOnlyPropertyInfo@$0GP@VPxAggregate@physx@@_N@2@I@Z 00000001800da250 f i PvdMetaDataPvdBinding.obj
 0001:000d9300       ??$?R$0HA@VPxAggregate@physx@@PEBD@?$PvdPropertyFilter@UPvdClassInfoDefine@Vd@physx@@@Vd@physx@@QEAAXAEBU?$PxReadOnlyPropertyInfo@$0HA@VPxAggregate@physx@@PEBD@2@I@Z 00000001800da300 f i PvdMetaDataPvdBinding.obj
 0001:000d93b0       ??$?R$0HA@VPxAggregate@physx@@PEBD@?$PvdPropertyFilter@UPvdClassInfoValueStructDefine@Vd@physx@@@Vd@physx@@QEAAXAEBU?$PxReadOnlyPropertyInfo@$0HA@VPxAggregate@physx@@PEBD@2@I@Z 00000001800da3b0 f i PvdMetaDataPvdBinding.obj
 0001:000d9460       ??$?R$0HE@VPxConstraint@physx@@PEAVPxRigidActor@1@@?$PvdPropertyFilter@UPvdClassInfoDefine@Vd@physx@@@Vd@physx@@QEAAXAEBU?$PxRangePropertyInfo@$0HE@VPxConstraint@physx@@PEAVPxRigidActor@2@@2@I@Z 00000001800da460 f i PvdMetaDataPvdBinding.obj
 0001:000d95e0       ??$?R$0HE@VPxConstraint@physx@@PEAVPxRigidActor@1@@?$PvdPropertyFilter@UPvdClassInfoValueStructDefine@Vd@physx@@@Vd@physx@@QEAAXAEBU?$PxRangePropertyInfo@$0HE@VPxConstraint@physx@@PEAVPxRigidActor@2@@2@I@Z 00000001800da5e0 f i PvdMetaDataPvdBinding.obj
 0001:000d9750       ??$?R$0HF@VPxConstraint@physx@@V?$PxFlags@W4Enum@PxConstraintFlag@physx@@G@1@@?$PvdPropertyFilter@UPvdClassInfoDefine@Vd@physx@@@Vd@physx@@QEAAXAEBU?$PxReadOnlyPropertyInfo@$0HF@VPxConstraint@physx@@V?$PxFlags@W4Enum@PxConstraintFlag@physx@@G@2@@2@I@Z 00000001800da750 f i PvdMetaDataPvdBinding.obj
 0001:000d9830       ??$?R$0HF@VPxConstraint@physx@@V?$PxFlags@W4Enum@PxConstraintFlag@physx@@G@1@@?$PvdPropertyFilter@UPvdClassInfoValueStructDefine@Vd@physx@@@Vd@physx@@QEAAXAEBU?$PxReadOnlyPropertyInfo@$0HF@VPxConstraint@physx@@V?$PxFlags@W4Enum@PxConstraintFlag@physx@@G@2@@2@I@Z 00000001800da830 f i PvdMetaDataPvdBinding.obj
 0001:000d98e0       ??$?R$0HG@VPxConstraint@physx@@_N@?$PvdPropertyFilter@UPvdClassInfoDefine@Vd@physx@@@Vd@physx@@QEAAXAEBU?$PxReadOnlyPropertyInfo@$0HG@VPxConstraint@physx@@_N@2@I@Z 00000001800da8e0 f i PvdMetaDataPvdBinding.obj
 0001:000d9990       ??$?R$0HG@VPxConstraint@physx@@_N@?$PvdPropertyFilter@UPvdClassInfoValueStructDefine@Vd@physx@@@Vd@physx@@QEAAXAEBU?$PxReadOnlyPropertyInfo@$0HG@VPxConstraint@physx@@_N@2@I@Z 00000001800da990 f i PvdMetaDataPvdBinding.obj
 0001:000d9a40       ??$?R$0HH@VPxConstraint@physx@@M@?$PvdPropertyFilter@UPvdClassInfoDefine@Vd@physx@@@Vd@physx@@QEAAXAEBU?$PxRangePropertyInfo@$0HH@VPxConstraint@physx@@M@2@I@Z 00000001800daa40 f i PvdMetaDataPvdBinding.obj
 0001:000d9bc0       ??$?R$0HH@VPxConstraint@physx@@M@?$PvdPropertyFilter@UPvdClassInfoValueStructDefine@Vd@physx@@@Vd@physx@@QEAAXAEBU?$PxRangePropertyInfo@$0HH@VPxConstraint@physx@@M@2@I@Z 00000001800dabc0 f i PvdMetaDataPvdBinding.obj
 0001:000d9d30       ??$?R$0HI@VPxConstraint@physx@@M@?$PvdPropertyFilter@UPvdClassInfoDefine@Vd@physx@@@Vd@physx@@QEAAXAEBU?$PxReadOnlyPropertyInfo@$0HI@VPxConstraint@physx@@M@2@I@Z 00000001800dad30 f i PvdMetaDataPvdBinding.obj
 0001:000d9de0       ??$?R$0HI@VPxConstraint@physx@@M@?$PvdPropertyFilter@UPvdClassInfoValueStructDefine@Vd@physx@@@Vd@physx@@QEAAXAEBU?$PxReadOnlyPropertyInfo@$0HI@VPxConstraint@physx@@M@2@I@Z 00000001800dade0 f i PvdMetaDataPvdBinding.obj
 0001:000d9e90       ??$?R$0HJ@VPxConstraint@physx@@PEBD@?$PvdPropertyFilter@UPvdClassInfoDefine@Vd@physx@@@Vd@physx@@QEAAXAEBU?$PxReadOnlyPropertyInfo@$0HJ@VPxConstraint@physx@@PEBD@2@I@Z 00000001800dae90 f i PvdMetaDataPvdBinding.obj
 0001:000d9f40       ??$?R$0HJ@VPxConstraint@physx@@PEBD@?$PvdPropertyFilter@UPvdClassInfoValueStructDefine@Vd@physx@@@Vd@physx@@QEAAXAEBU?$PxReadOnlyPropertyInfo@$0HJ@VPxConstraint@physx@@PEBD@2@I@Z 00000001800daf40 f i PvdMetaDataPvdBinding.obj
 0001:000d9ff0       ??$?R$0HM@VPxShape@physx@@W4Enum@PxGeometryType@1@@?$PvdPropertyFilter@UPvdClassInfoDefine@Vd@physx@@@Vd@physx@@QEAAXAEBU?$PxReadOnlyPropertyInfo@$0HM@VPxShape@physx@@W4Enum@PxGeometryType@2@@2@I@Z 00000001800daff0 f i PvdMetaDataPvdBinding.obj
 0001:000da0d0       ??$?R$0HM@VPxShape@physx@@W4Enum@PxGeometryType@1@@?$PvdPropertyFilter@UPvdClassInfoValueStructDefine@Vd@physx@@@Vd@physx@@QEAAXAEBU?$PxReadOnlyPropertyInfo@$0HM@VPxShape@physx@@W4Enum@PxGeometryType@2@@2@I@Z 00000001800db0d0 f i PvdMetaDataPvdBinding.obj
 0001:000da170       ??$?R$0HO@VPxShape@physx@@VPxTransform@1@@?$PvdPropertyFilter@UPvdClassInfoDefine@Vd@physx@@@Vd@physx@@QEAAXAEBU?$PxReadOnlyPropertyInfo@$0HO@VPxShape@physx@@VPxTransform@2@@2@I@Z 00000001800db170 f i PvdMetaDataPvdBinding.obj
 0001:000da220       ??$?R$0HO@VPxShape@physx@@VPxTransform@1@@?$PvdPropertyFilter@UPvdClassInfoValueStructDefine@Vd@physx@@@Vd@physx@@QEAAXAEBU?$PxReadOnlyPropertyInfo@$0HO@VPxShape@physx@@VPxTransform@2@@2@I@Z 00000001800db220 f i PvdMetaDataPvdBinding.obj
 0001:000da2d0       ??$?R$0HP@VPxShape@physx@@UPxFilterData@1@@?$PvdPropertyFilter@UPvdClassInfoDefine@Vd@physx@@@Vd@physx@@QEAAXAEBU?$PxReadOnlyPropertyInfo@$0HP@VPxShape@physx@@UPxFilterData@2@@2@I@Z 00000001800db2d0 f i PvdMetaDataPvdBinding.obj
 0001:000da380       ??$?R$0HP@VPxShape@physx@@UPxFilterData@1@@?$PvdPropertyFilter@UPvdClassInfoValueStructDefine@Vd@physx@@@Vd@physx@@QEAAXAEBU?$PxReadOnlyPropertyInfo@$0HP@VPxShape@physx@@UPxFilterData@2@@2@I@Z 00000001800db380 f i PvdMetaDataPvdBinding.obj
 0001:000da430       ??$?R$0IA@VPxShape@physx@@UPxFilterData@1@@?$PvdPropertyFilter@UPvdClassInfoDefine@Vd@physx@@@Vd@physx@@QEAAXAEBU?$PxReadOnlyPropertyInfo@$0IA@VPxShape@physx@@UPxFilterData@2@@2@I@Z 00000001800db430 f i PvdMetaDataPvdBinding.obj
 0001:000da4e0       ??$?R$0IA@VPxShape@physx@@UPxFilterData@1@@?$PvdPropertyFilter@UPvdClassInfoValueStructDefine@Vd@physx@@@Vd@physx@@QEAAXAEBU?$PxReadOnlyPropertyInfo@$0IA@VPxShape@physx@@UPxFilterData@2@@2@I@Z 00000001800db4e0 f i PvdMetaDataPvdBinding.obj
 0001:000da590       ??$?R$0IC@VPxShape@physx@@M@?$PvdPropertyFilter@UPvdClassInfoDefine@Vd@physx@@@Vd@physx@@QEAAXAEBU?$PxReadOnlyPropertyInfo@$0IC@VPxShape@physx@@M@2@I@Z 00000001800db590 f i PvdMetaDataPvdBinding.obj
 0001:000da640       ??$?R$0IC@VPxShape@physx@@M@?$PvdPropertyFilter@UPvdClassInfoValueStructDefine@Vd@physx@@@Vd@physx@@QEAAXAEBU?$PxReadOnlyPropertyInfo@$0IC@VPxShape@physx@@M@2@I@Z 00000001800db640 f i PvdMetaDataPvdBinding.obj
 0001:000da6f0       ??$?R$0ID@VPxShape@physx@@M@?$PvdPropertyFilter@UPvdClassInfoDefine@Vd@physx@@@Vd@physx@@QEAAXAEBU?$PxReadOnlyPropertyInfo@$0ID@VPxShape@physx@@M@2@I@Z 00000001800db6f0 f i PvdMetaDataPvdBinding.obj
 0001:000da7a0       ??$?R$0ID@VPxShape@physx@@M@?$PvdPropertyFilter@UPvdClassInfoValueStructDefine@Vd@physx@@@Vd@physx@@QEAAXAEBU?$PxReadOnlyPropertyInfo@$0ID@VPxShape@physx@@M@2@I@Z 00000001800db7a0 f i PvdMetaDataPvdBinding.obj
 0001:000da850       ??$?R$0IE@VPxShape@physx@@V?$PxFlags@W4Enum@PxShapeFlag@physx@@E@1@@?$PvdPropertyFilter@UPvdClassInfoDefine@Vd@physx@@@Vd@physx@@QEAAXAEBU?$PxReadOnlyPropertyInfo@$0IE@VPxShape@physx@@V?$PxFlags@W4Enum@PxShapeFlag@physx@@E@2@@2@I@Z 00000001800db850 f i PvdMetaDataPvdBinding.obj
 0001:000da930       ??$?R$0IF@VPxShape@physx@@_N@?$PvdPropertyFilter@UPvdClassInfoDefine@Vd@physx@@@Vd@physx@@QEAAXAEBU?$PxReadOnlyPropertyInfo@$0IF@VPxShape@physx@@_N@2@I@Z 00000001800db930 f i PvdMetaDataPvdBinding.obj
 0001:000da9e0       ??$?R$0IF@VPxShape@physx@@_N@?$PvdPropertyFilter@UPvdClassInfoValueStructDefine@Vd@physx@@@Vd@physx@@QEAAXAEBU?$PxReadOnlyPropertyInfo@$0IF@VPxShape@physx@@_N@2@I@Z 00000001800db9e0 f i PvdMetaDataPvdBinding.obj
 0001:000daa90       ??$?R$0IG@VPxShape@physx@@PEBD@?$PvdPropertyFilter@UPvdClassInfoDefine@Vd@physx@@@Vd@physx@@QEAAXAEBU?$PxReadOnlyPropertyInfo@$0IG@VPxShape@physx@@PEBD@2@I@Z 00000001800dba90 f i PvdMetaDataPvdBinding.obj
 0001:000dab40       ??$?R$0IG@VPxShape@physx@@PEBD@?$PvdPropertyFilter@UPvdClassInfoValueStructDefine@Vd@physx@@@Vd@physx@@QEAAXAEBU?$PxReadOnlyPropertyInfo@$0IG@VPxShape@physx@@PEBD@2@I@Z 00000001800dbb40 f i PvdMetaDataPvdBinding.obj
 0001:000dabf0       ??$?R$0IH@VPxShape@physx@@PEBD@?$PvdPropertyFilter@UPvdClassInfoDefine@Vd@physx@@@Vd@physx@@QEAAXAEBU?$PxReadOnlyPropertyInfo@$0IH@VPxShape@physx@@PEBD@2@I@Z 00000001800dbbf0 f i PvdMetaDataPvdBinding.obj
 0001:000daca0       ??$?R$0IH@VPxShape@physx@@PEBD@?$PvdPropertyFilter@UPvdClassInfoValueStructDefine@Vd@physx@@@Vd@physx@@QEAAXAEBU?$PxReadOnlyPropertyInfo@$0IH@VPxShape@physx@@PEBD@2@I@Z 00000001800dbca0 f i PvdMetaDataPvdBinding.obj
 0001:000dad50       ??$?R$0IL@VPxClothFabric@physx@@I@?$PvdPropertyFilter@UPvdClassInfoDefine@Vd@physx@@@Vd@physx@@QEAAXAEBU?$PxReadOnlyPropertyInfo@$0IL@VPxClothFabric@physx@@I@2@I@Z 00000001800dbd50 f i PvdMetaDataPvdBinding.obj
 0001:000dae00       ??$?R$0IL@VPxClothFabric@physx@@I@?$PvdPropertyFilter@UPvdClassInfoValueStructDefine@Vd@physx@@@Vd@physx@@QEAAXAEBU?$PxReadOnlyPropertyInfo@$0IL@VPxClothFabric@physx@@I@2@I@Z 00000001800dbe00 f i PvdMetaDataPvdBinding.obj
 0001:000daea0       ??$?R$0JA@VPxClothFabric@physx@@I@?$PvdPropertyFilter@UPvdClassInfoDefine@Vd@physx@@@Vd@physx@@QEAAXAEBU?$PxReadOnlyPropertyInfo@$0JA@VPxClothFabric@physx@@I@2@I@Z 00000001800dbea0 f i PvdMetaDataPvdBinding.obj
 0001:000daf50       ??$?R$0JA@VPxClothFabric@physx@@I@?$PvdPropertyFilter@UPvdClassInfoValueStructDefine@Vd@physx@@@Vd@physx@@QEAAXAEBU?$PxReadOnlyPropertyInfo@$0JA@VPxClothFabric@physx@@I@2@I@Z 00000001800dbf50 f i PvdMetaDataPvdBinding.obj
 0001:000db000       ??$?R$0JB@VPxClothFabric@physx@@PEBD@?$PvdPropertyFilter@UPvdClassInfoDefine@Vd@physx@@@Vd@physx@@QEAAXAEBU?$PxReadOnlyPropertyInfo@$0JB@VPxClothFabric@physx@@PEBD@2@I@Z 00000001800dc000 f i PvdMetaDataPvdBinding.obj
 0001:000db0b0       ??$?R$0JB@VPxClothFabric@physx@@PEBD@?$PvdPropertyFilter@UPvdClassInfoValueStructDefine@Vd@physx@@@Vd@physx@@QEAAXAEBU?$PxReadOnlyPropertyInfo@$0JB@VPxClothFabric@physx@@PEBD@2@I@Z 00000001800dc0b0 f i PvdMetaDataPvdBinding.obj
 0001:000db160       ??$?R$0JE@VPxCloth@physx@@I@?$PvdPropertyFilter@UPvdClassInfoDefine@Vd@physx@@@Vd@physx@@QEAAXAEBU?$PxReadOnlyPropertyInfo@$0JE@VPxCloth@physx@@I@2@I@Z 00000001800dc160 f i PvdMetaDataPvdBinding.obj
 0001:000db210       ??$?R$0JE@VPxCloth@physx@@I@?$PvdPropertyFilter@UPvdClassInfoValueStructDefine@Vd@physx@@@Vd@physx@@QEAAXAEBU?$PxReadOnlyPropertyInfo@$0JE@VPxCloth@physx@@I@2@I@Z 00000001800dc210 f i PvdMetaDataPvdBinding.obj
 0001:000db2c0       ??$?R$0JF@VPxCloth@physx@@V?$PxFlags@W4Enum@PxClothFlag@physx@@G@1@@?$PvdPropertyFilter@UPvdClassInfoDefine@Vd@physx@@@Vd@physx@@QEAAXAEBU?$PxReadOnlyPropertyInfo@$0JF@VPxCloth@physx@@V?$PxFlags@W4Enum@PxClothFlag@physx@@G@2@@2@I@Z 00000001800dc2c0 f i PvdMetaDataPvdBinding.obj
 0001:000db3a0       ??$?R$0JF@VPxCloth@physx@@V?$PxFlags@W4Enum@PxClothFlag@physx@@G@1@@?$PvdPropertyFilter@UPvdClassInfoValueStructDefine@Vd@physx@@@Vd@physx@@QEAAXAEBU?$PxReadOnlyPropertyInfo@$0JF@VPxCloth@physx@@V?$PxFlags@W4Enum@PxClothFlag@physx@@G@2@@2@I@Z 00000001800dc3a0 f i PvdMetaDataPvdBinding.obj
 0001:000db450       ??$?R$0JH@VPxCloth@physx@@VPxTransform@1@@?$PvdPropertyFilter@UPvdClassInfoDefine@Vd@physx@@@Vd@physx@@QEAAXAEBU?$PxReadOnlyPropertyInfo@$0JH@VPxCloth@physx@@VPxTransform@2@@2@I@Z 00000001800dc450 f i PvdMetaDataPvdBinding.obj
 0001:000db500       ??$?R$0JH@VPxCloth@physx@@VPxTransform@1@@?$PvdPropertyFilter@UPvdClassInfoValueStructDefine@Vd@physx@@@Vd@physx@@QEAAXAEBU?$PxReadOnlyPropertyInfo@$0JH@VPxCloth@physx@@VPxTransform@2@@2@I@Z 00000001800dc500 f i PvdMetaDataPvdBinding.obj
 0001:000db5b0       ??$?R$0JI@VPxCloth@physx@@M@?$PvdPropertyFilter@UPvdClassInfoDefine@Vd@physx@@@Vd@physx@@QEAAXAEBU?$PxReadOnlyPropertyInfo@$0JI@VPxCloth@physx@@M@2@I@Z 00000001800dc5b0 f i PvdMetaDataPvdBinding.obj
 0001:000db660       ??$?R$0JI@VPxCloth@physx@@M@?$PvdPropertyFilter@UPvdClassInfoValueStructDefine@Vd@physx@@@Vd@physx@@QEAAXAEBU?$PxReadOnlyPropertyInfo@$0JI@VPxCloth@physx@@M@2@I@Z 00000001800dc660 f i PvdMetaDataPvdBinding.obj
 0001:000db710       ??$?R$0JJ@VPxCloth@physx@@M@?$PvdPropertyFilter@UPvdClassInfoDefine@Vd@physx@@@Vd@physx@@QEAAXAEBU?$PxReadOnlyPropertyInfo@$0JJ@VPxCloth@physx@@M@2@I@Z 00000001800dc710 f i PvdMetaDataPvdBinding.obj
 0001:000db7c0       ??$?R$0JJ@VPxCloth@physx@@M@?$PvdPropertyFilter@UPvdClassInfoValueStructDefine@Vd@physx@@@Vd@physx@@QEAAXAEBU?$PxReadOnlyPropertyInfo@$0JJ@VPxCloth@physx@@M@2@I@Z 00000001800dc7c0 f i PvdMetaDataPvdBinding.obj
 0001:000db870       ??$?R$0JK@VPxCloth@physx@@M@?$PvdPropertyFilter@UPvdClassInfoDefine@Vd@physx@@@Vd@physx@@QEAAXAEBU?$PxReadOnlyPropertyInfo@$0JK@VPxCloth@physx@@M@2@I@Z 00000001800dc870 f i PvdMetaDataPvdBinding.obj
 0001:000db920       ??$?R$0JK@VPxCloth@physx@@M@?$PvdPropertyFilter@UPvdClassInfoValueStructDefine@Vd@physx@@@Vd@physx@@QEAAXAEBU?$PxReadOnlyPropertyInfo@$0JK@VPxCloth@physx@@M@2@I@Z 00000001800dc920 f i PvdMetaDataPvdBinding.obj
 0001:000db9d0       ??$?R$0JL@VPxCloth@physx@@VPxVec3@1@@?$PvdPropertyFilter@UPvdClassInfoDefine@Vd@physx@@@Vd@physx@@QEAAXAEBU?$PxReadOnlyPropertyInfo@$0JL@VPxCloth@physx@@VPxVec3@2@@2@I@Z 00000001800dc9d0 f i PvdMetaDataPvdBinding.obj
 0001:000dba80       ??$?R$0JL@VPxCloth@physx@@VPxVec3@1@@?$PvdPropertyFilter@UPvdClassInfoValueStructDefine@Vd@physx@@@Vd@physx@@QEAAXAEBU?$PxReadOnlyPropertyInfo@$0JL@VPxCloth@physx@@VPxVec3@2@@2@I@Z 00000001800dca80 f i PvdMetaDataPvdBinding.obj
 0001:000dbb30       ??$?R$0JM@VPxCloth@physx@@VPxVec3@1@@?$PvdPropertyFilter@UPvdClassInfoDefine@Vd@physx@@@Vd@physx@@QEAAXAEBU?$PxReadOnlyPropertyInfo@$0JM@VPxCloth@physx@@VPxVec3@2@@2@I@Z 00000001800dcb30 f i PvdMetaDataPvdBinding.obj
 0001:000dbbe0       ??$?R$0JM@VPxCloth@physx@@VPxVec3@1@@?$PvdPropertyFilter@UPvdClassInfoValueStructDefine@Vd@physx@@@Vd@physx@@QEAAXAEBU?$PxReadOnlyPropertyInfo@$0JM@VPxCloth@physx@@VPxVec3@2@@2@I@Z 00000001800dcbe0 f i PvdMetaDataPvdBinding.obj
 0001:000dbc90       ??$?R$0JN@VPxCloth@physx@@VPxVec3@1@@?$PvdPropertyFilter@UPvdClassInfoDefine@Vd@physx@@@Vd@physx@@QEAAXAEBU?$PxReadOnlyPropertyInfo@$0JN@VPxCloth@physx@@VPxVec3@2@@2@I@Z 00000001800dcc90 f i PvdMetaDataPvdBinding.obj
 0001:000dbd40       ??$?R$0JN@VPxCloth@physx@@VPxVec3@1@@?$PvdPropertyFilter@UPvdClassInfoValueStructDefine@Vd@physx@@@Vd@physx@@QEAAXAEBU?$PxReadOnlyPropertyInfo@$0JN@VPxCloth@physx@@VPxVec3@2@@2@I@Z 00000001800dcd40 f i PvdMetaDataPvdBinding.obj
 0001:000dbdf0       ??$?R$0JP@VPxCloth@physx@@VPxVec3@1@@?$PvdPropertyFilter@UPvdClassInfoDefine@Vd@physx@@@Vd@physx@@QEAAXAEBU?$PxReadOnlyPropertyInfo@$0JP@VPxCloth@physx@@VPxVec3@2@@2@I@Z 00000001800dcdf0 f i PvdMetaDataPvdBinding.obj
 0001:000dbea0       ??$?R$0JP@VPxCloth@physx@@VPxVec3@1@@?$PvdPropertyFilter@UPvdClassInfoValueStructDefine@Vd@physx@@@Vd@physx@@QEAAXAEBU?$PxReadOnlyPropertyInfo@$0JP@VPxCloth@physx@@VPxVec3@2@@2@I@Z 00000001800dcea0 f i PvdMetaDataPvdBinding.obj
 0001:000dbf50       ??$?R$0KA@VPxCloth@physx@@VPxVec3@1@@?$PvdPropertyFilter@UPvdClassInfoDefine@Vd@physx@@@Vd@physx@@QEAAXAEBU?$PxReadOnlyPropertyInfo@$0KA@VPxCloth@physx@@VPxVec3@2@@2@I@Z 00000001800dcf50 f i PvdMetaDataPvdBinding.obj
 0001:000dc000       ??$?R$0KA@VPxCloth@physx@@VPxVec3@1@@?$PvdPropertyFilter@UPvdClassInfoValueStructDefine@Vd@physx@@@Vd@physx@@QEAAXAEBU?$PxReadOnlyPropertyInfo@$0KA@VPxCloth@physx@@VPxVec3@2@@2@I@Z 00000001800dd000 f i PvdMetaDataPvdBinding.obj
 0001:000dc0b0       ??$?R$0KB@VPxCloth@physx@@VPxVec3@1@@?$PvdPropertyFilter@UPvdClassInfoDefine@Vd@physx@@@Vd@physx@@QEAAXAEBU?$PxReadOnlyPropertyInfo@$0KB@VPxCloth@physx@@VPxVec3@2@@2@I@Z 00000001800dd0b0 f i PvdMetaDataPvdBinding.obj
 0001:000dc160       ??$?R$0KB@VPxCloth@physx@@VPxVec3@1@@?$PvdPropertyFilter@UPvdClassInfoValueStructDefine@Vd@physx@@@Vd@physx@@QEAAXAEBU?$PxReadOnlyPropertyInfo@$0KB@VPxCloth@physx@@VPxVec3@2@@2@I@Z 00000001800dd160 f i PvdMetaDataPvdBinding.obj
 0001:000dc210       ??$?R$0KD@VPxCloth@physx@@VPxVec3@1@@?$PvdPropertyFilter@UPvdClassInfoDefine@Vd@physx@@@Vd@physx@@QEAAXAEBU?$PxReadOnlyPropertyInfo@$0KD@VPxCloth@physx@@VPxVec3@2@@2@I@Z 00000001800dd210 f i PvdMetaDataPvdBinding.obj
 0001:000dc2c0       ??$?R$0KD@VPxCloth@physx@@VPxVec3@1@@?$PvdPropertyFilter@UPvdClassInfoValueStructDefine@Vd@physx@@@Vd@physx@@QEAAXAEBU?$PxReadOnlyPropertyInfo@$0KD@VPxCloth@physx@@VPxVec3@2@@2@I@Z 00000001800dd2c0 f i PvdMetaDataPvdBinding.obj
 0001:000dc370       ??$?R$0KE@VPxCloth@physx@@VPxVec3@1@@?$PvdPropertyFilter@UPvdClassInfoDefine@Vd@physx@@@Vd@physx@@QEAAXAEBU?$PxReadOnlyPropertyInfo@$0KE@VPxCloth@physx@@VPxVec3@2@@2@I@Z 00000001800dd370 f i PvdMetaDataPvdBinding.obj
 0001:000dc420       ??$?R$0KE@VPxCloth@physx@@VPxVec3@1@@?$PvdPropertyFilter@UPvdClassInfoValueStructDefine@Vd@physx@@@Vd@physx@@QEAAXAEBU?$PxReadOnlyPropertyInfo@$0KE@VPxCloth@physx@@VPxVec3@2@@2@I@Z 00000001800dd420 f i PvdMetaDataPvdBinding.obj
 0001:000dc4d0       ??$?R$0KF@VPxCloth@physx@@M@?$PvdPropertyFilter@UPvdClassInfoDefine@Vd@physx@@@Vd@physx@@QEAAXAEBU?$PxReadOnlyPropertyInfo@$0KF@VPxCloth@physx@@M@2@I@Z 00000001800dd4d0 f i PvdMetaDataPvdBinding.obj
 0001:000dc580       ??$?R$0KF@VPxCloth@physx@@M@?$PvdPropertyFilter@UPvdClassInfoValueStructDefine@Vd@physx@@@Vd@physx@@QEAAXAEBU?$PxReadOnlyPropertyInfo@$0KF@VPxCloth@physx@@M@2@I@Z 00000001800dd580 f i PvdMetaDataPvdBinding.obj
 0001:000dc630       ??$?R$0KG@VPxCloth@physx@@M@?$PvdPropertyFilter@UPvdClassInfoDefine@Vd@physx@@@Vd@physx@@QEAAXAEBU?$PxReadOnlyPropertyInfo@$0KG@VPxCloth@physx@@M@2@I@Z 00000001800dd630 f i PvdMetaDataPvdBinding.obj
 0001:000dc6e0       ??$?R$0KG@VPxCloth@physx@@M@?$PvdPropertyFilter@UPvdClassInfoValueStructDefine@Vd@physx@@@Vd@physx@@QEAAXAEBU?$PxReadOnlyPropertyInfo@$0KG@VPxCloth@physx@@M@2@I@Z 00000001800dd6e0 f i PvdMetaDataPvdBinding.obj
 0001:000dc790       ??$?R$0KH@VPxCloth@physx@@UPxClothMotionConstraintConfig@1@@?$PvdPropertyFilter@UPvdClassInfoDefine@Vd@physx@@@Vd@physx@@QEAAXAEBU?$PxReadOnlyPropertyInfo@$0KH@VPxCloth@physx@@UPxClothMotionConstraintConfig@2@@2@I@Z 00000001800dd790 f i PvdMetaDataPvdBinding.obj
 0001:000dc8d0       ??$?R$0KH@VPxCloth@physx@@UPxClothMotionConstraintConfig@1@@?$PvdPropertyFilter@UPvdClassInfoValueStructDefine@Vd@physx@@@Vd@physx@@QEAAXAEBU?$PxReadOnlyPropertyInfo@$0KH@VPxCloth@physx@@UPxClothMotionConstraintConfig@2@@2@I@Z 00000001800dd8d0 f i PvdMetaDataPvdBinding.obj
 0001:000dca00       ??$?R$0KJ@VPxCloth@physx@@UPxClothTetherConfig@1@@?$PvdPropertyFilter@UPvdClassInfoDefine@Vd@physx@@@Vd@physx@@QEAAXAEBU?$PxReadOnlyPropertyInfo@$0KJ@VPxCloth@physx@@UPxClothTetherConfig@2@@2@I@Z 00000001800dda00 f i PvdMetaDataPvdBinding.obj
 0001:000dcaa0       ??$?R$0KJ@VPxCloth@physx@@UPxClothTetherConfig@1@@?$PvdPropertyFilter@UPvdClassInfoValueStructDefine@Vd@physx@@@Vd@physx@@QEAAXAEBU?$PxReadOnlyPropertyInfo@$0KJ@VPxCloth@physx@@UPxClothTetherConfig@2@@2@I@Z 00000001800ddaa0 f i PvdMetaDataPvdBinding.obj
 0001:000dcb40       ??$?R$0KK@VPxCloth@physx@@M@?$PvdPropertyFilter@UPvdClassInfoDefine@Vd@physx@@@Vd@physx@@QEAAXAEBU?$PxReadOnlyPropertyInfo@$0KK@VPxCloth@physx@@M@2@I@Z 00000001800ddb40 f i PvdMetaDataPvdBinding.obj
 0001:000dcbf0       ??$?R$0KK@VPxCloth@physx@@M@?$PvdPropertyFilter@UPvdClassInfoValueStructDefine@Vd@physx@@@Vd@physx@@QEAAXAEBU?$PxReadOnlyPropertyInfo@$0KK@VPxCloth@physx@@M@2@I@Z 00000001800ddbf0 f i PvdMetaDataPvdBinding.obj
 0001:000dcca0       ??$?R$0KL@VPxCloth@physx@@M@?$PvdPropertyFilter@UPvdClassInfoDefine@Vd@physx@@@Vd@physx@@QEAAXAEBU?$PxReadOnlyPropertyInfo@$0KL@VPxCloth@physx@@M@2@I@Z 00000001800ddca0 f i PvdMetaDataPvdBinding.obj
 0001:000dcd50       ??$?R$0KL@VPxCloth@physx@@M@?$PvdPropertyFilter@UPvdClassInfoValueStructDefine@Vd@physx@@@Vd@physx@@QEAAXAEBU?$PxReadOnlyPropertyInfo@$0KL@VPxCloth@physx@@M@2@I@Z 00000001800ddd50 f i PvdMetaDataPvdBinding.obj
 0001:000dce00       ??$?R$0KM@VPxCloth@physx@@M@?$PvdPropertyFilter@UPvdClassInfoDefine@Vd@physx@@@Vd@physx@@QEAAXAEBU?$PxReadOnlyPropertyInfo@$0KM@VPxCloth@physx@@M@2@I@Z 00000001800dde00 f i PvdMetaDataPvdBinding.obj
 0001:000dceb0       ??$?R$0KM@VPxCloth@physx@@M@?$PvdPropertyFilter@UPvdClassInfoValueStructDefine@Vd@physx@@@Vd@physx@@QEAAXAEBU?$PxReadOnlyPropertyInfo@$0KM@VPxCloth@physx@@M@2@I@Z 00000001800ddeb0 f i PvdMetaDataPvdBinding.obj
 0001:000dcf60       ??$?R$0KN@VPxCloth@physx@@M@?$PvdPropertyFilter@UPvdClassInfoDefine@Vd@physx@@@Vd@physx@@QEAAXAEBU?$PxReadOnlyPropertyInfo@$0KN@VPxCloth@physx@@M@2@I@Z 00000001800ddf60 f i PvdMetaDataPvdBinding.obj
 0001:000dd010       ??$?R$0KN@VPxCloth@physx@@M@?$PvdPropertyFilter@UPvdClassInfoValueStructDefine@Vd@physx@@@Vd@physx@@QEAAXAEBU?$PxReadOnlyPropertyInfo@$0KN@VPxCloth@physx@@M@2@I@Z 00000001800de010 f i PvdMetaDataPvdBinding.obj
 0001:000dd0c0       ??$?R$0KO@VPxCloth@physx@@UPxFilterData@1@@?$PvdPropertyFilter@UPvdClassInfoDefine@Vd@physx@@@Vd@physx@@QEAAXAEBU?$PxReadOnlyPropertyInfo@$0KO@VPxCloth@physx@@UPxFilterData@2@@2@I@Z 00000001800de0c0 f i PvdMetaDataPvdBinding.obj
 0001:000dd170       ??$?R$0KO@VPxCloth@physx@@UPxFilterData@1@@?$PvdPropertyFilter@UPvdClassInfoValueStructDefine@Vd@physx@@@Vd@physx@@QEAAXAEBU?$PxReadOnlyPropertyInfo@$0KO@VPxCloth@physx@@UPxFilterData@2@@2@I@Z 00000001800de170 f i PvdMetaDataPvdBinding.obj
 0001:000dd220       ??$?R$0KP@VPxCloth@physx@@M@?$PvdPropertyFilter@UPvdClassInfoDefine@Vd@physx@@@Vd@physx@@QEAAXAEBU?$PxReadOnlyPropertyInfo@$0KP@VPxCloth@physx@@M@2@I@Z 00000001800de220 f i PvdMetaDataPvdBinding.obj
 0001:000dd2d0       ??$?R$0KP@VPxCloth@physx@@M@?$PvdPropertyFilter@UPvdClassInfoValueStructDefine@Vd@physx@@@Vd@physx@@QEAAXAEBU?$PxReadOnlyPropertyInfo@$0KP@VPxCloth@physx@@M@2@I@Z 00000001800de2d0 f i PvdMetaDataPvdBinding.obj
 0001:000dd380       ??$?R$0LA@VPxCloth@physx@@M@?$PvdPropertyFilter@UPvdClassInfoDefine@Vd@physx@@@Vd@physx@@QEAAXAEBU?$PxReadOnlyPropertyInfo@$0LA@VPxCloth@physx@@M@2@I@Z 00000001800de380 f i PvdMetaDataPvdBinding.obj
 0001:000dd430       ??$?R$0LA@VPxCloth@physx@@M@?$PvdPropertyFilter@UPvdClassInfoValueStructDefine@Vd@physx@@@Vd@physx@@QEAAXAEBU?$PxReadOnlyPropertyInfo@$0LA@VPxCloth@physx@@M@2@I@Z 00000001800de430 f i PvdMetaDataPvdBinding.obj
 0001:000dd4e0       ??$?R$0LB@VPxCloth@physx@@M@?$PvdPropertyFilter@UPvdClassInfoDefine@Vd@physx@@@Vd@physx@@QEAAXAEBU?$PxReadOnlyPropertyInfo@$0LB@VPxCloth@physx@@M@2@I@Z 00000001800de4e0 f i PvdMetaDataPvdBinding.obj
 0001:000dd590       ??$?R$0LB@VPxCloth@physx@@M@?$PvdPropertyFilter@UPvdClassInfoValueStructDefine@Vd@physx@@@Vd@physx@@QEAAXAEBU?$PxReadOnlyPropertyInfo@$0LB@VPxCloth@physx@@M@2@I@Z 00000001800de590 f i PvdMetaDataPvdBinding.obj
 0001:000dd640       ??$?R$0LC@VPxCloth@physx@@M@?$PvdPropertyFilter@UPvdClassInfoDefine@Vd@physx@@@Vd@physx@@QEAAXAEBU?$PxReadOnlyPropertyInfo@$0LC@VPxCloth@physx@@M@2@I@Z 00000001800de640 f i PvdMetaDataPvdBinding.obj
 0001:000dd6f0       ??$?R$0LC@VPxCloth@physx@@M@?$PvdPropertyFilter@UPvdClassInfoValueStructDefine@Vd@physx@@@Vd@physx@@QEAAXAEBU?$PxReadOnlyPropertyInfo@$0LC@VPxCloth@physx@@M@2@I@Z 00000001800de6f0 f i PvdMetaDataPvdBinding.obj
 0001:000dd7a0       ??$?R$0LD@VPxCloth@physx@@_N@?$PvdPropertyFilter@UPvdClassInfoDefine@Vd@physx@@@Vd@physx@@QEAAXAEBU?$PxReadOnlyPropertyInfo@$0LD@VPxCloth@physx@@_N@2@I@Z 00000001800de7a0 f i PvdMetaDataPvdBinding.obj
 0001:000dd850       ??$?R$0LD@VPxCloth@physx@@_N@?$PvdPropertyFilter@UPvdClassInfoValueStructDefine@Vd@physx@@@Vd@physx@@QEAAXAEBU?$PxReadOnlyPropertyInfo@$0LD@VPxCloth@physx@@_N@2@I@Z 00000001800de850 f i PvdMetaDataPvdBinding.obj
 0001:000dd900       ??$?R$0LE@VPxCloth@physx@@PEBD@?$PvdPropertyFilter@UPvdClassInfoDefine@Vd@physx@@@Vd@physx@@QEAAXAEBU?$PxReadOnlyPropertyInfo@$0LE@VPxCloth@physx@@PEBD@2@I@Z 00000001800de900 f i PvdMetaDataPvdBinding.obj
 0001:000dd9b0       ??$?R$0LE@VPxCloth@physx@@PEBD@?$PvdPropertyFilter@UPvdClassInfoValueStructDefine@Vd@physx@@@Vd@physx@@QEAAXAEBU?$PxReadOnlyPropertyInfo@$0LE@VPxCloth@physx@@PEBD@2@I@Z 00000001800de9b0 f i PvdMetaDataPvdBinding.obj
 0001:000dda60       ??$?R$0LH@VPxParticleBase@physx@@M@?$PvdPropertyFilter@UPvdClassInfoDefine@Vd@physx@@@Vd@physx@@QEAAXAEBU?$PxReadOnlyPropertyInfo@$0LH@VPxParticleBase@physx@@M@2@I@Z 00000001800dea60 f i PvdMetaDataPvdBinding.obj
 0001:000ddb10       ??$?R$0LH@VPxParticleBase@physx@@M@?$PvdPropertyFilter@UPvdClassInfoValueStructDefine@Vd@physx@@@Vd@physx@@QEAAXAEBU?$PxReadOnlyPropertyInfo@$0LH@VPxParticleBase@physx@@M@2@I@Z 00000001800deb10 f i PvdMetaDataPvdBinding.obj
 0001:000ddbc0       ??$?R$0LI@VPxParticleBase@physx@@VPxVec3@1@@?$PvdPropertyFilter@UPvdClassInfoDefine@Vd@physx@@@Vd@physx@@QEAAXAEBU?$PxReadOnlyPropertyInfo@$0LI@VPxParticleBase@physx@@VPxVec3@2@@2@I@Z 00000001800debc0 f i PvdMetaDataPvdBinding.obj
 0001:000ddc70       ??$?R$0LI@VPxParticleBase@physx@@VPxVec3@1@@?$PvdPropertyFilter@UPvdClassInfoValueStructDefine@Vd@physx@@@Vd@physx@@QEAAXAEBU?$PxReadOnlyPropertyInfo@$0LI@VPxParticleBase@physx@@VPxVec3@2@@2@I@Z 00000001800dec70 f i PvdMetaDataPvdBinding.obj
 0001:000ddd20       ??$?R$0LJ@VPxParticleBase@physx@@M@?$PvdPropertyFilter@UPvdClassInfoDefine@Vd@physx@@@Vd@physx@@QEAAXAEBU?$PxReadOnlyPropertyInfo@$0LJ@VPxParticleBase@physx@@M@2@I@Z 00000001800ded20 f i PvdMetaDataPvdBinding.obj
 0001:000dddd0       ??$?R$0LJ@VPxParticleBase@physx@@M@?$PvdPropertyFilter@UPvdClassInfoValueStructDefine@Vd@physx@@@Vd@physx@@QEAAXAEBU?$PxReadOnlyPropertyInfo@$0LJ@VPxParticleBase@physx@@M@2@I@Z 00000001800dedd0 f i PvdMetaDataPvdBinding.obj
 0001:000dde80       ??$?R$0LK@VPxParticleBase@physx@@M@?$PvdPropertyFilter@UPvdClassInfoDefine@Vd@physx@@@Vd@physx@@QEAAXAEBU?$PxReadOnlyPropertyInfo@$0LK@VPxParticleBase@physx@@M@2@I@Z 00000001800dee80 f i PvdMetaDataPvdBinding.obj
 0001:000ddf30       ??$?R$0LK@VPxParticleBase@physx@@M@?$PvdPropertyFilter@UPvdClassInfoValueStructDefine@Vd@physx@@@Vd@physx@@QEAAXAEBU?$PxReadOnlyPropertyInfo@$0LK@VPxParticleBase@physx@@M@2@I@Z 00000001800def30 f i PvdMetaDataPvdBinding.obj
 0001:000ddfe0       ??$?R$0LL@VPxParticleBase@physx@@M@?$PvdPropertyFilter@UPvdClassInfoDefine@Vd@physx@@@Vd@physx@@QEAAXAEBU?$PxReadOnlyPropertyInfo@$0LL@VPxParticleBase@physx@@M@2@I@Z 00000001800defe0 f i PvdMetaDataPvdBinding.obj
 0001:000de090       ??$?R$0LL@VPxParticleBase@physx@@M@?$PvdPropertyFilter@UPvdClassInfoValueStructDefine@Vd@physx@@@Vd@physx@@QEAAXAEBU?$PxReadOnlyPropertyInfo@$0LL@VPxParticleBase@physx@@M@2@I@Z 00000001800df090 f i PvdMetaDataPvdBinding.obj
 0001:000de140       ??$?R$0LM@VPxParticleBase@physx@@M@?$PvdPropertyFilter@UPvdClassInfoDefine@Vd@physx@@@Vd@physx@@QEAAXAEBU?$PxReadOnlyPropertyInfo@$0LM@VPxParticleBase@physx@@M@2@I@Z 00000001800df140 f i PvdMetaDataPvdBinding.obj
 0001:000de1f0       ??$?R$0LM@VPxParticleBase@physx@@M@?$PvdPropertyFilter@UPvdClassInfoValueStructDefine@Vd@physx@@@Vd@physx@@QEAAXAEBU?$PxReadOnlyPropertyInfo@$0LM@VPxParticleBase@physx@@M@2@I@Z 00000001800df1f0 f i PvdMetaDataPvdBinding.obj
 0001:000de2a0       ??$?R$0LN@VPxParticleBase@physx@@UPxFilterData@1@@?$PvdPropertyFilter@UPvdClassInfoDefine@Vd@physx@@@Vd@physx@@QEAAXAEBU?$PxReadOnlyPropertyInfo@$0LN@VPxParticleBase@physx@@UPxFilterData@2@@2@I@Z 00000001800df2a0 f i PvdMetaDataPvdBinding.obj
 0001:000de350       ??$?R$0LN@VPxParticleBase@physx@@UPxFilterData@1@@?$PvdPropertyFilter@UPvdClassInfoValueStructDefine@Vd@physx@@@Vd@physx@@QEAAXAEBU?$PxReadOnlyPropertyInfo@$0LN@VPxParticleBase@physx@@UPxFilterData@2@@2@I@Z 00000001800df350 f i PvdMetaDataPvdBinding.obj
 0001:000de400       ??$?R$0LO@VPxParticleBase@physx@@V?$PxFlags@W4Enum@PxParticleBaseFlag@physx@@G@1@@?$PvdPropertyFilter@UPvdClassInfoDefine@Vd@physx@@@Vd@physx@@QEAAXAEBU?$PxReadOnlyPropertyInfo@$0LO@VPxParticleBase@physx@@V?$PxFlags@W4Enum@PxParticleBaseFlag@physx@@G@2@@2@I@Z 00000001800df400 f i PvdMetaDataPvdBinding.obj
 0001:000de4e0       ??$?R$0LO@VPxParticleBase@physx@@V?$PxFlags@W4Enum@PxParticleBaseFlag@physx@@G@1@@?$PvdPropertyFilter@UPvdClassInfoValueStructDefine@Vd@physx@@@Vd@physx@@QEAAXAEBU?$PxReadOnlyPropertyInfo@$0LO@VPxParticleBase@physx@@V?$PxFlags@W4Enum@PxParticleBaseFlag@physx@@G@2@@2@I@Z 00000001800df4e0 f i PvdMetaDataPvdBinding.obj
 0001:000de590       ??$?R$0LP@VPxParticleBase@physx@@I@?$PvdPropertyFilter@UPvdClassInfoDefine@Vd@physx@@@Vd@physx@@QEAAXAEBU?$PxReadOnlyPropertyInfo@$0LP@VPxParticleBase@physx@@I@2@I@Z 00000001800df590 f i PvdMetaDataPvdBinding.obj
 0001:000de640       ??$?R$0LP@VPxParticleBase@physx@@I@?$PvdPropertyFilter@UPvdClassInfoValueStructDefine@Vd@physx@@@Vd@physx@@QEAAXAEBU?$PxReadOnlyPropertyInfo@$0LP@VPxParticleBase@physx@@I@2@I@Z 00000001800df640 f i PvdMetaDataPvdBinding.obj
 0001:000de6f0       ??$?R$0M@VPxMaterial@physx@@I@?$PvdPropertyFilter@UPvdClassInfoDefine@Vd@physx@@@Vd@physx@@QEAAXAEBU?$PxReadOnlyPropertyInfo@$0M@VPxMaterial@physx@@I@2@I@Z 00000001800df6f0 f i PvdMetaDataPvdBinding.obj
 0001:000de7a0       ??$?R$0M@VPxMaterial@physx@@I@?$PvdPropertyFilter@UPvdClassInfoValueStructDefine@Vd@physx@@@Vd@physx@@QEAAXAEBU?$PxReadOnlyPropertyInfo@$0M@VPxMaterial@physx@@I@2@I@Z 00000001800df7a0 f i PvdMetaDataPvdBinding.obj
 0001:000de840       ??$?R$0MA@VPxParticleBase@physx@@M@?$PvdPropertyFilter@UPvdClassInfoDefine@Vd@physx@@@Vd@physx@@QEAAXAEBU?$PxReadOnlyPropertyInfo@$0MA@VPxParticleBase@physx@@M@2@I@Z 00000001800df840 f i PvdMetaDataPvdBinding.obj
 0001:000de8f0       ??$?R$0MA@VPxParticleBase@physx@@M@?$PvdPropertyFilter@UPvdClassInfoValueStructDefine@Vd@physx@@@Vd@physx@@QEAAXAEBU?$PxReadOnlyPropertyInfo@$0MA@VPxParticleBase@physx@@M@2@I@Z 00000001800df8f0 f i PvdMetaDataPvdBinding.obj
 0001:000de9a0       ??$?R$0MB@VPxParticleBase@physx@@M@?$PvdPropertyFilter@UPvdClassInfoDefine@Vd@physx@@@Vd@physx@@QEAAXAEBU?$PxReadOnlyPropertyInfo@$0MB@VPxParticleBase@physx@@M@2@I@Z 00000001800df9a0 f i PvdMetaDataPvdBinding.obj
 0001:000dea50       ??$?R$0MB@VPxParticleBase@physx@@M@?$PvdPropertyFilter@UPvdClassInfoValueStructDefine@Vd@physx@@@Vd@physx@@QEAAXAEBU?$PxReadOnlyPropertyInfo@$0MB@VPxParticleBase@physx@@M@2@I@Z 00000001800dfa50 f i PvdMetaDataPvdBinding.obj
 0001:000deb00       ??$?R$0MC@VPxParticleBase@physx@@M@?$PvdPropertyFilter@UPvdClassInfoDefine@Vd@physx@@@Vd@physx@@QEAAXAEBU?$PxReadOnlyPropertyInfo@$0MC@VPxParticleBase@physx@@M@2@I@Z 00000001800dfb00 f i PvdMetaDataPvdBinding.obj
 0001:000debb0       ??$?R$0MC@VPxParticleBase@physx@@M@?$PvdPropertyFilter@UPvdClassInfoValueStructDefine@Vd@physx@@@Vd@physx@@QEAAXAEBU?$PxReadOnlyPropertyInfo@$0MC@VPxParticleBase@physx@@M@2@I@Z 00000001800dfbb0 f i PvdMetaDataPvdBinding.obj
 0001:000dec60       ??$?R$0MD@VPxParticleBase@physx@@M@?$PvdPropertyFilter@UPvdClassInfoDefine@Vd@physx@@@Vd@physx@@QEAAXAEBU?$PxReadOnlyPropertyInfo@$0MD@VPxParticleBase@physx@@M@2@I@Z 00000001800dfc60 f i PvdMetaDataPvdBinding.obj
 0001:000ded10       ??$?R$0MD@VPxParticleBase@physx@@M@?$PvdPropertyFilter@UPvdClassInfoValueStructDefine@Vd@physx@@@Vd@physx@@QEAAXAEBU?$PxReadOnlyPropertyInfo@$0MD@VPxParticleBase@physx@@M@2@I@Z 00000001800dfd10 f i PvdMetaDataPvdBinding.obj
 0001:000dedc0       ??$?R$0ME@VPxParticleBase@physx@@V?$PxFlags@W4Enum@PxParticleReadDataFlag@physx@@G@1@@?$PvdPropertyFilter@UPvdClassInfoDefine@Vd@physx@@@Vd@physx@@QEAAXAEBU?$PxReadOnlyPropertyInfo@$0ME@VPxParticleBase@physx@@V?$PxFlags@W4Enum@PxParticleReadDataFlag@physx@@G@2@@2@I@Z 00000001800dfdc0 f i PvdMetaDataPvdBinding.obj
 0001:000deea0       ??$?R$0ME@VPxParticleBase@physx@@V?$PxFlags@W4Enum@PxParticleReadDataFlag@physx@@G@1@@?$PvdPropertyFilter@UPvdClassInfoValueStructDefine@Vd@physx@@@Vd@physx@@QEAAXAEBU?$PxReadOnlyPropertyInfo@$0ME@VPxParticleBase@physx@@V?$PxFlags@W4Enum@PxParticleReadDataFlag@physx@@G@2@@2@I@Z 00000001800dfea0 f i PvdMetaDataPvdBinding.obj
 0001:000def50       ??$?R$0MF@VPxParticleBase@physx@@UPxMetaDataPlane@1@@?$PvdPropertyFilter@UPvdClassInfoDefine@Vd@physx@@@Vd@physx@@QEAAXAEBU?$PxReadOnlyPropertyInfo@$0MF@VPxParticleBase@physx@@UPxMetaDataPlane@2@@2@I@Z 00000001800dff50 f i PvdMetaDataPvdBinding.obj
 0001:000df000       ??$?R$0MF@VPxParticleBase@physx@@UPxMetaDataPlane@1@@?$PvdPropertyFilter@UPvdClassInfoValueStructDefine@Vd@physx@@@Vd@physx@@QEAAXAEBU?$PxReadOnlyPropertyInfo@$0MF@VPxParticleBase@physx@@UPxMetaDataPlane@2@@2@I@Z 00000001800e0000 f i PvdMetaDataPvdBinding.obj
 0001:000df0b0       ??$?R$0MI@VPxParticleFluid@physx@@M@?$PvdPropertyFilter@UPvdClassInfoDefine@Vd@physx@@@Vd@physx@@QEAAXAEBU?$PxReadOnlyPropertyInfo@$0MI@VPxParticleFluid@physx@@M@2@I@Z 00000001800e00b0 f i PvdMetaDataPvdBinding.obj
 0001:000df160       ??$?R$0MI@VPxParticleFluid@physx@@M@?$PvdPropertyFilter@UPvdClassInfoValueStructDefine@Vd@physx@@@Vd@physx@@QEAAXAEBU?$PxReadOnlyPropertyInfo@$0MI@VPxParticleFluid@physx@@M@2@I@Z 00000001800e0160 f i PvdMetaDataPvdBinding.obj
 0001:000df210       ??$?R$0MJ@VPxParticleFluid@physx@@M@?$PvdPropertyFilter@UPvdClassInfoDefine@Vd@physx@@@Vd@physx@@QEAAXAEBU?$PxReadOnlyPropertyInfo@$0MJ@VPxParticleFluid@physx@@M@2@I@Z 00000001800e0210 f i PvdMetaDataPvdBinding.obj
 0001:000df2c0       ??$?R$0MJ@VPxParticleFluid@physx@@M@?$PvdPropertyFilter@UPvdClassInfoValueStructDefine@Vd@physx@@@Vd@physx@@QEAAXAEBU?$PxReadOnlyPropertyInfo@$0MJ@VPxParticleFluid@physx@@M@2@I@Z 00000001800e02c0 f i PvdMetaDataPvdBinding.obj
 0001:000df370       ??$?R$0MK@VPxParticleFluid@physx@@M@?$PvdPropertyFilter@UPvdClassInfoDefine@Vd@physx@@@Vd@physx@@QEAAXAEBU?$PxReadOnlyPropertyInfo@$0MK@VPxParticleFluid@physx@@M@2@I@Z 00000001800e0370 f i PvdMetaDataPvdBinding.obj
 0001:000df420       ??$?R$0MK@VPxParticleFluid@physx@@M@?$PvdPropertyFilter@UPvdClassInfoValueStructDefine@Vd@physx@@@Vd@physx@@QEAAXAEBU?$PxReadOnlyPropertyInfo@$0MK@VPxParticleFluid@physx@@M@2@I@Z 00000001800e0420 f i PvdMetaDataPvdBinding.obj
 0001:000df4d0       ??$?R$0ML@VPxParticleFluid@physx@@PEBD@?$PvdPropertyFilter@UPvdClassInfoDefine@Vd@physx@@@Vd@physx@@QEAAXAEBU?$PxReadOnlyPropertyInfo@$0ML@VPxParticleFluid@physx@@PEBD@2@I@Z 00000001800e04d0 f i PvdMetaDataPvdBinding.obj
 0001:000df580       ??$?R$0ML@VPxParticleFluid@physx@@PEBD@?$PvdPropertyFilter@UPvdClassInfoValueStructDefine@Vd@physx@@@Vd@physx@@QEAAXAEBU?$PxReadOnlyPropertyInfo@$0ML@VPxParticleFluid@physx@@PEBD@2@I@Z 00000001800e0580 f i PvdMetaDataPvdBinding.obj
 0001:000df630       ??$?R$0MO@VPxParticleSystem@physx@@PEBD@?$PvdPropertyFilter@UPvdClassInfoDefine@Vd@physx@@@Vd@physx@@QEAAXAEBU?$PxReadOnlyPropertyInfo@$0MO@VPxParticleSystem@physx@@PEBD@2@I@Z 00000001800e0630 f i PvdMetaDataPvdBinding.obj
 0001:000df6e0       ??$?R$0MO@VPxParticleSystem@physx@@PEBD@?$PvdPropertyFilter@UPvdClassInfoValueStructDefine@Vd@physx@@@Vd@physx@@QEAAXAEBU?$PxReadOnlyPropertyInfo@$0MO@VPxParticleSystem@physx@@PEBD@2@I@Z 00000001800e06e0 f i PvdMetaDataPvdBinding.obj
 0001:000df790       ??$?R$0N@VPxMaterial@physx@@M@?$PvdPropertyFilter@UPvdClassInfoDefine@Vd@physx@@@Vd@physx@@QEAAXAEBU?$PxReadOnlyPropertyInfo@$0N@VPxMaterial@physx@@M@2@I@Z 00000001800e0790 f i PvdMetaDataPvdBinding.obj
 0001:000df840       ??$?R$0N@VPxMaterial@physx@@M@?$PvdPropertyFilter@UPvdClassInfoValueStructDefine@Vd@physx@@@Vd@physx@@QEAAXAEBU?$PxReadOnlyPropertyInfo@$0N@VPxMaterial@physx@@M@2@I@Z 00000001800e0840 f i PvdMetaDataPvdBinding.obj
 0001:000df8f0       ??$?R$0NF@VPxTolerancesScale@physx@@_N@?$PvdPropertyFilter@UPvdClassInfoDefine@Vd@physx@@@Vd@physx@@QEAAXAEBU?$PxReadOnlyPropertyInfo@$0NF@VPxTolerancesScale@physx@@_N@2@I@Z 00000001800e08f0 f i PvdMetaDataPvdBinding.obj
 0001:000df9a0       ??$?R$0NF@VPxTolerancesScale@physx@@_N@?$PvdPropertyFilter@UPvdClassInfoValueStructDefine@Vd@physx@@@Vd@physx@@QEAAXAEBU?$PxReadOnlyPropertyInfo@$0NF@VPxTolerancesScale@physx@@_N@2@I@Z 00000001800e09a0 f i PvdMetaDataPvdBinding.obj
 0001:000dfa40       ??$?R$0NG@VPxTolerancesScale@physx@@M@?$PvdPropertyFilter@UPvdClassInfoDefine@Vd@physx@@@Vd@physx@@QEAAXAEBU?$PxReadOnlyPropertyInfo@$0NG@VPxTolerancesScale@physx@@M@2@I@Z 00000001800e0a40 f i PvdMetaDataPvdBinding.obj
 0001:000dfaf0       ??$?R$0NG@VPxTolerancesScale@physx@@M@?$PvdPropertyFilter@UPvdClassInfoValueStructDefine@Vd@physx@@@Vd@physx@@QEAAXAEBU?$PxReadOnlyPropertyInfo@$0NG@VPxTolerancesScale@physx@@M@2@I@Z 00000001800e0af0 f i PvdMetaDataPvdBinding.obj
 0001:000dfba0       ??$?R$0NH@VPxTolerancesScale@physx@@M@?$PvdPropertyFilter@UPvdClassInfoDefine@Vd@physx@@@Vd@physx@@QEAAXAEBU?$PxReadOnlyPropertyInfo@$0NH@VPxTolerancesScale@physx@@M@2@I@Z 00000001800e0ba0 f i PvdMetaDataPvdBinding.obj
 0001:000dfc50       ??$?R$0NH@VPxTolerancesScale@physx@@M@?$PvdPropertyFilter@UPvdClassInfoValueStructDefine@Vd@physx@@@Vd@physx@@QEAAXAEBU?$PxReadOnlyPropertyInfo@$0NH@VPxTolerancesScale@physx@@M@2@I@Z 00000001800e0c50 f i PvdMetaDataPvdBinding.obj
 0001:000dfd00       ??$?R$0NI@VPxTolerancesScale@physx@@M@?$PvdPropertyFilter@UPvdClassInfoDefine@Vd@physx@@@Vd@physx@@QEAAXAEBU?$PxReadOnlyPropertyInfo@$0NI@VPxTolerancesScale@physx@@M@2@I@Z 00000001800e0d00 f i PvdMetaDataPvdBinding.obj
 0001:000dfdb0       ??$?R$0NI@VPxTolerancesScale@physx@@M@?$PvdPropertyFilter@UPvdClassInfoValueStructDefine@Vd@physx@@@Vd@physx@@QEAAXAEBU?$PxReadOnlyPropertyInfo@$0NI@VPxTolerancesScale@physx@@M@2@I@Z 00000001800e0db0 f i PvdMetaDataPvdBinding.obj
 0001:000dfe60       ??$?R$0NN@VPxBoxGeometry@physx@@VPxVec3@1@@?$PvdPropertyFilter@UPvdClassInfoDefine@Vd@physx@@@Vd@physx@@QEAAXAEBU?$PxReadOnlyPropertyInfo@$0NN@VPxBoxGeometry@physx@@VPxVec3@2@@2@I@Z 00000001800e0e60 f i PvdMetaDataPvdBinding.obj
 0001:000dff10       ??$?R$0NN@VPxBoxGeometry@physx@@VPxVec3@1@@?$PvdPropertyFilter@UPvdClassInfoValueStructDefine@Vd@physx@@@Vd@physx@@QEAAXAEBU?$PxReadOnlyPropertyInfo@$0NN@VPxBoxGeometry@physx@@VPxVec3@2@@2@I@Z 00000001800e0f10 f i PvdMetaDataPvdBinding.obj
 0001:000dffb0       ??$?R$0O@VPxMaterial@physx@@M@?$PvdPropertyFilter@UPvdClassInfoDefine@Vd@physx@@@Vd@physx@@QEAAXAEBU?$PxReadOnlyPropertyInfo@$0O@VPxMaterial@physx@@M@2@I@Z 00000001800e0fb0 f i PvdMetaDataPvdBinding.obj
 0001:000e0060       ??$?R$0O@VPxMaterial@physx@@M@?$PvdPropertyFilter@UPvdClassInfoValueStructDefine@Vd@physx@@@Vd@physx@@QEAAXAEBU?$PxReadOnlyPropertyInfo@$0O@VPxMaterial@physx@@M@2@I@Z 00000001800e1060 f i PvdMetaDataPvdBinding.obj
 0001:000e0110       ??$?R$0OA@VPxCapsuleGeometry@physx@@M@?$PvdPropertyFilter@UPvdClassInfoDefine@Vd@physx@@@Vd@physx@@QEAAXAEBU?$PxReadOnlyPropertyInfo@$0OA@VPxCapsuleGeometry@physx@@M@2@I@Z 00000001800e1110 f i PvdMetaDataPvdBinding.obj
 0001:000e01c0       ??$?R$0OA@VPxCapsuleGeometry@physx@@M@?$PvdPropertyFilter@UPvdClassInfoValueStructDefine@Vd@physx@@@Vd@physx@@QEAAXAEBU?$PxReadOnlyPropertyInfo@$0OA@VPxCapsuleGeometry@physx@@M@2@I@Z 00000001800e11c0 f i PvdMetaDataPvdBinding.obj
 0001:000e0260       ??$?R$0OB@VPxCapsuleGeometry@physx@@M@?$PvdPropertyFilter@UPvdClassInfoDefine@Vd@physx@@@Vd@physx@@QEAAXAEBU?$PxReadOnlyPropertyInfo@$0OB@VPxCapsuleGeometry@physx@@M@2@I@Z 00000001800e1260 f i PvdMetaDataPvdBinding.obj
 0001:000e0310       ??$?R$0OB@VPxCapsuleGeometry@physx@@M@?$PvdPropertyFilter@UPvdClassInfoValueStructDefine@Vd@physx@@@Vd@physx@@QEAAXAEBU?$PxReadOnlyPropertyInfo@$0OB@VPxCapsuleGeometry@physx@@M@2@I@Z 00000001800e1310 f i PvdMetaDataPvdBinding.obj
 0001:000e03c0       ??$?R$0OE@VPxMeshScale@physx@@VPxVec3@1@@?$PvdPropertyFilter@UPvdClassInfoDefine@Vd@physx@@@Vd@physx@@QEAAXAEBU?$PxReadOnlyPropertyInfo@$0OE@VPxMeshScale@physx@@VPxVec3@2@@2@I@Z 00000001800e13c0 f i PvdMetaDataPvdBinding.obj
 0001:000e0470       ??$?R$0OE@VPxMeshScale@physx@@VPxVec3@1@@?$PvdPropertyFilter@UPvdClassInfoValueStructDefine@Vd@physx@@@Vd@physx@@QEAAXAEBU?$PxReadOnlyPropertyInfo@$0OE@VPxMeshScale@physx@@VPxVec3@2@@2@I@Z 00000001800e1470 f i PvdMetaDataPvdBinding.obj
 0001:000e0510       ??$?R$0OF@VPxMeshScale@physx@@VPxQuat@1@@?$PvdPropertyFilter@UPvdClassInfoDefine@Vd@physx@@@Vd@physx@@QEAAXAEBU?$PxReadOnlyPropertyInfo@$0OF@VPxMeshScale@physx@@VPxQuat@2@@2@I@Z 00000001800e1510 f i PvdMetaDataPvdBinding.obj
 0001:000e05c0       ??$?R$0OF@VPxMeshScale@physx@@VPxQuat@1@@?$PvdPropertyFilter@UPvdClassInfoValueStructDefine@Vd@physx@@@Vd@physx@@QEAAXAEBU?$PxReadOnlyPropertyInfo@$0OF@VPxMeshScale@physx@@VPxQuat@2@@2@I@Z 00000001800e15c0 f i PvdMetaDataPvdBinding.obj
 0001:000e0670       ??$?R$0OI@VPxConvexMeshGeometry@physx@@VPxMeshScale@1@@?$PvdPropertyFilter@UPvdClassInfoDefine@Vd@physx@@@Vd@physx@@QEAAXAEBU?$PxReadOnlyPropertyInfo@$0OI@VPxConvexMeshGeometry@physx@@VPxMeshScale@2@@2@I@Z 00000001800e1670 f i PvdMetaDataPvdBinding.obj
 0001:000e0710       ??$?R$0OI@VPxConvexMeshGeometry@physx@@VPxMeshScale@1@@?$PvdPropertyFilter@UPvdClassInfoValueStructDefine@Vd@physx@@@Vd@physx@@QEAAXAEBU?$PxReadOnlyPropertyInfo@$0OI@VPxConvexMeshGeometry@physx@@VPxMeshScale@2@@2@I@Z 00000001800e1710 f i PvdMetaDataPvdBinding.obj
